; Listing generated by Microsoft (R) Optimizing Compiler Version 19.29.30151.0 

	TITLE	C:\Users\ALEXANDER\Desktop\Cliente\COPY_FISH_WON_NEW\Binario\Client\EterLib\Distribute\GrpExpandedImageInstance.obj
	.686P
	.XMM
	include listing.inc
	.model	flat

INCLUDELIB LIBCMT
INCLUDELIB OLDNAMES

PUBLIC	??_7?$CDynamicPool@VCGraphicExpandedImageInstance@@@@6B@ ; CDynamicPool<CGraphicExpandedImageInstance>::`vftable'
PUBLIC	??_G?$CDynamicPool@VCGraphicExpandedImageInstance@@@@UAEPAXI@Z ; CDynamicPool<CGraphicExpandedImageInstance>::`scalar deleting destructor'
PUBLIC	??_R4?$CDynamicPool@VCGraphicExpandedImageInstance@@@@6B@ ; CDynamicPool<CGraphicExpandedImageInstance>::`RTTI Complete Object Locator'
PUBLIC	??_R0?AV?$CDynamicPool@VCGraphicExpandedImageInstance@@@@@8 ; CDynamicPool<CGraphicExpandedImageInstance> `RTTI Type Descriptor'
PUBLIC	??_R3?$CDynamicPool@VCGraphicExpandedImageInstance@@@@8 ; CDynamicPool<CGraphicExpandedImageInstance>::`RTTI Class Hierarchy Descriptor'
PUBLIC	??_R2?$CDynamicPool@VCGraphicExpandedImageInstance@@@@8 ; CDynamicPool<CGraphicExpandedImageInstance>::`RTTI Base Class Array'
PUBLIC	??_R1A@?0A@EA@?$CDynamicPool@VCGraphicExpandedImageInstance@@@@8 ; CDynamicPool<CGraphicExpandedImageInstance>::`RTTI Base Class Descriptor at (0,-1,0,64)'
EXTRN	??_E?$CDynamicPool@VCGraphicExpandedImageInstance@@@@UAEPAXI@Z:PROC ; CDynamicPool<CGraphicExpandedImageInstance>::`vector deleting destructor'
EXTRN	??_7type_info@@6B@:QWORD			; type_info::`vftable'
CONST	SEGMENT
?_Fake_alloc@std@@3U_Fake_allocator@1@B	ORG $+1		; std::_Fake_alloc
CONST	ENDS
;	COMDAT ??_R1A@?0A@EA@?$CDynamicPool@VCGraphicExpandedImageInstance@@@@8
rdata$r	SEGMENT
??_R1A@?0A@EA@?$CDynamicPool@VCGraphicExpandedImageInstance@@@@8 DD FLAT:??_R0?AV?$CDynamicPool@VCGraphicExpandedImageInstance@@@@@8 ; CDynamicPool<CGraphicExpandedImageInstance>::`RTTI Base Class Descriptor at (0,-1,0,64)'
	DD	00H
	DD	00H
	DD	0ffffffffH
	DD	00H
	DD	040H
	DD	FLAT:??_R3?$CDynamicPool@VCGraphicExpandedImageInstance@@@@8
rdata$r	ENDS
;	COMDAT ??_R2?$CDynamicPool@VCGraphicExpandedImageInstance@@@@8
rdata$r	SEGMENT
??_R2?$CDynamicPool@VCGraphicExpandedImageInstance@@@@8 DD FLAT:??_R1A@?0A@EA@?$CDynamicPool@VCGraphicExpandedImageInstance@@@@8 ; CDynamicPool<CGraphicExpandedImageInstance>::`RTTI Base Class Array'
rdata$r	ENDS
;	COMDAT ??_R3?$CDynamicPool@VCGraphicExpandedImageInstance@@@@8
rdata$r	SEGMENT
??_R3?$CDynamicPool@VCGraphicExpandedImageInstance@@@@8 DD 00H ; CDynamicPool<CGraphicExpandedImageInstance>::`RTTI Class Hierarchy Descriptor'
	DD	00H
	DD	01H
	DD	FLAT:??_R2?$CDynamicPool@VCGraphicExpandedImageInstance@@@@8
rdata$r	ENDS
;	COMDAT ??_R0?AV?$CDynamicPool@VCGraphicExpandedImageInstance@@@@@8
data$rs	SEGMENT
??_R0?AV?$CDynamicPool@VCGraphicExpandedImageInstance@@@@@8 DD FLAT:??_7type_info@@6B@ ; CDynamicPool<CGraphicExpandedImageInstance> `RTTI Type Descriptor'
	DD	00H
	DB	'.?AV?$CDynamicPool@VCGraphicExpandedImageInstance@@@@', 00H
data$rs	ENDS
;	COMDAT ??_R4?$CDynamicPool@VCGraphicExpandedImageInstance@@@@6B@
rdata$r	SEGMENT
??_R4?$CDynamicPool@VCGraphicExpandedImageInstance@@@@6B@ DD 00H ; CDynamicPool<CGraphicExpandedImageInstance>::`RTTI Complete Object Locator'
	DD	00H
	DD	00H
	DD	FLAT:??_R0?AV?$CDynamicPool@VCGraphicExpandedImageInstance@@@@@8
	DD	FLAT:??_R3?$CDynamicPool@VCGraphicExpandedImageInstance@@@@8
rdata$r	ENDS
;	COMDAT ??_7?$CDynamicPool@VCGraphicExpandedImageInstance@@@@6B@
CONST	SEGMENT
??_7?$CDynamicPool@VCGraphicExpandedImageInstance@@@@6B@ DD FLAT:??_R4?$CDynamicPool@VCGraphicExpandedImageInstance@@@@6B@ ; CDynamicPool<CGraphicExpandedImageInstance>::`vftable'
	DD	FLAT:??_E?$CDynamicPool@VCGraphicExpandedImageInstance@@@@UAEPAXI@Z
CONST	ENDS
PUBLIC	??_H@YGXPAXIIP6EPAX0@Z@Z			; `vector constructor iterator'
PUBLIC	??0exception@std@@QAE@ABV01@@Z			; std::exception::exception
PUBLIC	??1exception@std@@UAE@XZ			; std::exception::~exception
PUBLIC	?what@exception@std@@UBEPBDXZ			; std::exception::what
PUBLIC	??_Gexception@std@@UAEPAXI@Z			; std::exception::`scalar deleting destructor'
PUBLIC	??0bad_alloc@std@@QAE@ABV01@@Z			; std::bad_alloc::bad_alloc
PUBLIC	??_Gbad_alloc@std@@UAEPAXI@Z			; std::bad_alloc::`scalar deleting destructor'
PUBLIC	??0bad_array_new_length@std@@QAE@XZ		; std::bad_array_new_length::bad_array_new_length
PUBLIC	??1bad_array_new_length@std@@UAE@XZ		; std::bad_array_new_length::~bad_array_new_length
PUBLIC	??0bad_array_new_length@std@@QAE@ABV01@@Z	; std::bad_array_new_length::bad_array_new_length
PUBLIC	??_Gbad_array_new_length@std@@UAEPAXI@Z		; std::bad_array_new_length::`scalar deleting destructor'
PUBLIC	?_Throw_bad_array_new_length@std@@YAXXZ		; std::_Throw_bad_array_new_length
PUBLIC	??$_Allocate_manually_vector_aligned@U_Default_allocate_traits@std@@@std@@YAPAXI@Z ; std::_Allocate_manually_vector_aligned<std::_Default_allocate_traits>
PUBLIC	??0SPDTVertex@@QAE@XZ				; SPDTVertex::SPDTVertex
PUBLIC	?Type@CGraphicExpandedImageInstance@@SAKXZ	; CGraphicExpandedImageInstance::Type
PUBLIC	??0CGraphicExpandedImageInstance@@QAE@XZ	; CGraphicExpandedImageInstance::CGraphicExpandedImageInstance
PUBLIC	??1CGraphicExpandedImageInstance@@UAE@XZ	; CGraphicExpandedImageInstance::~CGraphicExpandedImageInstance
PUBLIC	?Destroy@CGraphicExpandedImageInstance@@QAEXXZ	; CGraphicExpandedImageInstance::Destroy
PUBLIC	?SetDepth@CGraphicExpandedImageInstance@@QAEXM@Z ; CGraphicExpandedImageInstance::SetDepth
PUBLIC	?SetOrigin@CGraphicExpandedImageInstance@@QAEXXZ ; CGraphicExpandedImageInstance::SetOrigin
PUBLIC	?SetOrigin@CGraphicExpandedImageInstance@@QAEXMM@Z ; CGraphicExpandedImageInstance::SetOrigin
PUBLIC	?SetRotation@CGraphicExpandedImageInstance@@QAEXM@Z ; CGraphicExpandedImageInstance::SetRotation
PUBLIC	?SetScale@CGraphicExpandedImageInstance@@QAEXMM@Z ; CGraphicExpandedImageInstance::SetScale
PUBLIC	?SetRenderingRect@CGraphicExpandedImageInstance@@QAEXMMMM@Z ; CGraphicExpandedImageInstance::SetRenderingRect
PUBLIC	?SetRenderingRectWithScale@CGraphicExpandedImageInstance@@QAEXMMMM@Z ; CGraphicExpandedImageInstance::SetRenderingRectWithScale
PUBLIC	?SetRenderingMode@CGraphicExpandedImageInstance@@QAEXH@Z ; CGraphicExpandedImageInstance::SetRenderingMode
PUBLIC	?Initialize@CGraphicExpandedImageInstance@@IAEXXZ ; CGraphicExpandedImageInstance::Initialize
PUBLIC	?OnRender@CGraphicExpandedImageInstance@@MAEXXZ	; CGraphicExpandedImageInstance::OnRender
PUBLIC	?OnSetImagePointer@CGraphicExpandedImageInstance@@MAEXXZ ; CGraphicExpandedImageInstance::OnSetImagePointer
PUBLIC	?OnIsType@CGraphicExpandedImageInstance@@MAEHK@Z ; CGraphicExpandedImageInstance::OnIsType
PUBLIC	?CreateSystem@CGraphicExpandedImageInstance@@SAXI@Z ; CGraphicExpandedImageInstance::CreateSystem
PUBLIC	?DestroySystem@CGraphicExpandedImageInstance@@SAXXZ ; CGraphicExpandedImageInstance::DestroySystem
PUBLIC	?New@CGraphicExpandedImageInstance@@SAPAV1@XZ	; CGraphicExpandedImageInstance::New
PUBLIC	?Delete@CGraphicExpandedImageInstance@@SAXPAV1@@Z ; CGraphicExpandedImageInstance::Delete
PUBLIC	??_GCGraphicExpandedImageInstance@@UAEPAXI@Z	; CGraphicExpandedImageInstance::`scalar deleting destructor'
PUBLIC	??1?$CDynamicPool@VCGraphicExpandedImageInstance@@@@UAE@XZ ; CDynamicPool<CGraphicExpandedImageInstance>::~CDynamicPool<CGraphicExpandedImageInstance>
PUBLIC	?Delete@?$CDynamicPool@VCGraphicExpandedImageInstance@@@@KAXPAVCGraphicExpandedImageInstance@@@Z ; CDynamicPool<CGraphicExpandedImageInstance>::Delete
PUBLIC	?_Reallocate_exactly@?$vector@PAVCGraphicExpandedImageInstance@@V?$allocator@PAVCGraphicExpandedImageInstance@@@std@@@std@@AAEXI@Z ; std::vector<CGraphicExpandedImageInstance *,std::allocator<CGraphicExpandedImageInstance *> >::_Reallocate_exactly
PUBLIC	?_Change_array@?$vector@PAVCGraphicExpandedImageInstance@@V?$allocator@PAVCGraphicExpandedImageInstance@@@std@@@std@@AAEXQAPAVCGraphicExpandedImageInstance@@II@Z ; std::vector<CGraphicExpandedImageInstance *,std::allocator<CGraphicExpandedImageInstance *> >::_Change_array
PUBLIC	?_Xlength@?$vector@PAVCGraphicExpandedImageInstance@@V?$allocator@PAVCGraphicExpandedImageInstance@@@std@@@std@@CAXXZ ; std::vector<CGraphicExpandedImageInstance *,std::allocator<CGraphicExpandedImageInstance *> >::_Xlength
PUBLIC	??$_Emplace_reallocate@ABQAVCGraphicExpandedImageInstance@@@?$vector@PAVCGraphicExpandedImageInstance@@V?$allocator@PAVCGraphicExpandedImageInstance@@@std@@@std@@QAEPAPAVCGraphicExpandedImageInstance@@QAPAV2@ABQAV2@@Z ; std::vector<CGraphicExpandedImageInstance *,std::allocator<CGraphicExpandedImageInstance *> >::_Emplace_reallocate<CGraphicExpandedImageInstance * const &>
PUBLIC	??$_Copy_memmove@PAPAVCGraphicExpandedImageInstance@@PAPAV1@@std@@YAPAPAVCGraphicExpandedImageInstance@@PAPAV1@00@Z ; std::_Copy_memmove<CGraphicExpandedImageInstance * *,CGraphicExpandedImageInstance * *>
PUBLIC	??_7exception@std@@6B@				; std::exception::`vftable'
PUBLIC	??_C@_0BC@EOODALEL@Unknown?5exception@		; `string'
PUBLIC	??_7bad_alloc@std@@6B@				; std::bad_alloc::`vftable'
PUBLIC	??_7bad_array_new_length@std@@6B@		; std::bad_array_new_length::`vftable'
PUBLIC	??_C@_0BF@KINCDENJ@bad?5array?5new?5length@	; `string'
PUBLIC	__TI3?AVbad_array_new_length@std@@
PUBLIC	__CTA3?AVbad_array_new_length@std@@
PUBLIC	??_R0?AVbad_array_new_length@std@@@8		; std::bad_array_new_length `RTTI Type Descriptor'
PUBLIC	__CT??_R0?AVbad_array_new_length@std@@@8??0bad_array_new_length@std@@QAE@ABV01@@Z12
PUBLIC	??_R0?AVbad_alloc@std@@@8			; std::bad_alloc `RTTI Type Descriptor'
PUBLIC	__CT??_R0?AVbad_alloc@std@@@8??0bad_alloc@std@@QAE@ABV01@@Z12
PUBLIC	??_R0?AVexception@std@@@8			; std::exception `RTTI Type Descriptor'
PUBLIC	__CT??_R0?AVexception@std@@@8??0exception@std@@QAE@ABV01@@Z12
PUBLIC	??_R4exception@std@@6B@				; std::exception::`RTTI Complete Object Locator'
PUBLIC	??_R3exception@std@@8				; std::exception::`RTTI Class Hierarchy Descriptor'
PUBLIC	??_R2exception@std@@8				; std::exception::`RTTI Base Class Array'
PUBLIC	??_R1A@?0A@EA@exception@std@@8			; std::exception::`RTTI Base Class Descriptor at (0,-1,0,64)'
PUBLIC	??_R4bad_alloc@std@@6B@				; std::bad_alloc::`RTTI Complete Object Locator'
PUBLIC	??_R3bad_alloc@std@@8				; std::bad_alloc::`RTTI Class Hierarchy Descriptor'
PUBLIC	??_R2bad_alloc@std@@8				; std::bad_alloc::`RTTI Base Class Array'
PUBLIC	??_R1A@?0A@EA@bad_alloc@std@@8			; std::bad_alloc::`RTTI Base Class Descriptor at (0,-1,0,64)'
PUBLIC	??_R4bad_array_new_length@std@@6B@		; std::bad_array_new_length::`RTTI Complete Object Locator'
PUBLIC	??_R3bad_array_new_length@std@@8		; std::bad_array_new_length::`RTTI Class Hierarchy Descriptor'
PUBLIC	??_R2bad_array_new_length@std@@8		; std::bad_array_new_length::`RTTI Base Class Array'
PUBLIC	??_R1A@?0A@EA@bad_array_new_length@std@@8	; std::bad_array_new_length::`RTTI Base Class Descriptor at (0,-1,0,64)'
PUBLIC	?ms_kPool@CGraphicExpandedImageInstance@@2V?$CDynamicPool@VCGraphicExpandedImageInstance@@@@A ; CGraphicExpandedImageInstance::ms_kPool
PUBLIC	??_7CGraphicExpandedImageInstance@@6B@		; CGraphicExpandedImageInstance::`vftable'
PUBLIC	?ms_singleton@?$CSingleton@VCStateManager@@@@0PAVCStateManager@@A ; CSingleton<CStateManager>::ms_singleton
PUBLIC	??_C@_0BO@COPDODEE@CGraphicExpandedImageInstance@ ; `string'
PUBLIC	??_C@_0BA@FOIKENOD@vector?5too?5long@		; `string'
PUBLIC	??_R4CGraphicExpandedImageInstance@@6B@		; CGraphicExpandedImageInstance::`RTTI Complete Object Locator'
PUBLIC	??_R0?AVCGraphicExpandedImageInstance@@@8	; CGraphicExpandedImageInstance `RTTI Type Descriptor'
PUBLIC	??_R3CGraphicExpandedImageInstance@@8		; CGraphicExpandedImageInstance::`RTTI Class Hierarchy Descriptor'
PUBLIC	??_R2CGraphicExpandedImageInstance@@8		; CGraphicExpandedImageInstance::`RTTI Base Class Array'
PUBLIC	??_R1A@?0A@EA@CGraphicExpandedImageInstance@@8	; CGraphicExpandedImageInstance::`RTTI Base Class Descriptor at (0,-1,0,64)'
PUBLIC	??_R1A@?0A@EA@CGraphicImageInstance@@8		; CGraphicImageInstance::`RTTI Base Class Descriptor at (0,-1,0,64)'
PUBLIC	??_R0?AVCGraphicImageInstance@@@8		; CGraphicImageInstance `RTTI Type Descriptor'
PUBLIC	??_R3CGraphicImageInstance@@8			; CGraphicImageInstance::`RTTI Class Hierarchy Descriptor'
PUBLIC	??_R2CGraphicImageInstance@@8			; CGraphicImageInstance::`RTTI Base Class Array'
PUBLIC	__real@3c8efa35
PUBLIC	__real@3f000000
PUBLIC	__real@3f800000
PUBLIC	__real@437f0000
PUBLIC	__xmm@80000000800000008000000080000000
EXTRN	??2@YAPAXI@Z:PROC				; operator new
EXTRN	??3@YAXPAXI@Z:PROC				; operator delete
EXTRN	_atexit:PROC
EXTRN	__Init_thread_header:PROC
EXTRN	__Init_thread_abort:PROC
EXTRN	__Init_thread_footer:PROC
EXTRN	__invalid_parameter_noinfo_noreturn:PROC
EXTRN	___std_exception_copy:PROC
EXTRN	___std_exception_destroy:PROC
EXTRN	??_Eexception@std@@UAEPAXI@Z:PROC		; std::exception::`vector deleting destructor'
EXTRN	??_Ebad_alloc@std@@UAEPAXI@Z:PROC		; std::bad_alloc::`vector deleting destructor'
EXTRN	??_Ebad_array_new_length@std@@UAEPAXI@Z:PROC	; std::bad_array_new_length::`vector deleting destructor'
EXTRN	?_Xlength_error@std@@YAXPBD@Z:PROC		; std::_Xlength_error
EXTRN	?GetCRC32@@YAKPBDI@Z:PROC			; GetCRC32
EXTRN	?SetDefaultIndexBuffer@CGraphicBase@@SAXI@Z:PROC ; CGraphicBase::SetDefaultIndexBuffer
EXTRN	?SetPDTStream@CGraphicBase@@SA_NPAUSPDTVertex@@I@Z:PROC ; CGraphicBase::SetPDTStream
EXTRN	?GetWidth@CGraphicTexture@@QBEHXZ:PROC		; CGraphicTexture::GetWidth
EXTRN	?GetHeight@CGraphicTexture@@QBEHXZ:PROC		; CGraphicTexture::GetHeight
EXTRN	?GetD3DTexture@CGraphicTexture@@QBEPAUIDirect3DTexture8@@XZ:PROC ; CGraphicTexture::GetD3DTexture
EXTRN	?GetWidth@CGraphicImage@@QBEHXZ:PROC		; CGraphicImage::GetWidth
EXTRN	?GetHeight@CGraphicImage@@QBEHXZ:PROC		; CGraphicImage::GetHeight
EXTRN	?GetRectReference@CGraphicImage@@QBEABUtagRECT@@XZ:PROC ; CGraphicImage::GetRectReference
EXTRN	?GetTexturePointer@CGraphicImage@@QAEPAVCGraphicTexture@@XZ:PROC ; CGraphicImage::GetTexturePointer
EXTRN	?IsType@CGraphicImageInstance@@QAEHK@Z:PROC	; CGraphicImageInstance::IsType
EXTRN	??0CGraphicImageInstance@@QAE@XZ:PROC		; CGraphicImageInstance::CGraphicImageInstance
EXTRN	??1CGraphicImageInstance@@UAE@XZ:PROC		; CGraphicImageInstance::~CGraphicImageInstance
EXTRN	?Destroy@CGraphicImageInstance@@QAEXXZ:PROC	; CGraphicImageInstance::Destroy
EXTRN	?IsEmpty@CGraphicImageInstance@@QBE_NXZ:PROC	; CGraphicImageInstance::IsEmpty
EXTRN	?GetWidth@CGraphicImageInstance@@QAEHXZ:PROC	; CGraphicImageInstance::GetWidth
EXTRN	?GetHeight@CGraphicImageInstance@@QAEHXZ:PROC	; CGraphicImageInstance::GetHeight
EXTRN	??_ECGraphicExpandedImageInstance@@UAEPAXI@Z:PROC ; CGraphicExpandedImageInstance::`vector deleting destructor'
EXTRN	?SaveRenderState@CStateManager@@QAEXW4_D3DRENDERSTATETYPE@@K@Z:PROC ; CStateManager::SaveRenderState
EXTRN	?RestoreRenderState@CStateManager@@QAEXW4_D3DRENDERSTATETYPE@@@Z:PROC ; CStateManager::RestoreRenderState
EXTRN	?SetRenderState@CStateManager@@QAEXW4_D3DRENDERSTATETYPE@@K@Z:PROC ; CStateManager::SetRenderState
EXTRN	?SetTexture@CStateManager@@QAEXKPAUIDirect3DBaseTexture8@@@Z:PROC ; CStateManager::SetTexture
EXTRN	?SetVertexShader@CStateManager@@QAEXK@Z:PROC	; CStateManager::SetVertexShader
EXTRN	?DrawIndexedPrimitive@CStateManager@@QAEJW4_D3DPRIMITIVETYPE@@IIII@Z:PROC ; CStateManager::DrawIndexedPrimitive
EXTRN	@__security_check_cookie@4:PROC
EXTRN	__CxxThrowException@8:PROC
EXTRN	___CxxFrameHandler3:PROC
EXTRN	__ftoui3:PROC
EXTRN	__libm_sse2_cos_precise:PROC
EXTRN	__libm_sse2_sin_precise:PROC
EXTRN	_memmove:PROC
EXTRN	__Init_thread_epoch:DWORD
EXTRN	___security_cookie:DWORD
EXTRN	__fltused:DWORD
EXTRN	__tls_array:DWORD
EXTRN	__tls_index:DWORD
;	COMDAT ?ms_singleton@?$CSingleton@VCStateManager@@@@0PAVCStateManager@@A
_BSS	SEGMENT
?ms_singleton@?$CSingleton@VCStateManager@@@@0PAVCStateManager@@A DD 01H DUP (?) ; CSingleton<CStateManager>::ms_singleton
_BSS	ENDS
;	COMDAT ?s_dwType@?1??Type@CGraphicExpandedImageInstance@@SAKXZ@4KA
_BSS	SEGMENT
?s_dwType@?1??Type@CGraphicExpandedImageInstance@@SAKXZ@4KA DD 01H DUP (?) ; `CGraphicExpandedImageInstance::Type'::`2'::s_dwType
_BSS	ENDS
;	COMDAT ?$TSS0@?1??Type@CGraphicExpandedImageInstance@@SAKXZ@4HA
_BSS	SEGMENT
?$TSS0@?1??Type@CGraphicExpandedImageInstance@@SAKXZ@4HA DD 01H DUP (?) ; `CGraphicExpandedImageInstance::Type'::`2'::$TSS0
_BSS	ENDS
CRT$XCU	SEGMENT
??ms_kPool$initializer$@CGraphicExpandedImageInstance@@2P6AXXZA@@3P6AXXZA DD FLAT:??__E?ms_kPool@CGraphicExpandedImageInstance@@2V?$CDynamicPool@VCGraphicExpandedImageInstance@@@@A@@YAXXZ ; ??ms_kPool$initializer$@CGraphicExpandedImageInstance@@2P6AXXZA@@3P6AXXZA
CRT$XCU	ENDS
;	COMDAT __xmm@80000000800000008000000080000000
CONST	SEGMENT
__xmm@80000000800000008000000080000000 DB 00H, 00H, 00H, 080H, 00H, 00H, 00H
	DB	080H, 00H, 00H, 00H, 080H, 00H, 00H, 00H, 080H
CONST	ENDS
;	COMDAT __real@437f0000
CONST	SEGMENT
__real@437f0000 DD 0437f0000r			; 255
CONST	ENDS
;	COMDAT __real@3f800000
CONST	SEGMENT
__real@3f800000 DD 03f800000r			; 1
CONST	ENDS
;	COMDAT __real@3f000000
CONST	SEGMENT
__real@3f000000 DD 03f000000r			; 0.5
CONST	ENDS
;	COMDAT __real@3c8efa35
CONST	SEGMENT
__real@3c8efa35 DD 03c8efa35r			; 0.0174533
CONST	ENDS
;	COMDAT ??_R2CGraphicImageInstance@@8
rdata$r	SEGMENT
??_R2CGraphicImageInstance@@8 DD FLAT:??_R1A@?0A@EA@CGraphicImageInstance@@8 ; CGraphicImageInstance::`RTTI Base Class Array'
rdata$r	ENDS
;	COMDAT ??_R3CGraphicImageInstance@@8
rdata$r	SEGMENT
??_R3CGraphicImageInstance@@8 DD 00H			; CGraphicImageInstance::`RTTI Class Hierarchy Descriptor'
	DD	00H
	DD	01H
	DD	FLAT:??_R2CGraphicImageInstance@@8
rdata$r	ENDS
;	COMDAT ??_R0?AVCGraphicImageInstance@@@8
data$rs	SEGMENT
??_R0?AVCGraphicImageInstance@@@8 DD FLAT:??_7type_info@@6B@ ; CGraphicImageInstance `RTTI Type Descriptor'
	DD	00H
	DB	'.?AVCGraphicImageInstance@@', 00H
data$rs	ENDS
;	COMDAT ??_R1A@?0A@EA@CGraphicImageInstance@@8
rdata$r	SEGMENT
??_R1A@?0A@EA@CGraphicImageInstance@@8 DD FLAT:??_R0?AVCGraphicImageInstance@@@8 ; CGraphicImageInstance::`RTTI Base Class Descriptor at (0,-1,0,64)'
	DD	00H
	DD	00H
	DD	0ffffffffH
	DD	00H
	DD	040H
	DD	FLAT:??_R3CGraphicImageInstance@@8
rdata$r	ENDS
;	COMDAT ??_R1A@?0A@EA@CGraphicExpandedImageInstance@@8
rdata$r	SEGMENT
??_R1A@?0A@EA@CGraphicExpandedImageInstance@@8 DD FLAT:??_R0?AVCGraphicExpandedImageInstance@@@8 ; CGraphicExpandedImageInstance::`RTTI Base Class Descriptor at (0,-1,0,64)'
	DD	01H
	DD	00H
	DD	0ffffffffH
	DD	00H
	DD	040H
	DD	FLAT:??_R3CGraphicExpandedImageInstance@@8
rdata$r	ENDS
;	COMDAT ??_R2CGraphicExpandedImageInstance@@8
rdata$r	SEGMENT
??_R2CGraphicExpandedImageInstance@@8 DD FLAT:??_R1A@?0A@EA@CGraphicExpandedImageInstance@@8 ; CGraphicExpandedImageInstance::`RTTI Base Class Array'
	DD	FLAT:??_R1A@?0A@EA@CGraphicImageInstance@@8
rdata$r	ENDS
;	COMDAT ??_R3CGraphicExpandedImageInstance@@8
rdata$r	SEGMENT
??_R3CGraphicExpandedImageInstance@@8 DD 00H		; CGraphicExpandedImageInstance::`RTTI Class Hierarchy Descriptor'
	DD	00H
	DD	02H
	DD	FLAT:??_R2CGraphicExpandedImageInstance@@8
rdata$r	ENDS
;	COMDAT ??_R0?AVCGraphicExpandedImageInstance@@@8
data$rs	SEGMENT
??_R0?AVCGraphicExpandedImageInstance@@@8 DD FLAT:??_7type_info@@6B@ ; CGraphicExpandedImageInstance `RTTI Type Descriptor'
	DD	00H
	DB	'.?AVCGraphicExpandedImageInstance@@', 00H
data$rs	ENDS
;	COMDAT ??_R4CGraphicExpandedImageInstance@@6B@
rdata$r	SEGMENT
??_R4CGraphicExpandedImageInstance@@6B@ DD 00H		; CGraphicExpandedImageInstance::`RTTI Complete Object Locator'
	DD	00H
	DD	00H
	DD	FLAT:??_R0?AVCGraphicExpandedImageInstance@@@8
	DD	FLAT:??_R3CGraphicExpandedImageInstance@@8
rdata$r	ENDS
;	COMDAT ??_C@_0BA@FOIKENOD@vector?5too?5long@
CONST	SEGMENT
??_C@_0BA@FOIKENOD@vector?5too?5long@ DB 'vector too long', 00H ; `string'
CONST	ENDS
;	COMDAT ??_C@_0BO@COPDODEE@CGraphicExpandedImageInstance@
CONST	SEGMENT
??_C@_0BO@COPDODEE@CGraphicExpandedImageInstance@ DB 'CGraphicExpandedIma'
	DB	'geInstance', 00H				; `string'
CONST	ENDS
;	COMDAT ??_7CGraphicExpandedImageInstance@@6B@
CONST	SEGMENT
??_7CGraphicExpandedImageInstance@@6B@ DD FLAT:??_R4CGraphicExpandedImageInstance@@6B@ ; CGraphicExpandedImageInstance::`vftable'
	DD	FLAT:??_ECGraphicExpandedImageInstance@@UAEPAXI@Z
	DD	FLAT:?OnRender@CGraphicExpandedImageInstance@@MAEXXZ
	DD	FLAT:?OnSetImagePointer@CGraphicExpandedImageInstance@@MAEXXZ
	DD	FLAT:?OnIsType@CGraphicExpandedImageInstance@@MAEHK@Z
CONST	ENDS
_DATA	SEGMENT
?ms_kPool@CGraphicExpandedImageInstance@@2V?$CDynamicPool@VCGraphicExpandedImageInstance@@@@A DD FLAT:??_7?$CDynamicPool@VCGraphicExpandedImageInstance@@@@6B@ ; CGraphicExpandedImageInstance::ms_kPool
	DD	00H
	DD	00H
	DD	00H
	DD	00H
	DD	00H
	DD	00H
	DD	00H
	DD	00H
_DATA	ENDS
;	COMDAT ??_R1A@?0A@EA@bad_array_new_length@std@@8
rdata$r	SEGMENT
??_R1A@?0A@EA@bad_array_new_length@std@@8 DD FLAT:??_R0?AVbad_array_new_length@std@@@8 ; std::bad_array_new_length::`RTTI Base Class Descriptor at (0,-1,0,64)'
	DD	02H
	DD	00H
	DD	0ffffffffH
	DD	00H
	DD	040H
	DD	FLAT:??_R3bad_array_new_length@std@@8
rdata$r	ENDS
;	COMDAT ??_R2bad_array_new_length@std@@8
rdata$r	SEGMENT
??_R2bad_array_new_length@std@@8 DD FLAT:??_R1A@?0A@EA@bad_array_new_length@std@@8 ; std::bad_array_new_length::`RTTI Base Class Array'
	DD	FLAT:??_R1A@?0A@EA@bad_alloc@std@@8
	DD	FLAT:??_R1A@?0A@EA@exception@std@@8
rdata$r	ENDS
;	COMDAT ??_R3bad_array_new_length@std@@8
rdata$r	SEGMENT
??_R3bad_array_new_length@std@@8 DD 00H			; std::bad_array_new_length::`RTTI Class Hierarchy Descriptor'
	DD	00H
	DD	03H
	DD	FLAT:??_R2bad_array_new_length@std@@8
rdata$r	ENDS
;	COMDAT ??_R4bad_array_new_length@std@@6B@
rdata$r	SEGMENT
??_R4bad_array_new_length@std@@6B@ DD 00H		; std::bad_array_new_length::`RTTI Complete Object Locator'
	DD	00H
	DD	00H
	DD	FLAT:??_R0?AVbad_array_new_length@std@@@8
	DD	FLAT:??_R3bad_array_new_length@std@@8
rdata$r	ENDS
;	COMDAT ??_R1A@?0A@EA@bad_alloc@std@@8
rdata$r	SEGMENT
??_R1A@?0A@EA@bad_alloc@std@@8 DD FLAT:??_R0?AVbad_alloc@std@@@8 ; std::bad_alloc::`RTTI Base Class Descriptor at (0,-1,0,64)'
	DD	01H
	DD	00H
	DD	0ffffffffH
	DD	00H
	DD	040H
	DD	FLAT:??_R3bad_alloc@std@@8
rdata$r	ENDS
;	COMDAT ??_R2bad_alloc@std@@8
rdata$r	SEGMENT
??_R2bad_alloc@std@@8 DD FLAT:??_R1A@?0A@EA@bad_alloc@std@@8 ; std::bad_alloc::`RTTI Base Class Array'
	DD	FLAT:??_R1A@?0A@EA@exception@std@@8
rdata$r	ENDS
;	COMDAT ??_R3bad_alloc@std@@8
rdata$r	SEGMENT
??_R3bad_alloc@std@@8 DD 00H				; std::bad_alloc::`RTTI Class Hierarchy Descriptor'
	DD	00H
	DD	02H
	DD	FLAT:??_R2bad_alloc@std@@8
rdata$r	ENDS
;	COMDAT ??_R4bad_alloc@std@@6B@
rdata$r	SEGMENT
??_R4bad_alloc@std@@6B@ DD 00H				; std::bad_alloc::`RTTI Complete Object Locator'
	DD	00H
	DD	00H
	DD	FLAT:??_R0?AVbad_alloc@std@@@8
	DD	FLAT:??_R3bad_alloc@std@@8
rdata$r	ENDS
;	COMDAT ??_R1A@?0A@EA@exception@std@@8
rdata$r	SEGMENT
??_R1A@?0A@EA@exception@std@@8 DD FLAT:??_R0?AVexception@std@@@8 ; std::exception::`RTTI Base Class Descriptor at (0,-1,0,64)'
	DD	00H
	DD	00H
	DD	0ffffffffH
	DD	00H
	DD	040H
	DD	FLAT:??_R3exception@std@@8
rdata$r	ENDS
;	COMDAT ??_R2exception@std@@8
rdata$r	SEGMENT
??_R2exception@std@@8 DD FLAT:??_R1A@?0A@EA@exception@std@@8 ; std::exception::`RTTI Base Class Array'
rdata$r	ENDS
;	COMDAT ??_R3exception@std@@8
rdata$r	SEGMENT
??_R3exception@std@@8 DD 00H				; std::exception::`RTTI Class Hierarchy Descriptor'
	DD	00H
	DD	01H
	DD	FLAT:??_R2exception@std@@8
rdata$r	ENDS
;	COMDAT ??_R4exception@std@@6B@
rdata$r	SEGMENT
??_R4exception@std@@6B@ DD 00H				; std::exception::`RTTI Complete Object Locator'
	DD	00H
	DD	00H
	DD	FLAT:??_R0?AVexception@std@@@8
	DD	FLAT:??_R3exception@std@@8
rdata$r	ENDS
;	COMDAT __CT??_R0?AVexception@std@@@8??0exception@std@@QAE@ABV01@@Z12
xdata$x	SEGMENT
__CT??_R0?AVexception@std@@@8??0exception@std@@QAE@ABV01@@Z12 DD 00H
	DD	FLAT:??_R0?AVexception@std@@@8
	DD	00H
	DD	0ffffffffH
	ORG $+4
	DD	0cH
	DD	FLAT:??0exception@std@@QAE@ABV01@@Z
xdata$x	ENDS
;	COMDAT ??_R0?AVexception@std@@@8
data$r	SEGMENT
??_R0?AVexception@std@@@8 DD FLAT:??_7type_info@@6B@	; std::exception `RTTI Type Descriptor'
	DD	00H
	DB	'.?AVexception@std@@', 00H
data$r	ENDS
;	COMDAT __CT??_R0?AVbad_alloc@std@@@8??0bad_alloc@std@@QAE@ABV01@@Z12
xdata$x	SEGMENT
__CT??_R0?AVbad_alloc@std@@@8??0bad_alloc@std@@QAE@ABV01@@Z12 DD 010H
	DD	FLAT:??_R0?AVbad_alloc@std@@@8
	DD	00H
	DD	0ffffffffH
	ORG $+4
	DD	0cH
	DD	FLAT:??0bad_alloc@std@@QAE@ABV01@@Z
xdata$x	ENDS
;	COMDAT ??_R0?AVbad_alloc@std@@@8
data$r	SEGMENT
??_R0?AVbad_alloc@std@@@8 DD FLAT:??_7type_info@@6B@	; std::bad_alloc `RTTI Type Descriptor'
	DD	00H
	DB	'.?AVbad_alloc@std@@', 00H
data$r	ENDS
;	COMDAT __CT??_R0?AVbad_array_new_length@std@@@8??0bad_array_new_length@std@@QAE@ABV01@@Z12
xdata$x	SEGMENT
__CT??_R0?AVbad_array_new_length@std@@@8??0bad_array_new_length@std@@QAE@ABV01@@Z12 DD 00H
	DD	FLAT:??_R0?AVbad_array_new_length@std@@@8
	DD	00H
	DD	0ffffffffH
	ORG $+4
	DD	0cH
	DD	FLAT:??0bad_array_new_length@std@@QAE@ABV01@@Z
xdata$x	ENDS
;	COMDAT ??_R0?AVbad_array_new_length@std@@@8
data$r	SEGMENT
??_R0?AVbad_array_new_length@std@@@8 DD FLAT:??_7type_info@@6B@ ; std::bad_array_new_length `RTTI Type Descriptor'
	DD	00H
	DB	'.?AVbad_array_new_length@std@@', 00H
data$r	ENDS
;	COMDAT __CTA3?AVbad_array_new_length@std@@
xdata$x	SEGMENT
__CTA3?AVbad_array_new_length@std@@ DD 03H
	DD	FLAT:__CT??_R0?AVbad_array_new_length@std@@@8??0bad_array_new_length@std@@QAE@ABV01@@Z12
	DD	FLAT:__CT??_R0?AVbad_alloc@std@@@8??0bad_alloc@std@@QAE@ABV01@@Z12
	DD	FLAT:__CT??_R0?AVexception@std@@@8??0exception@std@@QAE@ABV01@@Z12
xdata$x	ENDS
;	COMDAT __TI3?AVbad_array_new_length@std@@
xdata$x	SEGMENT
__TI3?AVbad_array_new_length@std@@ DD 00H
	DD	FLAT:??1bad_array_new_length@std@@UAE@XZ
	DD	00H
	DD	FLAT:__CTA3?AVbad_array_new_length@std@@
xdata$x	ENDS
;	COMDAT ??_C@_0BF@KINCDENJ@bad?5array?5new?5length@
CONST	SEGMENT
??_C@_0BF@KINCDENJ@bad?5array?5new?5length@ DB 'bad array new length', 00H ; `string'
CONST	ENDS
;	COMDAT ??_7bad_array_new_length@std@@6B@
CONST	SEGMENT
??_7bad_array_new_length@std@@6B@ DD FLAT:??_R4bad_array_new_length@std@@6B@ ; std::bad_array_new_length::`vftable'
	DD	FLAT:??_Ebad_array_new_length@std@@UAEPAXI@Z
	DD	FLAT:?what@exception@std@@UBEPBDXZ
CONST	ENDS
;	COMDAT ??_7bad_alloc@std@@6B@
CONST	SEGMENT
??_7bad_alloc@std@@6B@ DD FLAT:??_R4bad_alloc@std@@6B@	; std::bad_alloc::`vftable'
	DD	FLAT:??_Ebad_alloc@std@@UAEPAXI@Z
	DD	FLAT:?what@exception@std@@UBEPBDXZ
CONST	ENDS
;	COMDAT ??_C@_0BC@EOODALEL@Unknown?5exception@
CONST	SEGMENT
??_C@_0BC@EOODALEL@Unknown?5exception@ DB 'Unknown exception', 00H ; `string'
CONST	ENDS
;	COMDAT ??_7exception@std@@6B@
CONST	SEGMENT
??_7exception@std@@6B@ DD FLAT:??_R4exception@std@@6B@	; std::exception::`vftable'
	DD	FLAT:??_Eexception@std@@UAEPAXI@Z
	DD	FLAT:?what@exception@std@@UBEPBDXZ
CONST	ENDS
;	COMDAT xdata$x
xdata$x	SEGMENT
__unwindtable$?Alloc@?$CDynamicPool@VCGraphicExpandedImageInstance@@@@QAEPAVCGraphicExpandedImageInstance@@XZ DD 0ffffffffH
	DD	FLAT:__unwindfunclet$?Alloc@?$CDynamicPool@VCGraphicExpandedImageInstance@@@@QAEPAVCGraphicExpandedImageInstance@@XZ$0
__ehfuncinfo$?Alloc@?$CDynamicPool@VCGraphicExpandedImageInstance@@@@QAEPAVCGraphicExpandedImageInstance@@XZ DD 019930522H
	DD	01H
	DD	FLAT:__unwindtable$?Alloc@?$CDynamicPool@VCGraphicExpandedImageInstance@@@@QAEPAVCGraphicExpandedImageInstance@@XZ
	DD	2 DUP(00H)
	DD	2 DUP(00H)
	DD	00H
	DD	01H
xdata$x	ENDS
;	COMDAT xdata$x
xdata$x	SEGMENT
__unwindtable$?New@CGraphicExpandedImageInstance@@SAPAV1@XZ DD 0ffffffffH
	DD	FLAT:__unwindfunclet$?New@CGraphicExpandedImageInstance@@SAPAV1@XZ$0
__ehfuncinfo$?New@CGraphicExpandedImageInstance@@SAPAV1@XZ DD 019930522H
	DD	01H
	DD	FLAT:__unwindtable$?New@CGraphicExpandedImageInstance@@SAPAV1@XZ
	DD	2 DUP(00H)
	DD	2 DUP(00H)
	DD	00H
	DD	01H
xdata$x	ENDS
;	COMDAT xdata$x
xdata$x	SEGMENT
__ehfuncinfo$??1CGraphicExpandedImageInstance@@UAE@XZ DD 019930522H
	DD	00H
	DD	00H
	DD	2 DUP(00H)
	DD	2 DUP(00H)
	DD	00H
	DD	05H
xdata$x	ENDS
;	COMDAT xdata$x
xdata$x	SEGMENT
__unwindtable$?Type@CGraphicExpandedImageInstance@@SAKXZ DD 0ffffffffH
	DD	FLAT:__unwindfunclet$?Type@CGraphicExpandedImageInstance@@SAKXZ$0
__ehfuncinfo$?Type@CGraphicExpandedImageInstance@@SAKXZ DD 019930522H
	DD	01H
	DD	FLAT:__unwindtable$?Type@CGraphicExpandedImageInstance@@SAKXZ
	DD	2 DUP(00H)
	DD	2 DUP(00H)
	DD	00H
	DD	01H
xdata$x	ENDS
; Function compile flags: /Ogtp
; File D:\visual studio 2019\visual studio 2019\VC\Tools\MSVC\14.29.30133\include\xutility
;	COMDAT ??$_Copy_memmove@PAPAVCGraphicExpandedImageInstance@@PAPAV1@@std@@YAPAPAVCGraphicExpandedImageInstance@@PAPAV1@00@Z
_TEXT	SEGMENT
__First$ = 8						; size = 4
__Last$ = 12						; size = 4
__Dest$ = 16						; size = 4
??$_Copy_memmove@PAPAVCGraphicExpandedImageInstance@@PAPAV1@@std@@YAPAPAVCGraphicExpandedImageInstance@@PAPAV1@00@Z PROC ; std::_Copy_memmove<CGraphicExpandedImageInstance * *,CGraphicExpandedImageInstance * *>, COMDAT

; 4058 : _OutCtgIt _Copy_memmove(_CtgIt _First, _CtgIt _Last, _OutCtgIt _Dest) {

  00000	55		 push	 ebp
  00001	8b ec		 mov	 ebp, esp

; 4059 :     auto _FirstPtr              = _To_address(_First);
; 4060 :     auto _LastPtr               = _To_address(_Last);
; 4061 :     auto _DestPtr               = _To_address(_Dest);
; 4062 :     const char* const _First_ch = const_cast<const char*>(reinterpret_cast<const volatile char*>(_FirstPtr));
; 4063 :     const char* const _Last_ch  = const_cast<const char*>(reinterpret_cast<const volatile char*>(_LastPtr));
; 4064 :     char* const _Dest_ch        = const_cast<char*>(reinterpret_cast<const volatile char*>(_DestPtr));
; 4065 :     const auto _Count           = static_cast<size_t>(_Last_ch - _First_ch);

  00003	8b 45 08	 mov	 eax, DWORD PTR __First$[ebp]
  00006	56		 push	 esi

; 4066 :     _CSTD memmove(_Dest_ch, _First_ch, _Count);

  00007	8b 75 10	 mov	 esi, DWORD PTR __Dest$[ebp]
  0000a	57		 push	 edi
  0000b	8b 7d 0c	 mov	 edi, DWORD PTR __Last$[ebp]
  0000e	2b f8		 sub	 edi, eax
  00010	57		 push	 edi
  00011	50		 push	 eax
  00012	56		 push	 esi
  00013	e8 00 00 00 00	 call	 _memmove
  00018	83 c4 0c	 add	 esp, 12			; 0000000cH

; 4067 :     if constexpr (is_pointer_v<_OutCtgIt>) {
; 4068 :         return reinterpret_cast<_OutCtgIt>(_Dest_ch + _Count);

  0001b	8d 04 37	 lea	 eax, DWORD PTR [edi+esi]
  0001e	5f		 pop	 edi
  0001f	5e		 pop	 esi

; 4069 :     } else {
; 4070 :         return _Dest + (_LastPtr - _FirstPtr);
; 4071 :     }
; 4072 : }

  00020	5d		 pop	 ebp
  00021	c3		 ret	 0
??$_Copy_memmove@PAPAVCGraphicExpandedImageInstance@@PAPAV1@@std@@YAPAPAVCGraphicExpandedImageInstance@@PAPAV1@00@Z ENDP ; std::_Copy_memmove<CGraphicExpandedImageInstance * *,CGraphicExpandedImageInstance * *>
_TEXT	ENDS
; Function compile flags: /Ogtp
; File D:\visual studio 2019\visual studio 2019\VC\Tools\MSVC\14.29.30133\include\vector
; File D:\visual studio 2019\visual studio 2019\VC\Tools\MSVC\14.29.30133\include\xmemory
; File D:\visual studio 2019\visual studio 2019\VC\Tools\MSVC\14.29.30133\include\vector
; File D:\visual studio 2019\visual studio 2019\VC\Tools\MSVC\14.29.30133\include\xmemory
; File D:\visual studio 2019\visual studio 2019\VC\Tools\MSVC\14.29.30133\include\vector
; File D:\visual studio 2019\visual studio 2019\VC\Tools\MSVC\14.29.30133\include\xmemory
; File D:\visual studio 2019\visual studio 2019\VC\Tools\MSVC\14.29.30133\include\vector
; File D:\visual studio 2019\visual studio 2019\VC\Tools\MSVC\14.29.30133\include\xmemory
; File D:\visual studio 2019\visual studio 2019\VC\Tools\MSVC\14.29.30133\include\vector
; File D:\visual studio 2019\visual studio 2019\VC\Tools\MSVC\14.29.30133\include\xmemory
; File D:\visual studio 2019\visual studio 2019\VC\Tools\MSVC\14.29.30133\include\vector
; File D:\visual studio 2019\visual studio 2019\VC\Tools\MSVC\14.29.30133\include\xmemory
; File D:\visual studio 2019\visual studio 2019\VC\Tools\MSVC\14.29.30133\include\vector
; File D:\visual studio 2019\visual studio 2019\VC\Tools\MSVC\14.29.30133\include\xmemory
; File D:\visual studio 2019\visual studio 2019\VC\Tools\MSVC\14.29.30133\include\vector
;	COMDAT ??$_Emplace_reallocate@ABQAVCGraphicExpandedImageInstance@@@?$vector@PAVCGraphicExpandedImageInstance@@V?$allocator@PAVCGraphicExpandedImageInstance@@@std@@@std@@QAEPAPAVCGraphicExpandedImageInstance@@QAPAV2@ABQAV2@@Z
_TEXT	SEGMENT
__Newsize$1$ = -8					; size = 4
__Whereoff$1$ = -4					; size = 4
tv505 = -4						; size = 4
__Whereptr$ = 8						; size = 4
_<_Val_0>$ = 12						; size = 4
??$_Emplace_reallocate@ABQAVCGraphicExpandedImageInstance@@@?$vector@PAVCGraphicExpandedImageInstance@@V?$allocator@PAVCGraphicExpandedImageInstance@@@std@@@std@@QAEPAPAVCGraphicExpandedImageInstance@@QAPAV2@ABQAV2@@Z PROC ; std::vector<CGraphicExpandedImageInstance *,std::allocator<CGraphicExpandedImageInstance *> >::_Emplace_reallocate<CGraphicExpandedImageInstance * const &>, COMDAT
; _this$ = ecx

; 752  :     _CONSTEXPR20_CONTAINER pointer _Emplace_reallocate(const pointer _Whereptr, _Valty&&... _Val) {

  00000	55		 push	 ebp
  00001	8b ec		 mov	 ebp, esp
  00003	83 ec 08	 sub	 esp, 8

; 753  :         // reallocate and insert by perfectly forwarding _Val at _Whereptr
; 754  :         _Alty& _Al        = _Getal();
; 755  :         auto& _My_data    = _Mypair._Myval2;
; 756  :         pointer& _Myfirst = _My_data._Myfirst;
; 757  :         pointer& _Mylast  = _My_data._Mylast;
; 758  : 
; 759  :         _STL_INTERNAL_CHECK(_Mylast == _My_data._Myend); // check that we have no unused capacity
; 760  : 
; 761  :         const auto _Whereoff = static_cast<size_type>(_Whereptr - _Myfirst);

  00006	8b 45 08	 mov	 eax, DWORD PTR __Whereptr$[ebp]
  00009	53		 push	 ebx
  0000a	8b d9		 mov	 ebx, ecx
  0000c	56		 push	 esi
  0000d	57		 push	 edi
  0000e	8b 13		 mov	 edx, DWORD PTR [ebx]
  00010	2b c2		 sub	 eax, edx
  00012	c1 f8 02	 sar	 eax, 2
  00015	89 45 fc	 mov	 DWORD PTR __Whereoff$1$[ebp], eax

; 762  :         const auto _Oldsize  = static_cast<size_type>(_Mylast - _Myfirst);

  00018	8b 43 04	 mov	 eax, DWORD PTR [ebx+4]
  0001b	2b c2		 sub	 eax, edx
  0001d	c1 f8 02	 sar	 eax, 2

; 763  : 
; 764  :         if (_Oldsize == max_size()) {

  00020	3d ff ff ff 3f	 cmp	 eax, 1073741823		; 3fffffffH
  00025	0f 84 d2 00 00
	00		 je	 $LN74@Emplace_re

; 1546 :         return static_cast<size_type>(_My_data._Myend - _My_data._Myfirst);

  0002b	8b 4b 08	 mov	 ecx, DWORD PTR [ebx+8]

; 766  :         }
; 767  : 
; 768  :         const size_type _Newsize     = _Oldsize + 1;

  0002e	8d 78 01	 lea	 edi, DWORD PTR [eax+1]

; 1546 :         return static_cast<size_type>(_My_data._Myend - _My_data._Myfirst);

  00031	2b ca		 sub	 ecx, edx

; 766  :         }
; 767  : 
; 768  :         const size_type _Newsize     = _Oldsize + 1;

  00033	89 7d f8	 mov	 DWORD PTR __Newsize$1$[ebp], edi

; 1546 :         return static_cast<size_type>(_My_data._Myend - _My_data._Myfirst);

  00036	c1 f9 02	 sar	 ecx, 2

; 1675 :         if (_Oldcapacity > _Max - _Oldcapacity / 2) {

  00039	b8 ff ff ff 3f	 mov	 eax, 1073741823		; 3fffffffH
  0003e	8b d1		 mov	 edx, ecx
  00040	d1 ea		 shr	 edx, 1
  00042	2b c2		 sub	 eax, edx
  00044	3b c8		 cmp	 ecx, eax
  00046	76 17		 jbe	 SHORT $LN12@Emplace_re

; 1676 :             return _Max; // geometric growth would overflow

  00048	b8 fc ff ff ff	 mov	 eax, -4			; fffffffcH
  0004d	be ff ff ff 3f	 mov	 esi, 1073741823		; 3fffffffH
; File D:\visual studio 2019\visual studio 2019\VC\Tools\MSVC\14.29.30133\include\xmemory

; 229  :             return _Allocate_manually_vector_aligned<_Traits>(_Bytes);

  00052	50		 push	 eax
  00053	e8 00 00 00 00	 call	 ??$_Allocate_manually_vector_aligned@U_Default_allocate_traits@std@@@std@@YAPAXI@Z ; std::_Allocate_manually_vector_aligned<std::_Default_allocate_traits>
  00058	83 c4 04	 add	 esp, 4
  0005b	8b f8		 mov	 edi, eax
  0005d	eb 44		 jmp	 SHORT $LN23@Emplace_re
$LN12@Emplace_re:
; File D:\visual studio 2019\visual studio 2019\VC\Tools\MSVC\14.29.30133\include\vector

; 1679 :         const size_type _Geometric = _Oldcapacity + _Oldcapacity / 2;

  0005f	8d 04 0a	 lea	 eax, DWORD PTR [edx+ecx]
; File D:\visual studio 2019\visual studio 2019\VC\Tools\MSVC\14.29.30133\include\xmemory

; 60   :         if (_Count > _Max_possible) {

  00062	8b f7		 mov	 esi, edi
  00064	3b c7		 cmp	 eax, edi
  00066	0f 43 f0	 cmovae	 esi, eax
  00069	81 fe ff ff ff
	3f		 cmp	 esi, 1073741823		; 3fffffffH
  0006f	0f 87 8d 00 00
	00		 ja	 $LN75@Emplace_re

; 62   :         }
; 63   :     }
; 64   : 
; 65   :     return _Count * _Ty_size;

  00075	8d 04 b5 00 00
	00 00		 lea	 eax, DWORD PTR [esi*4]

; 228  :         if (_Bytes >= _Big_allocation_threshold) { // boost the alignment of big allocations to help autovectorization

  0007c	3d 00 10 00 00	 cmp	 eax, 4096		; 00001000H
  00081	72 0d		 jb	 SHORT $LN24@Emplace_re

; 229  :             return _Allocate_manually_vector_aligned<_Traits>(_Bytes);

  00083	50		 push	 eax
  00084	e8 00 00 00 00	 call	 ??$_Allocate_manually_vector_aligned@U_Default_allocate_traits@std@@@std@@YAPAXI@Z ; std::_Allocate_manually_vector_aligned<std::_Default_allocate_traits>
  00089	83 c4 04	 add	 esp, 4
  0008c	8b f8		 mov	 edi, eax
  0008e	eb 13		 jmp	 SHORT $LN23@Emplace_re
$LN24@Emplace_re:

; 230  :         }
; 231  :     }
; 232  : #endif // defined(_M_IX86) || defined(_M_X64)
; 233  : 
; 234  :     if (_Bytes != 0) {

  00090	85 c0		 test	 eax, eax
  00092	74 0d		 je	 SHORT $LN25@Emplace_re

; 79   :         return ::operator new(_Bytes);

  00094	50		 push	 eax
  00095	e8 00 00 00 00	 call	 ??2@YAPAXI@Z		; operator new
  0009a	83 c4 04	 add	 esp, 4

; 235  :         return _Traits::_Allocate(_Bytes);

  0009d	8b f8		 mov	 edi, eax
  0009f	eb 02		 jmp	 SHORT $LN23@Emplace_re
$LN25@Emplace_re:

; 236  :     }
; 237  : 
; 238  :     return nullptr;

  000a1	33 ff		 xor	 edi, edi
$LN23@Emplace_re:
; File D:\visual studio 2019\visual studio 2019\VC\Tools\MSVC\14.29.30133\include\vector

; 776  :         _Alty_traits::construct(_Al, _Unfancy(_Newvec + _Whereoff), _STD forward<_Valty>(_Val)...);

  000a3	8b 45 fc	 mov	 eax, DWORD PTR __Whereoff$1$[ebp]
  000a6	8d 0c 87	 lea	 ecx, DWORD PTR [edi+eax*4]
  000a9	8b 45 0c	 mov	 eax, DWORD PTR _<_Val_0>$[ebp]
  000ac	89 4d fc	 mov	 DWORD PTR tv505[ebp], ecx
  000af	8b 00		 mov	 eax, DWORD PTR [eax]
  000b1	89 01		 mov	 DWORD PTR [ecx], eax

; 777  :         _Constructed_first = _Newvec + _Whereoff;
; 778  : 
; 779  :         if (_Whereptr == _Mylast) { // at back, provide strong guarantee

  000b3	8b 4b 04	 mov	 ecx, DWORD PTR [ebx+4]
  000b6	8b 45 08	 mov	 eax, DWORD PTR __Whereptr$[ebp]
  000b9	8b 13		 mov	 edx, DWORD PTR [ebx]
  000bb	3b c1		 cmp	 eax, ecx
  000bd	75 04		 jne	 SHORT $LN4@Emplace_re
; File D:\visual studio 2019\visual studio 2019\VC\Tools\MSVC\14.29.30133\include\xmemory

; 1711 :             _Copy_memmove(_UFirst, _ULast, _Unfancy(_Dest));

  000bf	8b c7		 mov	 eax, edi
; File D:\visual studio 2019\visual studio 2019\VC\Tools\MSVC\14.29.30133\include\vector

; 781  :         } else { // provide basic guarantee

  000c1	eb 17		 jmp	 SHORT $LN60@Emplace_re
$LN4@Emplace_re:
; File D:\visual studio 2019\visual studio 2019\VC\Tools\MSVC\14.29.30133\include\xmemory

; 1711 :             _Copy_memmove(_UFirst, _ULast, _Unfancy(_Dest));

  000c3	57		 push	 edi
  000c4	50		 push	 eax
  000c5	52		 push	 edx
  000c6	e8 00 00 00 00	 call	 ??$_Copy_memmove@PAPAVCGraphicExpandedImageInstance@@PAPAV1@@std@@YAPAPAVCGraphicExpandedImageInstance@@PAPAV1@00@Z ; std::_Copy_memmove<CGraphicExpandedImageInstance * *,CGraphicExpandedImageInstance * *>
; File D:\visual studio 2019\visual studio 2019\VC\Tools\MSVC\14.29.30133\include\vector

; 784  :             _Umove(_Whereptr, _Mylast, _Newvec + _Whereoff + 1);

  000cb	8b 45 fc	 mov	 eax, DWORD PTR tv505[ebp]
; File D:\visual studio 2019\visual studio 2019\VC\Tools\MSVC\14.29.30133\include\xmemory

; 1711 :             _Copy_memmove(_UFirst, _ULast, _Unfancy(_Dest));

  000ce	83 c4 0c	 add	 esp, 12			; 0000000cH
  000d1	8b 55 08	 mov	 edx, DWORD PTR __Whereptr$[ebp]
; File D:\visual studio 2019\visual studio 2019\VC\Tools\MSVC\14.29.30133\include\vector

; 784  :             _Umove(_Whereptr, _Mylast, _Newvec + _Whereoff + 1);

  000d4	83 c0 04	 add	 eax, 4
; File D:\visual studio 2019\visual studio 2019\VC\Tools\MSVC\14.29.30133\include\xmemory

; 1711 :             _Copy_memmove(_UFirst, _ULast, _Unfancy(_Dest));

  000d7	8b 4b 04	 mov	 ecx, DWORD PTR [ebx+4]
$LN60@Emplace_re:
; File D:\visual studio 2019\visual studio 2019\VC\Tools\MSVC\14.29.30133\include\vector

; 784  :             _Umove(_Whereptr, _Mylast, _Newvec + _Whereoff + 1);

  000da	50		 push	 eax
  000db	51		 push	 ecx
  000dc	52		 push	 edx
  000dd	e8 00 00 00 00	 call	 ??$_Copy_memmove@PAPAVCGraphicExpandedImageInstance@@PAPAV1@@std@@YAPAPAVCGraphicExpandedImageInstance@@PAPAV1@00@Z ; std::_Copy_memmove<CGraphicExpandedImageInstance * *,CGraphicExpandedImageInstance * *>
  000e2	83 c4 0c	 add	 esp, 12			; 0000000cH

; 785  :         }
; 786  :         _CATCH_ALL
; 787  :         _Destroy(_Constructed_first, _Constructed_last);
; 788  :         _Al.deallocate(_Newvec, _Newcapacity);
; 789  :         _RERAISE;
; 790  :         _CATCH_END
; 791  : 
; 792  :         _Change_array(_Newvec, _Newsize, _Newcapacity);

  000e5	8b cb		 mov	 ecx, ebx
  000e7	56		 push	 esi
  000e8	ff 75 f8	 push	 DWORD PTR __Newsize$1$[ebp]
  000eb	57		 push	 edi
  000ec	e8 00 00 00 00	 call	 ?_Change_array@?$vector@PAVCGraphicExpandedImageInstance@@V?$allocator@PAVCGraphicExpandedImageInstance@@@std@@@std@@AAEXQAPAVCGraphicExpandedImageInstance@@II@Z ; std::vector<CGraphicExpandedImageInstance *,std::allocator<CGraphicExpandedImageInstance *> >::_Change_array

; 793  :         return _Newvec + _Whereoff;

  000f1	8b 45 fc	 mov	 eax, DWORD PTR tv505[ebp]
  000f4	5f		 pop	 edi
  000f5	5e		 pop	 esi
  000f6	5b		 pop	 ebx

; 794  :     }

  000f7	8b e5		 mov	 esp, ebp
  000f9	5d		 pop	 ebp
  000fa	c2 08 00	 ret	 8
$LN74@Emplace_re:

; 765  :             _Xlength();

  000fd	e8 00 00 00 00	 call	 ?_Xlength@?$vector@PAVCGraphicExpandedImageInstance@@V?$allocator@PAVCGraphicExpandedImageInstance@@@std@@@std@@CAXXZ ; std::vector<CGraphicExpandedImageInstance *,std::allocator<CGraphicExpandedImageInstance *> >::_Xlength
$LN75@Emplace_re:
; File D:\visual studio 2019\visual studio 2019\VC\Tools\MSVC\14.29.30133\include\xmemory

; 61   :             _Throw_bad_array_new_length(); // multiply overflow

  00102	e8 00 00 00 00	 call	 ?_Throw_bad_array_new_length@std@@YAXXZ ; std::_Throw_bad_array_new_length
$LN72@Emplace_re:
  00107	cc		 int	 3
??$_Emplace_reallocate@ABQAVCGraphicExpandedImageInstance@@@?$vector@PAVCGraphicExpandedImageInstance@@V?$allocator@PAVCGraphicExpandedImageInstance@@@std@@@std@@QAEPAPAVCGraphicExpandedImageInstance@@QAPAV2@ABQAV2@@Z ENDP ; std::vector<CGraphicExpandedImageInstance *,std::allocator<CGraphicExpandedImageInstance *> >::_Emplace_reallocate<CGraphicExpandedImageInstance * const &>
_TEXT	ENDS
; Function compile flags: /Ogtp
;	COMDAT ??__F?ms_kPool@CGraphicExpandedImageInstance@@2V?$CDynamicPool@VCGraphicExpandedImageInstance@@@@A@@YAXXZ
text$yd	SEGMENT
??__F?ms_kPool@CGraphicExpandedImageInstance@@2V?$CDynamicPool@VCGraphicExpandedImageInstance@@@@A@@YAXXZ PROC ; `dynamic atexit destructor for 'CGraphicExpandedImageInstance::ms_kPool'', COMDAT
  00000	b9 00 00 00 00	 mov	 ecx, OFFSET ?ms_kPool@CGraphicExpandedImageInstance@@2V?$CDynamicPool@VCGraphicExpandedImageInstance@@@@A ; CGraphicExpandedImageInstance::ms_kPool
  00005	e9 00 00 00 00	 jmp	 ??1?$CDynamicPool@VCGraphicExpandedImageInstance@@@@UAE@XZ ; CDynamicPool<CGraphicExpandedImageInstance>::~CDynamicPool<CGraphicExpandedImageInstance>
??__F?ms_kPool@CGraphicExpandedImageInstance@@2V?$CDynamicPool@VCGraphicExpandedImageInstance@@@@A@@YAXXZ ENDP ; `dynamic atexit destructor for 'CGraphicExpandedImageInstance::ms_kPool''
text$yd	ENDS
; Function compile flags: /Ogtp
; File C:\Users\ALEXANDER\Desktop\Cliente\COPY_FISH_WON_NEW\Binario\Client\EterLib\GrpExpandedImageInstance.cpp
;	COMDAT ??__E?ms_kPool@CGraphicExpandedImageInstance@@2V?$CDynamicPool@VCGraphicExpandedImageInstance@@@@A@@YAXXZ
text$di	SEGMENT
??__E?ms_kPool@CGraphicExpandedImageInstance@@2V?$CDynamicPool@VCGraphicExpandedImageInstance@@@@A@@YAXXZ PROC ; `dynamic initializer for 'CGraphicExpandedImageInstance::ms_kPool'', COMDAT

; 6    : CDynamicPool<CGraphicExpandedImageInstance>		CGraphicExpandedImageInstance::ms_kPool;

  00000	68 00 00 00 00	 push	 OFFSET ??__F?ms_kPool@CGraphicExpandedImageInstance@@2V?$CDynamicPool@VCGraphicExpandedImageInstance@@@@A@@YAXXZ ; `dynamic atexit destructor for 'CGraphicExpandedImageInstance::ms_kPool''
  00005	e8 00 00 00 00	 call	 _atexit
  0000a	59		 pop	 ecx
  0000b	c3		 ret	 0
??__E?ms_kPool@CGraphicExpandedImageInstance@@2V?$CDynamicPool@VCGraphicExpandedImageInstance@@@@A@@YAXXZ ENDP ; `dynamic initializer for 'CGraphicExpandedImageInstance::ms_kPool''
text$di	ENDS
; Function compile flags: /Ogtp
;	COMDAT ??_G?$CDynamicPool@VCGraphicExpandedImageInstance@@@@UAEPAXI@Z
_TEXT	SEGMENT
___flags$ = 8						; size = 4
??_G?$CDynamicPool@VCGraphicExpandedImageInstance@@@@UAEPAXI@Z PROC ; CDynamicPool<CGraphicExpandedImageInstance>::`scalar deleting destructor', COMDAT
; _this$ = ecx
  00000	55		 push	 ebp
  00001	8b ec		 mov	 ebp, esp
  00003	56		 push	 esi
  00004	8b f1		 mov	 esi, ecx
  00006	e8 00 00 00 00	 call	 ??1?$CDynamicPool@VCGraphicExpandedImageInstance@@@@UAE@XZ ; CDynamicPool<CGraphicExpandedImageInstance>::~CDynamicPool<CGraphicExpandedImageInstance>
  0000b	f6 45 08 01	 test	 BYTE PTR ___flags$[ebp], 1
  0000f	74 0b		 je	 SHORT $LN4@scalar
  00011	6a 24		 push	 36			; 00000024H
  00013	56		 push	 esi
  00014	e8 00 00 00 00	 call	 ??3@YAXPAXI@Z		; operator delete
  00019	83 c4 08	 add	 esp, 8
$LN4@scalar:
  0001c	8b c6		 mov	 eax, esi
  0001e	5e		 pop	 esi
  0001f	5d		 pop	 ebp
  00020	c2 04 00	 ret	 4
??_G?$CDynamicPool@VCGraphicExpandedImageInstance@@@@UAEPAXI@Z ENDP ; CDynamicPool<CGraphicExpandedImageInstance>::`scalar deleting destructor'
_TEXT	ENDS
; Function compile flags: /Ogtp
; File D:\visual studio 2019\visual studio 2019\VC\Tools\MSVC\14.29.30133\include\vector
;	COMDAT ?_Xlength@?$vector@PAVCGraphicExpandedImageInstance@@V?$allocator@PAVCGraphicExpandedImageInstance@@@std@@@std@@CAXXZ
_TEXT	SEGMENT
?_Xlength@?$vector@PAVCGraphicExpandedImageInstance@@V?$allocator@PAVCGraphicExpandedImageInstance@@@std@@@std@@CAXXZ PROC ; std::vector<CGraphicExpandedImageInstance *,std::allocator<CGraphicExpandedImageInstance *> >::_Xlength, COMDAT

; 1761 :         _Xlength_error("vector too long");

  00000	68 00 00 00 00	 push	 OFFSET ??_C@_0BA@FOIKENOD@vector?5too?5long@
  00005	e8 00 00 00 00	 call	 ?_Xlength_error@std@@YAXPBD@Z ; std::_Xlength_error
$LN3@Xlength:
  0000a	cc		 int	 3
?_Xlength@?$vector@PAVCGraphicExpandedImageInstance@@V?$allocator@PAVCGraphicExpandedImageInstance@@@std@@@std@@CAXXZ ENDP ; std::vector<CGraphicExpandedImageInstance *,std::allocator<CGraphicExpandedImageInstance *> >::_Xlength
_TEXT	ENDS
; Function compile flags: /Ogtp
; File D:\visual studio 2019\visual studio 2019\VC\Tools\MSVC\14.29.30133\include\vector
; File D:\visual studio 2019\visual studio 2019\VC\Tools\MSVC\14.29.30133\include\xmemory
; File D:\visual studio 2019\visual studio 2019\VC\Tools\MSVC\14.29.30133\include\vector
; File D:\visual studio 2019\visual studio 2019\VC\Tools\MSVC\14.29.30133\include\xmemory
; File D:\visual studio 2019\visual studio 2019\VC\Tools\MSVC\14.29.30133\include\vector
;	COMDAT ?_Change_array@?$vector@PAVCGraphicExpandedImageInstance@@V?$allocator@PAVCGraphicExpandedImageInstance@@@std@@@std@@AAEXQAPAVCGraphicExpandedImageInstance@@II@Z
_TEXT	SEGMENT
__Newvec$ = 8						; size = 4
__Newsize$ = 12						; size = 4
__Newcapacity$ = 16					; size = 4
?_Change_array@?$vector@PAVCGraphicExpandedImageInstance@@V?$allocator@PAVCGraphicExpandedImageInstance@@@std@@@std@@AAEXQAPAVCGraphicExpandedImageInstance@@II@Z PROC ; std::vector<CGraphicExpandedImageInstance *,std::allocator<CGraphicExpandedImageInstance *> >::_Change_array, COMDAT
; _this$ = ecx

; 1723 :         const pointer _Newvec, const size_type _Newsize, const size_type _Newcapacity) {

  00000	55		 push	 ebp
  00001	8b ec		 mov	 ebp, esp
  00003	56		 push	 esi
  00004	8b f1		 mov	 esi, ecx

; 1724 :         // orphan all iterators, discard old array, acquire new array
; 1725 :         auto& _My_data    = _Mypair._Myval2;
; 1726 :         pointer& _Myfirst = _My_data._Myfirst;
; 1727 :         pointer& _Mylast  = _My_data._Mylast;
; 1728 :         pointer& _Myend   = _My_data._Myend;
; 1729 : 
; 1730 :         _My_data._Orphan_all();
; 1731 : 
; 1732 :         if (_Myfirst) { // destroy and deallocate old array

  00006	8b 06		 mov	 eax, DWORD PTR [esi]
  00008	85 c0		 test	 eax, eax
  0000a	74 2c		 je	 SHORT $LN8@Change_arr

; 1733 :             _Destroy(_Myfirst, _Mylast);
; 1734 :             _Getal().deallocate(_Myfirst, static_cast<size_type>(_Myend - _Myfirst));

  0000c	8b 4e 08	 mov	 ecx, DWORD PTR [esi+8]
  0000f	2b c8		 sub	 ecx, eax
; File D:\visual studio 2019\visual studio 2019\VC\Tools\MSVC\14.29.30133\include\xmemory

; 797  :         _Deallocate<_New_alignof<_Ty>>(_Ptr, sizeof(_Ty) * _Count);

  00011	83 e1 fc	 and	 ecx, -4			; fffffffcH

; 251  :         if (_Bytes >= _Big_allocation_threshold) { // boost the alignment of big allocations to help autovectorization

  00014	81 f9 00 10 00
	00		 cmp	 ecx, 4096		; 00001000H
  0001a	72 12		 jb	 SHORT $LN18@Change_arr

; 150  :     const uintptr_t _Ptr_container   = _Ptr_user[-1];

  0001c	8b 50 fc	 mov	 edx, DWORD PTR [eax-4]
  0001f	83 c1 23	 add	 ecx, 35			; 00000023H

; 151  : 
; 152  :     // If the following asserts, it likely means that we are performing
; 153  :     // an aligned delete on memory coming from an unaligned allocation.
; 154  :     _STL_ASSERT(_Ptr_user[-2] == _Big_allocation_sentinel, "invalid argument");
; 155  : 
; 156  :     // Extra paranoia on aligned allocation/deallocation; ensure _Ptr_container is
; 157  :     // in range [_Min_back_shift, _Non_user_size]
; 158  : #ifdef _DEBUG
; 159  :     constexpr uintptr_t _Min_back_shift = 2 * sizeof(void*);
; 160  : #else // ^^^ _DEBUG ^^^ // vvv !_DEBUG vvv
; 161  :     constexpr uintptr_t _Min_back_shift = sizeof(void*);
; 162  : #endif // _DEBUG
; 163  :     const uintptr_t _Back_shift = reinterpret_cast<uintptr_t>(_Ptr) - _Ptr_container;

  00022	2b c2		 sub	 eax, edx

; 164  :     _STL_VERIFY(_Back_shift >= _Min_back_shift && _Back_shift <= _Non_user_size, "invalid argument");

  00024	83 c0 fc	 add	 eax, -4			; fffffffcH
  00027	83 f8 1f	 cmp	 eax, 31			; 0000001fH
  0002a	77 28		 ja	 SHORT $LN15@Change_arr

; 165  :     _Ptr = reinterpret_cast<void*>(_Ptr_container);

  0002c	8b c2		 mov	 eax, edx
$LN18@Change_arr:

; 255  :         ::operator delete(_Ptr, _Bytes);

  0002e	51		 push	 ecx
  0002f	50		 push	 eax
  00030	e8 00 00 00 00	 call	 ??3@YAXPAXI@Z		; operator delete
  00035	83 c4 08	 add	 esp, 8
$LN8@Change_arr:
; File D:\visual studio 2019\visual studio 2019\VC\Tools\MSVC\14.29.30133\include\vector

; 1737 :         _Myfirst = _Newvec;

  00038	8b 4d 08	 mov	 ecx, DWORD PTR __Newvec$[ebp]

; 1738 :         _Mylast  = _Newvec + _Newsize;

  0003b	8b 45 0c	 mov	 eax, DWORD PTR __Newsize$[ebp]
  0003e	89 0e		 mov	 DWORD PTR [esi], ecx
  00040	8d 04 81	 lea	 eax, DWORD PTR [ecx+eax*4]
  00043	89 46 04	 mov	 DWORD PTR [esi+4], eax

; 1739 :         _Myend   = _Newvec + _Newcapacity;

  00046	8b 45 10	 mov	 eax, DWORD PTR __Newcapacity$[ebp]
  00049	8d 04 81	 lea	 eax, DWORD PTR [ecx+eax*4]
  0004c	89 46 08	 mov	 DWORD PTR [esi+8], eax
  0004f	5e		 pop	 esi

; 1740 :     }

  00050	5d		 pop	 ebp
  00051	c2 0c 00	 ret	 12			; 0000000cH
$LN15@Change_arr:
; File D:\visual studio 2019\visual studio 2019\VC\Tools\MSVC\14.29.30133\include\xmemory

; 164  :     _STL_VERIFY(_Back_shift >= _Min_back_shift && _Back_shift <= _Non_user_size, "invalid argument");

  00054	e8 00 00 00 00	 call	 __invalid_parameter_noinfo_noreturn
$LN22@Change_arr:
  00059	cc		 int	 3
?_Change_array@?$vector@PAVCGraphicExpandedImageInstance@@V?$allocator@PAVCGraphicExpandedImageInstance@@@std@@@std@@AAEXQAPAVCGraphicExpandedImageInstance@@II@Z ENDP ; std::vector<CGraphicExpandedImageInstance *,std::allocator<CGraphicExpandedImageInstance *> >::_Change_array
_TEXT	ENDS
; Function compile flags: /Ogtp
; File D:\visual studio 2019\visual studio 2019\VC\Tools\MSVC\14.29.30133\include\vector
; File D:\visual studio 2019\visual studio 2019\VC\Tools\MSVC\14.29.30133\include\xmemory
; File D:\visual studio 2019\visual studio 2019\VC\Tools\MSVC\14.29.30133\include\vector
; File D:\visual studio 2019\visual studio 2019\VC\Tools\MSVC\14.29.30133\include\xmemory
; File D:\visual studio 2019\visual studio 2019\VC\Tools\MSVC\14.29.30133\include\vector
; File D:\visual studio 2019\visual studio 2019\VC\Tools\MSVC\14.29.30133\include\xmemory
; File D:\visual studio 2019\visual studio 2019\VC\Tools\MSVC\14.29.30133\include\vector
; File D:\visual studio 2019\visual studio 2019\VC\Tools\MSVC\14.29.30133\include\xmemory
; File D:\visual studio 2019\visual studio 2019\VC\Tools\MSVC\14.29.30133\include\vector
; File D:\visual studio 2019\visual studio 2019\VC\Tools\MSVC\14.29.30133\include\xmemory
; File D:\visual studio 2019\visual studio 2019\VC\Tools\MSVC\14.29.30133\include\vector
;	COMDAT ?_Reallocate_exactly@?$vector@PAVCGraphicExpandedImageInstance@@V?$allocator@PAVCGraphicExpandedImageInstance@@@std@@@std@@AAEXI@Z
_TEXT	SEGMENT
__Size$1$ = -4						; size = 4
__Newcapacity$ = 8					; size = 4
?_Reallocate_exactly@?$vector@PAVCGraphicExpandedImageInstance@@V?$allocator@PAVCGraphicExpandedImageInstance@@@std@@@std@@AAEXI@Z PROC ; std::vector<CGraphicExpandedImageInstance *,std::allocator<CGraphicExpandedImageInstance *> >::_Reallocate_exactly, COMDAT
; _this$ = ecx

; 1286 :     _CONSTEXPR20_CONTAINER void _Reallocate_exactly(const size_type _Newcapacity) {

  00000	55		 push	 ebp
  00001	8b ec		 mov	 ebp, esp
  00003	51		 push	 ecx
  00004	53		 push	 ebx
; File D:\visual studio 2019\visual studio 2019\VC\Tools\MSVC\14.29.30133\include\xmemory

; 60   :         if (_Count > _Max_possible) {

  00005	8b 5d 08	 mov	 ebx, DWORD PTR __Newcapacity$[ebp]
; File D:\visual studio 2019\visual studio 2019\VC\Tools\MSVC\14.29.30133\include\vector

; 1286 :     _CONSTEXPR20_CONTAINER void _Reallocate_exactly(const size_type _Newcapacity) {

  00008	56		 push	 esi
  00009	8b f1		 mov	 esi, ecx
  0000b	57		 push	 edi

; 1287 :         // set capacity to _Newcapacity (without geometric growth), provide strong guarantee
; 1288 :         auto& _My_data    = _Mypair._Myval2;
; 1289 :         pointer& _Myfirst = _My_data._Myfirst;
; 1290 :         pointer& _Mylast  = _My_data._Mylast;
; 1291 : 
; 1292 :         const auto _Size = static_cast<size_type>(_Mylast - _Myfirst);

  0000c	8b 46 04	 mov	 eax, DWORD PTR [esi+4]
  0000f	2b 06		 sub	 eax, DWORD PTR [esi]
  00011	c1 f8 02	 sar	 eax, 2
  00014	89 45 fc	 mov	 DWORD PTR __Size$1$[ebp], eax
; File D:\visual studio 2019\visual studio 2019\VC\Tools\MSVC\14.29.30133\include\xmemory

; 60   :         if (_Count > _Max_possible) {

  00017	81 fb ff ff ff
	3f		 cmp	 ebx, 1073741823		; 3fffffffH
  0001d	0f 87 8a 00 00
	00		 ja	 $LN59@Reallocate

; 62   :         }
; 63   :     }
; 64   : 
; 65   :     return _Count * _Ty_size;

  00023	c1 e3 02	 shl	 ebx, 2

; 228  :         if (_Bytes >= _Big_allocation_threshold) { // boost the alignment of big allocations to help autovectorization

  00026	81 fb 00 10 00
	00		 cmp	 ebx, 4096		; 00001000H
  0002c	72 0d		 jb	 SHORT $LN15@Reallocate

; 229  :             return _Allocate_manually_vector_aligned<_Traits>(_Bytes);

  0002e	53		 push	 ebx
  0002f	e8 00 00 00 00	 call	 ??$_Allocate_manually_vector_aligned@U_Default_allocate_traits@std@@@std@@YAPAXI@Z ; std::_Allocate_manually_vector_aligned<std::_Default_allocate_traits>
  00034	83 c4 04	 add	 esp, 4
  00037	8b f8		 mov	 edi, eax
  00039	eb 13		 jmp	 SHORT $LN14@Reallocate
$LN15@Reallocate:

; 230  :         }
; 231  :     }
; 232  : #endif // defined(_M_IX86) || defined(_M_X64)
; 233  : 
; 234  :     if (_Bytes != 0) {

  0003b	85 db		 test	 ebx, ebx
  0003d	74 0d		 je	 SHORT $LN16@Reallocate

; 79   :         return ::operator new(_Bytes);

  0003f	53		 push	 ebx
  00040	e8 00 00 00 00	 call	 ??2@YAPAXI@Z		; operator new
  00045	83 c4 04	 add	 esp, 4

; 235  :         return _Traits::_Allocate(_Bytes);

  00048	8b f8		 mov	 edi, eax
  0004a	eb 02		 jmp	 SHORT $LN14@Reallocate
$LN16@Reallocate:

; 236  :     }
; 237  : 
; 238  :     return nullptr;

  0004c	33 ff		 xor	 edi, edi
$LN14@Reallocate:

; 1711 :             _Copy_memmove(_UFirst, _ULast, _Unfancy(_Dest));

  0004e	57		 push	 edi
  0004f	ff 76 04	 push	 DWORD PTR [esi+4]
  00052	ff 36		 push	 DWORD PTR [esi]
  00054	e8 00 00 00 00	 call	 ??$_Copy_memmove@PAPAVCGraphicExpandedImageInstance@@PAPAV1@@std@@YAPAPAVCGraphicExpandedImageInstance@@PAPAV1@00@Z ; std::_Copy_memmove<CGraphicExpandedImageInstance * *,CGraphicExpandedImageInstance * *>
; File D:\visual studio 2019\visual studio 2019\VC\Tools\MSVC\14.29.30133\include\vector

; 1732 :         if (_Myfirst) { // destroy and deallocate old array

  00059	8b 06		 mov	 eax, DWORD PTR [esi]
; File D:\visual studio 2019\visual studio 2019\VC\Tools\MSVC\14.29.30133\include\xmemory

; 1711 :             _Copy_memmove(_UFirst, _ULast, _Unfancy(_Dest));

  0005b	83 c4 0c	 add	 esp, 12			; 0000000cH
; File D:\visual studio 2019\visual studio 2019\VC\Tools\MSVC\14.29.30133\include\vector

; 1732 :         if (_Myfirst) { // destroy and deallocate old array

  0005e	85 c0		 test	 eax, eax
  00060	74 2c		 je	 SHORT $LN43@Reallocate

; 1733 :             _Destroy(_Myfirst, _Mylast);
; 1734 :             _Getal().deallocate(_Myfirst, static_cast<size_type>(_Myend - _Myfirst));

  00062	8b 4e 08	 mov	 ecx, DWORD PTR [esi+8]
  00065	2b c8		 sub	 ecx, eax
; File D:\visual studio 2019\visual studio 2019\VC\Tools\MSVC\14.29.30133\include\xmemory

; 797  :         _Deallocate<_New_alignof<_Ty>>(_Ptr, sizeof(_Ty) * _Count);

  00067	83 e1 fc	 and	 ecx, -4			; fffffffcH

; 251  :         if (_Bytes >= _Big_allocation_threshold) { // boost the alignment of big allocations to help autovectorization

  0006a	81 f9 00 10 00
	00		 cmp	 ecx, 4096		; 00001000H
  00070	72 12		 jb	 SHORT $LN53@Reallocate

; 150  :     const uintptr_t _Ptr_container   = _Ptr_user[-1];

  00072	8b 50 fc	 mov	 edx, DWORD PTR [eax-4]
  00075	83 c1 23	 add	 ecx, 35			; 00000023H

; 151  : 
; 152  :     // If the following asserts, it likely means that we are performing
; 153  :     // an aligned delete on memory coming from an unaligned allocation.
; 154  :     _STL_ASSERT(_Ptr_user[-2] == _Big_allocation_sentinel, "invalid argument");
; 155  : 
; 156  :     // Extra paranoia on aligned allocation/deallocation; ensure _Ptr_container is
; 157  :     // in range [_Min_back_shift, _Non_user_size]
; 158  : #ifdef _DEBUG
; 159  :     constexpr uintptr_t _Min_back_shift = 2 * sizeof(void*);
; 160  : #else // ^^^ _DEBUG ^^^ // vvv !_DEBUG vvv
; 161  :     constexpr uintptr_t _Min_back_shift = sizeof(void*);
; 162  : #endif // _DEBUG
; 163  :     const uintptr_t _Back_shift = reinterpret_cast<uintptr_t>(_Ptr) - _Ptr_container;

  00078	2b c2		 sub	 eax, edx

; 164  :     _STL_VERIFY(_Back_shift >= _Min_back_shift && _Back_shift <= _Non_user_size, "invalid argument");

  0007a	83 c0 fc	 add	 eax, -4			; fffffffcH
  0007d	83 f8 1f	 cmp	 eax, 31			; 0000001fH
  00080	77 26		 ja	 SHORT $LN50@Reallocate

; 165  :     _Ptr = reinterpret_cast<void*>(_Ptr_container);

  00082	8b c2		 mov	 eax, edx
$LN53@Reallocate:

; 255  :         ::operator delete(_Ptr, _Bytes);

  00084	51		 push	 ecx
  00085	50		 push	 eax
  00086	e8 00 00 00 00	 call	 ??3@YAXPAXI@Z		; operator delete
  0008b	83 c4 08	 add	 esp, 8
$LN43@Reallocate:
; File D:\visual studio 2019\visual studio 2019\VC\Tools\MSVC\14.29.30133\include\vector

; 1738 :         _Mylast  = _Newvec + _Newsize;

  0008e	8b 45 fc	 mov	 eax, DWORD PTR __Size$1$[ebp]
  00091	89 3e		 mov	 DWORD PTR [esi], edi
  00093	8d 04 87	 lea	 eax, DWORD PTR [edi+eax*4]
  00096	89 46 04	 mov	 DWORD PTR [esi+4], eax

; 1739 :         _Myend   = _Newvec + _Newcapacity;

  00099	8d 04 3b	 lea	 eax, DWORD PTR [ebx+edi]
  0009c	5f		 pop	 edi
  0009d	89 46 08	 mov	 DWORD PTR [esi+8], eax
  000a0	5e		 pop	 esi
  000a1	5b		 pop	 ebx

; 1304 :     }

  000a2	8b e5		 mov	 esp, ebp
  000a4	5d		 pop	 ebp
  000a5	c2 04 00	 ret	 4
$LN50@Reallocate:
; File D:\visual studio 2019\visual studio 2019\VC\Tools\MSVC\14.29.30133\include\xmemory

; 164  :     _STL_VERIFY(_Back_shift >= _Min_back_shift && _Back_shift <= _Non_user_size, "invalid argument");

  000a8	e8 00 00 00 00	 call	 __invalid_parameter_noinfo_noreturn
$LN59@Reallocate:

; 61   :             _Throw_bad_array_new_length(); // multiply overflow

  000ad	e8 00 00 00 00	 call	 ?_Throw_bad_array_new_length@std@@YAXXZ ; std::_Throw_bad_array_new_length
$LN57@Reallocate:
  000b2	cc		 int	 3
?_Reallocate_exactly@?$vector@PAVCGraphicExpandedImageInstance@@V?$allocator@PAVCGraphicExpandedImageInstance@@@std@@@std@@AAEXI@Z ENDP ; std::vector<CGraphicExpandedImageInstance *,std::allocator<CGraphicExpandedImageInstance *> >::_Reallocate_exactly
_TEXT	ENDS
; Function compile flags: /Ogtp
; File C:\Users\ALEXANDER\Desktop\Cliente\COPY_FISH_WON_NEW\Binario\Client\EterLib\Pool.h
;	COMDAT ?Delete@?$CDynamicPool@VCGraphicExpandedImageInstance@@@@KAXPAVCGraphicExpandedImageInstance@@@Z
_TEXT	SEGMENT
_pkData$ = 8						; size = 4
?Delete@?$CDynamicPool@VCGraphicExpandedImageInstance@@@@KAXPAVCGraphicExpandedImageInstance@@@Z PROC ; CDynamicPool<CGraphicExpandedImageInstance>::Delete, COMDAT

; 109  : 		{

  00000	55		 push	 ebp
  00001	8b ec		 mov	 ebp, esp

; 110  : 			delete pkData;

  00003	8b 4d 08	 mov	 ecx, DWORD PTR _pkData$[ebp]
  00006	85 c9		 test	 ecx, ecx
  00008	74 06		 je	 SHORT $LN3@Delete
  0000a	8b 01		 mov	 eax, DWORD PTR [ecx]
  0000c	6a 01		 push	 1
  0000e	ff 10		 call	 DWORD PTR [eax]
$LN3@Delete:

; 111  : 		}

  00010	5d		 pop	 ebp
  00011	c3		 ret	 0
?Delete@?$CDynamicPool@VCGraphicExpandedImageInstance@@@@KAXPAVCGraphicExpandedImageInstance@@@Z ENDP ; CDynamicPool<CGraphicExpandedImageInstance>::Delete
_TEXT	ENDS
; Function compile flags: /Ogtp
; File C:\Users\ALEXANDER\Desktop\Cliente\COPY_FISH_WON_NEW\Binario\Client\EterLib\Pool.h
; File D:\visual studio 2019\visual studio 2019\VC\Tools\MSVC\14.29.30133\include\vector
; File D:\visual studio 2019\visual studio 2019\VC\Tools\MSVC\14.29.30133\include\xmemory
; File D:\visual studio 2019\visual studio 2019\VC\Tools\MSVC\14.29.30133\include\vector
; File D:\visual studio 2019\visual studio 2019\VC\Tools\MSVC\14.29.30133\include\xmemory
; File D:\visual studio 2019\visual studio 2019\VC\Tools\MSVC\14.29.30133\include\vector
; File D:\visual studio 2019\visual studio 2019\VC\Tools\MSVC\14.29.30133\include\xmemory
; File D:\visual studio 2019\visual studio 2019\VC\Tools\MSVC\14.29.30133\include\vector
; File D:\visual studio 2019\visual studio 2019\VC\Tools\MSVC\14.29.30133\include\xmemory
; File D:\visual studio 2019\visual studio 2019\VC\Tools\MSVC\14.29.30133\include\vector
; File C:\Users\ALEXANDER\Desktop\Cliente\COPY_FISH_WON_NEW\Binario\Client\EterLib\Pool.h
; File D:\visual studio 2019\visual studio 2019\VC\Tools\MSVC\14.29.30133\include\xmemory
; File C:\Users\ALEXANDER\Desktop\Cliente\COPY_FISH_WON_NEW\Binario\Client\EterLib\Pool.h
;	COMDAT ??1?$CDynamicPool@VCGraphicExpandedImageInstance@@@@UAE@XZ
_TEXT	SEGMENT
??1?$CDynamicPool@VCGraphicExpandedImageInstance@@@@UAE@XZ PROC ; CDynamicPool<CGraphicExpandedImageInstance>::~CDynamicPool<CGraphicExpandedImageInstance>, COMDAT
; _this$ = ecx

; 18   : 		{

  00000	56		 push	 esi
  00001	8b f1		 mov	 esi, ecx
  00003	c7 06 00 00 00
	00		 mov	 DWORD PTR [esi], OFFSET ??_7?$CDynamicPool@VCGraphicExpandedImageInstance@@@@6B@
; File D:\visual studio 2019\visual studio 2019\VC\Tools\MSVC\14.29.30133\include\vector

; 1750 :         if (_Myfirst) { // destroy and deallocate old array

  00009	8b 46 10	 mov	 eax, DWORD PTR [esi+16]
  0000c	85 c0		 test	 eax, eax
  0000e	74 41		 je	 SHORT $LN6@CDynamicPo

; 1751 :             _Destroy(_Myfirst, _Mylast);
; 1752 :             _Getal().deallocate(_Myfirst, static_cast<size_type>(_Myend - _Myfirst));

  00010	8b 4e 18	 mov	 ecx, DWORD PTR [esi+24]
  00013	2b c8		 sub	 ecx, eax
; File D:\visual studio 2019\visual studio 2019\VC\Tools\MSVC\14.29.30133\include\xmemory

; 797  :         _Deallocate<_New_alignof<_Ty>>(_Ptr, sizeof(_Ty) * _Count);

  00015	83 e1 fc	 and	 ecx, -4			; fffffffcH

; 251  :         if (_Bytes >= _Big_allocation_threshold) { // boost the alignment of big allocations to help autovectorization

  00018	81 f9 00 10 00
	00		 cmp	 ecx, 4096		; 00001000H
  0001e	72 12		 jb	 SHORT $LN22@CDynamicPo

; 150  :     const uintptr_t _Ptr_container   = _Ptr_user[-1];

  00020	8b 50 fc	 mov	 edx, DWORD PTR [eax-4]
  00023	83 c1 23	 add	 ecx, 35			; 00000023H

; 151  : 
; 152  :     // If the following asserts, it likely means that we are performing
; 153  :     // an aligned delete on memory coming from an unaligned allocation.
; 154  :     _STL_ASSERT(_Ptr_user[-2] == _Big_allocation_sentinel, "invalid argument");
; 155  : 
; 156  :     // Extra paranoia on aligned allocation/deallocation; ensure _Ptr_container is
; 157  :     // in range [_Min_back_shift, _Non_user_size]
; 158  : #ifdef _DEBUG
; 159  :     constexpr uintptr_t _Min_back_shift = 2 * sizeof(void*);
; 160  : #else // ^^^ _DEBUG ^^^ // vvv !_DEBUG vvv
; 161  :     constexpr uintptr_t _Min_back_shift = sizeof(void*);
; 162  : #endif // _DEBUG
; 163  :     const uintptr_t _Back_shift = reinterpret_cast<uintptr_t>(_Ptr) - _Ptr_container;

  00026	2b c2		 sub	 eax, edx

; 164  :     _STL_VERIFY(_Back_shift >= _Min_back_shift && _Back_shift <= _Non_user_size, "invalid argument");

  00028	83 c0 fc	 add	 eax, -4			; fffffffcH
  0002b	83 f8 1f	 cmp	 eax, 31			; 0000001fH
  0002e	77 6b		 ja	 SHORT $LN44@CDynamicPo

; 165  :     _Ptr = reinterpret_cast<void*>(_Ptr_container);

  00030	8b c2		 mov	 eax, edx
$LN22@CDynamicPo:

; 255  :         ::operator delete(_Ptr, _Bytes);

  00032	51		 push	 ecx
  00033	50		 push	 eax
  00034	e8 00 00 00 00	 call	 ??3@YAXPAXI@Z		; operator delete
; File D:\visual studio 2019\visual studio 2019\VC\Tools\MSVC\14.29.30133\include\vector

; 1754 :             _Myfirst = nullptr;

  00039	c7 46 10 00 00
	00 00		 mov	 DWORD PTR [esi+16], 0
; File D:\visual studio 2019\visual studio 2019\VC\Tools\MSVC\14.29.30133\include\xmemory

; 255  :         ::operator delete(_Ptr, _Bytes);

  00040	83 c4 08	 add	 esp, 8
; File D:\visual studio 2019\visual studio 2019\VC\Tools\MSVC\14.29.30133\include\vector

; 1755 :             _Mylast  = nullptr;

  00043	c7 46 14 00 00
	00 00		 mov	 DWORD PTR [esi+20], 0

; 1756 :             _Myend   = nullptr;

  0004a	c7 46 18 00 00
	00 00		 mov	 DWORD PTR [esi+24], 0
$LN6@CDynamicPo:

; 1750 :         if (_Myfirst) { // destroy and deallocate old array

  00051	8b 46 04	 mov	 eax, DWORD PTR [esi+4]
  00054	85 c0		 test	 eax, eax
  00056	74 41		 je	 SHORT $LN31@CDynamicPo

; 1751 :             _Destroy(_Myfirst, _Mylast);
; 1752 :             _Getal().deallocate(_Myfirst, static_cast<size_type>(_Myend - _Myfirst));

  00058	8b 4e 0c	 mov	 ecx, DWORD PTR [esi+12]
  0005b	2b c8		 sub	 ecx, eax
; File D:\visual studio 2019\visual studio 2019\VC\Tools\MSVC\14.29.30133\include\xmemory

; 797  :         _Deallocate<_New_alignof<_Ty>>(_Ptr, sizeof(_Ty) * _Count);

  0005d	83 e1 fc	 and	 ecx, -4			; fffffffcH

; 251  :         if (_Bytes >= _Big_allocation_threshold) { // boost the alignment of big allocations to help autovectorization

  00060	81 f9 00 10 00
	00		 cmp	 ecx, 4096		; 00001000H
  00066	72 12		 jb	 SHORT $LN47@CDynamicPo

; 150  :     const uintptr_t _Ptr_container   = _Ptr_user[-1];

  00068	8b 50 fc	 mov	 edx, DWORD PTR [eax-4]
  0006b	83 c1 23	 add	 ecx, 35			; 00000023H

; 151  : 
; 152  :     // If the following asserts, it likely means that we are performing
; 153  :     // an aligned delete on memory coming from an unaligned allocation.
; 154  :     _STL_ASSERT(_Ptr_user[-2] == _Big_allocation_sentinel, "invalid argument");
; 155  : 
; 156  :     // Extra paranoia on aligned allocation/deallocation; ensure _Ptr_container is
; 157  :     // in range [_Min_back_shift, _Non_user_size]
; 158  : #ifdef _DEBUG
; 159  :     constexpr uintptr_t _Min_back_shift = 2 * sizeof(void*);
; 160  : #else // ^^^ _DEBUG ^^^ // vvv !_DEBUG vvv
; 161  :     constexpr uintptr_t _Min_back_shift = sizeof(void*);
; 162  : #endif // _DEBUG
; 163  :     const uintptr_t _Back_shift = reinterpret_cast<uintptr_t>(_Ptr) - _Ptr_container;

  0006e	2b c2		 sub	 eax, edx

; 164  :     _STL_VERIFY(_Back_shift >= _Min_back_shift && _Back_shift <= _Non_user_size, "invalid argument");

  00070	83 c0 fc	 add	 eax, -4			; fffffffcH
  00073	83 f8 1f	 cmp	 eax, 31			; 0000001fH
  00076	77 23		 ja	 SHORT $LN44@CDynamicPo

; 165  :     _Ptr = reinterpret_cast<void*>(_Ptr_container);

  00078	8b c2		 mov	 eax, edx
$LN47@CDynamicPo:

; 255  :         ::operator delete(_Ptr, _Bytes);

  0007a	51		 push	 ecx
  0007b	50		 push	 eax
  0007c	e8 00 00 00 00	 call	 ??3@YAXPAXI@Z		; operator delete
; File D:\visual studio 2019\visual studio 2019\VC\Tools\MSVC\14.29.30133\include\vector

; 1754 :             _Myfirst = nullptr;

  00081	c7 46 04 00 00
	00 00		 mov	 DWORD PTR [esi+4], 0
; File D:\visual studio 2019\visual studio 2019\VC\Tools\MSVC\14.29.30133\include\xmemory

; 255  :         ::operator delete(_Ptr, _Bytes);

  00088	83 c4 08	 add	 esp, 8
; File D:\visual studio 2019\visual studio 2019\VC\Tools\MSVC\14.29.30133\include\vector

; 1755 :             _Mylast  = nullptr;

  0008b	c7 46 08 00 00
	00 00		 mov	 DWORD PTR [esi+8], 0

; 1756 :             _Myend   = nullptr;

  00092	c7 46 0c 00 00
	00 00		 mov	 DWORD PTR [esi+12], 0
$LN31@CDynamicPo:
  00099	5e		 pop	 esi
; File C:\Users\ALEXANDER\Desktop\Cliente\COPY_FISH_WON_NEW\Binario\Client\EterLib\Pool.h

; 26   : 		}

  0009a	c3		 ret	 0
$LN44@CDynamicPo:
; File D:\visual studio 2019\visual studio 2019\VC\Tools\MSVC\14.29.30133\include\xmemory

; 164  :     _STL_VERIFY(_Back_shift >= _Min_back_shift && _Back_shift <= _Non_user_size, "invalid argument");

  0009b	e8 00 00 00 00	 call	 __invalid_parameter_noinfo_noreturn
$LN52@CDynamicPo:
  000a0	cc		 int	 3
??1?$CDynamicPool@VCGraphicExpandedImageInstance@@@@UAE@XZ ENDP ; CDynamicPool<CGraphicExpandedImageInstance>::~CDynamicPool<CGraphicExpandedImageInstance>
_TEXT	ENDS
; Function compile flags: /Ogtp
;	COMDAT ??_GCGraphicExpandedImageInstance@@UAEPAXI@Z
_TEXT	SEGMENT
___flags$ = 8						; size = 4
??_GCGraphicExpandedImageInstance@@UAEPAXI@Z PROC	; CGraphicExpandedImageInstance::`scalar deleting destructor', COMDAT
; _this$ = ecx
  00000	55		 push	 ebp
  00001	8b ec		 mov	 ebp, esp
  00003	56		 push	 esi
  00004	8b f1		 mov	 esi, ecx
  00006	e8 00 00 00 00	 call	 ??1CGraphicExpandedImageInstance@@UAE@XZ ; CGraphicExpandedImageInstance::~CGraphicExpandedImageInstance
  0000b	f6 45 08 01	 test	 BYTE PTR ___flags$[ebp], 1
  0000f	74 0b		 je	 SHORT $LN4@scalar
  00011	6a 54		 push	 84			; 00000054H
  00013	56		 push	 esi
  00014	e8 00 00 00 00	 call	 ??3@YAXPAXI@Z		; operator delete
  00019	83 c4 08	 add	 esp, 8
$LN4@scalar:
  0001c	8b c6		 mov	 eax, esi
  0001e	5e		 pop	 esi
  0001f	5d		 pop	 ebp
  00020	c2 04 00	 ret	 4
??_GCGraphicExpandedImageInstance@@UAEPAXI@Z ENDP	; CGraphicExpandedImageInstance::`scalar deleting destructor'
_TEXT	ENDS
; Function compile flags: /Ogtp
; File C:\Users\ALEXANDER\Desktop\Cliente\COPY_FISH_WON_NEW\Binario\Client\EterLib\GrpExpandedImageInstance.cpp
; File D:\visual studio 2019\visual studio 2019\VC\Tools\MSVC\14.29.30133\include\vector
; File C:\Users\ALEXANDER\Desktop\Cliente\COPY_FISH_WON_NEW\Binario\Client\EterLib\GrpExpandedImageInstance.cpp
; File D:\visual studio 2019\visual studio 2019\VC\Tools\MSVC\14.29.30133\include\vector
; File C:\Users\ALEXANDER\Desktop\Cliente\COPY_FISH_WON_NEW\Binario\Client\EterLib\GrpExpandedImageInstance.cpp
; File D:\visual studio 2019\visual studio 2019\VC\Tools\MSVC\14.29.30133\include\vector
; File C:\Users\ALEXANDER\Desktop\Cliente\COPY_FISH_WON_NEW\Binario\Client\EterLib\GrpExpandedImageInstance.cpp
;	COMDAT ?Delete@CGraphicExpandedImageInstance@@SAXPAV1@@Z
_TEXT	SEGMENT
_pkData$ = 8						; size = 4
_pkImgInst$ = 8						; size = 4
?Delete@CGraphicExpandedImageInstance@@SAXPAV1@@Z PROC	; CGraphicExpandedImageInstance::Delete, COMDAT

; 24   : {

  00000	55		 push	 ebp
  00001	8b ec		 mov	 ebp, esp
  00003	56		 push	 esi

; 25   : 	pkImgInst->Destroy();

  00004	8b 75 08	 mov	 esi, DWORD PTR _pkImgInst$[ebp]
  00007	8b ce		 mov	 ecx, esi
  00009	e8 00 00 00 00	 call	 ?Destroy@CGraphicExpandedImageInstance@@QAEXXZ ; CGraphicExpandedImageInstance::Destroy
; File D:\visual studio 2019\visual studio 2019\VC\Tools\MSVC\14.29.30133\include\vector

; 730  :         if (_Mylast != _My_data._Myend) {

  0000e	a1 14 00 00 00	 mov	 eax, DWORD PTR ?ms_kPool@CGraphicExpandedImageInstance@@2V?$CDynamicPool@VCGraphicExpandedImageInstance@@@@A+20
; File C:\Users\ALEXANDER\Desktop\Cliente\COPY_FISH_WON_NEW\Binario\Client\EterLib\GrpExpandedImageInstance.cpp

; 26   : 	ms_kPool.Free(pkImgInst);

  00013	89 75 08	 mov	 DWORD PTR _pkData$[ebp], esi
; File D:\visual studio 2019\visual studio 2019\VC\Tools\MSVC\14.29.30133\include\vector

; 730  :         if (_Mylast != _My_data._Myend) {

  00016	3b 05 18 00 00
	00		 cmp	 eax, DWORD PTR ?ms_kPool@CGraphicExpandedImageInstance@@2V?$CDynamicPool@VCGraphicExpandedImageInstance@@@@A+24
  0001c	74 0c		 je	 SHORT $LN8@Delete

; 713  :         _Alty_traits::construct(_Getal(), _Unfancy(_Mylast), _STD forward<_Valty>(_Val)...);

  0001e	89 30		 mov	 DWORD PTR [eax], esi

; 714  :         _Orphan_range(_Mylast, _Mylast);
; 715  :         _Ty& _Result = *_Mylast;
; 716  :         ++_Mylast;

  00020	83 05 14 00 00
	00 04		 add	 DWORD PTR ?ms_kPool@CGraphicExpandedImageInstance@@2V?$CDynamicPool@VCGraphicExpandedImageInstance@@@@A+20, 4
  00027	5e		 pop	 esi
; File C:\Users\ALEXANDER\Desktop\Cliente\COPY_FISH_WON_NEW\Binario\Client\EterLib\GrpExpandedImageInstance.cpp

; 27   : }

  00028	5d		 pop	 ebp
  00029	c3		 ret	 0
$LN8@Delete:
; File D:\visual studio 2019\visual studio 2019\VC\Tools\MSVC\14.29.30133\include\vector

; 734  :         _Ty& _Result = *_Emplace_reallocate(_Mylast, _STD forward<_Valty>(_Val)...);

  0002a	8d 4d 08	 lea	 ecx, DWORD PTR _pkData$[ebp]
  0002d	51		 push	 ecx
  0002e	50		 push	 eax
  0002f	b9 10 00 00 00	 mov	 ecx, OFFSET ?ms_kPool@CGraphicExpandedImageInstance@@2V?$CDynamicPool@VCGraphicExpandedImageInstance@@@@A+16
  00034	e8 00 00 00 00	 call	 ??$_Emplace_reallocate@ABQAVCGraphicExpandedImageInstance@@@?$vector@PAVCGraphicExpandedImageInstance@@V?$allocator@PAVCGraphicExpandedImageInstance@@@std@@@std@@QAEPAPAVCGraphicExpandedImageInstance@@QAPAV2@ABQAV2@@Z ; std::vector<CGraphicExpandedImageInstance *,std::allocator<CGraphicExpandedImageInstance *> >::_Emplace_reallocate<CGraphicExpandedImageInstance * const &>
  00039	5e		 pop	 esi
; File C:\Users\ALEXANDER\Desktop\Cliente\COPY_FISH_WON_NEW\Binario\Client\EterLib\GrpExpandedImageInstance.cpp

; 27   : }

  0003a	5d		 pop	 ebp
  0003b	c3		 ret	 0
?Delete@CGraphicExpandedImageInstance@@SAXPAV1@@Z ENDP	; CGraphicExpandedImageInstance::Delete
_TEXT	ENDS
; Function compile flags: /Ogtp
; File C:\Users\ALEXANDER\Desktop\Cliente\COPY_FISH_WON_NEW\Binario\Client\EterLib\GrpExpandedImageInstance.cpp
; File C:\Users\ALEXANDER\Desktop\Cliente\COPY_FISH_WON_NEW\Binario\Client\EterLib\Pool.h
; File D:\visual studio 2019\visual studio 2019\VC\Tools\MSVC\14.29.30133\include\vector
; File C:\Users\ALEXANDER\Desktop\Cliente\COPY_FISH_WON_NEW\Binario\Client\EterLib\Pool.h
; File D:\visual studio 2019\visual studio 2019\VC\Tools\MSVC\14.29.30133\include\vector
; File C:\Users\ALEXANDER\Desktop\Cliente\COPY_FISH_WON_NEW\Binario\Client\EterLib\GrpExpandedImageInstance.cpp
; File D:\visual studio 2019\visual studio 2019\VC\Tools\MSVC\14.29.30133\include\vector
; File C:\Users\ALEXANDER\Desktop\Cliente\COPY_FISH_WON_NEW\Binario\Client\EterLib\Pool.h
; File C:\Users\ALEXANDER\Desktop\Cliente\COPY_FISH_WON_NEW\Binario\Client\EterLib\GrpExpandedImageInstance.cpp
; File D:\visual studio 2019\visual studio 2019\VC\Tools\MSVC\14.29.30133\include\vector
; File C:\Users\ALEXANDER\Desktop\Cliente\COPY_FISH_WON_NEW\Binario\Client\EterLib\Pool.h
; File C:\Users\ALEXANDER\Desktop\Cliente\COPY_FISH_WON_NEW\Binario\Client\EterLib\GrpExpandedImageInstance.cpp
; File C:\Users\ALEXANDER\Desktop\Cliente\COPY_FISH_WON_NEW\Binario\Client\EterLib\Pool.h
; File D:\visual studio 2019\visual studio 2019\VC\Tools\MSVC\14.29.30133\include\vector
; File C:\Users\ALEXANDER\Desktop\Cliente\COPY_FISH_WON_NEW\Binario\Client\EterLib\GrpExpandedImageInstance.cpp
;	COMDAT ?New@CGraphicExpandedImageInstance@@SAPAV1@XZ
_TEXT	SEGMENT
$T2 = -16						; size = 4
_pkNewData$3 = -16					; size = 4
__$EHRec$ = -12						; size = 12
?New@CGraphicExpandedImageInstance@@SAPAV1@XZ PROC	; CGraphicExpandedImageInstance::New, COMDAT

; 19   : {

  00000	55		 push	 ebp
  00001	8b ec		 mov	 ebp, esp
  00003	6a ff		 push	 -1
  00005	68 00 00 00 00	 push	 __ehhandler$?New@CGraphicExpandedImageInstance@@SAPAV1@XZ
  0000a	64 a1 00 00 00
	00		 mov	 eax, DWORD PTR fs:0
  00010	50		 push	 eax
  00011	51		 push	 ecx
  00012	56		 push	 esi
  00013	a1 00 00 00 00	 mov	 eax, DWORD PTR ___security_cookie
  00018	33 c5		 xor	 eax, ebp
  0001a	50		 push	 eax
  0001b	8d 45 f4	 lea	 eax, DWORD PTR __$EHRec$[ebp]
  0001e	64 a3 00 00 00
	00		 mov	 DWORD PTR fs:0, eax
; File C:\Users\ALEXANDER\Desktop\Cliente\COPY_FISH_WON_NEW\Binario\Client\EterLib\Pool.h

; 63   : 			if (m_kVct_pkFree.empty())

  00024	8b 0d 14 00 00
	00		 mov	 ecx, DWORD PTR ?ms_kPool@CGraphicExpandedImageInstance@@2V?$CDynamicPool@VCGraphicExpandedImageInstance@@@@A+20
  0002a	39 0d 10 00 00
	00		 cmp	 DWORD PTR ?ms_kPool@CGraphicExpandedImageInstance@@2V?$CDynamicPool@VCGraphicExpandedImageInstance@@@@A+16, ecx
  00030	0f 85 84 00 00
	00		 jne	 $LN4@New

; 65   : 				T* pkNewData=new T;

  00036	6a 54		 push	 84			; 00000054H
  00038	e8 00 00 00 00	 call	 ??2@YAPAXI@Z		; operator new
  0003d	83 c4 04	 add	 esp, 4
  00040	89 45 f0	 mov	 DWORD PTR $T2[ebp], eax
  00043	c7 45 fc 00 00
	00 00		 mov	 DWORD PTR __$EHRec$[ebp+8], 0
  0004a	85 c0		 test	 eax, eax
  0004c	74 0b		 je	 SHORT $LN6@New
  0004e	8b c8		 mov	 ecx, eax
  00050	e8 00 00 00 00	 call	 ??0CGraphicExpandedImageInstance@@QAE@XZ ; CGraphicExpandedImageInstance::CGraphicExpandedImageInstance
  00055	8b f0		 mov	 esi, eax
  00057	eb 02		 jmp	 SHORT $LN7@New
$LN6@New:
  00059	33 f6		 xor	 esi, esi
$LN7@New:
; File D:\visual studio 2019\visual studio 2019\VC\Tools\MSVC\14.29.30133\include\vector

; 730  :         if (_Mylast != _My_data._Myend) {

  0005b	a1 08 00 00 00	 mov	 eax, DWORD PTR ?ms_kPool@CGraphicExpandedImageInstance@@2V?$CDynamicPool@VCGraphicExpandedImageInstance@@@@A+8
; File C:\Users\ALEXANDER\Desktop\Cliente\COPY_FISH_WON_NEW\Binario\Client\EterLib\Pool.h

; 65   : 				T* pkNewData=new T;

  00060	c7 45 fc ff ff
	ff ff		 mov	 DWORD PTR __$EHRec$[ebp+8], -1
  00067	89 75 f0	 mov	 DWORD PTR _pkNewData$3[ebp], esi
; File D:\visual studio 2019\visual studio 2019\VC\Tools\MSVC\14.29.30133\include\vector

; 730  :         if (_Mylast != _My_data._Myend) {

  0006a	3b 05 0c 00 00
	00		 cmp	 eax, DWORD PTR ?ms_kPool@CGraphicExpandedImageInstance@@2V?$CDynamicPool@VCGraphicExpandedImageInstance@@@@A+12
  00070	74 21		 je	 SHORT $LN14@New

; 713  :         _Alty_traits::construct(_Getal(), _Unfancy(_Mylast), _STD forward<_Valty>(_Val)...);

  00072	89 30		 mov	 DWORD PTR [eax], esi
; File C:\Users\ALEXANDER\Desktop\Cliente\COPY_FISH_WON_NEW\Binario\Client\EterLib\GrpExpandedImageInstance.cpp

; 20   : 	return ms_kPool.Alloc();

  00074	8b c6		 mov	 eax, esi
; File D:\visual studio 2019\visual studio 2019\VC\Tools\MSVC\14.29.30133\include\vector

; 716  :         ++_Mylast;

  00076	83 05 08 00 00
	00 04		 add	 DWORD PTR ?ms_kPool@CGraphicExpandedImageInstance@@2V?$CDynamicPool@VCGraphicExpandedImageInstance@@@@A+8, 4
; File C:\Users\ALEXANDER\Desktop\Cliente\COPY_FISH_WON_NEW\Binario\Client\EterLib\Pool.h

; 67   : 				++m_uUsedCapacity;

  0007d	ff 05 20 00 00
	00		 inc	 DWORD PTR ?ms_kPool@CGraphicExpandedImageInstance@@2V?$CDynamicPool@VCGraphicExpandedImageInstance@@@@A+32
; File C:\Users\ALEXANDER\Desktop\Cliente\COPY_FISH_WON_NEW\Binario\Client\EterLib\GrpExpandedImageInstance.cpp

; 21   : }

  00083	8b 4d f4	 mov	 ecx, DWORD PTR __$EHRec$[ebp]
  00086	64 89 0d 00 00
	00 00		 mov	 DWORD PTR fs:0, ecx
  0008d	59		 pop	 ecx
  0008e	5e		 pop	 esi
  0008f	8b e5		 mov	 esp, ebp
  00091	5d		 pop	 ebp
  00092	c3		 ret	 0
$LN14@New:
; File D:\visual studio 2019\visual studio 2019\VC\Tools\MSVC\14.29.30133\include\vector

; 734  :         _Ty& _Result = *_Emplace_reallocate(_Mylast, _STD forward<_Valty>(_Val)...);

  00093	8d 4d f0	 lea	 ecx, DWORD PTR _pkNewData$3[ebp]
  00096	51		 push	 ecx
  00097	50		 push	 eax
  00098	b9 04 00 00 00	 mov	 ecx, OFFSET ?ms_kPool@CGraphicExpandedImageInstance@@2V?$CDynamicPool@VCGraphicExpandedImageInstance@@@@A+4
  0009d	e8 00 00 00 00	 call	 ??$_Emplace_reallocate@ABQAVCGraphicExpandedImageInstance@@@?$vector@PAVCGraphicExpandedImageInstance@@V?$allocator@PAVCGraphicExpandedImageInstance@@@std@@@std@@QAEPAPAVCGraphicExpandedImageInstance@@QAPAV2@ABQAV2@@Z ; std::vector<CGraphicExpandedImageInstance *,std::allocator<CGraphicExpandedImageInstance *> >::_Emplace_reallocate<CGraphicExpandedImageInstance * const &>
; File C:\Users\ALEXANDER\Desktop\Cliente\COPY_FISH_WON_NEW\Binario\Client\EterLib\Pool.h

; 67   : 				++m_uUsedCapacity;

  000a2	ff 05 20 00 00
	00		 inc	 DWORD PTR ?ms_kPool@CGraphicExpandedImageInstance@@2V?$CDynamicPool@VCGraphicExpandedImageInstance@@@@A+32
; File C:\Users\ALEXANDER\Desktop\Cliente\COPY_FISH_WON_NEW\Binario\Client\EterLib\GrpExpandedImageInstance.cpp

; 20   : 	return ms_kPool.Alloc();

  000a8	8b c6		 mov	 eax, esi

; 21   : }

  000aa	8b 4d f4	 mov	 ecx, DWORD PTR __$EHRec$[ebp]
  000ad	64 89 0d 00 00
	00 00		 mov	 DWORD PTR fs:0, ecx
  000b4	59		 pop	 ecx
  000b5	5e		 pop	 esi
  000b6	8b e5		 mov	 esp, ebp
  000b8	5d		 pop	 ebp
  000b9	c3		 ret	 0
$LN4@New:
; File C:\Users\ALEXANDER\Desktop\Cliente\COPY_FISH_WON_NEW\Binario\Client\EterLib\Pool.h

; 71   : 			T* pkFreeData=m_kVct_pkFree.back();

  000ba	8b 41 fc	 mov	 eax, DWORD PTR [ecx-4]
; File D:\visual studio 2019\visual studio 2019\VC\Tools\MSVC\14.29.30133\include\vector

; 1611 :         return _My_data._Mylast[-1];

  000bd	83 c1 fc	 add	 ecx, -4			; fffffffcH

; 1390 :         --_Mylast;

  000c0	89 0d 14 00 00
	00		 mov	 DWORD PTR ?ms_kPool@CGraphicExpandedImageInstance@@2V?$CDynamicPool@VCGraphicExpandedImageInstance@@@@A+20, ecx
; File C:\Users\ALEXANDER\Desktop\Cliente\COPY_FISH_WON_NEW\Binario\Client\EterLib\GrpExpandedImageInstance.cpp

; 21   : }

  000c6	8b 4d f4	 mov	 ecx, DWORD PTR __$EHRec$[ebp]
  000c9	64 89 0d 00 00
	00 00		 mov	 DWORD PTR fs:0, ecx
  000d0	59		 pop	 ecx
  000d1	5e		 pop	 esi
  000d2	8b e5		 mov	 esp, ebp
  000d4	5d		 pop	 ebp
  000d5	c3		 ret	 0
_TEXT	ENDS
;	COMDAT text$x
text$x	SEGMENT
__unwindfunclet$?New@CGraphicExpandedImageInstance@@SAPAV1@XZ$0:
  00000	6a 54		 push	 84			; 00000054H
  00002	8b 45 f0	 mov	 eax, DWORD PTR $T2[ebp]
  00005	50		 push	 eax
  00006	e8 00 00 00 00	 call	 ??3@YAXPAXI@Z		; operator delete
  0000b	83 c4 08	 add	 esp, 8
  0000e	c3		 ret	 0
  0000f	cc		 int	 3
  00010	cc		 int	 3
  00011	cc		 int	 3
  00012	cc		 int	 3
  00013	cc		 int	 3
__ehhandler$?New@CGraphicExpandedImageInstance@@SAPAV1@XZ:
  00014	90		 npad	 1
  00015	90		 npad	 1
  00016	8b 54 24 08	 mov	 edx, DWORD PTR [esp+8]
  0001a	8d 42 0c	 lea	 eax, DWORD PTR [edx+12]
  0001d	8b 4a f4	 mov	 ecx, DWORD PTR [edx-12]
  00020	33 c8		 xor	 ecx, eax
  00022	e8 00 00 00 00	 call	 @__security_check_cookie@4
  00027	b8 00 00 00 00	 mov	 eax, OFFSET __ehfuncinfo$?New@CGraphicExpandedImageInstance@@SAPAV1@XZ
  0002c	e9 00 00 00 00	 jmp	 ___CxxFrameHandler3
text$x	ENDS
?New@CGraphicExpandedImageInstance@@SAPAV1@XZ ENDP	; CGraphicExpandedImageInstance::New
; Function compile flags: /Ogtp
; File C:\Users\ALEXANDER\Desktop\Cliente\COPY_FISH_WON_NEW\Binario\Client\EterLib\GrpExpandedImageInstance.cpp
; File D:\visual studio 2019\visual studio 2019\VC\Tools\MSVC\14.29.30133\include\algorithm
; File C:\Users\ALEXANDER\Desktop\Cliente\COPY_FISH_WON_NEW\Binario\Client\EterLib\GrpExpandedImageInstance.cpp
; File D:\visual studio 2019\visual studio 2019\VC\Tools\MSVC\14.29.30133\include\algorithm
; File C:\Users\ALEXANDER\Desktop\Cliente\COPY_FISH_WON_NEW\Binario\Client\EterLib\Pool.h
; File D:\visual studio 2019\visual studio 2019\VC\Tools\MSVC\14.29.30133\include\algorithm
; File C:\Users\ALEXANDER\Desktop\Cliente\COPY_FISH_WON_NEW\Binario\Client\EterLib\Pool.h
; File C:\Users\ALEXANDER\Desktop\Cliente\COPY_FISH_WON_NEW\Binario\Client\EterLib\GrpExpandedImageInstance.cpp
; File C:\Users\ALEXANDER\Desktop\Cliente\COPY_FISH_WON_NEW\Binario\Client\EterLib\Pool.h
; File C:\Users\ALEXANDER\Desktop\Cliente\COPY_FISH_WON_NEW\Binario\Client\EterLib\GrpExpandedImageInstance.cpp
;	COMDAT ?DestroySystem@CGraphicExpandedImageInstance@@SAXXZ
_TEXT	SEGMENT
?DestroySystem@CGraphicExpandedImageInstance@@SAXXZ PROC ; CGraphicExpandedImageInstance::DestroySystem, COMDAT

; 14   : {

  00000	56		 push	 esi
; File D:\visual studio 2019\visual studio 2019\VC\Tools\MSVC\14.29.30133\include\algorithm

; 232  :     for (; _UFirst != _ULast; ++_UFirst) {

  00001	8b 35 04 00 00
	00		 mov	 esi, DWORD PTR ?ms_kPool@CGraphicExpandedImageInstance@@2V?$CDynamicPool@VCGraphicExpandedImageInstance@@@@A+4
; File C:\Users\ALEXANDER\Desktop\Cliente\COPY_FISH_WON_NEW\Binario\Client\EterLib\GrpExpandedImageInstance.cpp

; 14   : {

  00007	57		 push	 edi
; File D:\visual studio 2019\visual studio 2019\VC\Tools\MSVC\14.29.30133\include\algorithm

; 231  :     const auto _ULast = _Get_unwrapped(_Last);

  00008	8b 3d 08 00 00
	00		 mov	 edi, DWORD PTR ?ms_kPool@CGraphicExpandedImageInstance@@2V?$CDynamicPool@VCGraphicExpandedImageInstance@@@@A+8

; 232  :     for (; _UFirst != _ULast; ++_UFirst) {

  0000e	3b f7		 cmp	 esi, edi
  00010	74 2a		 je	 SHORT $LN30@DestroySys
$LL20@DestroySys:
; File C:\Users\ALEXANDER\Desktop\Cliente\COPY_FISH_WON_NEW\Binario\Client\EterLib\Pool.h

; 110  : 			delete pkData;

  00012	8b 0e		 mov	 ecx, DWORD PTR [esi]
  00014	85 c9		 test	 ecx, ecx
  00016	74 06		 je	 SHORT $LN18@DestroySys
  00018	8b 01		 mov	 eax, DWORD PTR [ecx]
  0001a	6a 01		 push	 1
  0001c	ff 10		 call	 DWORD PTR [eax]
$LN18@DestroySys:
; File D:\visual studio 2019\visual studio 2019\VC\Tools\MSVC\14.29.30133\include\algorithm

; 232  :     for (; _UFirst != _ULast; ++_UFirst) {

  0001e	83 c6 04	 add	 esi, 4
  00021	3b f7		 cmp	 esi, edi
  00023	75 ed		 jne	 SHORT $LL20@DestroySys
; File C:\Users\ALEXANDER\Desktop\Cliente\COPY_FISH_WON_NEW\Binario\Client\EterLib\Pool.h

; 51   : 			m_kVct_pkData.clear();

  00025	a1 04 00 00 00	 mov	 eax, DWORD PTR ?ms_kPool@CGraphicExpandedImageInstance@@2V?$CDynamicPool@VCGraphicExpandedImageInstance@@@@A+4
  0002a	a3 08 00 00 00	 mov	 DWORD PTR ?ms_kPool@CGraphicExpandedImageInstance@@2V?$CDynamicPool@VCGraphicExpandedImageInstance@@@@A+8, eax
; File C:\Users\ALEXANDER\Desktop\Cliente\COPY_FISH_WON_NEW\Binario\Client\EterLib\GrpExpandedImageInstance.cpp

; 16   : }

  0002f	a1 10 00 00 00	 mov	 eax, DWORD PTR ?ms_kPool@CGraphicExpandedImageInstance@@2V?$CDynamicPool@VCGraphicExpandedImageInstance@@@@A+16
  00034	5f		 pop	 edi
  00035	a3 14 00 00 00	 mov	 DWORD PTR ?ms_kPool@CGraphicExpandedImageInstance@@2V?$CDynamicPool@VCGraphicExpandedImageInstance@@@@A+20, eax
  0003a	5e		 pop	 esi
  0003b	c3		 ret	 0
$LN30@DestroySys:
  0003c	a1 10 00 00 00	 mov	 eax, DWORD PTR ?ms_kPool@CGraphicExpandedImageInstance@@2V?$CDynamicPool@VCGraphicExpandedImageInstance@@@@A+16
  00041	5f		 pop	 edi
; File C:\Users\ALEXANDER\Desktop\Cliente\COPY_FISH_WON_NEW\Binario\Client\EterLib\Pool.h

; 51   : 			m_kVct_pkData.clear();

  00042	89 35 08 00 00
	00		 mov	 DWORD PTR ?ms_kPool@CGraphicExpandedImageInstance@@2V?$CDynamicPool@VCGraphicExpandedImageInstance@@@@A+8, esi
; File C:\Users\ALEXANDER\Desktop\Cliente\COPY_FISH_WON_NEW\Binario\Client\EterLib\GrpExpandedImageInstance.cpp

; 16   : }

  00048	a3 14 00 00 00	 mov	 DWORD PTR ?ms_kPool@CGraphicExpandedImageInstance@@2V?$CDynamicPool@VCGraphicExpandedImageInstance@@@@A+20, eax
  0004d	5e		 pop	 esi
  0004e	c3		 ret	 0
?DestroySystem@CGraphicExpandedImageInstance@@SAXXZ ENDP ; CGraphicExpandedImageInstance::DestroySystem
_TEXT	ENDS
; Function compile flags: /Ogtp
; File C:\Users\ALEXANDER\Desktop\Cliente\COPY_FISH_WON_NEW\Binario\Client\EterLib\GrpExpandedImageInstance.cpp
; File D:\visual studio 2019\visual studio 2019\VC\Tools\MSVC\14.29.30133\include\vector
; File C:\Users\ALEXANDER\Desktop\Cliente\COPY_FISH_WON_NEW\Binario\Client\EterLib\GrpExpandedImageInstance.cpp
; File C:\Users\ALEXANDER\Desktop\Cliente\COPY_FISH_WON_NEW\Binario\Client\EterLib\Pool.h
; File D:\visual studio 2019\visual studio 2019\VC\Tools\MSVC\14.29.30133\include\vector
; File C:\Users\ALEXANDER\Desktop\Cliente\COPY_FISH_WON_NEW\Binario\Client\EterLib\Pool.h
; File D:\visual studio 2019\visual studio 2019\VC\Tools\MSVC\14.29.30133\include\vector
; File C:\Users\ALEXANDER\Desktop\Cliente\COPY_FISH_WON_NEW\Binario\Client\EterLib\GrpExpandedImageInstance.cpp
; File D:\visual studio 2019\visual studio 2019\VC\Tools\MSVC\14.29.30133\include\vector
; File C:\Users\ALEXANDER\Desktop\Cliente\COPY_FISH_WON_NEW\Binario\Client\EterLib\GrpExpandedImageInstance.cpp
;	COMDAT ?CreateSystem@CGraphicExpandedImageInstance@@SAXI@Z
_TEXT	SEGMENT
_uCapacity$ = 8						; size = 4
?CreateSystem@CGraphicExpandedImageInstance@@SAXI@Z PROC ; CGraphicExpandedImageInstance::CreateSystem, COMDAT

; 9    : {

  00000	55		 push	 ebp
  00001	8b ec		 mov	 ebp, esp
; File D:\visual studio 2019\visual studio 2019\VC\Tools\MSVC\14.29.30133\include\vector

; 1546 :         return static_cast<size_type>(_My_data._Myend - _My_data._Myfirst);

  00003	a1 0c 00 00 00	 mov	 eax, DWORD PTR ?ms_kPool@CGraphicExpandedImageInstance@@2V?$CDynamicPool@VCGraphicExpandedImageInstance@@@@A+12
  00008	2b 05 04 00 00
	00		 sub	 eax, DWORD PTR ?ms_kPool@CGraphicExpandedImageInstance@@2V?$CDynamicPool@VCGraphicExpandedImageInstance@@@@A+4
; File C:\Users\ALEXANDER\Desktop\Cliente\COPY_FISH_WON_NEW\Binario\Client\EterLib\GrpExpandedImageInstance.cpp

; 9    : {

  0000e	56		 push	 esi
; File C:\Users\ALEXANDER\Desktop\Cliente\COPY_FISH_WON_NEW\Binario\Client\EterLib\Pool.h

; 57   : 			m_uInitCapacity=uCapacity;

  0000f	8b 75 08	 mov	 esi, DWORD PTR _uCapacity$[ebp]
; File D:\visual studio 2019\visual studio 2019\VC\Tools\MSVC\14.29.30133\include\vector

; 1546 :         return static_cast<size_type>(_My_data._Myend - _My_data._Myfirst);

  00012	c1 f8 02	 sar	 eax, 2
; File C:\Users\ALEXANDER\Desktop\Cliente\COPY_FISH_WON_NEW\Binario\Client\EterLib\Pool.h

; 57   : 			m_uInitCapacity=uCapacity;

  00015	89 35 1c 00 00
	00		 mov	 DWORD PTR ?ms_kPool@CGraphicExpandedImageInstance@@2V?$CDynamicPool@VCGraphicExpandedImageInstance@@@@A+28, esi
; File D:\visual studio 2019\visual studio 2019\VC\Tools\MSVC\14.29.30133\include\vector

; 1358 :         if (_Newcapacity > capacity()) { // something to do (reserve() never shrinks)

  0001b	3b f0		 cmp	 esi, eax
  0001d	76 13		 jbe	 SHORT $LN6@CreateSyst

; 1359 :             if (_Newcapacity > max_size()) {

  0001f	81 fe ff ff ff
	3f		 cmp	 esi, 1073741823		; 3fffffffH
  00025	77 33		 ja	 SHORT $LN19@CreateSyst

; 1361 :             }
; 1362 : 
; 1363 :             _Reallocate_exactly(_Newcapacity);

  00027	56		 push	 esi
  00028	b9 04 00 00 00	 mov	 ecx, OFFSET ?ms_kPool@CGraphicExpandedImageInstance@@2V?$CDynamicPool@VCGraphicExpandedImageInstance@@@@A+4
  0002d	e8 00 00 00 00	 call	 ?_Reallocate_exactly@?$vector@PAVCGraphicExpandedImageInstance@@V?$allocator@PAVCGraphicExpandedImageInstance@@@std@@@std@@AAEXI@Z ; std::vector<CGraphicExpandedImageInstance *,std::allocator<CGraphicExpandedImageInstance *> >::_Reallocate_exactly
$LN6@CreateSyst:

; 1546 :         return static_cast<size_type>(_My_data._Myend - _My_data._Myfirst);

  00032	a1 18 00 00 00	 mov	 eax, DWORD PTR ?ms_kPool@CGraphicExpandedImageInstance@@2V?$CDynamicPool@VCGraphicExpandedImageInstance@@@@A+24
  00037	2b 05 10 00 00
	00		 sub	 eax, DWORD PTR ?ms_kPool@CGraphicExpandedImageInstance@@2V?$CDynamicPool@VCGraphicExpandedImageInstance@@@@A+16
  0003d	c1 f8 02	 sar	 eax, 2

; 1358 :         if (_Newcapacity > capacity()) { // something to do (reserve() never shrinks)

  00040	3b f0		 cmp	 esi, eax
  00042	76 13		 jbe	 SHORT $LN13@CreateSyst

; 1359 :             if (_Newcapacity > max_size()) {

  00044	81 fe ff ff ff
	3f		 cmp	 esi, 1073741823		; 3fffffffH
  0004a	77 0e		 ja	 SHORT $LN19@CreateSyst

; 1361 :             }
; 1362 : 
; 1363 :             _Reallocate_exactly(_Newcapacity);

  0004c	56		 push	 esi
  0004d	b9 10 00 00 00	 mov	 ecx, OFFSET ?ms_kPool@CGraphicExpandedImageInstance@@2V?$CDynamicPool@VCGraphicExpandedImageInstance@@@@A+16
  00052	e8 00 00 00 00	 call	 ?_Reallocate_exactly@?$vector@PAVCGraphicExpandedImageInstance@@V?$allocator@PAVCGraphicExpandedImageInstance@@@std@@@std@@AAEXI@Z ; std::vector<CGraphicExpandedImageInstance *,std::allocator<CGraphicExpandedImageInstance *> >::_Reallocate_exactly
$LN13@CreateSyst:
  00057	5e		 pop	 esi
; File C:\Users\ALEXANDER\Desktop\Cliente\COPY_FISH_WON_NEW\Binario\Client\EterLib\GrpExpandedImageInstance.cpp

; 11   : }

  00058	5d		 pop	 ebp
  00059	c3		 ret	 0
$LN19@CreateSyst:
; File D:\visual studio 2019\visual studio 2019\VC\Tools\MSVC\14.29.30133\include\vector

; 1360 :                 _Xlength();

  0005a	e8 00 00 00 00	 call	 ?_Xlength@?$vector@PAVCGraphicExpandedImageInstance@@V?$allocator@PAVCGraphicExpandedImageInstance@@@std@@@std@@CAXXZ ; std::vector<CGraphicExpandedImageInstance *,std::allocator<CGraphicExpandedImageInstance *> >::_Xlength
$LN20@CreateSyst:
  0005f	cc		 int	 3
?CreateSystem@CGraphicExpandedImageInstance@@SAXI@Z ENDP ; CGraphicExpandedImageInstance::CreateSystem
_TEXT	ENDS
; Function compile flags: /Ogtp
; File C:\Users\ALEXANDER\Desktop\Cliente\COPY_FISH_WON_NEW\Binario\Client\EterLib\GrpExpandedImageInstance.cpp
;	COMDAT ?OnIsType@CGraphicExpandedImageInstance@@MAEHK@Z
_TEXT	SEGMENT
_dwType$ = 8						; size = 4
?OnIsType@CGraphicExpandedImageInstance@@MAEHK@Z PROC	; CGraphicExpandedImageInstance::OnIsType, COMDAT
; _this$ = ecx

; 218  : {

  00000	55		 push	 ebp
  00001	8b ec		 mov	 ebp, esp
  00003	56		 push	 esi
  00004	8b f1		 mov	 esi, ecx

; 219  : 	if (CGraphicExpandedImageInstance::Type() == dwType)

  00006	e8 00 00 00 00	 call	 ?Type@CGraphicExpandedImageInstance@@SAKXZ ; CGraphicExpandedImageInstance::Type
  0000b	8b 55 08	 mov	 edx, DWORD PTR _dwType$[ebp]
  0000e	3b c2		 cmp	 eax, edx
  00010	75 0a		 jne	 SHORT $LN2@OnIsType

; 220  : 		return TRUE;

  00012	b8 01 00 00 00	 mov	 eax, 1
  00017	5e		 pop	 esi

; 223  : }

  00018	5d		 pop	 ebp
  00019	c2 04 00	 ret	 4
$LN2@OnIsType:

; 221  : 
; 222  : 	return CGraphicImageInstance::IsType(dwType);

  0001c	52		 push	 edx
  0001d	8b ce		 mov	 ecx, esi
  0001f	e8 00 00 00 00	 call	 ?IsType@CGraphicImageInstance@@QAEHK@Z ; CGraphicImageInstance::IsType
  00024	5e		 pop	 esi

; 223  : }

  00025	5d		 pop	 ebp
  00026	c2 04 00	 ret	 4
?OnIsType@CGraphicExpandedImageInstance@@MAEHK@Z ENDP	; CGraphicExpandedImageInstance::OnIsType
_TEXT	ENDS
; Function compile flags: /Ogtp
; File C:\Users\ALEXANDER\Desktop\Cliente\COPY_FISH_WON_NEW\Binario\Client\EterLib\GrpExpandedImageInstance.cpp
;	COMDAT ?OnSetImagePointer@CGraphicExpandedImageInstance@@MAEXXZ
_TEXT	SEGMENT
?OnSetImagePointer@CGraphicExpandedImageInstance@@MAEXXZ PROC ; CGraphicExpandedImageInstance::OnSetImagePointer, COMDAT
; _this$ = ecx

; 210  : {

  00000	56		 push	 esi
  00001	8b f1		 mov	 esi, ecx

; 211  : 	if (IsEmpty())

  00003	e8 00 00 00 00	 call	 ?IsEmpty@CGraphicImageInstance@@QBE_NXZ ; CGraphicImageInstance::IsEmpty
  00008	84 c0		 test	 al, al
  0000a	75 3f		 jne	 SHORT $LN1@OnSetImage

; 212  : 		return;
; 213  : 
; 214  : 	SetOrigin(float(GetWidth()) / 2.0f, float(GetHeight()) / 2.0f);

  0000c	8b ce		 mov	 ecx, esi
  0000e	e8 00 00 00 00	 call	 ?GetHeight@CGraphicImageInstance@@QAEHXZ ; CGraphicImageInstance::GetHeight
  00013	51		 push	 ecx
  00014	8b ce		 mov	 ecx, esi
  00016	66 0f 6e c0	 movd	 xmm0, eax
  0001a	0f 5b c0	 cvtdq2ps xmm0, xmm0
  0001d	f3 0f 59 05 00
	00 00 00	 mulss	 xmm0, DWORD PTR __real@3f000000
  00025	f3 0f 11 04 24	 movss	 DWORD PTR [esp], xmm0
  0002a	e8 00 00 00 00	 call	 ?GetWidth@CGraphicImageInstance@@QAEHXZ ; CGraphicImageInstance::GetWidth
  0002f	51		 push	 ecx
  00030	8b ce		 mov	 ecx, esi
  00032	66 0f 6e c0	 movd	 xmm0, eax
  00036	0f 5b c0	 cvtdq2ps xmm0, xmm0
  00039	f3 0f 59 05 00
	00 00 00	 mulss	 xmm0, DWORD PTR __real@3f000000
  00041	f3 0f 11 04 24	 movss	 DWORD PTR [esp], xmm0
  00046	e8 00 00 00 00	 call	 ?SetOrigin@CGraphicExpandedImageInstance@@QAEXMM@Z ; CGraphicExpandedImageInstance::SetOrigin
$LN1@OnSetImage:

; 215  : }

  0004b	5e		 pop	 esi
  0004c	c3		 ret	 0
?OnSetImagePointer@CGraphicExpandedImageInstance@@MAEXXZ ENDP ; CGraphicExpandedImageInstance::OnSetImagePointer
_TEXT	ENDS
; Function compile flags: /Ogtp
; File C:\Users\ALEXANDER\Desktop\Cliente\COPY_FISH_WON_NEW\Binario\Client\EterLib\GrpExpandedImageInstance.cpp
; File C:\Users\ALEXANDER\Desktop\Cliente\COPY_FISH_WON_NEW\Binario\extern\include\d3dx8math.inl
; File C:\Users\ALEXANDER\Desktop\Cliente\COPY_FISH_WON_NEW\Binario\Client\EterLib\GrpExpandedImageInstance.cpp
; File C:\Users\ALEXANDER\Desktop\Cliente\COPY_FISH_WON_NEW\Binario\extern\include\d3dx8math.inl
; File C:\Users\ALEXANDER\Desktop\Cliente\COPY_FISH_WON_NEW\Binario\Client\EterLib\GrpExpandedImageInstance.cpp
; File C:\Users\ALEXANDER\Desktop\Cliente\COPY_FISH_WON_NEW\Binario\extern\include\d3dx8math.inl
; File C:\Users\ALEXANDER\Desktop\Cliente\COPY_FISH_WON_NEW\Binario\Client\EterLib\GrpExpandedImageInstance.cpp
; File C:\Users\ALEXANDER\Desktop\Cliente\COPY_FISH_WON_NEW\Binario\extern\include\d3dx8math.inl
; File C:\Users\ALEXANDER\Desktop\Cliente\COPY_FISH_WON_NEW\Binario\Client\EterLib\GrpExpandedImageInstance.cpp
; File C:\Users\ALEXANDER\Desktop\Cliente\COPY_FISH_WON_NEW\Binario\extern\include\d3dx8math.inl
; File C:\Users\ALEXANDER\Desktop\Cliente\COPY_FISH_WON_NEW\Binario\Client\EterLib\GrpExpandedImageInstance.cpp
; File C:\Users\ALEXANDER\Desktop\Cliente\COPY_FISH_WON_NEW\Binario\extern\include\d3dx8math.inl
; File C:\Users\ALEXANDER\Desktop\Cliente\COPY_FISH_WON_NEW\Binario\Client\EterLib\GrpExpandedImageInstance.cpp
; File C:\Users\ALEXANDER\Desktop\Cliente\COPY_FISH_WON_NEW\Binario\extern\include\d3dx8math.inl
; File C:\Users\ALEXANDER\Desktop\Cliente\COPY_FISH_WON_NEW\Binario\Client\EterLib\GrpExpandedImageInstance.cpp
; File C:\Users\ALEXANDER\Desktop\Cliente\COPY_FISH_WON_NEW\Binario\extern\include\d3dx8math.inl
; File C:\Users\ALEXANDER\Desktop\Cliente\COPY_FISH_WON_NEW\Binario\Client\EterLib\GrpExpandedImageInstance.cpp
; File C:\Users\ALEXANDER\Desktop\Cliente\COPY_FISH_WON_NEW\Binario\extern\include\d3dx8math.inl
; File C:\Users\ALEXANDER\Desktop\Cliente\COPY_FISH_WON_NEW\Binario\Client\EterLib\GrpExpandedImageInstance.cpp
; File C:\Users\ALEXANDER\Desktop\Cliente\COPY_FISH_WON_NEW\Binario\extern\include\d3dx8math.inl
; File C:\Users\ALEXANDER\Desktop\Cliente\COPY_FISH_WON_NEW\Binario\Client\EterLib\GrpExpandedImageInstance.cpp
; File C:\Users\ALEXANDER\Desktop\Cliente\COPY_FISH_WON_NEW\Binario\extern\include\d3dx8math.inl
; File C:\Users\ALEXANDER\Desktop\Cliente\COPY_FISH_WON_NEW\Binario\Client\EterLib\GrpExpandedImageInstance.cpp
; File C:\Users\ALEXANDER\Desktop\Cliente\COPY_FISH_WON_NEW\Binario\extern\include\d3dx8math.inl
; File C:\Users\ALEXANDER\Desktop\Cliente\COPY_FISH_WON_NEW\Binario\Client\EterLib\GrpExpandedImageInstance.cpp
; File C:\Users\ALEXANDER\Desktop\Cliente\COPY_FISH_WON_NEW\Binario\extern\include\d3dx8math.inl
; File C:\Users\ALEXANDER\Desktop\Cliente\COPY_FISH_WON_NEW\Binario\Client\EterLib\GrpExpandedImageInstance.cpp
; File C:\Users\ALEXANDER\Desktop\Cliente\COPY_FISH_WON_NEW\Binario\extern\include\d3dx8math.inl
; File C:\Users\ALEXANDER\Desktop\Cliente\COPY_FISH_WON_NEW\Binario\Client\EterLib\GrpExpandedImageInstance.cpp
; File C:\Users\ALEXANDER\Desktop\Cliente\COPY_FISH_WON_NEW\Binario\extern\include\d3dx8math.inl
; File C:\Users\ALEXANDER\Desktop\Cliente\COPY_FISH_WON_NEW\Binario\Client\EterLib\GrpExpandedImageInstance.cpp
; File C:\Users\ALEXANDER\Desktop\Cliente\COPY_FISH_WON_NEW\Binario\extern\include\d3dx8math.inl
; File C:\Users\ALEXANDER\Desktop\Cliente\COPY_FISH_WON_NEW\Binario\Client\EterLib\GrpExpandedImageInstance.cpp
; File C:\Users\ALEXANDER\Desktop\Cliente\COPY_FISH_WON_NEW\Binario\extern\include\d3dx8math.inl
; File C:\Users\ALEXANDER\Desktop\Cliente\COPY_FISH_WON_NEW\Binario\Client\EterLib\GrpExpandedImageInstance.cpp
; File C:\Users\ALEXANDER\Desktop\Cliente\COPY_FISH_WON_NEW\Binario\extern\include\d3dx8math.inl
; File C:\Users\ALEXANDER\Desktop\Cliente\COPY_FISH_WON_NEW\Binario\Client\EterLib\GrpExpandedImageInstance.cpp
; File D:\Windows Kits\10\Include\10.0.19041.0\ucrt\corecrt_math.h
; File C:\Users\ALEXANDER\Desktop\Cliente\COPY_FISH_WON_NEW\Binario\Client\EterLib\GrpExpandedImageInstance.cpp
; File D:\Windows Kits\10\Include\10.0.19041.0\ucrt\corecrt_math.h
; File C:\Users\ALEXANDER\Desktop\Cliente\COPY_FISH_WON_NEW\Binario\Client\EterLib\GrpExpandedImageInstance.cpp
; File D:\Windows Kits\10\Include\10.0.19041.0\ucrt\corecrt_math.h
; File C:\Users\ALEXANDER\Desktop\Cliente\COPY_FISH_WON_NEW\Binario\Client\EterLib\GrpExpandedImageInstance.cpp
; File D:\Windows Kits\10\Include\10.0.19041.0\ucrt\corecrt_math.h
; File C:\Users\ALEXANDER\Desktop\Cliente\COPY_FISH_WON_NEW\Binario\Client\EterLib\GrpExpandedImageInstance.cpp
; File D:\Windows Kits\10\Include\10.0.19041.0\ucrt\corecrt_math.h
; File C:\Users\ALEXANDER\Desktop\Cliente\COPY_FISH_WON_NEW\Binario\Client\EterLib\GrpExpandedImageInstance.cpp
;	COMDAT ?OnRender@CGraphicExpandedImageInstance@@MAEXXZ
_TEXT	SEGMENT
tv2055 = -144						; size = 8
_eu$1$ = -140						; size = 4
_sv$1$ = -136						; size = 4
tv2021 = -136						; size = 4
_pTexture$1$ = -132					; size = 4
_fimgHalfHeight$1$ = -128				; size = 4
_fimgWidth$1$ = -128					; size = 4
_su$1$ = -128						; size = 4
_fimgHalfWidth$1$ = -124				; size = 4
_pImage$1$ = -124					; size = 4
_ev$1$ = -120						; size = 4
_texReverseWidth$1$ = -120				; size = 4
tv2013 = -120						; size = 4
_dwR$1$ = -116						; size = 4
tv1950 = -116						; size = 4
_dwG$1$ = -112						; size = 4
tv1949 = -112						; size = 4
_dwR$1$ = -108						; size = 4
_dwR$1$ = -108						; size = 4
_dwG$1$ = -108						; size = 4
_dwG$1$ = -104						; size = 4
_dwG$1$ = -104						; size = 4
_dwR$1$ = -104						; size = 4
tv2026 = -104						; size = 4
_vertices$ = -100					; size = 96
__$ArrayPad$ = -4					; size = 4
?OnRender@CGraphicExpandedImageInstance@@MAEXXZ PROC	; CGraphicExpandedImageInstance::OnRender, COMDAT
; _this$ = ecx

; 30   : {

  00000	55		 push	 ebp
  00001	8b ec		 mov	 ebp, esp
  00003	81 ec 90 00 00
	00		 sub	 esp, 144		; 00000090H
  00009	a1 00 00 00 00	 mov	 eax, DWORD PTR ___security_cookie
  0000e	33 c5		 xor	 eax, ebp
  00010	89 45 fc	 mov	 DWORD PTR __$ArrayPad$[ebp], eax
  00013	56		 push	 esi
  00014	57		 push	 edi
  00015	8b f9		 mov	 edi, ecx

; 31   : 	CGraphicImage * pImage = m_roImage.GetPointer();

  00017	8b 77 24	 mov	 esi, DWORD PTR [edi+36]

; 32   : 	CGraphicTexture * pTexture = pImage->GetTexturePointer();

  0001a	8b ce		 mov	 ecx, esi
  0001c	89 75 84	 mov	 DWORD PTR _pImage$1$[ebp], esi
  0001f	e8 00 00 00 00	 call	 ?GetTexturePointer@CGraphicImage@@QAEPAVCGraphicTexture@@XZ ; CGraphicImage::GetTexturePointer

; 33   : 
; 34   : 	const RECT& c_rRect = pImage->GetRectReference();

  00024	8b ce		 mov	 ecx, esi
  00026	89 85 7c ff ff
	ff		 mov	 DWORD PTR _pTexture$1$[ebp], eax
  0002c	e8 00 00 00 00	 call	 ?GetRectReference@CGraphicImage@@QBEABUtagRECT@@XZ ; CGraphicImage::GetRectReference

; 35   : 	float texReverseWidth = 1.0f / float(pTexture->GetWidth());

  00031	8b 8d 7c ff ff
	ff		 mov	 ecx, DWORD PTR _pTexture$1$[ebp]
  00037	8b f0		 mov	 esi, eax
  00039	e8 00 00 00 00	 call	 ?GetWidth@CGraphicTexture@@QBEHXZ ; CGraphicTexture::GetWidth
  0003e	f3 0f 10 0d 00
	00 00 00	 movss	 xmm1, DWORD PTR __real@3f800000

; 36   : 	float texReverseHeight = 1.0f / float(pTexture->GetHeight());

  00046	8b 8d 7c ff ff
	ff		 mov	 ecx, DWORD PTR _pTexture$1$[ebp]
  0004c	66 0f 6e c0	 movd	 xmm0, eax
  00050	0f 5b c0	 cvtdq2ps xmm0, xmm0
  00053	f3 0f 5e c8	 divss	 xmm1, xmm0
  00057	f3 0f 11 4d 88	 movss	 DWORD PTR _texReverseWidth$1$[ebp], xmm1
  0005c	e8 00 00 00 00	 call	 ?GetHeight@CGraphicTexture@@QBEHXZ ; CGraphicTexture::GetHeight
  00061	f3 0f 10 0d 00
	00 00 00	 movss	 xmm1, DWORD PTR __real@3f800000
; File C:\Users\ALEXANDER\Desktop\Cliente\COPY_FISH_WON_NEW\Binario\extern\include\d3dx8math.inl

; 931  :     DWORD dwR = r >= 1.0f ? 0xff : r <= 0.0f ? 0x00 : (DWORD) (r * 255.0f + 0.5f);

  00069	f3 0f 10 15 00
	00 00 00	 movss	 xmm2, DWORD PTR __real@437f0000
  00071	66 0f 6e c0	 movd	 xmm0, eax
; File C:\Users\ALEXANDER\Desktop\Cliente\COPY_FISH_WON_NEW\Binario\Client\EterLib\GrpExpandedImageInstance.cpp

; 37   : 	float su = (c_rRect.left - m_RenderingRect.left) * texReverseWidth;

  00075	8b 06		 mov	 eax, DWORD PTR [esi]
  00077	2b 47 40	 sub	 eax, DWORD PTR [edi+64]
  0007a	0f 5b c0	 cvtdq2ps xmm0, xmm0
  0007d	66 0f 6e e0	 movd	 xmm4, eax

; 38   : 	float sv = (c_rRect.top - m_RenderingRect.top) * texReverseHeight;

  00081	8b 46 04	 mov	 eax, DWORD PTR [esi+4]
  00084	2b 47 44	 sub	 eax, DWORD PTR [edi+68]
  00087	f3 0f 5e c8	 divss	 xmm1, xmm0
  0008b	66 0f 6e d8	 movd	 xmm3, eax

; 39   : 	float eu = (c_rRect.left + m_RenderingRect.right + (c_rRect.right-c_rRect.left)) * texReverseWidth;

  0008f	8b 46 08	 mov	 eax, DWORD PTR [esi+8]
  00092	03 47 48	 add	 eax, DWORD PTR [edi+72]
  00095	0f 5b e4	 cvtdq2ps xmm4, xmm4
  00098	66 0f 6e e8	 movd	 xmm5, eax

; 40   : 	float ev = (c_rRect.top + m_RenderingRect.bottom + (c_rRect.bottom-c_rRect.top)) * texReverseHeight;

  0009c	8b 46 0c	 mov	 eax, DWORD PTR [esi+12]
  0009f	03 47 4c	 add	 eax, DWORD PTR [edi+76]
  000a2	f3 0f 59 65 88	 mulss	 xmm4, DWORD PTR _texReverseWidth$1$[ebp]
  000a7	0f 5b db	 cvtdq2ps xmm3, xmm3
  000aa	66 0f 6e c0	 movd	 xmm0, eax
  000ae	0f 5b c0	 cvtdq2ps xmm0, xmm0
  000b1	0f 5b ed	 cvtdq2ps xmm5, xmm5
  000b4	f3 0f 59 c1	 mulss	 xmm0, xmm1
  000b8	f3 0f 59 6d 88	 mulss	 xmm5, DWORD PTR _texReverseWidth$1$[ebp]
  000bd	f3 0f 11 45 88	 movss	 DWORD PTR _ev$1$[ebp], xmm0

; 43   : 	vertices[0].position.x	= m_v2Position.x-0.5f;

  000c2	f3 0f 10 47 14	 movss	 xmm0, DWORD PTR [edi+20]
  000c7	f3 0f 59 d9	 mulss	 xmm3, xmm1
  000cb	f3 0f 10 0d 00
	00 00 00	 movss	 xmm1, DWORD PTR __real@3f000000
  000d3	f3 0f 5c c1	 subss	 xmm0, xmm1
  000d7	f3 0f 11 65 80	 movss	 DWORD PTR _su$1$[ebp], xmm4
  000dc	f3 0f 11 9d 78
	ff ff ff	 movss	 DWORD PTR _sv$1$[ebp], xmm3

; 45   : 	vertices[0].position.z	= m_fDepth;
; 46   : 	vertices[0].texCoord	= TTextureCoordinate(su, sv);

  000e4	f3 0f 11 5d b0	 movss	 DWORD PTR _vertices$[ebp+20], xmm3
; File C:\Users\ALEXANDER\Desktop\Cliente\COPY_FISH_WON_NEW\Binario\extern\include\d3dx8math.inl

; 931  :     DWORD dwR = r >= 1.0f ? 0xff : r <= 0.0f ? 0x00 : (DWORD) (r * 255.0f + 0.5f);

  000e9	f3 0f 10 5f 04	 movss	 xmm3, DWORD PTR [edi+4]
  000ee	0f 2f 1d 00 00
	00 00		 comiss	 xmm3, DWORD PTR __real@3f800000
; File C:\Users\ALEXANDER\Desktop\Cliente\COPY_FISH_WON_NEW\Binario\Client\EterLib\GrpExpandedImageInstance.cpp

; 43   : 	vertices[0].position.x	= m_v2Position.x-0.5f;

  000f5	f3 0f 11 45 90	 movss	 DWORD PTR tv1949[ebp], xmm0
  000fa	f3 0f 11 45 9c	 movss	 DWORD PTR _vertices$[ebp], xmm0

; 44   : 	vertices[0].position.y	= m_v2Position.y-0.5f;

  000ff	f3 0f 10 47 18	 movss	 xmm0, DWORD PTR [edi+24]
  00104	f3 0f 5c c1	 subss	 xmm0, xmm1
  00108	f3 0f 11 ad 74
	ff ff ff	 movss	 DWORD PTR _eu$1$[ebp], xmm5

; 45   : 	vertices[0].position.z	= m_fDepth;
; 46   : 	vertices[0].texCoord	= TTextureCoordinate(su, sv);

  00110	f3 0f 11 65 ac	 movss	 DWORD PTR _vertices$[ebp+16], xmm4
  00115	f3 0f 11 45 8c	 movss	 DWORD PTR tv1950[ebp], xmm0
  0011a	f3 0f 11 45 a0	 movss	 DWORD PTR _vertices$[ebp+4], xmm0
  0011f	f3 0f 10 47 28	 movss	 xmm0, DWORD PTR [edi+40]
  00124	f3 0f 11 45 a4	 movss	 DWORD PTR _vertices$[ebp+8], xmm0
; File C:\Users\ALEXANDER\Desktop\Cliente\COPY_FISH_WON_NEW\Binario\extern\include\d3dx8math.inl

; 931  :     DWORD dwR = r >= 1.0f ? 0xff : r <= 0.0f ? 0x00 : (DWORD) (r * 255.0f + 0.5f);

  00129	0f 57 c0	 xorps	 xmm0, xmm0
  0012c	72 09		 jb	 SHORT $LN32@OnRender
  0012e	c7 45 98 ff 00
	00 00		 mov	 DWORD PTR _dwR$1$[ebp], 255 ; 000000ffH
  00135	eb 34		 jmp	 SHORT $LN31@OnRender
$LN32@OnRender:
  00137	0f 2f c3	 comiss	 xmm0, xmm3
  0013a	72 09		 jb	 SHORT $LN30@OnRender
  0013c	c7 45 98 00 00
	00 00		 mov	 DWORD PTR _dwR$1$[ebp], 0
  00143	eb 26		 jmp	 SHORT $LN31@OnRender
$LN30@OnRender:
  00145	0f 28 c3	 movaps	 xmm0, xmm3
  00148	f3 0f 59 c2	 mulss	 xmm0, xmm2
  0014c	f3 0f 58 c1	 addss	 xmm0, xmm1
  00150	e8 00 00 00 00	 call	 __ftoui3
  00155	f3 0f 10 0d 00
	00 00 00	 movss	 xmm1, DWORD PTR __real@3f000000
  0015d	0f 57 c0	 xorps	 xmm0, xmm0
  00160	f3 0f 10 15 00
	00 00 00	 movss	 xmm2, DWORD PTR __real@437f0000
  00168	89 45 98	 mov	 DWORD PTR _dwR$1$[ebp], eax
$LN31@OnRender:

; 932  :     DWORD dwG = g >= 1.0f ? 0xff : g <= 0.0f ? 0x00 : (DWORD) (g * 255.0f + 0.5f);

  0016b	f3 0f 10 67 08	 movss	 xmm4, DWORD PTR [edi+8]
  00170	0f 2f 25 00 00
	00 00		 comiss	 xmm4, DWORD PTR __real@3f800000
  00177	72 09		 jb	 SHORT $LN36@OnRender
  00179	c7 45 94 ff 00
	00 00		 mov	 DWORD PTR _dwG$1$[ebp], 255 ; 000000ffH
  00180	eb 21		 jmp	 SHORT $LN35@OnRender
$LN36@OnRender:
  00182	0f 2f c4	 comiss	 xmm0, xmm4
  00185	72 09		 jb	 SHORT $LN34@OnRender
  00187	c7 45 94 00 00
	00 00		 mov	 DWORD PTR _dwG$1$[ebp], 0
  0018e	eb 13		 jmp	 SHORT $LN35@OnRender
$LN34@OnRender:
  00190	0f 28 c4	 movaps	 xmm0, xmm4
  00193	f3 0f 59 c2	 mulss	 xmm0, xmm2
  00197	f3 0f 58 c1	 addss	 xmm0, xmm1
  0019b	e8 00 00 00 00	 call	 __ftoui3
  001a0	89 45 94	 mov	 DWORD PTR _dwG$1$[ebp], eax
$LN35@OnRender:

; 933  :     DWORD dwB = b >= 1.0f ? 0xff : b <= 0.0f ? 0x00 : (DWORD) (b * 255.0f + 0.5f);

  001a3	f3 0f 10 4f 0c	 movss	 xmm1, DWORD PTR [edi+12]
  001a8	0f 57 c0	 xorps	 xmm0, xmm0
  001ab	0f 2f 0d 00 00
	00 00		 comiss	 xmm1, DWORD PTR __real@3f800000
  001b2	72 07		 jb	 SHORT $LN40@OnRender
  001b4	be ff 00 00 00	 mov	 esi, 255		; 000000ffH
  001b9	eb 26		 jmp	 SHORT $LN39@OnRender
$LN40@OnRender:
  001bb	0f 2f c1	 comiss	 xmm0, xmm1
  001be	72 04		 jb	 SHORT $LN38@OnRender
  001c0	33 f6		 xor	 esi, esi
  001c2	eb 1d		 jmp	 SHORT $LN39@OnRender
$LN38@OnRender:
  001c4	0f 28 c1	 movaps	 xmm0, xmm1
  001c7	f3 0f 59 05 00
	00 00 00	 mulss	 xmm0, DWORD PTR __real@437f0000
  001cf	f3 0f 58 05 00
	00 00 00	 addss	 xmm0, DWORD PTR __real@3f000000
  001d7	e8 00 00 00 00	 call	 __ftoui3
  001dc	8b f0		 mov	 esi, eax
  001de	0f 57 c0	 xorps	 xmm0, xmm0
$LN39@OnRender:

; 934  :     DWORD dwA = a >= 1.0f ? 0xff : a <= 0.0f ? 0x00 : (DWORD) (a * 255.0f + 0.5f);

  001e1	f3 0f 10 4f 10	 movss	 xmm1, DWORD PTR [edi+16]
  001e6	0f 2f 0d 00 00
	00 00		 comiss	 xmm1, DWORD PTR __real@3f800000
  001ed	72 07		 jb	 SHORT $LN44@OnRender
  001ef	b8 ff 00 00 00	 mov	 eax, 255		; 000000ffH
  001f4	eb 21		 jmp	 SHORT $LN43@OnRender
$LN44@OnRender:
  001f6	0f 2f c1	 comiss	 xmm0, xmm1
  001f9	72 04		 jb	 SHORT $LN42@OnRender
  001fb	33 c0		 xor	 eax, eax
  001fd	eb 18		 jmp	 SHORT $LN43@OnRender
$LN42@OnRender:
  001ff	0f 28 c1	 movaps	 xmm0, xmm1
  00202	f3 0f 59 05 00
	00 00 00	 mulss	 xmm0, DWORD PTR __real@437f0000
  0020a	f3 0f 58 05 00
	00 00 00	 addss	 xmm0, DWORD PTR __real@3f000000
  00212	e8 00 00 00 00	 call	 __ftoui3
$LN43@OnRender:
; File C:\Users\ALEXANDER\Desktop\Cliente\COPY_FISH_WON_NEW\Binario\Client\EterLib\GrpExpandedImageInstance.cpp

; 49   : 	vertices[1].position.x	= m_v2Position.x-0.5f;

  00217	f3 0f 10 45 90	 movss	 xmm0, DWORD PTR tv1949[ebp]
; File C:\Users\ALEXANDER\Desktop\Cliente\COPY_FISH_WON_NEW\Binario\extern\include\d3dx8math.inl

; 931  :     DWORD dwR = r >= 1.0f ? 0xff : r <= 0.0f ? 0x00 : (DWORD) (r * 255.0f + 0.5f);

  0021c	f3 0f 10 4f 04	 movss	 xmm1, DWORD PTR [edi+4]

; 936  :     return (dwA << 24) | (dwR << 16) | (dwG << 8) | dwB;

  00221	c1 e0 08	 shl	 eax, 8
  00224	0b 45 98	 or	 eax, DWORD PTR _dwR$1$[ebp]
; File C:\Users\ALEXANDER\Desktop\Cliente\COPY_FISH_WON_NEW\Binario\Client\EterLib\GrpExpandedImageInstance.cpp

; 49   : 	vertices[1].position.x	= m_v2Position.x-0.5f;

  00227	f3 0f 11 45 b4	 movss	 DWORD PTR _vertices$[ebp+24], xmm0

; 50   : 	vertices[1].position.y	= m_v2Position.y-0.5f;

  0022c	f3 0f 10 45 8c	 movss	 xmm0, DWORD PTR tv1950[ebp]
  00231	f3 0f 11 45 b8	 movss	 DWORD PTR _vertices$[ebp+28], xmm0

; 51   : 	vertices[1].position.z	= m_fDepth;

  00236	f3 0f 10 47 28	 movss	 xmm0, DWORD PTR [edi+40]
; File C:\Users\ALEXANDER\Desktop\Cliente\COPY_FISH_WON_NEW\Binario\extern\include\d3dx8math.inl

; 936  :     return (dwA << 24) | (dwR << 16) | (dwG << 8) | dwB;

  0023b	c1 e0 08	 shl	 eax, 8
  0023e	0b 45 94	 or	 eax, DWORD PTR _dwG$1$[ebp]
; File C:\Users\ALEXANDER\Desktop\Cliente\COPY_FISH_WON_NEW\Binario\Client\EterLib\GrpExpandedImageInstance.cpp

; 51   : 	vertices[1].position.z	= m_fDepth;

  00241	f3 0f 11 45 bc	 movss	 DWORD PTR _vertices$[ebp+32], xmm0

; 52   : 	vertices[1].texCoord	= TTextureCoordinate(eu, sv);

  00246	f3 0f 10 85 74
	ff ff ff	 movss	 xmm0, DWORD PTR _eu$1$[ebp]
; File C:\Users\ALEXANDER\Desktop\Cliente\COPY_FISH_WON_NEW\Binario\extern\include\d3dx8math.inl

; 936  :     return (dwA << 24) | (dwR << 16) | (dwG << 8) | dwB;

  0024e	c1 e0 08	 shl	 eax, 8
; File C:\Users\ALEXANDER\Desktop\Cliente\COPY_FISH_WON_NEW\Binario\Client\EterLib\GrpExpandedImageInstance.cpp

; 52   : 	vertices[1].texCoord	= TTextureCoordinate(eu, sv);

  00251	f3 0f 11 45 c4	 movss	 DWORD PTR _vertices$[ebp+40], xmm0
; File C:\Users\ALEXANDER\Desktop\Cliente\COPY_FISH_WON_NEW\Binario\extern\include\d3dx8math.inl

; 936  :     return (dwA << 24) | (dwR << 16) | (dwG << 8) | dwB;

  00256	0b c6		 or	 eax, esi

; 931  :     DWORD dwR = r >= 1.0f ? 0xff : r <= 0.0f ? 0x00 : (DWORD) (r * 255.0f + 0.5f);

  00258	0f 2f 0d 00 00
	00 00		 comiss	 xmm1, DWORD PTR __real@3f800000
; File C:\Users\ALEXANDER\Desktop\Cliente\COPY_FISH_WON_NEW\Binario\Client\EterLib\GrpExpandedImageInstance.cpp

; 47   : 	vertices[0].diffuse		= m_DiffuseColor;

  0025f	89 45 a8	 mov	 DWORD PTR _vertices$[ebp+12], eax

; 52   : 	vertices[1].texCoord	= TTextureCoordinate(eu, sv);

  00262	f3 0f 10 85 78
	ff ff ff	 movss	 xmm0, DWORD PTR _sv$1$[ebp]
  0026a	f3 0f 11 45 c8	 movss	 DWORD PTR _vertices$[ebp+44], xmm0
; File C:\Users\ALEXANDER\Desktop\Cliente\COPY_FISH_WON_NEW\Binario\extern\include\d3dx8math.inl

; 931  :     DWORD dwR = r >= 1.0f ? 0xff : r <= 0.0f ? 0x00 : (DWORD) (r * 255.0f + 0.5f);

  0026f	0f 57 c0	 xorps	 xmm0, xmm0
  00272	72 09		 jb	 SHORT $LN52@OnRender
  00274	c7 45 94 ff 00
	00 00		 mov	 DWORD PTR _dwR$1$[ebp], 255 ; 000000ffH
  0027b	eb 2c		 jmp	 SHORT $LN51@OnRender
$LN52@OnRender:
  0027d	0f 2f c1	 comiss	 xmm0, xmm1
  00280	72 09		 jb	 SHORT $LN50@OnRender
  00282	c7 45 94 00 00
	00 00		 mov	 DWORD PTR _dwR$1$[ebp], 0
  00289	eb 1e		 jmp	 SHORT $LN51@OnRender
$LN50@OnRender:
  0028b	f3 0f 59 0d 00
	00 00 00	 mulss	 xmm1, DWORD PTR __real@437f0000
  00293	f3 0f 58 0d 00
	00 00 00	 addss	 xmm1, DWORD PTR __real@3f000000
  0029b	0f 28 c1	 movaps	 xmm0, xmm1
  0029e	e8 00 00 00 00	 call	 __ftoui3
  002a3	89 45 94	 mov	 DWORD PTR _dwR$1$[ebp], eax
  002a6	0f 57 c0	 xorps	 xmm0, xmm0
$LN51@OnRender:

; 932  :     DWORD dwG = g >= 1.0f ? 0xff : g <= 0.0f ? 0x00 : (DWORD) (g * 255.0f + 0.5f);

  002a9	f3 0f 10 4f 08	 movss	 xmm1, DWORD PTR [edi+8]
  002ae	0f 2f 0d 00 00
	00 00		 comiss	 xmm1, DWORD PTR __real@3f800000
  002b5	72 09		 jb	 SHORT $LN56@OnRender
  002b7	c7 45 98 ff 00
	00 00		 mov	 DWORD PTR _dwG$1$[ebp], 255 ; 000000ffH
  002be	eb 29		 jmp	 SHORT $LN55@OnRender
$LN56@OnRender:
  002c0	0f 2f c1	 comiss	 xmm0, xmm1
  002c3	72 09		 jb	 SHORT $LN54@OnRender
  002c5	c7 45 98 00 00
	00 00		 mov	 DWORD PTR _dwG$1$[ebp], 0
  002cc	eb 1b		 jmp	 SHORT $LN55@OnRender
$LN54@OnRender:
  002ce	f3 0f 59 0d 00
	00 00 00	 mulss	 xmm1, DWORD PTR __real@437f0000
  002d6	f3 0f 58 0d 00
	00 00 00	 addss	 xmm1, DWORD PTR __real@3f000000
  002de	0f 28 c1	 movaps	 xmm0, xmm1
  002e1	e8 00 00 00 00	 call	 __ftoui3
  002e6	89 45 98	 mov	 DWORD PTR _dwG$1$[ebp], eax
$LN55@OnRender:

; 933  :     DWORD dwB = b >= 1.0f ? 0xff : b <= 0.0f ? 0x00 : (DWORD) (b * 255.0f + 0.5f);

  002e9	f3 0f 10 4f 0c	 movss	 xmm1, DWORD PTR [edi+12]
  002ee	0f 57 c0	 xorps	 xmm0, xmm0
  002f1	0f 2f 0d 00 00
	00 00		 comiss	 xmm1, DWORD PTR __real@3f800000
  002f8	72 07		 jb	 SHORT $LN60@OnRender
  002fa	be ff 00 00 00	 mov	 esi, 255		; 000000ffH
  002ff	eb 26		 jmp	 SHORT $LN59@OnRender
$LN60@OnRender:
  00301	0f 2f c1	 comiss	 xmm0, xmm1
  00304	72 04		 jb	 SHORT $LN58@OnRender
  00306	33 f6		 xor	 esi, esi
  00308	eb 1d		 jmp	 SHORT $LN59@OnRender
$LN58@OnRender:
  0030a	f3 0f 59 0d 00
	00 00 00	 mulss	 xmm1, DWORD PTR __real@437f0000
  00312	f3 0f 58 0d 00
	00 00 00	 addss	 xmm1, DWORD PTR __real@3f000000
  0031a	0f 28 c1	 movaps	 xmm0, xmm1
  0031d	e8 00 00 00 00	 call	 __ftoui3
  00322	8b f0		 mov	 esi, eax
  00324	0f 57 c0	 xorps	 xmm0, xmm0
$LN59@OnRender:

; 934  :     DWORD dwA = a >= 1.0f ? 0xff : a <= 0.0f ? 0x00 : (DWORD) (a * 255.0f + 0.5f);

  00327	f3 0f 10 4f 10	 movss	 xmm1, DWORD PTR [edi+16]
  0032c	0f 2f 0d 00 00
	00 00		 comiss	 xmm1, DWORD PTR __real@3f800000
  00333	72 07		 jb	 SHORT $LN64@OnRender
  00335	b8 ff 00 00 00	 mov	 eax, 255		; 000000ffH
  0033a	eb 21		 jmp	 SHORT $LN63@OnRender
$LN64@OnRender:
  0033c	0f 2f c1	 comiss	 xmm0, xmm1
  0033f	72 04		 jb	 SHORT $LN62@OnRender
  00341	33 c0		 xor	 eax, eax
  00343	eb 18		 jmp	 SHORT $LN63@OnRender
$LN62@OnRender:
  00345	f3 0f 59 0d 00
	00 00 00	 mulss	 xmm1, DWORD PTR __real@437f0000
  0034d	f3 0f 58 0d 00
	00 00 00	 addss	 xmm1, DWORD PTR __real@3f000000
  00355	0f 28 c1	 movaps	 xmm0, xmm1
  00358	e8 00 00 00 00	 call	 __ftoui3
$LN63@OnRender:
; File C:\Users\ALEXANDER\Desktop\Cliente\COPY_FISH_WON_NEW\Binario\Client\EterLib\GrpExpandedImageInstance.cpp

; 55   : 	vertices[2].position.x	= m_v2Position.x-0.5f;

  0035d	f3 0f 10 45 90	 movss	 xmm0, DWORD PTR tv1949[ebp]
; File C:\Users\ALEXANDER\Desktop\Cliente\COPY_FISH_WON_NEW\Binario\extern\include\d3dx8math.inl

; 931  :     DWORD dwR = r >= 1.0f ? 0xff : r <= 0.0f ? 0x00 : (DWORD) (r * 255.0f + 0.5f);

  00362	f3 0f 10 4f 04	 movss	 xmm1, DWORD PTR [edi+4]

; 936  :     return (dwA << 24) | (dwR << 16) | (dwG << 8) | dwB;

  00367	c1 e0 08	 shl	 eax, 8
  0036a	0b 45 94	 or	 eax, DWORD PTR _dwR$1$[ebp]
; File C:\Users\ALEXANDER\Desktop\Cliente\COPY_FISH_WON_NEW\Binario\Client\EterLib\GrpExpandedImageInstance.cpp

; 55   : 	vertices[2].position.x	= m_v2Position.x-0.5f;

  0036d	f3 0f 11 45 cc	 movss	 DWORD PTR _vertices$[ebp+48], xmm0

; 56   : 	vertices[2].position.y	= m_v2Position.y-0.5f;

  00372	f3 0f 10 45 8c	 movss	 xmm0, DWORD PTR tv1950[ebp]
  00377	f3 0f 11 45 d0	 movss	 DWORD PTR _vertices$[ebp+52], xmm0

; 57   : 	vertices[2].position.z	= m_fDepth;

  0037c	f3 0f 10 47 28	 movss	 xmm0, DWORD PTR [edi+40]
; File C:\Users\ALEXANDER\Desktop\Cliente\COPY_FISH_WON_NEW\Binario\extern\include\d3dx8math.inl

; 936  :     return (dwA << 24) | (dwR << 16) | (dwG << 8) | dwB;

  00381	c1 e0 08	 shl	 eax, 8
  00384	0b 45 98	 or	 eax, DWORD PTR _dwG$1$[ebp]
; File C:\Users\ALEXANDER\Desktop\Cliente\COPY_FISH_WON_NEW\Binario\Client\EterLib\GrpExpandedImageInstance.cpp

; 57   : 	vertices[2].position.z	= m_fDepth;

  00387	f3 0f 11 45 d4	 movss	 DWORD PTR _vertices$[ebp+56], xmm0

; 58   : 	vertices[2].texCoord	= TTextureCoordinate(su, ev);

  0038c	f3 0f 10 45 80	 movss	 xmm0, DWORD PTR _su$1$[ebp]
; File C:\Users\ALEXANDER\Desktop\Cliente\COPY_FISH_WON_NEW\Binario\extern\include\d3dx8math.inl

; 936  :     return (dwA << 24) | (dwR << 16) | (dwG << 8) | dwB;

  00391	c1 e0 08	 shl	 eax, 8
; File C:\Users\ALEXANDER\Desktop\Cliente\COPY_FISH_WON_NEW\Binario\Client\EterLib\GrpExpandedImageInstance.cpp

; 58   : 	vertices[2].texCoord	= TTextureCoordinate(su, ev);

  00394	f3 0f 11 45 dc	 movss	 DWORD PTR _vertices$[ebp+64], xmm0
; File C:\Users\ALEXANDER\Desktop\Cliente\COPY_FISH_WON_NEW\Binario\extern\include\d3dx8math.inl

; 936  :     return (dwA << 24) | (dwR << 16) | (dwG << 8) | dwB;

  00399	0b c6		 or	 eax, esi

; 931  :     DWORD dwR = r >= 1.0f ? 0xff : r <= 0.0f ? 0x00 : (DWORD) (r * 255.0f + 0.5f);

  0039b	0f 2f 0d 00 00
	00 00		 comiss	 xmm1, DWORD PTR __real@3f800000
; File C:\Users\ALEXANDER\Desktop\Cliente\COPY_FISH_WON_NEW\Binario\Client\EterLib\GrpExpandedImageInstance.cpp

; 53   : 	vertices[1].diffuse		= m_DiffuseColor;

  003a2	89 45 c0	 mov	 DWORD PTR _vertices$[ebp+36], eax

; 58   : 	vertices[2].texCoord	= TTextureCoordinate(su, ev);

  003a5	f3 0f 10 45 88	 movss	 xmm0, DWORD PTR _ev$1$[ebp]
  003aa	f3 0f 11 45 e0	 movss	 DWORD PTR _vertices$[ebp+68], xmm0
; File C:\Users\ALEXANDER\Desktop\Cliente\COPY_FISH_WON_NEW\Binario\extern\include\d3dx8math.inl

; 931  :     DWORD dwR = r >= 1.0f ? 0xff : r <= 0.0f ? 0x00 : (DWORD) (r * 255.0f + 0.5f);

  003af	0f 57 c0	 xorps	 xmm0, xmm0
  003b2	72 09		 jb	 SHORT $LN72@OnRender
  003b4	c7 45 94 ff 00
	00 00		 mov	 DWORD PTR _dwR$1$[ebp], 255 ; 000000ffH
  003bb	eb 2c		 jmp	 SHORT $LN71@OnRender
$LN72@OnRender:
  003bd	0f 2f c1	 comiss	 xmm0, xmm1
  003c0	72 09		 jb	 SHORT $LN70@OnRender
  003c2	c7 45 94 00 00
	00 00		 mov	 DWORD PTR _dwR$1$[ebp], 0
  003c9	eb 1e		 jmp	 SHORT $LN71@OnRender
$LN70@OnRender:
  003cb	0f 28 c1	 movaps	 xmm0, xmm1
  003ce	f3 0f 59 05 00
	00 00 00	 mulss	 xmm0, DWORD PTR __real@437f0000
  003d6	f3 0f 58 05 00
	00 00 00	 addss	 xmm0, DWORD PTR __real@3f000000
  003de	e8 00 00 00 00	 call	 __ftoui3
  003e3	89 45 94	 mov	 DWORD PTR _dwR$1$[ebp], eax
  003e6	0f 57 c0	 xorps	 xmm0, xmm0
$LN71@OnRender:

; 932  :     DWORD dwG = g >= 1.0f ? 0xff : g <= 0.0f ? 0x00 : (DWORD) (g * 255.0f + 0.5f);

  003e9	f3 0f 10 4f 08	 movss	 xmm1, DWORD PTR [edi+8]
  003ee	0f 2f 0d 00 00
	00 00		 comiss	 xmm1, DWORD PTR __real@3f800000
  003f5	72 09		 jb	 SHORT $LN76@OnRender
  003f7	c7 45 98 ff 00
	00 00		 mov	 DWORD PTR _dwG$1$[ebp], 255 ; 000000ffH
  003fe	eb 29		 jmp	 SHORT $LN75@OnRender
$LN76@OnRender:
  00400	0f 2f c1	 comiss	 xmm0, xmm1
  00403	72 09		 jb	 SHORT $LN74@OnRender
  00405	c7 45 98 00 00
	00 00		 mov	 DWORD PTR _dwG$1$[ebp], 0
  0040c	eb 1b		 jmp	 SHORT $LN75@OnRender
$LN74@OnRender:
  0040e	0f 28 c1	 movaps	 xmm0, xmm1
  00411	f3 0f 59 05 00
	00 00 00	 mulss	 xmm0, DWORD PTR __real@437f0000
  00419	f3 0f 58 05 00
	00 00 00	 addss	 xmm0, DWORD PTR __real@3f000000
  00421	e8 00 00 00 00	 call	 __ftoui3
  00426	89 45 98	 mov	 DWORD PTR _dwG$1$[ebp], eax
$LN75@OnRender:

; 933  :     DWORD dwB = b >= 1.0f ? 0xff : b <= 0.0f ? 0x00 : (DWORD) (b * 255.0f + 0.5f);

  00429	f3 0f 10 4f 0c	 movss	 xmm1, DWORD PTR [edi+12]
  0042e	0f 57 c0	 xorps	 xmm0, xmm0
  00431	0f 2f 0d 00 00
	00 00		 comiss	 xmm1, DWORD PTR __real@3f800000
  00438	72 07		 jb	 SHORT $LN80@OnRender
  0043a	be ff 00 00 00	 mov	 esi, 255		; 000000ffH
  0043f	eb 26		 jmp	 SHORT $LN79@OnRender
$LN80@OnRender:
  00441	0f 2f c1	 comiss	 xmm0, xmm1
  00444	72 04		 jb	 SHORT $LN78@OnRender
  00446	33 f6		 xor	 esi, esi
  00448	eb 1d		 jmp	 SHORT $LN79@OnRender
$LN78@OnRender:
  0044a	0f 28 c1	 movaps	 xmm0, xmm1
  0044d	f3 0f 59 05 00
	00 00 00	 mulss	 xmm0, DWORD PTR __real@437f0000
  00455	f3 0f 58 05 00
	00 00 00	 addss	 xmm0, DWORD PTR __real@3f000000
  0045d	e8 00 00 00 00	 call	 __ftoui3
  00462	8b f0		 mov	 esi, eax
  00464	0f 57 c0	 xorps	 xmm0, xmm0
$LN79@OnRender:

; 934  :     DWORD dwA = a >= 1.0f ? 0xff : a <= 0.0f ? 0x00 : (DWORD) (a * 255.0f + 0.5f);

  00467	f3 0f 10 4f 10	 movss	 xmm1, DWORD PTR [edi+16]
  0046c	0f 2f 0d 00 00
	00 00		 comiss	 xmm1, DWORD PTR __real@3f800000
  00473	72 07		 jb	 SHORT $LN84@OnRender
  00475	b8 ff 00 00 00	 mov	 eax, 255		; 000000ffH
  0047a	eb 21		 jmp	 SHORT $LN83@OnRender
$LN84@OnRender:
  0047c	0f 2f c1	 comiss	 xmm0, xmm1
  0047f	72 04		 jb	 SHORT $LN82@OnRender
  00481	33 c0		 xor	 eax, eax
  00483	eb 18		 jmp	 SHORT $LN83@OnRender
$LN82@OnRender:
  00485	0f 28 c1	 movaps	 xmm0, xmm1
  00488	f3 0f 59 05 00
	00 00 00	 mulss	 xmm0, DWORD PTR __real@437f0000
  00490	f3 0f 58 05 00
	00 00 00	 addss	 xmm0, DWORD PTR __real@3f000000
  00498	e8 00 00 00 00	 call	 __ftoui3
$LN83@OnRender:
; File C:\Users\ALEXANDER\Desktop\Cliente\COPY_FISH_WON_NEW\Binario\Client\EterLib\GrpExpandedImageInstance.cpp

; 61   : 	vertices[3].position.x	= m_v2Position.x-0.5f;

  0049d	f3 0f 10 45 90	 movss	 xmm0, DWORD PTR tv1949[ebp]
; File C:\Users\ALEXANDER\Desktop\Cliente\COPY_FISH_WON_NEW\Binario\extern\include\d3dx8math.inl

; 931  :     DWORD dwR = r >= 1.0f ? 0xff : r <= 0.0f ? 0x00 : (DWORD) (r * 255.0f + 0.5f);

  004a2	f3 0f 10 4f 04	 movss	 xmm1, DWORD PTR [edi+4]

; 936  :     return (dwA << 24) | (dwR << 16) | (dwG << 8) | dwB;

  004a7	c1 e0 08	 shl	 eax, 8
  004aa	0b 45 94	 or	 eax, DWORD PTR _dwR$1$[ebp]
; File C:\Users\ALEXANDER\Desktop\Cliente\COPY_FISH_WON_NEW\Binario\Client\EterLib\GrpExpandedImageInstance.cpp

; 61   : 	vertices[3].position.x	= m_v2Position.x-0.5f;

  004ad	f3 0f 11 45 e4	 movss	 DWORD PTR _vertices$[ebp+72], xmm0

; 62   : 	vertices[3].position.y	= m_v2Position.y-0.5f;

  004b2	f3 0f 10 45 8c	 movss	 xmm0, DWORD PTR tv1950[ebp]
  004b7	f3 0f 11 45 e8	 movss	 DWORD PTR _vertices$[ebp+76], xmm0

; 63   : 	vertices[3].position.z	= m_fDepth;

  004bc	f3 0f 10 47 28	 movss	 xmm0, DWORD PTR [edi+40]
; File C:\Users\ALEXANDER\Desktop\Cliente\COPY_FISH_WON_NEW\Binario\extern\include\d3dx8math.inl

; 936  :     return (dwA << 24) | (dwR << 16) | (dwG << 8) | dwB;

  004c1	c1 e0 08	 shl	 eax, 8
  004c4	0b 45 98	 or	 eax, DWORD PTR _dwG$1$[ebp]
; File C:\Users\ALEXANDER\Desktop\Cliente\COPY_FISH_WON_NEW\Binario\Client\EterLib\GrpExpandedImageInstance.cpp

; 63   : 	vertices[3].position.z	= m_fDepth;

  004c7	f3 0f 11 45 ec	 movss	 DWORD PTR _vertices$[ebp+80], xmm0

; 64   : 	vertices[3].texCoord	= TTextureCoordinate(eu, ev);

  004cc	f3 0f 10 85 74
	ff ff ff	 movss	 xmm0, DWORD PTR _eu$1$[ebp]
; File C:\Users\ALEXANDER\Desktop\Cliente\COPY_FISH_WON_NEW\Binario\extern\include\d3dx8math.inl

; 936  :     return (dwA << 24) | (dwR << 16) | (dwG << 8) | dwB;

  004d4	c1 e0 08	 shl	 eax, 8
; File C:\Users\ALEXANDER\Desktop\Cliente\COPY_FISH_WON_NEW\Binario\Client\EterLib\GrpExpandedImageInstance.cpp

; 64   : 	vertices[3].texCoord	= TTextureCoordinate(eu, ev);

  004d7	f3 0f 11 45 f4	 movss	 DWORD PTR _vertices$[ebp+88], xmm0
; File C:\Users\ALEXANDER\Desktop\Cliente\COPY_FISH_WON_NEW\Binario\extern\include\d3dx8math.inl

; 936  :     return (dwA << 24) | (dwR << 16) | (dwG << 8) | dwB;

  004dc	0b c6		 or	 eax, esi

; 931  :     DWORD dwR = r >= 1.0f ? 0xff : r <= 0.0f ? 0x00 : (DWORD) (r * 255.0f + 0.5f);

  004de	0f 2f 0d 00 00
	00 00		 comiss	 xmm1, DWORD PTR __real@3f800000
; File C:\Users\ALEXANDER\Desktop\Cliente\COPY_FISH_WON_NEW\Binario\Client\EterLib\GrpExpandedImageInstance.cpp

; 59   : 	vertices[2].diffuse		= m_DiffuseColor;

  004e5	89 45 d8	 mov	 DWORD PTR _vertices$[ebp+60], eax

; 64   : 	vertices[3].texCoord	= TTextureCoordinate(eu, ev);

  004e8	f3 0f 10 45 88	 movss	 xmm0, DWORD PTR _ev$1$[ebp]
  004ed	f3 0f 11 45 f8	 movss	 DWORD PTR _vertices$[ebp+92], xmm0
; File C:\Users\ALEXANDER\Desktop\Cliente\COPY_FISH_WON_NEW\Binario\extern\include\d3dx8math.inl

; 931  :     DWORD dwR = r >= 1.0f ? 0xff : r <= 0.0f ? 0x00 : (DWORD) (r * 255.0f + 0.5f);

  004f2	0f 57 c0	 xorps	 xmm0, xmm0
  004f5	72 09		 jb	 SHORT $LN92@OnRender
  004f7	c7 45 8c ff 00
	00 00		 mov	 DWORD PTR _dwR$1$[ebp], 255 ; 000000ffH
  004fe	eb 2c		 jmp	 SHORT $LN91@OnRender
$LN92@OnRender:
  00500	0f 2f c1	 comiss	 xmm0, xmm1
  00503	72 09		 jb	 SHORT $LN90@OnRender
  00505	c7 45 8c 00 00
	00 00		 mov	 DWORD PTR _dwR$1$[ebp], 0
  0050c	eb 1e		 jmp	 SHORT $LN91@OnRender
$LN90@OnRender:
  0050e	f3 0f 59 0d 00
	00 00 00	 mulss	 xmm1, DWORD PTR __real@437f0000
  00516	f3 0f 58 0d 00
	00 00 00	 addss	 xmm1, DWORD PTR __real@3f000000
  0051e	0f 28 c1	 movaps	 xmm0, xmm1
  00521	e8 00 00 00 00	 call	 __ftoui3
  00526	89 45 8c	 mov	 DWORD PTR _dwR$1$[ebp], eax
  00529	0f 57 c0	 xorps	 xmm0, xmm0
$LN91@OnRender:

; 932  :     DWORD dwG = g >= 1.0f ? 0xff : g <= 0.0f ? 0x00 : (DWORD) (g * 255.0f + 0.5f);

  0052c	f3 0f 10 4f 08	 movss	 xmm1, DWORD PTR [edi+8]
  00531	0f 2f 0d 00 00
	00 00		 comiss	 xmm1, DWORD PTR __real@3f800000
  00538	72 09		 jb	 SHORT $LN96@OnRender
  0053a	c7 45 90 ff 00
	00 00		 mov	 DWORD PTR _dwG$1$[ebp], 255 ; 000000ffH
  00541	eb 29		 jmp	 SHORT $LN95@OnRender
$LN96@OnRender:
  00543	0f 2f c1	 comiss	 xmm0, xmm1
  00546	72 09		 jb	 SHORT $LN94@OnRender
  00548	c7 45 90 00 00
	00 00		 mov	 DWORD PTR _dwG$1$[ebp], 0
  0054f	eb 1b		 jmp	 SHORT $LN95@OnRender
$LN94@OnRender:
  00551	f3 0f 59 0d 00
	00 00 00	 mulss	 xmm1, DWORD PTR __real@437f0000
  00559	f3 0f 58 0d 00
	00 00 00	 addss	 xmm1, DWORD PTR __real@3f000000
  00561	0f 28 c1	 movaps	 xmm0, xmm1
  00564	e8 00 00 00 00	 call	 __ftoui3
  00569	89 45 90	 mov	 DWORD PTR _dwG$1$[ebp], eax
$LN95@OnRender:

; 933  :     DWORD dwB = b >= 1.0f ? 0xff : b <= 0.0f ? 0x00 : (DWORD) (b * 255.0f + 0.5f);

  0056c	f3 0f 10 4f 0c	 movss	 xmm1, DWORD PTR [edi+12]
  00571	0f 57 c0	 xorps	 xmm0, xmm0
  00574	0f 2f 0d 00 00
	00 00		 comiss	 xmm1, DWORD PTR __real@3f800000
  0057b	72 07		 jb	 SHORT $LN100@OnRender
  0057d	be ff 00 00 00	 mov	 esi, 255		; 000000ffH
  00582	eb 26		 jmp	 SHORT $LN99@OnRender
$LN100@OnRender:
  00584	0f 2f c1	 comiss	 xmm0, xmm1
  00587	72 04		 jb	 SHORT $LN98@OnRender
  00589	33 f6		 xor	 esi, esi
  0058b	eb 1d		 jmp	 SHORT $LN99@OnRender
$LN98@OnRender:
  0058d	f3 0f 59 0d 00
	00 00 00	 mulss	 xmm1, DWORD PTR __real@437f0000
  00595	f3 0f 58 0d 00
	00 00 00	 addss	 xmm1, DWORD PTR __real@3f000000
  0059d	0f 28 c1	 movaps	 xmm0, xmm1
  005a0	e8 00 00 00 00	 call	 __ftoui3
  005a5	8b f0		 mov	 esi, eax
  005a7	0f 57 c0	 xorps	 xmm0, xmm0
$LN99@OnRender:

; 934  :     DWORD dwA = a >= 1.0f ? 0xff : a <= 0.0f ? 0x00 : (DWORD) (a * 255.0f + 0.5f);

  005aa	f3 0f 10 4f 10	 movss	 xmm1, DWORD PTR [edi+16]
  005af	0f 2f 0d 00 00
	00 00		 comiss	 xmm1, DWORD PTR __real@3f800000
  005b6	72 07		 jb	 SHORT $LN104@OnRender
  005b8	b8 ff 00 00 00	 mov	 eax, 255		; 000000ffH
  005bd	eb 21		 jmp	 SHORT $LN103@OnRender
$LN104@OnRender:
  005bf	0f 2f c1	 comiss	 xmm0, xmm1
  005c2	72 04		 jb	 SHORT $LN102@OnRender
  005c4	33 c0		 xor	 eax, eax
  005c6	eb 18		 jmp	 SHORT $LN103@OnRender
$LN102@OnRender:
  005c8	f3 0f 59 0d 00
	00 00 00	 mulss	 xmm1, DWORD PTR __real@437f0000
  005d0	f3 0f 58 0d 00
	00 00 00	 addss	 xmm1, DWORD PTR __real@3f000000
  005d8	0f 28 c1	 movaps	 xmm0, xmm1
  005db	e8 00 00 00 00	 call	 __ftoui3
$LN103@OnRender:

; 936  :     return (dwA << 24) | (dwR << 16) | (dwG << 8) | dwB;

  005e0	c1 e0 08	 shl	 eax, 8
  005e3	0f 57 c0	 xorps	 xmm0, xmm0
  005e6	0b 45 8c	 or	 eax, DWORD PTR _dwR$1$[ebp]
  005e9	c1 e0 08	 shl	 eax, 8
  005ec	0b 45 90	 or	 eax, DWORD PTR _dwG$1$[ebp]
  005ef	c1 e0 08	 shl	 eax, 8
  005f2	0b c6		 or	 eax, esi
; File C:\Users\ALEXANDER\Desktop\Cliente\COPY_FISH_WON_NEW\Binario\Client\EterLib\GrpExpandedImageInstance.cpp

; 67   : 	if (0.0f == m_fRotation)

  005f4	0f 2e 47 3c	 ucomiss xmm0, DWORD PTR [edi+60]
  005f8	89 45 f0	 mov	 DWORD PTR _vertices$[ebp+84], eax
  005fb	9f		 lahf
  005fc	f6 c4 44	 test	 ah, 68			; 00000044H
  005ff	0f 8a f8 00 00
	00		 jp	 $LN9@OnRender

; 68   : 	{
; 69   : 		float fimgWidth = float(pImage->GetWidth()) * m_v2Scale.x;

  00605	8b 4d 84	 mov	 ecx, DWORD PTR _pImage$1$[ebp]
  00608	e8 00 00 00 00	 call	 ?GetWidth@CGraphicImage@@QBEHXZ ; CGraphicImage::GetWidth

; 70   : 		float fimgHeight = float(pImage->GetHeight()) * m_v2Scale.y;

  0060d	8b 4d 84	 mov	 ecx, DWORD PTR _pImage$1$[ebp]
  00610	66 0f 6e c0	 movd	 xmm0, eax
  00614	0f 5b c0	 cvtdq2ps xmm0, xmm0
  00617	f3 0f 59 47 34	 mulss	 xmm0, DWORD PTR [edi+52]
  0061c	f3 0f 11 45 80	 movss	 DWORD PTR _fimgWidth$1$[ebp], xmm0
  00621	e8 00 00 00 00	 call	 ?GetHeight@CGraphicImage@@QBEHXZ ; CGraphicImage::GetHeight
  00626	66 0f 6e 5f 40	 movd	 xmm3, DWORD PTR [edi+64]

; 71   : 
; 72   : 		vertices[0].position.x -= m_RenderingRect.left;

  0062b	f3 0f 10 45 9c	 movss	 xmm0, DWORD PTR _vertices$[ebp]
  00630	66 0f 6e 4f 44	 movd	 xmm1, DWORD PTR [edi+68]
  00635	66 0f 6e 57 48	 movd	 xmm2, DWORD PTR [edi+72]
  0063a	0f 5b db	 cvtdq2ps xmm3, xmm3

; 73   : 		vertices[0].position.y -= m_RenderingRect.top;

  0063d	0f 5b c9	 cvtdq2ps xmm1, xmm1
  00640	f3 0f 5c c3	 subss	 xmm0, xmm3
  00644	f3 0f 10 6f 38	 movss	 xmm5, DWORD PTR [edi+56]

; 74   : 		vertices[1].position.x += fimgWidth + m_RenderingRect.right;

  00649	0f 5b d2	 cvtdq2ps xmm2, xmm2
  0064c	f3 0f 11 45 9c	 movss	 DWORD PTR _vertices$[ebp], xmm0
  00651	f3 0f 10 45 a0	 movss	 xmm0, DWORD PTR _vertices$[ebp+4]
  00656	f3 0f 58 55 80	 addss	 xmm2, DWORD PTR _fimgWidth$1$[ebp]
  0065b	f3 0f 5c c1	 subss	 xmm0, xmm1
  0065f	66 0f 6e e0	 movd	 xmm4, eax
  00663	0f 5b e4	 cvtdq2ps xmm4, xmm4
  00666	f3 0f 11 45 a0	 movss	 DWORD PTR _vertices$[ebp+4], xmm0
  0066b	0f 28 c2	 movaps	 xmm0, xmm2
  0066e	f3 0f 58 45 b4	 addss	 xmm0, DWORD PTR _vertices$[ebp+24]

; 75   : 		vertices[1].position.y -= m_RenderingRect.top;
; 76   : 		vertices[2].position.x -= m_RenderingRect.left;
; 77   : 		vertices[2].position.y += fimgHeight + m_RenderingRect.bottom;
; 78   : 		vertices[3].position.x += fimgWidth + m_RenderingRect.right;

  00673	f3 0f 58 55 e4	 addss	 xmm2, DWORD PTR _vertices$[ebp+72]
  00678	f3 0f 59 e5	 mulss	 xmm4, xmm5
  0067c	f3 0f 11 45 b4	 movss	 DWORD PTR _vertices$[ebp+24], xmm0
  00681	f3 0f 10 45 b8	 movss	 xmm0, DWORD PTR _vertices$[ebp+28]
  00686	f3 0f 5c c1	 subss	 xmm0, xmm1
  0068a	f3 0f 11 55 e4	 movss	 DWORD PTR _vertices$[ebp+72], xmm2
  0068f	66 0f 6e 4f 4c	 movd	 xmm1, DWORD PTR [edi+76]
  00694	0f 5b c9	 cvtdq2ps xmm1, xmm1
  00697	f3 0f 11 45 b8	 movss	 DWORD PTR _vertices$[ebp+28], xmm0
  0069c	f3 0f 10 45 cc	 movss	 xmm0, DWORD PTR _vertices$[ebp+48]
  006a1	f3 0f 58 cc	 addss	 xmm1, xmm4
  006a5	f3 0f 5c c3	 subss	 xmm0, xmm3
  006a9	f3 0f 11 45 cc	 movss	 DWORD PTR _vertices$[ebp+48], xmm0
  006ae	0f 28 c1	 movaps	 xmm0, xmm1
  006b1	f3 0f 58 45 d0	 addss	 xmm0, DWORD PTR _vertices$[ebp+52]

; 79   : 		vertices[3].position.y += fimgHeight + m_RenderingRect.bottom;

  006b6	f3 0f 58 4d e8	 addss	 xmm1, DWORD PTR _vertices$[ebp+76]
  006bb	f3 0f 11 45 d0	 movss	 DWORD PTR _vertices$[ebp+52], xmm0
  006c0	0f 57 c0	 xorps	 xmm0, xmm0
  006c3	f3 0f 11 4d e8	 movss	 DWORD PTR _vertices$[ebp+76], xmm1

; 80   : 		if ((0.0f < m_v2Scale.x && 0.0f > m_v2Scale.y) || (0.0f > m_v2Scale.x && 0.0f < m_v2Scale.y)) {

  006c8	f3 0f 10 4f 34	 movss	 xmm1, DWORD PTR [edi+52]
  006cd	0f 2f c8	 comiss	 xmm1, xmm0
  006d0	76 05		 jbe	 SHORT $LN13@OnRender
  006d2	0f 2f c5	 comiss	 xmm0, xmm5
  006d5	77 12		 ja	 SHORT $LN12@OnRender
$LN13@OnRender:
  006d7	0f 2f c1	 comiss	 xmm0, xmm1
  006da	0f 86 c8 01 00
	00		 jbe	 $LN10@OnRender
  006e0	0f 2f e8	 comiss	 xmm5, xmm0
  006e3	0f 86 bf 01 00
	00		 jbe	 $LN10@OnRender
$LN12@OnRender:

; 81   : 			STATEMANAGER.SetRenderState(D3DRS_CULLMODE, D3DCULL_CCW);

  006e9	8b 0d 00 00 00
	00		 mov	 ecx, DWORD PTR ?ms_singleton@?$CSingleton@VCStateManager@@@@0PAVCStateManager@@A ; CSingleton<CStateManager>::ms_singleton
  006ef	6a 03		 push	 3
  006f1	6a 16		 push	 22			; 00000016H
  006f3	e8 00 00 00 00	 call	 ?SetRenderState@CStateManager@@QAEXW4_D3DRENDERSTATETYPE@@K@Z ; CStateManager::SetRenderState

; 82   : 		}
; 83   : 	}

  006f8	e9 ab 01 00 00	 jmp	 $LN10@OnRender
$LN9@OnRender:

; 84   : 	else
; 85   : 	{
; 86   : 		float fimgHalfWidth = float(pImage->GetWidth())/2.0f * m_v2Scale.x;

  006fd	8b 75 84	 mov	 esi, DWORD PTR _pImage$1$[ebp]
  00700	8b ce		 mov	 ecx, esi
  00702	e8 00 00 00 00	 call	 ?GetWidth@CGraphicImage@@QBEHXZ ; CGraphicImage::GetWidth

; 87   : 		float fimgHalfHeight = float(pImage->GetHeight())/2.0f * m_v2Scale.y;

  00707	8b ce		 mov	 ecx, esi
  00709	66 0f 6e c0	 movd	 xmm0, eax
  0070d	0f 5b c0	 cvtdq2ps xmm0, xmm0
  00710	f3 0f 59 05 00
	00 00 00	 mulss	 xmm0, DWORD PTR __real@3f000000
  00718	f3 0f 59 47 34	 mulss	 xmm0, DWORD PTR [edi+52]
  0071d	f3 0f 11 45 84	 movss	 DWORD PTR _fimgHalfWidth$1$[ebp], xmm0
  00722	e8 00 00 00 00	 call	 ?GetHeight@CGraphicImage@@QBEHXZ ; CGraphicImage::GetHeight
  00727	66 0f 6e c0	 movd	 xmm0, eax
  0072b	0f 5b c0	 cvtdq2ps xmm0, xmm0
  0072e	f3 0f 59 05 00
	00 00 00	 mulss	 xmm0, DWORD PTR __real@3f000000
  00736	f3 0f 59 47 38	 mulss	 xmm0, DWORD PTR [edi+56]
  0073b	f3 0f 11 45 80	 movss	 DWORD PTR _fimgHalfHeight$1$[ebp], xmm0

; 88   : 
; 89   : 		for (int i = 0; i < 4; ++i)
; 90   : 		{
; 91   : 			vertices[i].position.x += m_v2Origin.x;
; 92   : 			vertices[i].position.y += m_v2Origin.y;
; 93   : 		}
; 94   : 
; 95   : 		float fRadian = D3DXToRadian(m_fRotation);

  00740	f3 0f 10 47 3c	 movss	 xmm0, DWORD PTR [edi+60]
  00745	f3 0f 59 05 00
	00 00 00	 mulss	 xmm0, DWORD PTR __real@3c8efa35
; File D:\Windows Kits\10\Include\10.0.19041.0\ucrt\corecrt_math.h

; 647  :             return (float)cos(_X);

  0074d	0f 5a c0	 cvtps2pd xmm0, xmm0
  00750	f2 0f 11 85 70
	ff ff ff	 movsd	 QWORD PTR tv2055[ebp], xmm0
  00758	e8 00 00 00 00	 call	 __libm_sse2_cos_precise
  0075d	0f 57 c9	 xorps	 xmm1, xmm1
  00760	f2 0f 5a c8	 cvtsd2ss xmm1, xmm0
; File C:\Users\ALEXANDER\Desktop\Cliente\COPY_FISH_WON_NEW\Binario\Client\EterLib\GrpExpandedImageInstance.cpp

; 96   : 		vertices[0].position.x += (-fimgHalfWidth*cosf(fRadian)) - (-fimgHalfHeight*sinf(fRadian));

  00764	f3 0f 10 45 84	 movss	 xmm0, DWORD PTR _fimgHalfWidth$1$[ebp]
  00769	0f 57 05 00 00
	00 00		 xorps	 xmm0, DWORD PTR __xmm@80000000800000008000000080000000
  00770	f3 0f 11 45 88	 movss	 DWORD PTR tv2013[ebp], xmm0
  00775	f3 0f 59 c1	 mulss	 xmm0, xmm1
; File D:\Windows Kits\10\Include\10.0.19041.0\ucrt\corecrt_math.h

; 647  :             return (float)cos(_X);

  00779	f3 0f 11 4d 98	 movss	 DWORD PTR tv2026[ebp], xmm1
; File C:\Users\ALEXANDER\Desktop\Cliente\COPY_FISH_WON_NEW\Binario\Client\EterLib\GrpExpandedImageInstance.cpp

; 96   : 		vertices[0].position.x += (-fimgHalfWidth*cosf(fRadian)) - (-fimgHalfHeight*sinf(fRadian));

  0077e	f3 0f 11 85 78
	ff ff ff	 movss	 DWORD PTR tv2021[ebp], xmm0
; File D:\Windows Kits\10\Include\10.0.19041.0\ucrt\corecrt_math.h

; 748  :             return (float)sin(_X);

  00786	f2 0f 10 85 70
	ff ff ff	 movsd	 xmm0, QWORD PTR tv2055[ebp]
  0078e	e8 00 00 00 00	 call	 __libm_sse2_sin_precise
; File C:\Users\ALEXANDER\Desktop\Cliente\COPY_FISH_WON_NEW\Binario\Client\EterLib\GrpExpandedImageInstance.cpp

; 96   : 		vertices[0].position.x += (-fimgHalfWidth*cosf(fRadian)) - (-fimgHalfHeight*sinf(fRadian));

  00793	f3 0f 10 7d 80	 movss	 xmm7, DWORD PTR _fimgHalfHeight$1$[ebp]
; File D:\Windows Kits\10\Include\10.0.19041.0\ucrt\corecrt_math.h

; 748  :             return (float)sin(_X);

  00798	0f 57 ed	 xorps	 xmm5, xmm5
; File C:\Users\ALEXANDER\Desktop\Cliente\COPY_FISH_WON_NEW\Binario\Client\EterLib\GrpExpandedImageInstance.cpp

; 96   : 		vertices[0].position.x += (-fimgHalfWidth*cosf(fRadian)) - (-fimgHalfHeight*sinf(fRadian));

  0079b	f3 0f 10 a5 78
	ff ff ff	 movss	 xmm4, DWORD PTR tv2021[ebp]
  007a3	0f 28 d7	 movaps	 xmm2, xmm7
  007a6	0f 57 15 00 00
	00 00		 xorps	 xmm2, DWORD PTR __xmm@80000000800000008000000080000000
  007ad	f3 0f 10 4d 9c	 movss	 xmm1, DWORD PTR _vertices$[ebp]
  007b2	f3 0f 58 4f 2c	 addss	 xmm1, DWORD PTR [edi+44]
; File D:\Windows Kits\10\Include\10.0.19041.0\ucrt\corecrt_math.h

; 748  :             return (float)sin(_X);

  007b7	f2 0f 5a e8	 cvtsd2ss xmm5, xmm0
; File C:\Users\ALEXANDER\Desktop\Cliente\COPY_FISH_WON_NEW\Binario\Client\EterLib\GrpExpandedImageInstance.cpp

; 97   : 		vertices[0].position.y += (-fimgHalfWidth*sinf(fRadian)) + (-fimgHalfHeight*cosf(fRadian));

  007bb	f3 0f 10 5d 98	 movss	 xmm3, DWORD PTR tv2026[ebp]
  007c0	0f 28 c4	 movaps	 xmm0, xmm4
  007c3	f3 0f 59 d5	 mulss	 xmm2, xmm5
  007c7	f3 0f 59 df	 mulss	 xmm3, xmm7
  007cb	f3 0f 5c c2	 subss	 xmm0, xmm2
  007cf	f3 0f 58 c8	 addss	 xmm1, xmm0
  007d3	f3 0f 10 45 a0	 movss	 xmm0, DWORD PTR _vertices$[ebp+4]
  007d8	f3 0f 58 47 30	 addss	 xmm0, DWORD PTR [edi+48]
  007dd	f3 0f 11 4d 9c	 movss	 DWORD PTR _vertices$[ebp], xmm1
  007e2	f3 0f 10 4d 88	 movss	 xmm1, DWORD PTR tv2013[ebp]
  007e7	f3 0f 59 cd	 mulss	 xmm1, xmm5
  007eb	f3 0f 5c cb	 subss	 xmm1, xmm3
  007ef	f3 0f 58 c8	 addss	 xmm1, xmm0

; 98   : 		vertices[1].position.x += (+fimgHalfWidth*cosf(fRadian)) - (-fimgHalfHeight*sinf(fRadian));

  007f3	f3 0f 10 45 98	 movss	 xmm0, DWORD PTR tv2026[ebp]
  007f8	f3 0f 59 45 84	 mulss	 xmm0, DWORD PTR _fimgHalfWidth$1$[ebp]
  007fd	f3 0f 11 4d a0	 movss	 DWORD PTR _vertices$[ebp+4], xmm1
  00802	f3 0f 10 4d b4	 movss	 xmm1, DWORD PTR _vertices$[ebp+24]
  00807	f3 0f 58 4f 2c	 addss	 xmm1, DWORD PTR [edi+44]
  0080c	f3 0f 11 45 98	 movss	 DWORD PTR tv2026[ebp], xmm0
  00811	f3 0f 5c c2	 subss	 xmm0, xmm2

; 99   : 		vertices[1].position.y += (+fimgHalfWidth*sinf(fRadian)) + (-fimgHalfHeight*cosf(fRadian));

  00815	0f 28 d5	 movaps	 xmm2, xmm5

; 100  : 		vertices[2].position.x += (-fimgHalfWidth*cosf(fRadian)) - (+fimgHalfHeight*sinf(fRadian));

  00818	f3 0f 59 ef	 mulss	 xmm5, xmm7
  0081c	f3 0f 59 55 84	 mulss	 xmm2, DWORD PTR _fimgHalfWidth$1$[ebp]
  00821	f3 0f 58 c8	 addss	 xmm1, xmm0
  00825	f3 0f 5c e5	 subss	 xmm4, xmm5
  00829	0f 28 c2	 movaps	 xmm0, xmm2
  0082c	f3 0f 5c c3	 subss	 xmm0, xmm3
  00830	f3 0f 11 4d b4	 movss	 DWORD PTR _vertices$[ebp+24], xmm1
  00835	f3 0f 10 4d b8	 movss	 xmm1, DWORD PTR _vertices$[ebp+28]
  0083a	f3 0f 58 4f 30	 addss	 xmm1, DWORD PTR [edi+48]
  0083f	f3 0f 58 c8	 addss	 xmm1, xmm0
  00843	f3 0f 10 45 cc	 movss	 xmm0, DWORD PTR _vertices$[ebp+48]
  00848	f3 0f 58 47 2c	 addss	 xmm0, DWORD PTR [edi+44]
  0084d	f3 0f 11 4d b8	 movss	 DWORD PTR _vertices$[ebp+28], xmm1
  00852	f3 0f 10 4d d0	 movss	 xmm1, DWORD PTR _vertices$[ebp+52]
  00857	f3 0f 58 c4	 addss	 xmm0, xmm4
  0085b	f3 0f 58 4f 30	 addss	 xmm1, DWORD PTR [edi+48]
  00860	f3 0f 11 45 cc	 movss	 DWORD PTR _vertices$[ebp+48], xmm0

; 101  : 		vertices[2].position.y += (-fimgHalfWidth*sinf(fRadian)) + (+fimgHalfHeight*cosf(fRadian));

  00865	0f 28 c3	 movaps	 xmm0, xmm3
  00868	f3 0f 5c c2	 subss	 xmm0, xmm2
  0086c	f3 0f 58 c8	 addss	 xmm1, xmm0
  00870	f3 0f 11 4d d0	 movss	 DWORD PTR _vertices$[ebp+52], xmm1

; 102  : 		vertices[3].position.x += (+fimgHalfWidth*cosf(fRadian)) - (+fimgHalfHeight*sinf(fRadian));

  00875	f3 0f 10 4d 98	 movss	 xmm1, DWORD PTR tv2026[ebp]
  0087a	f3 0f 10 45 e4	 movss	 xmm0, DWORD PTR _vertices$[ebp+72]
  0087f	f3 0f 5c cd	 subss	 xmm1, xmm5
  00883	f3 0f 58 47 2c	 addss	 xmm0, DWORD PTR [edi+44]

; 103  : 		vertices[3].position.y += (+fimgHalfWidth*sinf(fRadian)) + (+fimgHalfHeight*cosf(fRadian));

  00888	f3 0f 58 d3	 addss	 xmm2, xmm3
  0088c	f3 0f 58 c8	 addss	 xmm1, xmm0
  00890	f3 0f 10 45 e8	 movss	 xmm0, DWORD PTR _vertices$[ebp+76]
  00895	f3 0f 58 47 30	 addss	 xmm0, DWORD PTR [edi+48]
  0089a	f3 0f 11 4d e4	 movss	 DWORD PTR _vertices$[ebp+72], xmm1
  0089f	f3 0f 58 d0	 addss	 xmm2, xmm0
  008a3	f3 0f 11 55 e8	 movss	 DWORD PTR _vertices$[ebp+76], xmm2
$LN10@OnRender:

; 104  : 	}
; 105  : 
; 106  : 	switch (m_iRenderingMode)

  008a8	8b 47 50	 mov	 eax, DWORD PTR [edi+80]
  008ab	83 e8 01	 sub	 eax, 1
  008ae	74 1d		 je	 SHORT $LN14@OnRender
  008b0	83 e8 01	 sub	 eax, 1
  008b3	74 18		 je	 SHORT $LN14@OnRender
  008b5	83 e8 01	 sub	 eax, 1
  008b8	75 31		 jne	 SHORT $LN5@OnRender

; 112  : 			break;
; 113  : 		case RENDERING_MODE_MODULATE:
; 114  : 			STATEMANAGER.SaveRenderState(D3DRS_SRCBLEND, D3DBLEND_ZERO);

  008ba	8b 0d 00 00 00
	00		 mov	 ecx, DWORD PTR ?ms_singleton@?$CSingleton@VCStateManager@@@@0PAVCStateManager@@A ; CSingleton<CStateManager>::ms_singleton
  008c0	6a 01		 push	 1
  008c2	6a 13		 push	 19			; 00000013H
  008c4	e8 00 00 00 00	 call	 ?SaveRenderState@CStateManager@@QAEXW4_D3DRENDERSTATETYPE@@K@Z ; CStateManager::SaveRenderState

; 115  : 			STATEMANAGER.SaveRenderState(D3DRS_DESTBLEND, D3DBLEND_SRCCOLOR);

  008c9	6a 03		 push	 3
  008cb	eb 11		 jmp	 SHORT $LN151@OnRender
$LN14@OnRender:

; 107  : 	{
; 108  : 		case RENDERING_MODE_SCREEN:
; 109  : 		case RENDERING_MODE_COLOR_DODGE:
; 110  : 			STATEMANAGER.SaveRenderState(D3DRS_SRCBLEND, D3DBLEND_INVDESTCOLOR);

  008cd	8b 0d 00 00 00
	00		 mov	 ecx, DWORD PTR ?ms_singleton@?$CSingleton@VCStateManager@@@@0PAVCStateManager@@A ; CSingleton<CStateManager>::ms_singleton
  008d3	6a 0a		 push	 10			; 0000000aH
  008d5	6a 13		 push	 19			; 00000013H
  008d7	e8 00 00 00 00	 call	 ?SaveRenderState@CStateManager@@QAEXW4_D3DRENDERSTATETYPE@@K@Z ; CStateManager::SaveRenderState

; 111  : 			STATEMANAGER.SaveRenderState(D3DRS_DESTBLEND, D3DBLEND_ONE);

  008dc	6a 02		 push	 2
$LN151@OnRender:

; 116  : 			break;
; 117  : 	}
; 118  : 
; 119  : 	if (CGraphicBase::SetPDTStream(vertices, 4))

  008de	8b 0d 00 00 00
	00		 mov	 ecx, DWORD PTR ?ms_singleton@?$CSingleton@VCStateManager@@@@0PAVCStateManager@@A ; CSingleton<CStateManager>::ms_singleton
  008e4	6a 14		 push	 20			; 00000014H
  008e6	e8 00 00 00 00	 call	 ?SaveRenderState@CStateManager@@QAEXW4_D3DRENDERSTATETYPE@@K@Z ; CStateManager::SaveRenderState
$LN5@OnRender:
  008eb	8d 45 9c	 lea	 eax, DWORD PTR _vertices$[ebp]
  008ee	6a 04		 push	 4
  008f0	50		 push	 eax
  008f1	e8 00 00 00 00	 call	 ?SetPDTStream@CGraphicBase@@SA_NPAUSPDTVertex@@I@Z ; CGraphicBase::SetPDTStream
  008f6	83 c4 08	 add	 esp, 8
  008f9	84 c0		 test	 al, al
  008fb	74 57		 je	 SHORT $LN17@OnRender

; 120  : 	{
; 121  : 		CGraphicBase::SetDefaultIndexBuffer(CGraphicBase::DEFAULT_IB_FILL_RECT);

  008fd	6a 05		 push	 5
  008ff	e8 00 00 00 00	 call	 ?SetDefaultIndexBuffer@CGraphicBase@@SAXI@Z ; CGraphicBase::SetDefaultIndexBuffer

; 122  : 
; 123  : 		STATEMANAGER.SetTexture(0, pTexture->GetD3DTexture());

  00904	8b 8d 7c ff ff
	ff		 mov	 ecx, DWORD PTR _pTexture$1$[ebp]
  0090a	83 c4 04	 add	 esp, 4
  0090d	e8 00 00 00 00	 call	 ?GetD3DTexture@CGraphicTexture@@QBEPAUIDirect3DTexture8@@XZ ; CGraphicTexture::GetD3DTexture
  00912	8b 0d 00 00 00
	00		 mov	 ecx, DWORD PTR ?ms_singleton@?$CSingleton@VCStateManager@@@@0PAVCStateManager@@A ; CSingleton<CStateManager>::ms_singleton
  00918	50		 push	 eax
  00919	6a 00		 push	 0
  0091b	e8 00 00 00 00	 call	 ?SetTexture@CStateManager@@QAEXKPAUIDirect3DBaseTexture8@@@Z ; CStateManager::SetTexture

; 124  : 		STATEMANAGER.SetTexture(1, NULL);

  00920	8b 0d 00 00 00
	00		 mov	 ecx, DWORD PTR ?ms_singleton@?$CSingleton@VCStateManager@@@@0PAVCStateManager@@A ; CSingleton<CStateManager>::ms_singleton
  00926	6a 00		 push	 0
  00928	6a 01		 push	 1
  0092a	e8 00 00 00 00	 call	 ?SetTexture@CStateManager@@QAEXKPAUIDirect3DBaseTexture8@@@Z ; CStateManager::SetTexture

; 125  : 		STATEMANAGER.SetVertexShader(D3DFVF_XYZ|D3DFVF_DIFFUSE|D3DFVF_TEX1);

  0092f	8b 0d 00 00 00
	00		 mov	 ecx, DWORD PTR ?ms_singleton@?$CSingleton@VCStateManager@@@@0PAVCStateManager@@A ; CSingleton<CStateManager>::ms_singleton
  00935	68 42 01 00 00	 push	 322			; 00000142H
  0093a	e8 00 00 00 00	 call	 ?SetVertexShader@CStateManager@@QAEXK@Z ; CStateManager::SetVertexShader

; 126  : 		STATEMANAGER.DrawIndexedPrimitive(D3DPT_TRIANGLELIST, 0, 4, 0, 2);

  0093f	8b 0d 00 00 00
	00		 mov	 ecx, DWORD PTR ?ms_singleton@?$CSingleton@VCStateManager@@@@0PAVCStateManager@@A ; CSingleton<CStateManager>::ms_singleton
  00945	6a 02		 push	 2
  00947	6a 00		 push	 0
  00949	6a 04		 push	 4
  0094b	6a 00		 push	 0
  0094d	6a 04		 push	 4
  0094f	e8 00 00 00 00	 call	 ?DrawIndexedPrimitive@CStateManager@@QAEJW4_D3DPRIMITIVETYPE@@IIII@Z ; CStateManager::DrawIndexedPrimitive
$LN17@OnRender:

; 127  : 	}
; 128  : 	//STATEMANAGER.DrawIndexedPrimitiveUP(D3DPT_TRIANGLELIST, 0, 4, 2, c_FillRectIndices, D3DFMT_INDEX16, vertices, sizeof(TPDTVertex));
; 129  : 	/////////////////////////////////////////////////////////////
; 130  : 
; 131  : 	switch (m_iRenderingMode)

  00954	8b 47 50	 mov	 eax, DWORD PTR [edi+80]
  00957	5f		 pop	 edi
  00958	5e		 pop	 esi
  00959	83 e8 01	 sub	 eax, 1
  0095c	74 0a		 je	 SHORT $LN18@OnRender
  0095e	83 e8 01	 sub	 eax, 1
  00961	74 05		 je	 SHORT $LN18@OnRender
  00963	83 e8 01	 sub	 eax, 1
  00966	75 1a		 jne	 SHORT $LN7@OnRender
$LN18@OnRender:

; 132  : 	{
; 133  : 		case RENDERING_MODE_SCREEN:
; 134  : 		case RENDERING_MODE_COLOR_DODGE:
; 135  : 		case RENDERING_MODE_MODULATE:
; 136  : 			STATEMANAGER.RestoreRenderState(D3DRS_SRCBLEND);

  00968	8b 0d 00 00 00
	00		 mov	 ecx, DWORD PTR ?ms_singleton@?$CSingleton@VCStateManager@@@@0PAVCStateManager@@A ; CSingleton<CStateManager>::ms_singleton
  0096e	6a 13		 push	 19			; 00000013H
  00970	e8 00 00 00 00	 call	 ?RestoreRenderState@CStateManager@@QAEXW4_D3DRENDERSTATETYPE@@@Z ; CStateManager::RestoreRenderState

; 137  : 			STATEMANAGER.RestoreRenderState(D3DRS_DESTBLEND);

  00975	8b 0d 00 00 00
	00		 mov	 ecx, DWORD PTR ?ms_singleton@?$CSingleton@VCStateManager@@@@0PAVCStateManager@@A ; CSingleton<CStateManager>::ms_singleton
  0097b	6a 14		 push	 20			; 00000014H
  0097d	e8 00 00 00 00	 call	 ?RestoreRenderState@CStateManager@@QAEXW4_D3DRENDERSTATETYPE@@@Z ; CStateManager::RestoreRenderState
$LN7@OnRender:

; 138  : 			break;
; 139  : 	}
; 140  : 	STATEMANAGER.SetRenderState(D3DRS_CULLMODE, D3DCULL_CW);

  00982	8b 0d 00 00 00
	00		 mov	 ecx, DWORD PTR ?ms_singleton@?$CSingleton@VCStateManager@@@@0PAVCStateManager@@A ; CSingleton<CStateManager>::ms_singleton
  00988	6a 02		 push	 2
  0098a	6a 16		 push	 22			; 00000016H
  0098c	e8 00 00 00 00	 call	 ?SetRenderState@CStateManager@@QAEXW4_D3DRENDERSTATETYPE@@K@Z ; CStateManager::SetRenderState

; 141  : }

  00991	8b 4d fc	 mov	 ecx, DWORD PTR __$ArrayPad$[ebp]
  00994	33 cd		 xor	 ecx, ebp
  00996	e8 00 00 00 00	 call	 @__security_check_cookie@4
  0099b	8b e5		 mov	 esp, ebp
  0099d	5d		 pop	 ebp
  0099e	c3		 ret	 0
?OnRender@CGraphicExpandedImageInstance@@MAEXXZ ENDP	; CGraphicExpandedImageInstance::OnRender
_TEXT	ENDS
; Function compile flags: /Ogtp
; File C:\Users\ALEXANDER\Desktop\Cliente\COPY_FISH_WON_NEW\Binario\Client\EterLib\GrpExpandedImageInstance.cpp
;	COMDAT ?Initialize@CGraphicExpandedImageInstance@@IAEXXZ
_TEXT	SEGMENT
?Initialize@CGraphicExpandedImageInstance@@IAEXXZ PROC	; CGraphicExpandedImageInstance::Initialize, COMDAT
; _this$ = ecx

; 226  : {

  00000	0f 57 c0	 xorps	 xmm0, xmm0

; 227  : 	m_iRenderingMode = RENDERING_MODE_NORMAL;

  00003	c7 41 50 00 00
	00 00		 mov	 DWORD PTR [ecx+80], 0

; 228  : 	m_fDepth = 0.0f;

  0000a	c7 41 28 00 00
	00 00		 mov	 DWORD PTR [ecx+40], 0

; 229  : 	m_v2Origin.x = m_v2Origin.y = 0.0f;

  00011	c7 41 30 00 00
	00 00		 mov	 DWORD PTR [ecx+48], 0
  00018	c7 41 2c 00 00
	00 00		 mov	 DWORD PTR [ecx+44], 0

; 230  : 	m_v2Scale.x = m_v2Scale.y = 1.0f;

  0001f	c7 41 38 00 00
	80 3f		 mov	 DWORD PTR [ecx+56], 1065353216 ; 3f800000H
  00026	c7 41 34 00 00
	80 3f		 mov	 DWORD PTR [ecx+52], 1065353216 ; 3f800000H

; 231  : 	m_fRotation = 0.0f;

  0002d	c7 41 3c 00 00
	00 00		 mov	 DWORD PTR [ecx+60], 0

; 232  : 	memset(&m_RenderingRect, 0, sizeof(RECT));

  00034	0f 11 41 40	 movups	 XMMWORD PTR [ecx+64], xmm0

; 233  : }

  00038	c3		 ret	 0
?Initialize@CGraphicExpandedImageInstance@@IAEXXZ ENDP	; CGraphicExpandedImageInstance::Initialize
_TEXT	ENDS
; Function compile flags: /Ogtp
; File C:\Users\ALEXANDER\Desktop\Cliente\COPY_FISH_WON_NEW\Binario\Client\EterLib\GrpExpandedImageInstance.cpp
;	COMDAT ?SetRenderingMode@CGraphicExpandedImageInstance@@QAEXH@Z
_TEXT	SEGMENT
_iMode$ = 8						; size = 4
?SetRenderingMode@CGraphicExpandedImageInstance@@QAEXH@Z PROC ; CGraphicExpandedImageInstance::SetRenderingMode, COMDAT
; _this$ = ecx

; 199  : {

  00000	55		 push	 ebp
  00001	8b ec		 mov	 ebp, esp

; 200  : 	m_iRenderingMode = iMode;

  00003	8b 45 08	 mov	 eax, DWORD PTR _iMode$[ebp]
  00006	89 41 50	 mov	 DWORD PTR [ecx+80], eax

; 201  : }

  00009	5d		 pop	 ebp
  0000a	c2 04 00	 ret	 4
?SetRenderingMode@CGraphicExpandedImageInstance@@QAEXH@Z ENDP ; CGraphicExpandedImageInstance::SetRenderingMode
_TEXT	ENDS
; Function compile flags: /Ogtp
; File C:\Users\ALEXANDER\Desktop\Cliente\COPY_FISH_WON_NEW\Binario\Client\EterLib\GrpExpandedImageInstance.cpp
;	COMDAT ?SetRenderingRectWithScale@CGraphicExpandedImageInstance@@QAEXMMMM@Z
_TEXT	SEGMENT
_fWidth$1$ = -4						; size = 4
_fLeft$ = 8						; size = 4
_fTop$ = 12						; size = 4
_fRight$ = 16						; size = 4
_fBottom$ = 20						; size = 4
?SetRenderingRectWithScale@CGraphicExpandedImageInstance@@QAEXMMMM@Z PROC ; CGraphicExpandedImageInstance::SetRenderingRectWithScale, COMDAT
; _this$ = ecx

; 185  : {

  00000	55		 push	 ebp
  00001	8b ec		 mov	 ebp, esp
  00003	51		 push	 ecx
  00004	56		 push	 esi
  00005	8b f1		 mov	 esi, ecx

; 186  : 	if (IsEmpty())

  00007	e8 00 00 00 00	 call	 ?IsEmpty@CGraphicImageInstance@@QBE_NXZ ; CGraphicImageInstance::IsEmpty
  0000c	84 c0		 test	 al, al
  0000e	75 66		 jne	 SHORT $LN1@SetRenderi

; 187  : 		return;
; 188  : 
; 189  : 	float fWidth = float(GetWidth()) * m_v2Scale.x;

  00010	8b ce		 mov	 ecx, esi
  00012	e8 00 00 00 00	 call	 ?GetWidth@CGraphicImageInstance@@QAEHXZ ; CGraphicImageInstance::GetWidth

; 190  : 	float fHeight = float(GetHeight()) * m_v2Scale.y;

  00017	8b ce		 mov	 ecx, esi
  00019	66 0f 6e c0	 movd	 xmm0, eax
  0001d	0f 5b c0	 cvtdq2ps xmm0, xmm0
  00020	f3 0f 59 46 34	 mulss	 xmm0, DWORD PTR [esi+52]
  00025	f3 0f 11 45 fc	 movss	 DWORD PTR _fWidth$1$[ebp], xmm0
  0002a	e8 00 00 00 00	 call	 ?GetHeight@CGraphicImageInstance@@QAEHXZ ; CGraphicImageInstance::GetHeight

; 191  : 
; 192  : 	m_RenderingRect.left = fWidth * fLeft;

  0002f	f3 0f 10 55 fc	 movss	 xmm2, DWORD PTR _fWidth$1$[ebp]
  00034	0f 28 c2	 movaps	 xmm0, xmm2

; 193  : 	m_RenderingRect.top = fHeight * fTop;
; 194  : 	m_RenderingRect.right = fWidth * fRight;

  00037	f3 0f 59 55 10	 mulss	 xmm2, DWORD PTR _fRight$[ebp]
  0003c	f3 0f 59 45 08	 mulss	 xmm0, DWORD PTR _fLeft$[ebp]
  00041	66 0f 6e c8	 movd	 xmm1, eax
  00045	0f 5b c9	 cvtdq2ps xmm1, xmm1
  00048	f3 0f 2c c0	 cvttss2si eax, xmm0
  0004c	f3 0f 59 4e 38	 mulss	 xmm1, DWORD PTR [esi+56]
  00051	89 46 40	 mov	 DWORD PTR [esi+64], eax
  00054	0f 28 c1	 movaps	 xmm0, xmm1

; 195  : 	m_RenderingRect.bottom = fHeight * fBottom;

  00057	f3 0f 59 4d 14	 mulss	 xmm1, DWORD PTR _fBottom$[ebp]
  0005c	f3 0f 59 45 0c	 mulss	 xmm0, DWORD PTR _fTop$[ebp]
  00061	f3 0f 2c c0	 cvttss2si eax, xmm0
  00065	89 46 44	 mov	 DWORD PTR [esi+68], eax
  00068	f3 0f 2c c2	 cvttss2si eax, xmm2
  0006c	89 46 48	 mov	 DWORD PTR [esi+72], eax
  0006f	f3 0f 2c c1	 cvttss2si eax, xmm1
  00073	89 46 4c	 mov	 DWORD PTR [esi+76], eax
$LN1@SetRenderi:
  00076	5e		 pop	 esi

; 196  : }

  00077	8b e5		 mov	 esp, ebp
  00079	5d		 pop	 ebp
  0007a	c2 10 00	 ret	 16			; 00000010H
?SetRenderingRectWithScale@CGraphicExpandedImageInstance@@QAEXMMMM@Z ENDP ; CGraphicExpandedImageInstance::SetRenderingRectWithScale
_TEXT	ENDS
; Function compile flags: /Ogtp
; File C:\Users\ALEXANDER\Desktop\Cliente\COPY_FISH_WON_NEW\Binario\Client\EterLib\GrpExpandedImageInstance.cpp
;	COMDAT ?SetRenderingRect@CGraphicExpandedImageInstance@@QAEXMMMM@Z
_TEXT	SEGMENT
_fWidth$1$ = -4						; size = 4
_fLeft$ = 8						; size = 4
_fTop$ = 12						; size = 4
_fRight$ = 16						; size = 4
_fBottom$ = 20						; size = 4
?SetRenderingRect@CGraphicExpandedImageInstance@@QAEXMMMM@Z PROC ; CGraphicExpandedImageInstance::SetRenderingRect, COMDAT
; _this$ = ecx

; 171  : {

  00000	55		 push	 ebp
  00001	8b ec		 mov	 ebp, esp
  00003	51		 push	 ecx
  00004	56		 push	 esi
  00005	8b f1		 mov	 esi, ecx

; 172  : 	if (IsEmpty())

  00007	e8 00 00 00 00	 call	 ?IsEmpty@CGraphicImageInstance@@QBE_NXZ ; CGraphicImageInstance::IsEmpty
  0000c	84 c0		 test	 al, al
  0000e	75 5c		 jne	 SHORT $LN1@SetRenderi

; 173  : 		return;
; 174  : 
; 175  : 	float fWidth = float(GetWidth());

  00010	8b ce		 mov	 ecx, esi
  00012	e8 00 00 00 00	 call	 ?GetWidth@CGraphicImageInstance@@QAEHXZ ; CGraphicImageInstance::GetWidth

; 176  : 	float fHeight = float(GetHeight());

  00017	8b ce		 mov	 ecx, esi
  00019	66 0f 6e c0	 movd	 xmm0, eax
  0001d	0f 5b c0	 cvtdq2ps xmm0, xmm0
  00020	f3 0f 11 45 fc	 movss	 DWORD PTR _fWidth$1$[ebp], xmm0
  00025	e8 00 00 00 00	 call	 ?GetHeight@CGraphicImageInstance@@QAEHXZ ; CGraphicImageInstance::GetHeight

; 177  : 
; 178  : 	m_RenderingRect.left = fWidth * fLeft;

  0002a	f3 0f 10 4d fc	 movss	 xmm1, DWORD PTR _fWidth$1$[ebp]
  0002f	0f 28 c1	 movaps	 xmm0, xmm1

; 179  : 	m_RenderingRect.top = fHeight * fTop;
; 180  : 	m_RenderingRect.right = fWidth * fRight;

  00032	f3 0f 59 4d 10	 mulss	 xmm1, DWORD PTR _fRight$[ebp]
  00037	f3 0f 59 45 08	 mulss	 xmm0, DWORD PTR _fLeft$[ebp]
  0003c	66 0f 6e d0	 movd	 xmm2, eax
  00040	0f 5b d2	 cvtdq2ps xmm2, xmm2
  00043	f3 0f 2c c0	 cvttss2si eax, xmm0
  00047	0f 28 c2	 movaps	 xmm0, xmm2

; 181  : 	m_RenderingRect.bottom = fHeight * fBottom;

  0004a	f3 0f 59 55 14	 mulss	 xmm2, DWORD PTR _fBottom$[ebp]
  0004f	89 46 40	 mov	 DWORD PTR [esi+64], eax
  00052	f3 0f 59 45 0c	 mulss	 xmm0, DWORD PTR _fTop$[ebp]
  00057	f3 0f 2c c0	 cvttss2si eax, xmm0
  0005b	89 46 44	 mov	 DWORD PTR [esi+68], eax
  0005e	f3 0f 2c c1	 cvttss2si eax, xmm1
  00062	89 46 48	 mov	 DWORD PTR [esi+72], eax
  00065	f3 0f 2c c2	 cvttss2si eax, xmm2
  00069	89 46 4c	 mov	 DWORD PTR [esi+76], eax
$LN1@SetRenderi:
  0006c	5e		 pop	 esi

; 182  : }

  0006d	8b e5		 mov	 esp, ebp
  0006f	5d		 pop	 ebp
  00070	c2 10 00	 ret	 16			; 00000010H
?SetRenderingRect@CGraphicExpandedImageInstance@@QAEXMMMM@Z ENDP ; CGraphicExpandedImageInstance::SetRenderingRect
_TEXT	ENDS
; Function compile flags: /Ogtp
; File C:\Users\ALEXANDER\Desktop\Cliente\COPY_FISH_WON_NEW\Binario\Client\EterLib\GrpExpandedImageInstance.cpp
;	COMDAT ?SetScale@CGraphicExpandedImageInstance@@QAEXMM@Z
_TEXT	SEGMENT
_fx$ = 8						; size = 4
_fy$ = 12						; size = 4
?SetScale@CGraphicExpandedImageInstance@@QAEXMM@Z PROC	; CGraphicExpandedImageInstance::SetScale, COMDAT
; _this$ = ecx

; 165  : {

  00000	55		 push	 ebp
  00001	8b ec		 mov	 ebp, esp

; 166  : 	m_v2Scale.x = fx;

  00003	f3 0f 10 45 08	 movss	 xmm0, DWORD PTR _fx$[ebp]
  00008	f3 0f 11 41 34	 movss	 DWORD PTR [ecx+52], xmm0

; 167  : 	m_v2Scale.y = fy;

  0000d	f3 0f 10 45 0c	 movss	 xmm0, DWORD PTR _fy$[ebp]
  00012	f3 0f 11 41 38	 movss	 DWORD PTR [ecx+56], xmm0

; 168  : }

  00017	5d		 pop	 ebp
  00018	c2 08 00	 ret	 8
?SetScale@CGraphicExpandedImageInstance@@QAEXMM@Z ENDP	; CGraphicExpandedImageInstance::SetScale
_TEXT	ENDS
; Function compile flags: /Ogtp
; File C:\Users\ALEXANDER\Desktop\Cliente\COPY_FISH_WON_NEW\Binario\Client\EterLib\GrpExpandedImageInstance.cpp
;	COMDAT ?SetRotation@CGraphicExpandedImageInstance@@QAEXM@Z
_TEXT	SEGMENT
_fRotation$ = 8						; size = 4
?SetRotation@CGraphicExpandedImageInstance@@QAEXM@Z PROC ; CGraphicExpandedImageInstance::SetRotation, COMDAT
; _this$ = ecx

; 160  : {

  00000	55		 push	 ebp
  00001	8b ec		 mov	 ebp, esp

; 161  : 	m_fRotation = fRotation;

  00003	f3 0f 10 45 08	 movss	 xmm0, DWORD PTR _fRotation$[ebp]
  00008	f3 0f 11 41 3c	 movss	 DWORD PTR [ecx+60], xmm0

; 162  : }

  0000d	5d		 pop	 ebp
  0000e	c2 04 00	 ret	 4
?SetRotation@CGraphicExpandedImageInstance@@QAEXM@Z ENDP ; CGraphicExpandedImageInstance::SetRotation
_TEXT	ENDS
; Function compile flags: /Ogtp
; File C:\Users\ALEXANDER\Desktop\Cliente\COPY_FISH_WON_NEW\Binario\Client\EterLib\GrpExpandedImageInstance.cpp
;	COMDAT ?SetOrigin@CGraphicExpandedImageInstance@@QAEXMM@Z
_TEXT	SEGMENT
_fx$ = 8						; size = 4
_fy$ = 12						; size = 4
?SetOrigin@CGraphicExpandedImageInstance@@QAEXMM@Z PROC	; CGraphicExpandedImageInstance::SetOrigin, COMDAT
; _this$ = ecx

; 154  : {

  00000	55		 push	 ebp
  00001	8b ec		 mov	 ebp, esp

; 155  : 	m_v2Origin.x = fx;

  00003	f3 0f 10 45 08	 movss	 xmm0, DWORD PTR _fx$[ebp]
  00008	f3 0f 11 41 2c	 movss	 DWORD PTR [ecx+44], xmm0

; 156  : 	m_v2Origin.y = fy;

  0000d	f3 0f 10 45 0c	 movss	 xmm0, DWORD PTR _fy$[ebp]
  00012	f3 0f 11 41 30	 movss	 DWORD PTR [ecx+48], xmm0

; 157  : }

  00017	5d		 pop	 ebp
  00018	c2 08 00	 ret	 8
?SetOrigin@CGraphicExpandedImageInstance@@QAEXMM@Z ENDP	; CGraphicExpandedImageInstance::SetOrigin
_TEXT	ENDS
; Function compile flags: /Ogtp
; File C:\Users\ALEXANDER\Desktop\Cliente\COPY_FISH_WON_NEW\Binario\Client\EterLib\GrpExpandedImageInstance.cpp
;	COMDAT ?SetOrigin@CGraphicExpandedImageInstance@@QAEXXZ
_TEXT	SEGMENT
?SetOrigin@CGraphicExpandedImageInstance@@QAEXXZ PROC	; CGraphicExpandedImageInstance::SetOrigin, COMDAT
; _this$ = ecx

; 149  : {

  00000	56		 push	 esi
  00001	8b f1		 mov	 esi, ecx

; 150  : 	SetOrigin(float(GetWidth()) / 2.0f, float(GetHeight()) / 2.0f);

  00003	e8 00 00 00 00	 call	 ?GetHeight@CGraphicImageInstance@@QAEHXZ ; CGraphicImageInstance::GetHeight
  00008	51		 push	 ecx
  00009	8b ce		 mov	 ecx, esi
  0000b	66 0f 6e c0	 movd	 xmm0, eax
  0000f	0f 5b c0	 cvtdq2ps xmm0, xmm0
  00012	f3 0f 59 05 00
	00 00 00	 mulss	 xmm0, DWORD PTR __real@3f000000
  0001a	f3 0f 11 04 24	 movss	 DWORD PTR [esp], xmm0
  0001f	e8 00 00 00 00	 call	 ?GetWidth@CGraphicImageInstance@@QAEHXZ ; CGraphicImageInstance::GetWidth
  00024	51		 push	 ecx
  00025	8b ce		 mov	 ecx, esi
  00027	66 0f 6e c0	 movd	 xmm0, eax
  0002b	0f 5b c0	 cvtdq2ps xmm0, xmm0
  0002e	f3 0f 59 05 00
	00 00 00	 mulss	 xmm0, DWORD PTR __real@3f000000
  00036	f3 0f 11 04 24	 movss	 DWORD PTR [esp], xmm0
  0003b	e8 00 00 00 00	 call	 ?SetOrigin@CGraphicExpandedImageInstance@@QAEXMM@Z ; CGraphicExpandedImageInstance::SetOrigin
  00040	5e		 pop	 esi

; 151  : }

  00041	c3		 ret	 0
?SetOrigin@CGraphicExpandedImageInstance@@QAEXXZ ENDP	; CGraphicExpandedImageInstance::SetOrigin
_TEXT	ENDS
; Function compile flags: /Ogtp
; File C:\Users\ALEXANDER\Desktop\Cliente\COPY_FISH_WON_NEW\Binario\Client\EterLib\GrpExpandedImageInstance.cpp
;	COMDAT ?SetDepth@CGraphicExpandedImageInstance@@QAEXM@Z
_TEXT	SEGMENT
_fDepth$ = 8						; size = 4
?SetDepth@CGraphicExpandedImageInstance@@QAEXM@Z PROC	; CGraphicExpandedImageInstance::SetDepth, COMDAT
; _this$ = ecx

; 144  : {

  00000	55		 push	 ebp
  00001	8b ec		 mov	 ebp, esp

; 145  : 	m_fDepth = fDepth;

  00003	f3 0f 10 45 08	 movss	 xmm0, DWORD PTR _fDepth$[ebp]
  00008	f3 0f 11 41 28	 movss	 DWORD PTR [ecx+40], xmm0

; 146  : }

  0000d	5d		 pop	 ebp
  0000e	c2 04 00	 ret	 4
?SetDepth@CGraphicExpandedImageInstance@@QAEXM@Z ENDP	; CGraphicExpandedImageInstance::SetDepth
_TEXT	ENDS
; Function compile flags: /Ogtp
; File C:\Users\ALEXANDER\Desktop\Cliente\COPY_FISH_WON_NEW\Binario\Client\EterLib\GrpExpandedImageInstance.cpp
;	COMDAT ?Destroy@CGraphicExpandedImageInstance@@QAEXXZ
_TEXT	SEGMENT
?Destroy@CGraphicExpandedImageInstance@@QAEXXZ PROC	; CGraphicExpandedImageInstance::Destroy, COMDAT
; _this$ = ecx

; 236  : {

  00000	56		 push	 esi
  00001	8b f1		 mov	 esi, ecx

; 237  : 	CGraphicImageInstance::Destroy();

  00003	e8 00 00 00 00	 call	 ?Destroy@CGraphicImageInstance@@QAEXXZ ; CGraphicImageInstance::Destroy

; 238  : 	Initialize();

  00008	8b ce		 mov	 ecx, esi
  0000a	5e		 pop	 esi
  0000b	e9 00 00 00 00	 jmp	 ?Initialize@CGraphicExpandedImageInstance@@IAEXXZ ; CGraphicExpandedImageInstance::Initialize
?Destroy@CGraphicExpandedImageInstance@@QAEXXZ ENDP	; CGraphicExpandedImageInstance::Destroy
_TEXT	ENDS
; Function compile flags: /Ogtp
; File C:\Users\ALEXANDER\Desktop\Cliente\COPY_FISH_WON_NEW\Binario\Client\EterLib\GrpExpandedImageInstance.cpp
;	COMDAT ??1CGraphicExpandedImageInstance@@UAE@XZ
_TEXT	SEGMENT
__$EHRec$ = -12						; size = 12
??1CGraphicExpandedImageInstance@@UAE@XZ PROC		; CGraphicExpandedImageInstance::~CGraphicExpandedImageInstance, COMDAT
; _this$ = ecx

; 247  : {

  00000	55		 push	 ebp
  00001	8b ec		 mov	 ebp, esp
  00003	6a ff		 push	 -1
  00005	68 00 00 00 00	 push	 __ehhandler$??1CGraphicExpandedImageInstance@@UAE@XZ
  0000a	64 a1 00 00 00
	00		 mov	 eax, DWORD PTR fs:0
  00010	50		 push	 eax
  00011	56		 push	 esi
  00012	a1 00 00 00 00	 mov	 eax, DWORD PTR ___security_cookie
  00017	33 c5		 xor	 eax, ebp
  00019	50		 push	 eax
  0001a	8d 45 f4	 lea	 eax, DWORD PTR __$EHRec$[ebp]
  0001d	64 a3 00 00 00
	00		 mov	 DWORD PTR fs:0, eax
  00023	8b f1		 mov	 esi, ecx
  00025	c7 06 00 00 00
	00		 mov	 DWORD PTR [esi], OFFSET ??_7CGraphicExpandedImageInstance@@6B@

; 248  : 	Destroy();

  0002b	e8 00 00 00 00	 call	 ?Destroy@CGraphicExpandedImageInstance@@QAEXXZ ; CGraphicExpandedImageInstance::Destroy

; 249  : }

  00030	8b ce		 mov	 ecx, esi
  00032	e8 00 00 00 00	 call	 ??1CGraphicImageInstance@@UAE@XZ ; CGraphicImageInstance::~CGraphicImageInstance
  00037	8b 4d f4	 mov	 ecx, DWORD PTR __$EHRec$[ebp]
  0003a	64 89 0d 00 00
	00 00		 mov	 DWORD PTR fs:0, ecx
  00041	59		 pop	 ecx
  00042	5e		 pop	 esi
  00043	8b e5		 mov	 esp, ebp
  00045	5d		 pop	 ebp
  00046	c3		 ret	 0
  00047	cc		 int	 3
  00048	cc		 int	 3
  00049	cc		 int	 3
  0004a	cc		 int	 3
  0004b	cc		 int	 3
_TEXT	ENDS
;	COMDAT text$x
text$x	SEGMENT
__ehhandler$??1CGraphicExpandedImageInstance@@UAE@XZ:
  00000	90		 npad	 1
  00001	90		 npad	 1
  00002	8b 54 24 08	 mov	 edx, DWORD PTR [esp+8]
  00006	8d 42 0c	 lea	 eax, DWORD PTR [edx+12]
  00009	8b 4a f8	 mov	 ecx, DWORD PTR [edx-8]
  0000c	33 c8		 xor	 ecx, eax
  0000e	e8 00 00 00 00	 call	 @__security_check_cookie@4
  00013	b8 00 00 00 00	 mov	 eax, OFFSET __ehfuncinfo$??1CGraphicExpandedImageInstance@@UAE@XZ
  00018	e9 00 00 00 00	 jmp	 ___CxxFrameHandler3
text$x	ENDS
??1CGraphicExpandedImageInstance@@UAE@XZ ENDP		; CGraphicExpandedImageInstance::~CGraphicExpandedImageInstance
; Function compile flags: /Ogtp
; File C:\Users\ALEXANDER\Desktop\Cliente\COPY_FISH_WON_NEW\Binario\Client\EterLib\GrpExpandedImageInstance.cpp
;	COMDAT ??0CGraphicExpandedImageInstance@@QAE@XZ
_TEXT	SEGMENT
_this$ = -4						; size = 4
??0CGraphicExpandedImageInstance@@QAE@XZ PROC		; CGraphicExpandedImageInstance::CGraphicExpandedImageInstance, COMDAT
; _this$ = ecx

; 242  : {

  00000	55		 push	 ebp
  00001	8b ec		 mov	 ebp, esp
  00003	51		 push	 ecx
  00004	56		 push	 esi
  00005	8b f1		 mov	 esi, ecx
  00007	89 75 fc	 mov	 DWORD PTR _this$[ebp], esi
  0000a	e8 00 00 00 00	 call	 ??0CGraphicImageInstance@@QAE@XZ ; CGraphicImageInstance::CGraphicImageInstance

; 243  : 	Initialize();

  0000f	8b ce		 mov	 ecx, esi
  00011	c7 06 00 00 00
	00		 mov	 DWORD PTR [esi], OFFSET ??_7CGraphicExpandedImageInstance@@6B@
  00017	e8 00 00 00 00	 call	 ?Initialize@CGraphicExpandedImageInstance@@IAEXXZ ; CGraphicExpandedImageInstance::Initialize

; 244  : }

  0001c	8b c6		 mov	 eax, esi
  0001e	5e		 pop	 esi
  0001f	8b e5		 mov	 esp, ebp
  00021	5d		 pop	 ebp
  00022	c3		 ret	 0
??0CGraphicExpandedImageInstance@@QAE@XZ ENDP		; CGraphicExpandedImageInstance::CGraphicExpandedImageInstance
_TEXT	ENDS
; Function compile flags: /Ogtp
; File C:\Users\ALEXANDER\Desktop\Cliente\COPY_FISH_WON_NEW\Binario\Client\EterLib\GrpExpandedImageInstance.cpp
;	COMDAT ?Type@CGraphicExpandedImageInstance@@SAKXZ
_TEXT	SEGMENT
__$EHRec$ = -12						; size = 12
?Type@CGraphicExpandedImageInstance@@SAKXZ PROC		; CGraphicExpandedImageInstance::Type, COMDAT

; 204  : {

  00000	55		 push	 ebp
  00001	8b ec		 mov	 ebp, esp
  00003	6a ff		 push	 -1
  00005	68 00 00 00 00	 push	 __ehhandler$?Type@CGraphicExpandedImageInstance@@SAKXZ
  0000a	64 a1 00 00 00
	00		 mov	 eax, DWORD PTR fs:0
  00010	50		 push	 eax
  00011	a1 00 00 00 00	 mov	 eax, DWORD PTR ___security_cookie
  00016	33 c5		 xor	 eax, ebp
  00018	50		 push	 eax
  00019	8d 45 f4	 lea	 eax, DWORD PTR __$EHRec$[ebp]
  0001c	64 a3 00 00 00
	00		 mov	 DWORD PTR fs:0, eax

; 205  : 	static DWORD s_dwType = GetCRC32("CGraphicExpandedImageInstance", strlen("CGraphicExpandedImageInstance"));

  00022	64 a1 00 00 00
	00		 mov	 eax, DWORD PTR fs:__tls_array
  00028	8b 0d 00 00 00
	00		 mov	 ecx, DWORD PTR __tls_index
  0002e	8b 0c 88	 mov	 ecx, DWORD PTR [eax+ecx*4]
  00031	a1 00 00 00 00	 mov	 eax, DWORD PTR ?$TSS0@?1??Type@CGraphicExpandedImageInstance@@SAKXZ@4HA
  00036	3b 81 00 00 00
	00		 cmp	 eax, DWORD PTR __Init_thread_epoch[ecx]
  0003c	7f 14		 jg	 SHORT $LN9@Type
$LN5@Type:

; 206  : 	return (s_dwType);
; 207  : }

  0003e	a1 00 00 00 00	 mov	 eax, DWORD PTR ?s_dwType@?1??Type@CGraphicExpandedImageInstance@@SAKXZ@4KA
  00043	8b 4d f4	 mov	 ecx, DWORD PTR __$EHRec$[ebp]
  00046	64 89 0d 00 00
	00 00		 mov	 DWORD PTR fs:0, ecx
  0004d	59		 pop	 ecx
  0004e	8b e5		 mov	 esp, ebp
  00050	5d		 pop	 ebp
  00051	c3		 ret	 0
$LN9@Type:

; 205  : 	static DWORD s_dwType = GetCRC32("CGraphicExpandedImageInstance", strlen("CGraphicExpandedImageInstance"));

  00052	68 00 00 00 00	 push	 OFFSET ?$TSS0@?1??Type@CGraphicExpandedImageInstance@@SAKXZ@4HA
  00057	e8 00 00 00 00	 call	 __Init_thread_header
  0005c	83 c4 04	 add	 esp, 4
  0005f	83 3d 00 00 00
	00 ff		 cmp	 DWORD PTR ?$TSS0@?1??Type@CGraphicExpandedImageInstance@@SAKXZ@4HA, -1
  00066	75 d6		 jne	 SHORT $LN5@Type
  00068	6a 1d		 push	 29			; 0000001dH
  0006a	68 00 00 00 00	 push	 OFFSET ??_C@_0BO@COPDODEE@CGraphicExpandedImageInstance@
  0006f	c7 45 fc 00 00
	00 00		 mov	 DWORD PTR __$EHRec$[ebp+8], 0
  00076	e8 00 00 00 00	 call	 ?GetCRC32@@YAKPBDI@Z	; GetCRC32
  0007b	68 00 00 00 00	 push	 OFFSET ?$TSS0@?1??Type@CGraphicExpandedImageInstance@@SAKXZ@4HA
  00080	a3 00 00 00 00	 mov	 DWORD PTR ?s_dwType@?1??Type@CGraphicExpandedImageInstance@@SAKXZ@4KA, eax
  00085	e8 00 00 00 00	 call	 __Init_thread_footer
  0008a	83 c4 0c	 add	 esp, 12			; 0000000cH
  0008d	eb af		 jmp	 SHORT $LN5@Type
_TEXT	ENDS
;	COMDAT text$x
text$x	SEGMENT
__unwindfunclet$?Type@CGraphicExpandedImageInstance@@SAKXZ$0:
  00000	68 00 00 00 00	 push	 OFFSET ?$TSS0@?1??Type@CGraphicExpandedImageInstance@@SAKXZ@4HA
  00005	e8 00 00 00 00	 call	 __Init_thread_abort
  0000a	59		 pop	 ecx
  0000b	c3		 ret	 0
  0000c	cc		 int	 3
  0000d	cc		 int	 3
  0000e	cc		 int	 3
  0000f	cc		 int	 3
  00010	cc		 int	 3
__ehhandler$?Type@CGraphicExpandedImageInstance@@SAKXZ:
  00011	90		 npad	 1
  00012	90		 npad	 1
  00013	8b 54 24 08	 mov	 edx, DWORD PTR [esp+8]
  00017	8d 42 0c	 lea	 eax, DWORD PTR [edx+12]
  0001a	8b 4a fc	 mov	 ecx, DWORD PTR [edx-4]
  0001d	33 c8		 xor	 ecx, eax
  0001f	e8 00 00 00 00	 call	 @__security_check_cookie@4
  00024	b8 00 00 00 00	 mov	 eax, OFFSET __ehfuncinfo$?Type@CGraphicExpandedImageInstance@@SAKXZ
  00029	e9 00 00 00 00	 jmp	 ___CxxFrameHandler3
text$x	ENDS
?Type@CGraphicExpandedImageInstance@@SAKXZ ENDP		; CGraphicExpandedImageInstance::Type
; Function compile flags: /Ogtp
;	COMDAT ??0SPDTVertex@@QAE@XZ
_TEXT	SEGMENT
??0SPDTVertex@@QAE@XZ PROC				; SPDTVertex::SPDTVertex, COMDAT
; _this$ = ecx
  00000	8b c1		 mov	 eax, ecx
  00002	c3		 ret	 0
??0SPDTVertex@@QAE@XZ ENDP				; SPDTVertex::SPDTVertex
_TEXT	ENDS
; Function compile flags: /Ogtp
; File D:\visual studio 2019\visual studio 2019\VC\Tools\MSVC\14.29.30133\include\xmemory
;	COMDAT ??$_Allocate_manually_vector_aligned@U_Default_allocate_traits@std@@@std@@YAPAXI@Z
_TEXT	SEGMENT
__Bytes$ = 8						; size = 4
??$_Allocate_manually_vector_aligned@U_Default_allocate_traits@std@@@std@@YAPAXI@Z PROC ; std::_Allocate_manually_vector_aligned<std::_Default_allocate_traits>, COMDAT

; 127  : __declspec(allocator) void* _Allocate_manually_vector_aligned(const size_t _Bytes) {

  00000	55		 push	 ebp
  00001	8b ec		 mov	 ebp, esp

; 128  :     // allocate _Bytes manually aligned to at least _Big_allocation_alignment
; 129  :     const size_t _Block_size = _Non_user_size + _Bytes;

  00003	8b 45 08	 mov	 eax, DWORD PTR __Bytes$[ebp]
  00006	8d 48 23	 lea	 ecx, DWORD PTR [eax+35]

; 130  :     if (_Block_size <= _Bytes) {

  00009	3b c8		 cmp	 ecx, eax
  0000b	0f 86 00 00 00
	00		 jbe	 ?_Throw_bad_array_new_length@std@@YAXXZ ; std::_Throw_bad_array_new_length

; 79   :         return ::operator new(_Bytes);

  00011	51		 push	 ecx
  00012	e8 00 00 00 00	 call	 ??2@YAPAXI@Z		; operator new

; 131  :         _Throw_bad_array_new_length(); // add overflow
; 132  :     }
; 133  : 
; 134  :     const uintptr_t _Ptr_container = reinterpret_cast<uintptr_t>(_Traits::_Allocate(_Block_size));

  00017	8b c8		 mov	 ecx, eax

; 79   :         return ::operator new(_Bytes);

  00019	83 c4 04	 add	 esp, 4

; 135  :     _STL_VERIFY(_Ptr_container != 0, "invalid argument"); // validate even in release since we're doing p[-1]

  0001c	85 c9		 test	 ecx, ecx
  0001e	74 0b		 je	 SHORT $LN7@Allocate_m

; 136  :     void* const _Ptr = reinterpret_cast<void*>((_Ptr_container + _Non_user_size) & ~(_Big_allocation_alignment - 1));

  00020	8d 41 23	 lea	 eax, DWORD PTR [ecx+35]
  00023	83 e0 e0	 and	 eax, -32		; ffffffe0H

; 137  :     static_cast<uintptr_t*>(_Ptr)[-1] = _Ptr_container;

  00026	89 48 fc	 mov	 DWORD PTR [eax-4], ecx

; 138  : 
; 139  : #ifdef _DEBUG
; 140  :     static_cast<uintptr_t*>(_Ptr)[-2] = _Big_allocation_sentinel;
; 141  : #endif // _DEBUG
; 142  :     return _Ptr;
; 143  : }

  00029	5d		 pop	 ebp
  0002a	c3		 ret	 0
$LN7@Allocate_m:

; 135  :     _STL_VERIFY(_Ptr_container != 0, "invalid argument"); // validate even in release since we're doing p[-1]

  0002b	e9 00 00 00 00	 jmp	 __invalid_parameter_noinfo_noreturn
??$_Allocate_manually_vector_aligned@U_Default_allocate_traits@std@@@std@@YAPAXI@Z ENDP ; std::_Allocate_manually_vector_aligned<std::_Default_allocate_traits>
_TEXT	ENDS
; Function compile flags: /Ogtp
; File D:\visual studio 2019\visual studio 2019\VC\Tools\MSVC\14.29.30133\include\exception
;	COMDAT ?_Throw_bad_array_new_length@std@@YAXXZ
_TEXT	SEGMENT
$T1 = -12						; size = 12
?_Throw_bad_array_new_length@std@@YAXXZ PROC		; std::_Throw_bad_array_new_length, COMDAT

; 315  : [[noreturn]] inline void _Throw_bad_array_new_length() {

  00000	55		 push	 ebp
  00001	8b ec		 mov	 ebp, esp
  00003	83 ec 0c	 sub	 esp, 12			; 0000000cH

; 316  :     _THROW(bad_array_new_length{});

  00006	8d 4d f4	 lea	 ecx, DWORD PTR $T1[ebp]
  00009	e8 00 00 00 00	 call	 ??0bad_array_new_length@std@@QAE@XZ ; std::bad_array_new_length::bad_array_new_length
  0000e	68 00 00 00 00	 push	 OFFSET __TI3?AVbad_array_new_length@std@@
  00013	8d 45 f4	 lea	 eax, DWORD PTR $T1[ebp]
  00016	50		 push	 eax
  00017	e8 00 00 00 00	 call	 __CxxThrowException@8
$LN3@Throw_bad_:
  0001c	cc		 int	 3
?_Throw_bad_array_new_length@std@@YAXXZ ENDP		; std::_Throw_bad_array_new_length
_TEXT	ENDS
; Function compile flags: /Ogtp
; File D:\visual studio 2019\visual studio 2019\VC\Tools\MSVC\14.29.30133\include\vcruntime_exception.h
;	COMDAT ??_Gbad_array_new_length@std@@UAEPAXI@Z
_TEXT	SEGMENT
___flags$ = 8						; size = 4
??_Gbad_array_new_length@std@@UAEPAXI@Z PROC		; std::bad_array_new_length::`scalar deleting destructor', COMDAT
; _this$ = ecx
  00000	55		 push	 ebp
  00001	8b ec		 mov	 ebp, esp

; 89   :     {

  00003	56		 push	 esi
  00004	8b f1		 mov	 esi, ecx

; 90   :         __std_exception_destroy(&_Data);

  00006	8d 46 04	 lea	 eax, DWORD PTR [esi+4]
  00009	c7 06 00 00 00
	00		 mov	 DWORD PTR [esi], OFFSET ??_7exception@std@@6B@
  0000f	50		 push	 eax
  00010	e8 00 00 00 00	 call	 ___std_exception_destroy
  00015	83 c4 04	 add	 esp, 4
  00018	f6 45 08 01	 test	 BYTE PTR ___flags$[ebp], 1
  0001c	74 0b		 je	 SHORT $LN12@scalar
  0001e	6a 0c		 push	 12			; 0000000cH
  00020	56		 push	 esi
  00021	e8 00 00 00 00	 call	 ??3@YAXPAXI@Z		; operator delete
  00026	83 c4 08	 add	 esp, 8
$LN12@scalar:
  00029	8b c6		 mov	 eax, esi
  0002b	5e		 pop	 esi
  0002c	5d		 pop	 ebp
  0002d	c2 04 00	 ret	 4
??_Gbad_array_new_length@std@@UAEPAXI@Z ENDP		; std::bad_array_new_length::`scalar deleting destructor'
_TEXT	ENDS
; Function compile flags: /Ogtp
; File D:\visual studio 2019\visual studio 2019\VC\Tools\MSVC\14.29.30133\include\vcruntime_exception.h
;	COMDAT ??0bad_array_new_length@std@@QAE@ABV01@@Z
_TEXT	SEGMENT
___that$ = 8						; size = 4
??0bad_array_new_length@std@@QAE@ABV01@@Z PROC		; std::bad_array_new_length::bad_array_new_length, COMDAT
; _this$ = ecx
  00000	55		 push	 ebp
  00001	8b ec		 mov	 ebp, esp

; 72   :     {

  00003	56		 push	 esi
  00004	8b f1		 mov	 esi, ecx
  00006	0f 57 c0	 xorps	 xmm0, xmm0

; 71   :         : _Data()

  00009	8d 46 04	 lea	 eax, DWORD PTR [esi+4]

; 73   :         __std_exception_copy(&_Other._Data, &_Data);

  0000c	50		 push	 eax
  0000d	c7 06 00 00 00
	00		 mov	 DWORD PTR [esi], OFFSET ??_7exception@std@@6B@
  00013	66 0f d6 00	 movq	 QWORD PTR [eax], xmm0
  00017	8b 45 08	 mov	 eax, DWORD PTR ___that$[ebp]
  0001a	83 c0 04	 add	 eax, 4
  0001d	50		 push	 eax
  0001e	e8 00 00 00 00	 call	 ___std_exception_copy
  00023	83 c4 08	 add	 esp, 8
  00026	c7 06 00 00 00
	00		 mov	 DWORD PTR [esi], OFFSET ??_7bad_array_new_length@std@@6B@
  0002c	8b c6		 mov	 eax, esi
  0002e	5e		 pop	 esi
  0002f	5d		 pop	 ebp
  00030	c2 04 00	 ret	 4
??0bad_array_new_length@std@@QAE@ABV01@@Z ENDP		; std::bad_array_new_length::bad_array_new_length
_TEXT	ENDS
; Function compile flags: /Ogtp
; File D:\visual studio 2019\visual studio 2019\VC\Tools\MSVC\14.29.30133\include\vcruntime_exception.h
;	COMDAT ??1bad_array_new_length@std@@UAE@XZ
_TEXT	SEGMENT
??1bad_array_new_length@std@@UAE@XZ PROC		; std::bad_array_new_length::~bad_array_new_length, COMDAT
; _this$ = ecx

; 90   :         __std_exception_destroy(&_Data);

  00000	8d 41 04	 lea	 eax, DWORD PTR [ecx+4]
  00003	c7 01 00 00 00
	00		 mov	 DWORD PTR [ecx], OFFSET ??_7exception@std@@6B@
  00009	50		 push	 eax
  0000a	e8 00 00 00 00	 call	 ___std_exception_destroy
  0000f	59		 pop	 ecx
  00010	c3		 ret	 0
??1bad_array_new_length@std@@UAE@XZ ENDP		; std::bad_array_new_length::~bad_array_new_length
_TEXT	ENDS
; Function compile flags: /Ogtp
; File D:\visual studio 2019\visual studio 2019\VC\Tools\MSVC\14.29.30133\include\vcruntime_exception.h
;	COMDAT ??0bad_array_new_length@std@@QAE@XZ
_TEXT	SEGMENT
??0bad_array_new_length@std@@QAE@XZ PROC		; std::bad_array_new_length::bad_array_new_length, COMDAT
; _this$ = ecx

; 141  :     {

  00000	0f 57 c0	 xorps	 xmm0, xmm0

; 142  :     }

  00003	8b c1		 mov	 eax, ecx

; 65   :         : _Data()

  00005	66 0f d6 41 04	 movq	 QWORD PTR [ecx+4], xmm0

; 66   :     {
; 67   :         _Data._What = _Message;

  0000a	c7 41 04 00 00
	00 00		 mov	 DWORD PTR [ecx+4], OFFSET ??_C@_0BF@KINCDENJ@bad?5array?5new?5length@

; 141  :     {

  00011	c7 01 00 00 00
	00		 mov	 DWORD PTR [ecx], OFFSET ??_7bad_array_new_length@std@@6B@

; 142  :     }

  00017	c3		 ret	 0
??0bad_array_new_length@std@@QAE@XZ ENDP		; std::bad_array_new_length::bad_array_new_length
_TEXT	ENDS
; Function compile flags: /Ogtp
; File D:\visual studio 2019\visual studio 2019\VC\Tools\MSVC\14.29.30133\include\vcruntime_exception.h
;	COMDAT ??_Gbad_alloc@std@@UAEPAXI@Z
_TEXT	SEGMENT
___flags$ = 8						; size = 4
??_Gbad_alloc@std@@UAEPAXI@Z PROC			; std::bad_alloc::`scalar deleting destructor', COMDAT
; _this$ = ecx
  00000	55		 push	 ebp
  00001	8b ec		 mov	 ebp, esp

; 89   :     {

  00003	56		 push	 esi
  00004	8b f1		 mov	 esi, ecx

; 90   :         __std_exception_destroy(&_Data);

  00006	8d 46 04	 lea	 eax, DWORD PTR [esi+4]
  00009	c7 06 00 00 00
	00		 mov	 DWORD PTR [esi], OFFSET ??_7exception@std@@6B@
  0000f	50		 push	 eax
  00010	e8 00 00 00 00	 call	 ___std_exception_destroy
  00015	83 c4 04	 add	 esp, 4
  00018	f6 45 08 01	 test	 BYTE PTR ___flags$[ebp], 1
  0001c	74 0b		 je	 SHORT $LN9@scalar
  0001e	6a 0c		 push	 12			; 0000000cH
  00020	56		 push	 esi
  00021	e8 00 00 00 00	 call	 ??3@YAXPAXI@Z		; operator delete
  00026	83 c4 08	 add	 esp, 8
$LN9@scalar:
  00029	8b c6		 mov	 eax, esi
  0002b	5e		 pop	 esi
  0002c	5d		 pop	 ebp
  0002d	c2 04 00	 ret	 4
??_Gbad_alloc@std@@UAEPAXI@Z ENDP			; std::bad_alloc::`scalar deleting destructor'
_TEXT	ENDS
; Function compile flags: /Ogtp
; File D:\visual studio 2019\visual studio 2019\VC\Tools\MSVC\14.29.30133\include\vcruntime_exception.h
;	COMDAT ??0bad_alloc@std@@QAE@ABV01@@Z
_TEXT	SEGMENT
___that$ = 8						; size = 4
??0bad_alloc@std@@QAE@ABV01@@Z PROC			; std::bad_alloc::bad_alloc, COMDAT
; _this$ = ecx
  00000	55		 push	 ebp
  00001	8b ec		 mov	 ebp, esp

; 72   :     {

  00003	56		 push	 esi
  00004	8b f1		 mov	 esi, ecx
  00006	0f 57 c0	 xorps	 xmm0, xmm0

; 71   :         : _Data()

  00009	8d 46 04	 lea	 eax, DWORD PTR [esi+4]

; 73   :         __std_exception_copy(&_Other._Data, &_Data);

  0000c	50		 push	 eax
  0000d	c7 06 00 00 00
	00		 mov	 DWORD PTR [esi], OFFSET ??_7exception@std@@6B@
  00013	66 0f d6 00	 movq	 QWORD PTR [eax], xmm0
  00017	8b 45 08	 mov	 eax, DWORD PTR ___that$[ebp]
  0001a	83 c0 04	 add	 eax, 4
  0001d	50		 push	 eax
  0001e	e8 00 00 00 00	 call	 ___std_exception_copy
  00023	83 c4 08	 add	 esp, 8
  00026	c7 06 00 00 00
	00		 mov	 DWORD PTR [esi], OFFSET ??_7bad_alloc@std@@6B@
  0002c	8b c6		 mov	 eax, esi
  0002e	5e		 pop	 esi
  0002f	5d		 pop	 ebp
  00030	c2 04 00	 ret	 4
??0bad_alloc@std@@QAE@ABV01@@Z ENDP			; std::bad_alloc::bad_alloc
_TEXT	ENDS
; Function compile flags: /Ogtp
; File D:\visual studio 2019\visual studio 2019\VC\Tools\MSVC\14.29.30133\include\vcruntime_exception.h
;	COMDAT ??_Gexception@std@@UAEPAXI@Z
_TEXT	SEGMENT
___flags$ = 8						; size = 4
??_Gexception@std@@UAEPAXI@Z PROC			; std::exception::`scalar deleting destructor', COMDAT
; _this$ = ecx
  00000	55		 push	 ebp
  00001	8b ec		 mov	 ebp, esp

; 89   :     {

  00003	56		 push	 esi
  00004	8b f1		 mov	 esi, ecx

; 90   :         __std_exception_destroy(&_Data);

  00006	8d 46 04	 lea	 eax, DWORD PTR [esi+4]
  00009	c7 06 00 00 00
	00		 mov	 DWORD PTR [esi], OFFSET ??_7exception@std@@6B@
  0000f	50		 push	 eax
  00010	e8 00 00 00 00	 call	 ___std_exception_destroy
  00015	83 c4 04	 add	 esp, 4
  00018	f6 45 08 01	 test	 BYTE PTR ___flags$[ebp], 1
  0001c	74 0b		 je	 SHORT $LN6@scalar
  0001e	6a 0c		 push	 12			; 0000000cH
  00020	56		 push	 esi
  00021	e8 00 00 00 00	 call	 ??3@YAXPAXI@Z		; operator delete
  00026	83 c4 08	 add	 esp, 8
$LN6@scalar:
  00029	8b c6		 mov	 eax, esi
  0002b	5e		 pop	 esi
  0002c	5d		 pop	 ebp
  0002d	c2 04 00	 ret	 4
??_Gexception@std@@UAEPAXI@Z ENDP			; std::exception::`scalar deleting destructor'
_TEXT	ENDS
; Function compile flags: /Ogtp
; File D:\visual studio 2019\visual studio 2019\VC\Tools\MSVC\14.29.30133\include\vcruntime_exception.h
;	COMDAT ?what@exception@std@@UBEPBDXZ
_TEXT	SEGMENT
?what@exception@std@@UBEPBDXZ PROC			; std::exception::what, COMDAT
; _this$ = ecx

; 95   :         return _Data._What ? _Data._What : "Unknown exception";

  00000	8b 49 04	 mov	 ecx, DWORD PTR [ecx+4]
  00003	b8 00 00 00 00	 mov	 eax, OFFSET ??_C@_0BC@EOODALEL@Unknown?5exception@
  00008	85 c9		 test	 ecx, ecx
  0000a	0f 45 c1	 cmovne	 eax, ecx

; 96   :     }

  0000d	c3		 ret	 0
?what@exception@std@@UBEPBDXZ ENDP			; std::exception::what
_TEXT	ENDS
; Function compile flags: /Ogtp
; File D:\visual studio 2019\visual studio 2019\VC\Tools\MSVC\14.29.30133\include\vcruntime_exception.h
;	COMDAT ??1exception@std@@UAE@XZ
_TEXT	SEGMENT
??1exception@std@@UAE@XZ PROC				; std::exception::~exception, COMDAT
; _this$ = ecx

; 90   :         __std_exception_destroy(&_Data);

  00000	8d 41 04	 lea	 eax, DWORD PTR [ecx+4]
  00003	c7 01 00 00 00
	00		 mov	 DWORD PTR [ecx], OFFSET ??_7exception@std@@6B@
  00009	50		 push	 eax
  0000a	e8 00 00 00 00	 call	 ___std_exception_destroy
  0000f	59		 pop	 ecx

; 91   :     }

  00010	c3		 ret	 0
??1exception@std@@UAE@XZ ENDP				; std::exception::~exception
_TEXT	ENDS
; Function compile flags: /Ogtp
; File D:\visual studio 2019\visual studio 2019\VC\Tools\MSVC\14.29.30133\include\vcruntime_exception.h
;	COMDAT ??0exception@std@@QAE@ABV01@@Z
_TEXT	SEGMENT
__Other$ = 8						; size = 4
??0exception@std@@QAE@ABV01@@Z PROC			; std::exception::exception, COMDAT
; _this$ = ecx

; 72   :     {

  00000	55		 push	 ebp
  00001	8b ec		 mov	 ebp, esp
  00003	56		 push	 esi
  00004	8b f1		 mov	 esi, ecx
  00006	0f 57 c0	 xorps	 xmm0, xmm0
  00009	8d 46 04	 lea	 eax, DWORD PTR [esi+4]

; 73   :         __std_exception_copy(&_Other._Data, &_Data);

  0000c	50		 push	 eax
  0000d	c7 06 00 00 00
	00		 mov	 DWORD PTR [esi], OFFSET ??_7exception@std@@6B@
  00013	66 0f d6 00	 movq	 QWORD PTR [eax], xmm0
  00017	8b 45 08	 mov	 eax, DWORD PTR __Other$[ebp]
  0001a	83 c0 04	 add	 eax, 4
  0001d	50		 push	 eax
  0001e	e8 00 00 00 00	 call	 ___std_exception_copy
  00023	83 c4 08	 add	 esp, 8

; 74   :     }

  00026	8b c6		 mov	 eax, esi
  00028	5e		 pop	 esi
  00029	5d		 pop	 ebp
  0002a	c2 04 00	 ret	 4
??0exception@std@@QAE@ABV01@@Z ENDP			; std::exception::exception
_TEXT	ENDS
; Function compile flags: /Ogtp
;	COMDAT ??_H@YGXPAXIIP6EPAX0@Z@Z
_TEXT	SEGMENT
___t$ = 8						; size = 4
___s$ = 12						; size = 4
___n$ = 16						; size = 4
___f$ = 20						; size = 4
??_H@YGXPAXIIP6EPAX0@Z@Z PROC				; `vector constructor iterator', COMDAT
  00000	55		 push	 ebp
  00001	8b ec		 mov	 ebp, esp
  00003	56		 push	 esi
  00004	8b 75 10	 mov	 esi, DWORD PTR ___n$[ebp]
  00007	85 f6		 test	 esi, esi
  00009	74 16		 je	 SHORT $LN6@vector
  0000b	53		 push	 ebx
  0000c	8b 5d 14	 mov	 ebx, DWORD PTR ___f$[ebp]
  0000f	57		 push	 edi
  00010	8b 7d 08	 mov	 edi, DWORD PTR ___t$[ebp]
$LL2@vector:
  00013	8b cf		 mov	 ecx, edi
  00015	ff d3		 call	 ebx
  00017	03 7d 0c	 add	 edi, DWORD PTR ___s$[ebp]
  0001a	83 ee 01	 sub	 esi, 1
  0001d	75 f4		 jne	 SHORT $LL2@vector
  0001f	5f		 pop	 edi
  00020	5b		 pop	 ebx
$LN6@vector:
  00021	5e		 pop	 esi
  00022	5d		 pop	 ebp
  00023	c2 10 00	 ret	 16			; 00000010H
??_H@YGXPAXIIP6EPAX0@Z@Z ENDP				; `vector constructor iterator'
_TEXT	ENDS
END
