; Listing generated by Microsoft (R) Optimizing Compiler Version 19.29.30151.0 

	TITLE	C:\Users\ALEXANDER\Desktop\Cliente\COPY_FISH_WON_NEW\Binario\Client\EterLib\Distribute\GrpRenderTargetTexture.obj
	.686P
	.XMM
	include listing.inc
	.model	flat

INCLUDELIB LIBCMT
INCLUDELIB OLDNAMES

CONST	SEGMENT
?_Fake_alloc@std@@3U_Fake_allocator@1@B	ORG $+1		; std::_Fake_alloc
CONST	ENDS
PUBLIC	??_H@YGXPAXIIP6EPAX0@Z@Z			; `vector constructor iterator'
PUBLIC	??0SPDTVertex@@QAE@XZ				; SPDTVertex::SPDTVertex
PUBLIC	??0CGraphicRenderTargetTexture@@QAE@XZ		; CGraphicRenderTargetTexture::CGraphicRenderTargetTexture
PUBLIC	??1CGraphicRenderTargetTexture@@UAE@XZ		; CGraphicRenderTargetTexture::~CGraphicRenderTargetTexture
PUBLIC	?Create@CGraphicRenderTargetTexture@@QAE_NHHW4_D3DFORMAT@@0@Z ; CGraphicRenderTargetTexture::Create
PUBLIC	?CreateTextures@CGraphicRenderTargetTexture@@QAEXXZ ; CGraphicRenderTargetTexture::CreateTextures
PUBLIC	?CreateRenderTexture@CGraphicRenderTargetTexture@@QAE_NHHW4_D3DFORMAT@@@Z ; CGraphicRenderTargetTexture::CreateRenderTexture
PUBLIC	?CreateRenderDepthStencil@CGraphicRenderTargetTexture@@QAE_NHHW4_D3DFORMAT@@@Z ; CGraphicRenderTargetTexture::CreateRenderDepthStencil
PUBLIC	?SetRenderTarget@CGraphicRenderTargetTexture@@QAEXXZ ; CGraphicRenderTargetTexture::SetRenderTarget
PUBLIC	?ResetRenderTarget@CGraphicRenderTargetTexture@@QAEXXZ ; CGraphicRenderTargetTexture::ResetRenderTarget
PUBLIC	?SetRenderingRect@CGraphicRenderTargetTexture@@QAEXPAUtagRECT@@@Z ; CGraphicRenderTargetTexture::SetRenderingRect
PUBLIC	?GetRenderingRect@CGraphicRenderTargetTexture@@QAEPAUtagRECT@@XZ ; CGraphicRenderTargetTexture::GetRenderingRect
PUBLIC	?GetRenderTargetTexture@CGraphicRenderTargetTexture@@QBEPAUIDirect3DTexture8@@XZ ; CGraphicRenderTargetTexture::GetRenderTargetTexture
PUBLIC	?ReleaseTextures@CGraphicRenderTargetTexture@@QAEXXZ ; CGraphicRenderTargetTexture::ReleaseTextures
PUBLIC	?Clear@CGraphicRenderTargetTexture@@SAXXZ	; CGraphicRenderTargetTexture::Clear
PUBLIC	?Render@CGraphicRenderTargetTexture@@QBEXXZ	; CGraphicRenderTargetTexture::Render
PUBLIC	?Reset@CGraphicRenderTargetTexture@@IAEXXZ	; CGraphicRenderTargetTexture::Reset
PUBLIC	??_GCGraphicRenderTargetTexture@@UAEPAXI@Z	; CGraphicRenderTargetTexture::`scalar deleting destructor'
PUBLIC	??_7CGraphicRenderTargetTexture@@6B@		; CGraphicRenderTargetTexture::`vftable'
PUBLIC	?ms_singleton@?$CSingleton@VCStateManager@@@@0PAVCStateManager@@A ; CSingleton<CStateManager>::ms_singleton
PUBLIC	??_R4CGraphicRenderTargetTexture@@6B@		; CGraphicRenderTargetTexture::`RTTI Complete Object Locator'
PUBLIC	??_R0?AVCGraphicRenderTargetTexture@@@8		; CGraphicRenderTargetTexture `RTTI Type Descriptor'
PUBLIC	??_R3CGraphicRenderTargetTexture@@8		; CGraphicRenderTargetTexture::`RTTI Class Hierarchy Descriptor'
PUBLIC	??_R2CGraphicRenderTargetTexture@@8		; CGraphicRenderTargetTexture::`RTTI Base Class Array'
PUBLIC	??_R1A@?0A@EA@CGraphicRenderTargetTexture@@8	; CGraphicRenderTargetTexture::`RTTI Base Class Descriptor at (0,-1,0,64)'
PUBLIC	??_R1A@?0A@EA@CGraphicTexture@@8		; CGraphicTexture::`RTTI Base Class Descriptor at (0,-1,0,64)'
PUBLIC	??_R0?AVCGraphicTexture@@@8			; CGraphicTexture `RTTI Type Descriptor'
PUBLIC	??_R3CGraphicTexture@@8				; CGraphicTexture::`RTTI Class Hierarchy Descriptor'
PUBLIC	??_R2CGraphicTexture@@8				; CGraphicTexture::`RTTI Base Class Array'
PUBLIC	??_R1A@?0A@EA@CGraphicBase@@8			; CGraphicBase::`RTTI Base Class Descriptor at (0,-1,0,64)'
PUBLIC	??_R0?AVCGraphicBase@@@8			; CGraphicBase `RTTI Type Descriptor'
PUBLIC	??_R3CGraphicBase@@8				; CGraphicBase::`RTTI Class Hierarchy Descriptor'
PUBLIC	??_R2CGraphicBase@@8				; CGraphicBase::`RTTI Base Class Array'
PUBLIC	__real@3f000000
PUBLIC	__xmm@41f00000000000000000000000000000
EXTRN	??3@YAXPAXI@Z:PROC				; operator delete
EXTRN	?SetDefaultIndexBuffer@CGraphicBase@@SAXI@Z:PROC ; CGraphicBase::SetDefaultIndexBuffer
EXTRN	?SetPDTStream@CGraphicBase@@SA_NPAUSPDTVertex@@I@Z:PROC ; CGraphicBase::SetPDTStream
EXTRN	?IsEmpty@CGraphicTexture@@UBE_NXZ:PROC		; CGraphicTexture::IsEmpty
EXTRN	??0CGraphicTexture@@IAE@XZ:PROC			; CGraphicTexture::CGraphicTexture
EXTRN	??1CGraphicTexture@@MAE@XZ:PROC			; CGraphicTexture::~CGraphicTexture
EXTRN	?Destroy@CGraphicTexture@@IAEXXZ:PROC		; CGraphicTexture::Destroy
EXTRN	?Initialize@CGraphicTexture@@IAEXXZ:PROC	; CGraphicTexture::Initialize
EXTRN	??_ECGraphicRenderTargetTexture@@UAEPAXI@Z:PROC	; CGraphicRenderTargetTexture::`vector deleting destructor'
EXTRN	?SetTexture@CStateManager@@QAEXKPAUIDirect3DBaseTexture8@@@Z:PROC ; CStateManager::SetTexture
EXTRN	?SetVertexShader@CStateManager@@QAEXK@Z:PROC	; CStateManager::SetVertexShader
EXTRN	?DrawIndexedPrimitive@CStateManager@@QAEJW4_D3DPRIMITIVETYPE@@IIII@Z:PROC ; CStateManager::DrawIndexedPrimitive
EXTRN	@__security_check_cookie@4:PROC
EXTRN	___CxxFrameHandler3:PROC
EXTRN	??_7type_info@@6B@:QWORD			; type_info::`vftable'
EXTRN	?ms_lpd3dDevice@CGraphicBase@@1PAUIDirect3DDevice8@@A:DWORD ; CGraphicBase::ms_lpd3dDevice
EXTRN	___security_cookie:DWORD
EXTRN	__fltused:DWORD
;	COMDAT ?ms_singleton@?$CSingleton@VCStateManager@@@@0PAVCStateManager@@A
_BSS	SEGMENT
?ms_singleton@?$CSingleton@VCStateManager@@@@0PAVCStateManager@@A DD 01H DUP (?) ; CSingleton<CStateManager>::ms_singleton
_BSS	ENDS
;	COMDAT __xmm@41f00000000000000000000000000000
CONST	SEGMENT
__xmm@41f00000000000000000000000000000 DB 00H, 00H, 00H, 00H, 00H, 00H, 00H
	DB	00H, 00H, 00H, 00H, 00H, 00H, 00H, 0f0H, 'A'
CONST	ENDS
;	COMDAT __real@3f000000
CONST	SEGMENT
__real@3f000000 DD 03f000000r			; 0.5
CONST	ENDS
;	COMDAT ??_R2CGraphicBase@@8
rdata$r	SEGMENT
??_R2CGraphicBase@@8 DD FLAT:??_R1A@?0A@EA@CGraphicBase@@8 ; CGraphicBase::`RTTI Base Class Array'
rdata$r	ENDS
;	COMDAT ??_R3CGraphicBase@@8
rdata$r	SEGMENT
??_R3CGraphicBase@@8 DD 00H				; CGraphicBase::`RTTI Class Hierarchy Descriptor'
	DD	00H
	DD	01H
	DD	FLAT:??_R2CGraphicBase@@8
rdata$r	ENDS
;	COMDAT ??_R0?AVCGraphicBase@@@8
data$rs	SEGMENT
??_R0?AVCGraphicBase@@@8 DD FLAT:??_7type_info@@6B@	; CGraphicBase `RTTI Type Descriptor'
	DD	00H
	DB	'.?AVCGraphicBase@@', 00H
data$rs	ENDS
;	COMDAT ??_R1A@?0A@EA@CGraphicBase@@8
rdata$r	SEGMENT
??_R1A@?0A@EA@CGraphicBase@@8 DD FLAT:??_R0?AVCGraphicBase@@@8 ; CGraphicBase::`RTTI Base Class Descriptor at (0,-1,0,64)'
	DD	00H
	DD	00H
	DD	0ffffffffH
	DD	00H
	DD	040H
	DD	FLAT:??_R3CGraphicBase@@8
rdata$r	ENDS
;	COMDAT ??_R2CGraphicTexture@@8
rdata$r	SEGMENT
??_R2CGraphicTexture@@8 DD FLAT:??_R1A@?0A@EA@CGraphicTexture@@8 ; CGraphicTexture::`RTTI Base Class Array'
	DD	FLAT:??_R1A@?0A@EA@CGraphicBase@@8
rdata$r	ENDS
;	COMDAT ??_R3CGraphicTexture@@8
rdata$r	SEGMENT
??_R3CGraphicTexture@@8 DD 00H				; CGraphicTexture::`RTTI Class Hierarchy Descriptor'
	DD	00H
	DD	02H
	DD	FLAT:??_R2CGraphicTexture@@8
rdata$r	ENDS
;	COMDAT ??_R0?AVCGraphicTexture@@@8
data$rs	SEGMENT
??_R0?AVCGraphicTexture@@@8 DD FLAT:??_7type_info@@6B@	; CGraphicTexture `RTTI Type Descriptor'
	DD	00H
	DB	'.?AVCGraphicTexture@@', 00H
data$rs	ENDS
;	COMDAT ??_R1A@?0A@EA@CGraphicTexture@@8
rdata$r	SEGMENT
??_R1A@?0A@EA@CGraphicTexture@@8 DD FLAT:??_R0?AVCGraphicTexture@@@8 ; CGraphicTexture::`RTTI Base Class Descriptor at (0,-1,0,64)'
	DD	01H
	DD	00H
	DD	0ffffffffH
	DD	00H
	DD	040H
	DD	FLAT:??_R3CGraphicTexture@@8
rdata$r	ENDS
;	COMDAT ??_R1A@?0A@EA@CGraphicRenderTargetTexture@@8
rdata$r	SEGMENT
??_R1A@?0A@EA@CGraphicRenderTargetTexture@@8 DD FLAT:??_R0?AVCGraphicRenderTargetTexture@@@8 ; CGraphicRenderTargetTexture::`RTTI Base Class Descriptor at (0,-1,0,64)'
	DD	02H
	DD	00H
	DD	0ffffffffH
	DD	00H
	DD	040H
	DD	FLAT:??_R3CGraphicRenderTargetTexture@@8
rdata$r	ENDS
;	COMDAT ??_R2CGraphicRenderTargetTexture@@8
rdata$r	SEGMENT
??_R2CGraphicRenderTargetTexture@@8 DD FLAT:??_R1A@?0A@EA@CGraphicRenderTargetTexture@@8 ; CGraphicRenderTargetTexture::`RTTI Base Class Array'
	DD	FLAT:??_R1A@?0A@EA@CGraphicTexture@@8
	DD	FLAT:??_R1A@?0A@EA@CGraphicBase@@8
rdata$r	ENDS
;	COMDAT ??_R3CGraphicRenderTargetTexture@@8
rdata$r	SEGMENT
??_R3CGraphicRenderTargetTexture@@8 DD 00H		; CGraphicRenderTargetTexture::`RTTI Class Hierarchy Descriptor'
	DD	00H
	DD	03H
	DD	FLAT:??_R2CGraphicRenderTargetTexture@@8
rdata$r	ENDS
;	COMDAT ??_R0?AVCGraphicRenderTargetTexture@@@8
data$rs	SEGMENT
??_R0?AVCGraphicRenderTargetTexture@@@8 DD FLAT:??_7type_info@@6B@ ; CGraphicRenderTargetTexture `RTTI Type Descriptor'
	DD	00H
	DB	'.?AVCGraphicRenderTargetTexture@@', 00H
data$rs	ENDS
;	COMDAT ??_R4CGraphicRenderTargetTexture@@6B@
rdata$r	SEGMENT
??_R4CGraphicRenderTargetTexture@@6B@ DD 00H		; CGraphicRenderTargetTexture::`RTTI Complete Object Locator'
	DD	00H
	DD	00H
	DD	FLAT:??_R0?AVCGraphicRenderTargetTexture@@@8
	DD	FLAT:??_R3CGraphicRenderTargetTexture@@8
rdata$r	ENDS
;	COMDAT ??_7CGraphicRenderTargetTexture@@6B@
CONST	SEGMENT
??_7CGraphicRenderTargetTexture@@6B@ DD FLAT:??_R4CGraphicRenderTargetTexture@@6B@ ; CGraphicRenderTargetTexture::`vftable'
	DD	FLAT:??_ECGraphicRenderTargetTexture@@UAEPAXI@Z
	DD	FLAT:?IsEmpty@CGraphicTexture@@UBE_NXZ
CONST	ENDS
;	COMDAT xdata$x
xdata$x	SEGMENT
__ehfuncinfo$??1CGraphicRenderTargetTexture@@UAE@XZ DD 019930522H
	DD	00H
	DD	00H
	DD	2 DUP(00H)
	DD	2 DUP(00H)
	DD	00H
	DD	05H
xdata$x	ENDS
;	COMDAT xdata$x
xdata$x	SEGMENT
__unwindtable$??0CGraphicRenderTargetTexture@@QAE@XZ DD 0ffffffffH
	DD	FLAT:__unwindfunclet$??0CGraphicRenderTargetTexture@@QAE@XZ$0
__ehfuncinfo$??0CGraphicRenderTargetTexture@@QAE@XZ DD 019930522H
	DD	01H
	DD	FLAT:__unwindtable$??0CGraphicRenderTargetTexture@@QAE@XZ
	DD	2 DUP(00H)
	DD	2 DUP(00H)
	DD	00H
	DD	01H
xdata$x	ENDS
; Function compile flags: /Ogtp
;	COMDAT ??_GCGraphicRenderTargetTexture@@UAEPAXI@Z
_TEXT	SEGMENT
___flags$ = 8						; size = 4
??_GCGraphicRenderTargetTexture@@UAEPAXI@Z PROC		; CGraphicRenderTargetTexture::`scalar deleting destructor', COMDAT
; _this$ = ecx
  00000	55		 push	 ebp
  00001	8b ec		 mov	 ebp, esp
  00003	56		 push	 esi
  00004	8b f1		 mov	 esi, ecx
  00006	e8 00 00 00 00	 call	 ??1CGraphicRenderTargetTexture@@UAE@XZ ; CGraphicRenderTargetTexture::~CGraphicRenderTargetTexture
  0000b	f6 45 08 01	 test	 BYTE PTR ___flags$[ebp], 1
  0000f	74 0b		 je	 SHORT $LN4@scalar
  00011	6a 40		 push	 64			; 00000040H
  00013	56		 push	 esi
  00014	e8 00 00 00 00	 call	 ??3@YAXPAXI@Z		; operator delete
  00019	83 c4 08	 add	 esp, 8
$LN4@scalar:
  0001c	8b c6		 mov	 eax, esi
  0001e	5e		 pop	 esi
  0001f	5d		 pop	 ebp
  00020	c2 04 00	 ret	 4
??_GCGraphicRenderTargetTexture@@UAEPAXI@Z ENDP		; CGraphicRenderTargetTexture::`scalar deleting destructor'
_TEXT	ENDS
; Function compile flags: /Ogtp
; File C:\Users\ALEXANDER\Desktop\Cliente\COPY_FISH_WON_NEW\Binario\Client\EterLib\GrpRenderTargetTexture.cpp
;	COMDAT ?Reset@CGraphicRenderTargetTexture@@IAEXXZ
_TEXT	SEGMENT
?Reset@CGraphicRenderTargetTexture@@IAEXXZ PROC		; CGraphicRenderTargetTexture::Reset, COMDAT
; _this$ = ecx

; 162  : {

  00000	56		 push	 esi
  00001	8b f1		 mov	 esi, ecx

; 163  : 	Destroy();

  00003	e8 00 00 00 00	 call	 ?Destroy@CGraphicTexture@@IAEXXZ ; CGraphicTexture::Destroy

; 164  : 	ReleaseTextures();

  00008	8b ce		 mov	 ecx, esi
  0000a	e8 00 00 00 00	 call	 ?ReleaseTextures@CGraphicRenderTargetTexture@@QAEXXZ ; CGraphicRenderTargetTexture::ReleaseTextures

; 165  : 
; 166  : 	m_d3dFormat = D3DFMT_UNKNOWN;

  0000f	c7 46 28 00 00
	00 00		 mov	 DWORD PTR [esi+40], 0

; 167  : 	m_depthStencilFormat = D3DFMT_UNKNOWN;

  00016	c7 46 2c 00 00
	00 00		 mov	 DWORD PTR [esi+44], 0
  0001d	5e		 pop	 esi

; 168  : }

  0001e	c3		 ret	 0
?Reset@CGraphicRenderTargetTexture@@IAEXXZ ENDP		; CGraphicRenderTargetTexture::Reset
_TEXT	ENDS
; Function compile flags: /Ogtp
; File C:\Users\ALEXANDER\Desktop\Cliente\COPY_FISH_WON_NEW\Binario\Client\EterLib\GrpRenderTargetTexture.cpp
; File C:\Users\ALEXANDER\Desktop\Cliente\COPY_FISH_WON_NEW\Binario\extern\include\d3dx8math.inl
; File C:\Users\ALEXANDER\Desktop\Cliente\COPY_FISH_WON_NEW\Binario\Client\EterLib\GrpRenderTargetTexture.cpp
; File C:\Users\ALEXANDER\Desktop\Cliente\COPY_FISH_WON_NEW\Binario\extern\include\d3dx8math.inl
; File C:\Users\ALEXANDER\Desktop\Cliente\COPY_FISH_WON_NEW\Binario\Client\EterLib\GrpRenderTargetTexture.cpp
; File C:\Users\ALEXANDER\Desktop\Cliente\COPY_FISH_WON_NEW\Binario\extern\include\d3dx8math.inl
; File C:\Users\ALEXANDER\Desktop\Cliente\COPY_FISH_WON_NEW\Binario\Client\EterLib\GrpRenderTargetTexture.cpp
; File C:\Users\ALEXANDER\Desktop\Cliente\COPY_FISH_WON_NEW\Binario\extern\include\d3dx8math.inl
; File C:\Users\ALEXANDER\Desktop\Cliente\COPY_FISH_WON_NEW\Binario\Client\EterLib\GrpRenderTargetTexture.cpp
;	COMDAT ?Render@CGraphicRenderTargetTexture@@QBEXXZ
_TEXT	SEGMENT
$T5 = -144						; size = 12
$T6 = -144						; size = 12
$T7 = -144						; size = 12
$T8 = -144						; size = 12
_desc$ = -132						; size = 32
_pVertices$ = -100					; size = 96
__$ArrayPad$ = -4					; size = 4
?Render@CGraphicRenderTargetTexture@@QBEXXZ PROC	; CGraphicRenderTargetTexture::Render, COMDAT
; _this$ = ecx

; 119  : {

  00000	55		 push	 ebp
  00001	8b ec		 mov	 ebp, esp
  00003	81 ec 90 00 00
	00		 sub	 esp, 144		; 00000090H
  00009	a1 00 00 00 00	 mov	 eax, DWORD PTR ___security_cookie
  0000e	33 c5		 xor	 eax, ebp
  00010	89 45 fc	 mov	 DWORD PTR __$ArrayPad$[ebp], eax
  00013	53		 push	 ebx
  00014	8b d9		 mov	 ebx, ecx

; 120  : 	D3DSURFACE_DESC desc;
; 121  : 	m_lpd3dRenderTargetSurface->GetDesc(&desc);

  00016	8d 95 7c ff ff
	ff		 lea	 edx, DWORD PTR _desc$[ebp]
  0001c	52		 push	 edx
  0001d	8b 43 18	 mov	 eax, DWORD PTR [ebx+24]
  00020	50		 push	 eax
  00021	8b 08		 mov	 ecx, DWORD PTR [eax]
  00023	ff 51 20	 call	 DWORD PTR [ecx+32]

; 122  : 
; 123  : 	const auto imgWidth = static_cast<float>(m_renderRect.right - m_renderRect.left);

  00026	8b 53 30	 mov	 edx, DWORD PTR [ebx+48]
  00029	8b 43 38	 mov	 eax, DWORD PTR [ebx+56]
  0002c	2b c2		 sub	 eax, edx

; 124  : 	const auto imgHeight = static_cast<float>(m_renderRect.bottom - m_renderRect.top);

  0002e	8b 4b 34	 mov	 ecx, DWORD PTR [ebx+52]

; 125  : 
; 126  : 	const auto su = 0.0f;
; 127  : 	const auto sv = 0.0f;
; 128  : 	const auto eu = imgWidth / static_cast<float>(desc.Width);
; 129  : 	const auto ev = imgHeight / static_cast<float>(desc.Height);
; 130  : 
; 131  : 	TPDTVertex pVertices[4];
; 132  : 
; 133  : 	pVertices[0].position = TPosition(m_renderRect.left - 0.5f, m_renderRect.top - 0.5f, 0.0f);

  00031	f3 0f 10 15 00
	00 00 00	 movss	 xmm2, DWORD PTR __real@3f000000
  00039	66 0f 6e 5b 38	 movd	 xmm3, DWORD PTR [ebx+56]
  0003e	66 0f 6e e2	 movd	 xmm4, edx
  00042	66 0f 6e f0	 movd	 xmm6, eax
  00046	8b 45 94	 mov	 eax, DWORD PTR _desc$[ebp+24]
  00049	0f 5b f6	 cvtdq2ps xmm6, xmm6
; File C:\Users\ALEXANDER\Desktop\Cliente\COPY_FISH_WON_NEW\Binario\extern\include\d3dx8math.inl

; 182  :     z = fz;

  0004c	c7 85 78 ff ff
	ff 00 00 00 00	 mov	 DWORD PTR $T8[ebp+8], 0
; File C:\Users\ALEXANDER\Desktop\Cliente\COPY_FISH_WON_NEW\Binario\Client\EterLib\GrpRenderTargetTexture.cpp

; 134  : 	pVertices[0].texCoord = TTextureCoordinate(su, sv);

  00056	c7 45 ac 00 00
	00 00		 mov	 DWORD PTR _pVertices$[ebp+16], 0
  0005d	c7 45 b0 00 00
	00 00		 mov	 DWORD PTR _pVertices$[ebp+20], 0

; 135  : 	pVertices[0].diffuse = 0xffffffff;

  00064	c7 45 a8 ff ff
	ff ff		 mov	 DWORD PTR _pVertices$[ebp+12], -1
  0006b	66 0f 6e c0	 movd	 xmm0, eax
  0006f	f3 0f e6 c0	 cvtdq2pd xmm0, xmm0
  00073	c1 e8 1f	 shr	 eax, 31			; 0000001fH

; 139  : 	pVertices[1].texCoord = TTextureCoordinate(eu, sv);

  00076	c7 45 c8 00 00
	00 00		 mov	 DWORD PTR _pVertices$[ebp+44], 0

; 140  : 	pVertices[1].diffuse = 0xffffffff;

  0007d	c7 45 c0 ff ff
	ff ff		 mov	 DWORD PTR _pVertices$[ebp+36], -1

; 143  : 	pVertices[2].texCoord = TTextureCoordinate(su, ev);

  00084	c7 45 dc 00 00
	00 00		 mov	 DWORD PTR _pVertices$[ebp+64], 0

; 144  : 	pVertices[2].diffuse = 0xffffffff;

  0008b	c7 45 d8 ff ff
	ff ff		 mov	 DWORD PTR _pVertices$[ebp+60], -1
  00092	0f 5b e4	 cvtdq2ps xmm4, xmm4

; 147  : 	pVertices[3].texCoord = TTextureCoordinate(eu, ev);
; 148  : 	pVertices[3].diffuse = 0xffffffff;

  00095	c7 45 f0 ff ff
	ff ff		 mov	 DWORD PTR _pVertices$[ebp+84], -1

; 149  : 
; 150  : 	if (SetPDTStream(pVertices, 4))

  0009c	6a 04		 push	 4
  0009e	f2 0f 58 04 c5
	00 00 00 00	 addsd	 xmm0, QWORD PTR __xmm@41f00000000000000000000000000000[eax*8]
  000a7	8b 43 3c	 mov	 eax, DWORD PTR [ebx+60]
  000aa	f3 0f 5c e2	 subss	 xmm4, xmm2
  000ae	2b c1		 sub	 eax, ecx
  000b0	66 0f 6e c9	 movd	 xmm1, ecx
  000b4	0f 5b c9	 cvtdq2ps xmm1, xmm1
  000b7	66 0f 5a c0	 cvtpd2ps xmm0, xmm0
  000bb	66 0f 6e e8	 movd	 xmm5, eax
  000bf	f3 0f 5c ca	 subss	 xmm1, xmm2
  000c3	8b 45 98	 mov	 eax, DWORD PTR _desc$[ebp+28]
  000c6	f3 0f 5e f0	 divss	 xmm6, xmm0
  000ca	66 0f 6e c0	 movd	 xmm0, eax
  000ce	f3 0f e6 c0	 cvtdq2pd xmm0, xmm0
  000d2	c1 e8 1f	 shr	 eax, 31			; 0000001fH
  000d5	0f 5b ed	 cvtdq2ps xmm5, xmm5
  000d8	f2 0f 58 04 c5
	00 00 00 00	 addsd	 xmm0, QWORD PTR __xmm@41f00000000000000000000000000000[eax*8]
  000e1	8b 85 78 ff ff
	ff		 mov	 eax, DWORD PTR $T8[ebp+8]
  000e7	0f 5b db	 cvtdq2ps xmm3, xmm3
  000ea	89 45 a4	 mov	 DWORD PTR _pVertices$[ebp+8], eax
; File C:\Users\ALEXANDER\Desktop\Cliente\COPY_FISH_WON_NEW\Binario\extern\include\d3dx8math.inl

; 182  :     z = fz;

  000ed	c7 85 78 ff ff
	ff 00 00 00 00	 mov	 DWORD PTR $T7[ebp+8], 0
; File C:\Users\ALEXANDER\Desktop\Cliente\COPY_FISH_WON_NEW\Binario\Client\EterLib\GrpRenderTargetTexture.cpp

; 138  : 	pVertices[1].position = TPosition(m_renderRect.right - 0.5f, m_renderRect.top - 0.5f, 0.0f);

  000f7	8b 85 78 ff ff
	ff		 mov	 eax, DWORD PTR $T7[ebp+8]
  000fd	89 45 bc	 mov	 DWORD PTR _pVertices$[ebp+32], eax
  00100	66 0f 5a c0	 cvtpd2ps xmm0, xmm0
; File C:\Users\ALEXANDER\Desktop\Cliente\COPY_FISH_WON_NEW\Binario\extern\include\d3dx8math.inl

; 182  :     z = fz;

  00104	c7 85 78 ff ff
	ff 00 00 00 00	 mov	 DWORD PTR $T6[ebp+8], 0
; File C:\Users\ALEXANDER\Desktop\Cliente\COPY_FISH_WON_NEW\Binario\Client\EterLib\GrpRenderTargetTexture.cpp

; 142  : 	pVertices[2].position = TPosition(m_renderRect.left - 0.5f, m_renderRect.bottom - 0.5f, 0.0f);

  0010e	8b 85 78 ff ff
	ff		 mov	 eax, DWORD PTR $T6[ebp+8]
  00114	89 45 d4	 mov	 DWORD PTR _pVertices$[ebp+56], eax
; File C:\Users\ALEXANDER\Desktop\Cliente\COPY_FISH_WON_NEW\Binario\extern\include\d3dx8math.inl

; 182  :     z = fz;

  00117	c7 85 78 ff ff
	ff 00 00 00 00	 mov	 DWORD PTR $T5[ebp+8], 0
; File C:\Users\ALEXANDER\Desktop\Cliente\COPY_FISH_WON_NEW\Binario\Client\EterLib\GrpRenderTargetTexture.cpp

; 146  : 	pVertices[3].position = TPosition(m_renderRect.right - 0.5f, m_renderRect.bottom - 0.5f, 0.0f);

  00121	8b 85 78 ff ff
	ff		 mov	 eax, DWORD PTR $T5[ebp+8]
  00127	f3 0f 5c da	 subss	 xmm3, xmm2
  0012b	89 45 ec	 mov	 DWORD PTR _pVertices$[ebp+80], eax
  0012e	f3 0f 5e e8	 divss	 xmm5, xmm0

; 149  : 
; 150  : 	if (SetPDTStream(pVertices, 4))

  00132	8d 45 9c	 lea	 eax, DWORD PTR _pVertices$[ebp]
  00135	0f 28 c4	 movaps	 xmm0, xmm4
  00138	f3 0f 11 75 c4	 movss	 DWORD PTR _pVertices$[ebp+40], xmm6
  0013d	0f 14 c1	 unpcklps xmm0, xmm1
  00140	66 0f d6 45 9c	 movq	 QWORD PTR _pVertices$[ebp], xmm0
  00145	0f 28 c3	 movaps	 xmm0, xmm3
  00148	0f 14 c1	 unpcklps xmm0, xmm1
  0014b	66 0f d6 45 b4	 movq	 QWORD PTR _pVertices$[ebp+24], xmm0
  00150	66 0f 6e 43 3c	 movd	 xmm0, DWORD PTR [ebx+60]
  00155	0f 5b c0	 cvtdq2ps xmm0, xmm0
  00158	f3 0f 11 6d e0	 movss	 DWORD PTR _pVertices$[ebp+68], xmm5
  0015d	f3 0f 5c c2	 subss	 xmm0, xmm2
  00161	f3 0f 11 75 f4	 movss	 DWORD PTR _pVertices$[ebp+88], xmm6
  00166	f3 0f 11 6d f8	 movss	 DWORD PTR _pVertices$[ebp+92], xmm5
  0016b	0f 14 e0	 unpcklps xmm4, xmm0
  0016e	0f 14 d8	 unpcklps xmm3, xmm0
  00171	66 0f d6 65 cc	 movq	 QWORD PTR _pVertices$[ebp+48], xmm4
  00176	66 0f d6 5d e4	 movq	 QWORD PTR _pVertices$[ebp+72], xmm3
  0017b	50		 push	 eax
  0017c	e8 00 00 00 00	 call	 ?SetPDTStream@CGraphicBase@@SA_NPAUSPDTVertex@@I@Z ; CGraphicBase::SetPDTStream
  00181	83 c4 08	 add	 esp, 8
  00184	84 c0		 test	 al, al
  00186	74 53		 je	 SHORT $LN2@Render

; 151  : 	{
; 152  : 		SetDefaultIndexBuffer(DEFAULT_IB_FILL_RECT);

  00188	6a 05		 push	 5
  0018a	e8 00 00 00 00	 call	 ?SetDefaultIndexBuffer@CGraphicBase@@SAXI@Z ; CGraphicBase::SetDefaultIndexBuffer
  0018f	83 c4 04	 add	 esp, 4

; 153  : 
; 154  : 		STATEMANAGER.SetTexture(0, GetRenderTargetTexture());

  00192	8b cb		 mov	 ecx, ebx
  00194	e8 00 00 00 00	 call	 ?GetRenderTargetTexture@CGraphicRenderTargetTexture@@QBEPAUIDirect3DTexture8@@XZ ; CGraphicRenderTargetTexture::GetRenderTargetTexture
  00199	8b 0d 00 00 00
	00		 mov	 ecx, DWORD PTR ?ms_singleton@?$CSingleton@VCStateManager@@@@0PAVCStateManager@@A ; CSingleton<CStateManager>::ms_singleton
  0019f	50		 push	 eax
  001a0	6a 00		 push	 0
  001a2	e8 00 00 00 00	 call	 ?SetTexture@CStateManager@@QAEXKPAUIDirect3DBaseTexture8@@@Z ; CStateManager::SetTexture

; 155  : 		STATEMANAGER.SetTexture(1, nullptr);

  001a7	8b 0d 00 00 00
	00		 mov	 ecx, DWORD PTR ?ms_singleton@?$CSingleton@VCStateManager@@@@0PAVCStateManager@@A ; CSingleton<CStateManager>::ms_singleton
  001ad	6a 00		 push	 0
  001af	6a 01		 push	 1
  001b1	e8 00 00 00 00	 call	 ?SetTexture@CStateManager@@QAEXKPAUIDirect3DBaseTexture8@@@Z ; CStateManager::SetTexture

; 156  : 		STATEMANAGER.SetVertexShader(D3DFVF_XYZ | D3DFVF_TEX1 | D3DFVF_DIFFUSE);

  001b6	8b 0d 00 00 00
	00		 mov	 ecx, DWORD PTR ?ms_singleton@?$CSingleton@VCStateManager@@@@0PAVCStateManager@@A ; CSingleton<CStateManager>::ms_singleton
  001bc	68 42 01 00 00	 push	 322			; 00000142H
  001c1	e8 00 00 00 00	 call	 ?SetVertexShader@CStateManager@@QAEXK@Z ; CStateManager::SetVertexShader

; 157  : 		STATEMANAGER.DrawIndexedPrimitive(D3DPT_TRIANGLELIST, 0, 4, 0, 2);

  001c6	8b 0d 00 00 00
	00		 mov	 ecx, DWORD PTR ?ms_singleton@?$CSingleton@VCStateManager@@@@0PAVCStateManager@@A ; CSingleton<CStateManager>::ms_singleton
  001cc	6a 02		 push	 2
  001ce	6a 00		 push	 0
  001d0	6a 04		 push	 4
  001d2	6a 00		 push	 0
  001d4	6a 04		 push	 4
  001d6	e8 00 00 00 00	 call	 ?DrawIndexedPrimitive@CStateManager@@QAEJW4_D3DPRIMITIVETYPE@@IIII@Z ; CStateManager::DrawIndexedPrimitive
$LN2@Render:

; 158  : 	}
; 159  : }

  001db	8b 4d fc	 mov	 ecx, DWORD PTR __$ArrayPad$[ebp]
  001de	33 cd		 xor	 ecx, ebp
  001e0	5b		 pop	 ebx
  001e1	e8 00 00 00 00	 call	 @__security_check_cookie@4
  001e6	8b e5		 mov	 esp, ebp
  001e8	5d		 pop	 ebp
  001e9	c3		 ret	 0
?Render@CGraphicRenderTargetTexture@@QBEXXZ ENDP	; CGraphicRenderTargetTexture::Render
_TEXT	ENDS
; Function compile flags: /Ogtp
; File C:\Users\ALEXANDER\Desktop\Cliente\COPY_FISH_WON_NEW\Binario\Client\EterLib\GrpRenderTargetTexture.cpp
;	COMDAT ?Clear@CGraphicRenderTargetTexture@@SAXXZ
_TEXT	SEGMENT
?Clear@CGraphicRenderTargetTexture@@SAXXZ PROC		; CGraphicRenderTargetTexture::Clear, COMDAT

; 100  : 	ms_lpd3dDevice->Clear(0, nullptr, D3DCLEAR_TARGET | D3DCLEAR_ZBUFFER, D3DCOLOR_ARGB(0, 0, 0, 0), 1.0f, 0);

  00000	a1 00 00 00 00	 mov	 eax, DWORD PTR ?ms_lpd3dDevice@CGraphicBase@@1PAUIDirect3DDevice8@@A ; CGraphicBase::ms_lpd3dDevice
  00005	6a 00		 push	 0
  00007	8b 08		 mov	 ecx, DWORD PTR [eax]
  00009	51		 push	 ecx
  0000a	c7 04 24 00 00
	80 3f		 mov	 DWORD PTR [esp], 1065353216 ; 3f800000H
  00011	6a 00		 push	 0
  00013	6a 03		 push	 3
  00015	6a 00		 push	 0
  00017	6a 00		 push	 0
  00019	50		 push	 eax
  0001a	ff 91 90 00 00
	00		 call	 DWORD PTR [ecx+144]

; 101  : }

  00020	c3		 ret	 0
?Clear@CGraphicRenderTargetTexture@@SAXXZ ENDP		; CGraphicRenderTargetTexture::Clear
_TEXT	ENDS
; Function compile flags: /Ogtp
; File C:\Users\ALEXANDER\Desktop\Cliente\COPY_FISH_WON_NEW\Binario\Client\EterLib\GrpRenderTargetTexture.cpp
; File C:\Users\ALEXANDER\Desktop\Cliente\COPY_FISH_WON_NEW\Binario\Client\EterBase\Stl.h
; File C:\Users\ALEXANDER\Desktop\Cliente\COPY_FISH_WON_NEW\Binario\Client\EterLib\GrpRenderTargetTexture.cpp
;	COMDAT ?ReleaseTextures@CGraphicRenderTargetTexture@@QAEXXZ
_TEXT	SEGMENT
?ReleaseTextures@CGraphicRenderTargetTexture@@QAEXXZ PROC ; CGraphicRenderTargetTexture::ReleaseTextures, COMDAT
; _this$ = ecx

; 25   : {

  00000	56		 push	 esi
  00001	8b f1		 mov	 esi, ecx
; File C:\Users\ALEXANDER\Desktop\Cliente\COPY_FISH_WON_NEW\Binario\Client\EterBase\Stl.h

; 138  : 	if (!rpObject)

  00003	8b 4e 14	 mov	 ecx, DWORD PTR [esi+20]
  00006	85 c9		 test	 ecx, ecx
  00008	74 0d		 je	 SHORT $LN3@ReleaseTex

; 139  : 		return;
; 140  : 
; 141  : 	rpObject->Release();

  0000a	8b 01		 mov	 eax, DWORD PTR [ecx]
  0000c	51		 push	 ecx
  0000d	ff 50 08	 call	 DWORD PTR [eax+8]

; 142  : 	rpObject = NULL;

  00010	c7 46 14 00 00
	00 00		 mov	 DWORD PTR [esi+20], 0
$LN3@ReleaseTex:

; 138  : 	if (!rpObject)

  00017	8b 4e 18	 mov	 ecx, DWORD PTR [esi+24]
  0001a	85 c9		 test	 ecx, ecx
  0001c	74 0d		 je	 SHORT $LN6@ReleaseTex

; 139  : 		return;
; 140  : 
; 141  : 	rpObject->Release();

  0001e	8b 01		 mov	 eax, DWORD PTR [ecx]
  00020	51		 push	 ecx
  00021	ff 50 08	 call	 DWORD PTR [eax+8]

; 142  : 	rpObject = NULL;

  00024	c7 46 18 00 00
	00 00		 mov	 DWORD PTR [esi+24], 0
$LN6@ReleaseTex:

; 138  : 	if (!rpObject)

  0002b	8b 4e 1c	 mov	 ecx, DWORD PTR [esi+28]
  0002e	85 c9		 test	 ecx, ecx
  00030	74 0d		 je	 SHORT $LN12@ReleaseTex

; 139  : 		return;
; 140  : 
; 141  : 	rpObject->Release();

  00032	8b 01		 mov	 eax, DWORD PTR [ecx]
  00034	51		 push	 ecx
  00035	ff 50 08	 call	 DWORD PTR [eax+8]

; 142  : 	rpObject = NULL;

  00038	c7 46 1c 00 00
	00 00		 mov	 DWORD PTR [esi+28], 0
$LN12@ReleaseTex:

; 138  : 	if (!rpObject)

  0003f	8b 4e 20	 mov	 ecx, DWORD PTR [esi+32]
  00042	85 c9		 test	 ecx, ecx
  00044	74 0d		 je	 SHORT $LN15@ReleaseTex

; 139  : 		return;
; 140  : 
; 141  : 	rpObject->Release();

  00046	8b 01		 mov	 eax, DWORD PTR [ecx]
  00048	51		 push	 ecx
  00049	ff 50 08	 call	 DWORD PTR [eax+8]

; 142  : 	rpObject = NULL;

  0004c	c7 46 20 00 00
	00 00		 mov	 DWORD PTR [esi+32], 0
$LN15@ReleaseTex:

; 138  : 	if (!rpObject)

  00053	8b 4e 24	 mov	 ecx, DWORD PTR [esi+36]
  00056	85 c9		 test	 ecx, ecx
  00058	74 0d		 je	 SHORT $LN18@ReleaseTex

; 139  : 		return;
; 140  : 
; 141  : 	rpObject->Release();

  0005a	8b 01		 mov	 eax, DWORD PTR [ecx]
  0005c	51		 push	 ecx
  0005d	ff 50 08	 call	 DWORD PTR [eax+8]

; 142  : 	rpObject = NULL;

  00060	c7 46 24 00 00
	00 00		 mov	 DWORD PTR [esi+36], 0
$LN18@ReleaseTex:
; File C:\Users\ALEXANDER\Desktop\Cliente\COPY_FISH_WON_NEW\Binario\Client\EterLib\GrpRenderTargetTexture.cpp

; 32   : 	m_renderRect.left = 0;

  00067	c7 46 30 00 00
	00 00		 mov	 DWORD PTR [esi+48], 0

; 33   : 	m_renderRect.top = 0;

  0006e	c7 46 34 00 00
	00 00		 mov	 DWORD PTR [esi+52], 0

; 34   : 	m_renderRect.right = 0;

  00075	c7 46 38 00 00
	00 00		 mov	 DWORD PTR [esi+56], 0

; 35   : 	m_renderRect.bottom = 0;

  0007c	c7 46 3c 00 00
	00 00		 mov	 DWORD PTR [esi+60], 0
  00083	5e		 pop	 esi

; 36   : }

  00084	c3		 ret	 0
?ReleaseTextures@CGraphicRenderTargetTexture@@QAEXXZ ENDP ; CGraphicRenderTargetTexture::ReleaseTextures
_TEXT	ENDS
; Function compile flags: /Ogtp
; File C:\Users\ALEXANDER\Desktop\Cliente\COPY_FISH_WON_NEW\Binario\Client\EterLib\GrpRenderTargetTexture.cpp
;	COMDAT ?GetRenderTargetTexture@CGraphicRenderTargetTexture@@QBEPAUIDirect3DTexture8@@XZ
_TEXT	SEGMENT
?GetRenderTargetTexture@CGraphicRenderTargetTexture@@QBEPAUIDirect3DTexture8@@XZ PROC ; CGraphicRenderTargetTexture::GetRenderTargetTexture, COMDAT
; _this$ = ecx

; 115  : 	return m_lpd3dRenderTexture;

  00000	8b 41 14	 mov	 eax, DWORD PTR [ecx+20]

; 116  : }

  00003	c3		 ret	 0
?GetRenderTargetTexture@CGraphicRenderTargetTexture@@QBEPAUIDirect3DTexture8@@XZ ENDP ; CGraphicRenderTargetTexture::GetRenderTargetTexture
_TEXT	ENDS
; Function compile flags: /Ogtp
; File C:\Users\ALEXANDER\Desktop\Cliente\COPY_FISH_WON_NEW\Binario\Client\EterLib\GrpRenderTargetTexture.cpp
;	COMDAT ?GetRenderingRect@CGraphicRenderTargetTexture@@QAEPAUtagRECT@@XZ
_TEXT	SEGMENT
?GetRenderingRect@CGraphicRenderTargetTexture@@QAEPAUtagRECT@@XZ PROC ; CGraphicRenderTargetTexture::GetRenderingRect, COMDAT
; _this$ = ecx

; 110  : 	return &m_renderRect;

  00000	8d 41 30	 lea	 eax, DWORD PTR [ecx+48]

; 111  : }

  00003	c3		 ret	 0
?GetRenderingRect@CGraphicRenderTargetTexture@@QAEPAUtagRECT@@XZ ENDP ; CGraphicRenderTargetTexture::GetRenderingRect
_TEXT	ENDS
; Function compile flags: /Ogtp
; File C:\Users\ALEXANDER\Desktop\Cliente\COPY_FISH_WON_NEW\Binario\Client\EterLib\GrpRenderTargetTexture.cpp
;	COMDAT ?SetRenderingRect@CGraphicRenderTargetTexture@@QAEXPAUtagRECT@@@Z
_TEXT	SEGMENT
_rect$ = 8						; size = 4
?SetRenderingRect@CGraphicRenderTargetTexture@@QAEXPAUtagRECT@@@Z PROC ; CGraphicRenderTargetTexture::SetRenderingRect, COMDAT
; _this$ = ecx

; 104  : {

  00000	55		 push	 ebp
  00001	8b ec		 mov	 ebp, esp

; 105  : 	m_renderRect = *rect;

  00003	8b 45 08	 mov	 eax, DWORD PTR _rect$[ebp]
  00006	0f 10 00	 movups	 xmm0, XMMWORD PTR [eax]
  00009	0f 11 41 30	 movups	 XMMWORD PTR [ecx+48], xmm0

; 106  : }

  0000d	5d		 pop	 ebp
  0000e	c2 04 00	 ret	 4
?SetRenderingRect@CGraphicRenderTargetTexture@@QAEXPAUtagRECT@@@Z ENDP ; CGraphicRenderTargetTexture::SetRenderingRect
_TEXT	ENDS
; Function compile flags: /Ogtp
; File C:\Users\ALEXANDER\Desktop\Cliente\COPY_FISH_WON_NEW\Binario\Client\EterLib\GrpRenderTargetTexture.cpp
; File C:\Users\ALEXANDER\Desktop\Cliente\COPY_FISH_WON_NEW\Binario\Client\EterBase\Stl.h
; File C:\Users\ALEXANDER\Desktop\Cliente\COPY_FISH_WON_NEW\Binario\Client\EterLib\GrpRenderTargetTexture.cpp
;	COMDAT ?ResetRenderTarget@CGraphicRenderTargetTexture@@QAEXXZ
_TEXT	SEGMENT
?ResetRenderTarget@CGraphicRenderTargetTexture@@QAEXXZ PROC ; CGraphicRenderTargetTexture::ResetRenderTarget, COMDAT
; _this$ = ecx

; 92   : 	ms_lpd3dDevice->SetRenderTarget(m_lpd3dOriginalRenderTarget, m_lpd3dOldDepthBufferSurface);

  00000	a1 00 00 00 00	 mov	 eax, DWORD PTR ?ms_lpd3dDevice@CGraphicBase@@1PAUIDirect3DDevice8@@A ; CGraphicBase::ms_lpd3dDevice
  00005	56		 push	 esi
  00006	8b f1		 mov	 esi, ecx
  00008	8b 10		 mov	 edx, DWORD PTR [eax]
  0000a	ff 76 24	 push	 DWORD PTR [esi+36]
  0000d	ff 76 20	 push	 DWORD PTR [esi+32]
  00010	50		 push	 eax
  00011	ff 52 7c	 call	 DWORD PTR [edx+124]
; File C:\Users\ALEXANDER\Desktop\Cliente\COPY_FISH_WON_NEW\Binario\Client\EterBase\Stl.h

; 138  : 	if (!rpObject)

  00014	8b 4e 20	 mov	 ecx, DWORD PTR [esi+32]
  00017	85 c9		 test	 ecx, ecx
  00019	74 0d		 je	 SHORT $LN3@ResetRende

; 139  : 		return;
; 140  : 
; 141  : 	rpObject->Release();

  0001b	8b 01		 mov	 eax, DWORD PTR [ecx]
  0001d	51		 push	 ecx
  0001e	ff 50 08	 call	 DWORD PTR [eax+8]

; 142  : 	rpObject = NULL;

  00021	c7 46 20 00 00
	00 00		 mov	 DWORD PTR [esi+32], 0
$LN3@ResetRende:

; 138  : 	if (!rpObject)

  00028	8b 4e 24	 mov	 ecx, DWORD PTR [esi+36]
  0002b	85 c9		 test	 ecx, ecx
  0002d	74 0d		 je	 SHORT $LN6@ResetRende

; 139  : 		return;
; 140  : 
; 141  : 	rpObject->Release();

  0002f	8b 01		 mov	 eax, DWORD PTR [ecx]
  00031	51		 push	 ecx
  00032	ff 50 08	 call	 DWORD PTR [eax+8]

; 142  : 	rpObject = NULL;

  00035	c7 46 24 00 00
	00 00		 mov	 DWORD PTR [esi+36], 0
$LN6@ResetRende:
  0003c	5e		 pop	 esi
; File C:\Users\ALEXANDER\Desktop\Cliente\COPY_FISH_WON_NEW\Binario\Client\EterLib\GrpRenderTargetTexture.cpp

; 96   : }

  0003d	c3		 ret	 0
?ResetRenderTarget@CGraphicRenderTargetTexture@@QAEXXZ ENDP ; CGraphicRenderTargetTexture::ResetRenderTarget
_TEXT	ENDS
; Function compile flags: /Ogtp
; File C:\Users\ALEXANDER\Desktop\Cliente\COPY_FISH_WON_NEW\Binario\Client\EterLib\GrpRenderTargetTexture.cpp
;	COMDAT ?SetRenderTarget@CGraphicRenderTargetTexture@@QAEXXZ
_TEXT	SEGMENT
?SetRenderTarget@CGraphicRenderTargetTexture@@QAEXXZ PROC ; CGraphicRenderTargetTexture::SetRenderTarget, COMDAT
; _this$ = ecx

; 85   : 	ms_lpd3dDevice->GetRenderTarget(&m_lpd3dOriginalRenderTarget);

  00000	8b 15 00 00 00
	00		 mov	 edx, DWORD PTR ?ms_lpd3dDevice@CGraphicBase@@1PAUIDirect3DDevice8@@A ; CGraphicBase::ms_lpd3dDevice
  00006	56		 push	 esi
  00007	57		 push	 edi
  00008	8b f9		 mov	 edi, ecx
  0000a	8b 32		 mov	 esi, DWORD PTR [edx]
  0000c	8d 47 20	 lea	 eax, DWORD PTR [edi+32]
  0000f	50		 push	 eax
  00010	52		 push	 edx
  00011	ff 96 80 00 00
	00		 call	 DWORD PTR [esi+128]

; 86   : 	ms_lpd3dDevice->GetDepthStencilSurface(&m_lpd3dOldDepthBufferSurface);

  00017	8b 15 00 00 00
	00		 mov	 edx, DWORD PTR ?ms_lpd3dDevice@CGraphicBase@@1PAUIDirect3DDevice8@@A ; CGraphicBase::ms_lpd3dDevice
  0001d	8d 47 24	 lea	 eax, DWORD PTR [edi+36]
  00020	50		 push	 eax
  00021	52		 push	 edx
  00022	8b 0a		 mov	 ecx, DWORD PTR [edx]
  00024	ff 91 84 00 00
	00		 call	 DWORD PTR [ecx+132]

; 87   : 	ms_lpd3dDevice->SetRenderTarget(m_lpd3dRenderTargetSurface, m_lpd3dDepthSurface);

  0002a	a1 00 00 00 00	 mov	 eax, DWORD PTR ?ms_lpd3dDevice@CGraphicBase@@1PAUIDirect3DDevice8@@A ; CGraphicBase::ms_lpd3dDevice
  0002f	ff 77 1c	 push	 DWORD PTR [edi+28]
  00032	ff 77 18	 push	 DWORD PTR [edi+24]
  00035	8b 08		 mov	 ecx, DWORD PTR [eax]
  00037	50		 push	 eax
  00038	ff 51 7c	 call	 DWORD PTR [ecx+124]
  0003b	5f		 pop	 edi
  0003c	5e		 pop	 esi

; 88   : }

  0003d	c3		 ret	 0
?SetRenderTarget@CGraphicRenderTargetTexture@@QAEXXZ ENDP ; CGraphicRenderTargetTexture::SetRenderTarget
_TEXT	ENDS
; Function compile flags: /Ogtp
; File C:\Users\ALEXANDER\Desktop\Cliente\COPY_FISH_WON_NEW\Binario\Client\EterLib\GrpRenderTargetTexture.cpp
;	COMDAT ?CreateRenderDepthStencil@CGraphicRenderTargetTexture@@QAE_NHHW4_D3DFORMAT@@@Z
_TEXT	SEGMENT
_width$ = 8						; size = 4
_height$ = 12						; size = 4
_format$ = 16						; size = 4
?CreateRenderDepthStencil@CGraphicRenderTargetTexture@@QAE_NHHW4_D3DFORMAT@@@Z PROC ; CGraphicRenderTargetTexture::CreateRenderDepthStencil, COMDAT
; _this$ = ecx

; 77   : {

  00000	55		 push	 ebp
  00001	8b ec		 mov	 ebp, esp

; 78   : 	m_depthStencilFormat = format;

  00003	8b 55 10	 mov	 edx, DWORD PTR _format$[ebp]

; 79   : 
; 80   : 	return (ms_lpd3dDevice->CreateDepthStencilSurface(width, height, m_depthStencilFormat, D3DMULTISAMPLE_NONE, &m_lpd3dDepthSurface)) == D3D_OK;

  00006	8d 41 1c	 lea	 eax, DWORD PTR [ecx+28]
  00009	56		 push	 esi
  0000a	57		 push	 edi
  0000b	50		 push	 eax
  0000c	6a 00		 push	 0
  0000e	89 51 2c	 mov	 DWORD PTR [ecx+44], edx
  00011	8b 35 00 00 00
	00		 mov	 esi, DWORD PTR ?ms_lpd3dDevice@CGraphicBase@@1PAUIDirect3DDevice8@@A ; CGraphicBase::ms_lpd3dDevice
  00017	52		 push	 edx
  00018	ff 75 0c	 push	 DWORD PTR _height$[ebp]
  0001b	ff 75 08	 push	 DWORD PTR _width$[ebp]
  0001e	8b 3e		 mov	 edi, DWORD PTR [esi]
  00020	56		 push	 esi
  00021	ff 57 68	 call	 DWORD PTR [edi+104]
  00024	85 c0		 test	 eax, eax
  00026	5f		 pop	 edi
  00027	0f 94 c0	 sete	 al
  0002a	5e		 pop	 esi

; 81   : }

  0002b	5d		 pop	 ebp
  0002c	c2 0c 00	 ret	 12			; 0000000cH
?CreateRenderDepthStencil@CGraphicRenderTargetTexture@@QAE_NHHW4_D3DFORMAT@@@Z ENDP ; CGraphicRenderTargetTexture::CreateRenderDepthStencil
_TEXT	ENDS
; Function compile flags: /Ogtp
; File C:\Users\ALEXANDER\Desktop\Cliente\COPY_FISH_WON_NEW\Binario\Client\EterLib\GrpRenderTargetTexture.cpp
;	COMDAT ?CreateRenderTexture@CGraphicRenderTargetTexture@@QAE_NHHW4_D3DFORMAT@@@Z
_TEXT	SEGMENT
_width$ = 8						; size = 4
_height$ = 12						; size = 4
_format$ = 16						; size = 4
?CreateRenderTexture@CGraphicRenderTargetTexture@@QAE_NHHW4_D3DFORMAT@@@Z PROC ; CGraphicRenderTargetTexture::CreateRenderTexture, COMDAT
; _this$ = ecx

; 63   : {

  00000	55		 push	 ebp
  00001	8b ec		 mov	 ebp, esp

; 64   : 	m_d3dFormat = format;

  00003	8b 45 10	 mov	 eax, DWORD PTR _format$[ebp]
  00006	53		 push	 ebx
  00007	56		 push	 esi
  00008	57		 push	 edi
  00009	8b f9		 mov	 edi, ecx

; 65   : 
; 66   : 	if (FAILED(ms_lpd3dDevice->CreateTexture(width, height, 1, D3DUSAGE_RENDERTARGET, m_d3dFormat, D3DPOOL_DEFAULT, &m_lpd3dRenderTexture)))

  0000b	8d 5f 14	 lea	 ebx, DWORD PTR [edi+20]
  0000e	89 47 28	 mov	 DWORD PTR [edi+40], eax
  00011	8b 15 00 00 00
	00		 mov	 edx, DWORD PTR ?ms_lpd3dDevice@CGraphicBase@@1PAUIDirect3DDevice8@@A ; CGraphicBase::ms_lpd3dDevice
  00017	53		 push	 ebx
  00018	6a 00		 push	 0
  0001a	50		 push	 eax
  0001b	8b 32		 mov	 esi, DWORD PTR [edx]
  0001d	6a 01		 push	 1
  0001f	6a 01		 push	 1
  00021	ff 75 0c	 push	 DWORD PTR _height$[ebp]
  00024	ff 75 08	 push	 DWORD PTR _width$[ebp]
  00027	52		 push	 edx
  00028	ff 56 50	 call	 DWORD PTR [esi+80]
  0002b	85 c0		 test	 eax, eax
  0002d	78 1b		 js	 SHORT $LN5@CreateRend

; 67   : 		return false;
; 68   : 
; 69   : 
; 70   : 	if (FAILED(m_lpd3dRenderTexture->GetSurfaceLevel(0, &m_lpd3dRenderTargetSurface)))

  0002f	8b 0b		 mov	 ecx, DWORD PTR [ebx]
  00031	8d 47 18	 lea	 eax, DWORD PTR [edi+24]
  00034	50		 push	 eax
  00035	6a 00		 push	 0
  00037	51		 push	 ecx
  00038	8b 11		 mov	 edx, DWORD PTR [ecx]
  0003a	ff 52 3c	 call	 DWORD PTR [edx+60]
  0003d	85 c0		 test	 eax, eax
  0003f	78 09		 js	 SHORT $LN5@CreateRend

; 71   : 		return false;
; 72   : 
; 73   : 	return true;
; 74   : }

  00041	5f		 pop	 edi
  00042	5e		 pop	 esi
  00043	b0 01		 mov	 al, 1
  00045	5b		 pop	 ebx
  00046	5d		 pop	 ebp
  00047	c2 0c 00	 ret	 12			; 0000000cH
$LN5@CreateRend:
  0004a	5f		 pop	 edi
  0004b	5e		 pop	 esi
  0004c	32 c0		 xor	 al, al
  0004e	5b		 pop	 ebx
  0004f	5d		 pop	 ebp
  00050	c2 0c 00	 ret	 12			; 0000000cH
?CreateRenderTexture@CGraphicRenderTargetTexture@@QAE_NHHW4_D3DFORMAT@@@Z ENDP ; CGraphicRenderTargetTexture::CreateRenderTexture
_TEXT	ENDS
; Function compile flags: /Ogtp
; File C:\Users\ALEXANDER\Desktop\Cliente\COPY_FISH_WON_NEW\Binario\Client\EterLib\GrpRenderTargetTexture.cpp
;	COMDAT ?CreateTextures@CGraphicRenderTargetTexture@@QAEXXZ
_TEXT	SEGMENT
?CreateTextures@CGraphicRenderTargetTexture@@QAEXXZ PROC ; CGraphicRenderTargetTexture::CreateTextures, COMDAT
; _this$ = ecx

; 55   : {

  00000	56		 push	 esi
  00001	8b f1		 mov	 esi, ecx

; 56   : 	if (CreateRenderTexture(m_width, m_height, m_d3dFormat))

  00003	ff 76 28	 push	 DWORD PTR [esi+40]
  00006	ff 76 0c	 push	 DWORD PTR [esi+12]
  00009	ff 76 08	 push	 DWORD PTR [esi+8]
  0000c	e8 00 00 00 00	 call	 ?CreateRenderTexture@CGraphicRenderTargetTexture@@QAE_NHHW4_D3DFORMAT@@@Z ; CGraphicRenderTargetTexture::CreateRenderTexture
  00011	84 c0		 test	 al, al
  00013	74 10		 je	 SHORT $LN2@CreateText

; 57   : 	{
; 58   : 		CreateRenderDepthStencil(m_width, m_height, m_depthStencilFormat);

  00015	ff 76 2c	 push	 DWORD PTR [esi+44]
  00018	8b ce		 mov	 ecx, esi
  0001a	ff 76 0c	 push	 DWORD PTR [esi+12]
  0001d	ff 76 08	 push	 DWORD PTR [esi+8]
  00020	e8 00 00 00 00	 call	 ?CreateRenderDepthStencil@CGraphicRenderTargetTexture@@QAE_NHHW4_D3DFORMAT@@@Z ; CGraphicRenderTargetTexture::CreateRenderDepthStencil
$LN2@CreateText:

; 59   : 	}
; 60   : }

  00025	5e		 pop	 esi
  00026	c3		 ret	 0
?CreateTextures@CGraphicRenderTargetTexture@@QAEXXZ ENDP ; CGraphicRenderTargetTexture::CreateTextures
_TEXT	ENDS
; Function compile flags: /Ogtp
; File C:\Users\ALEXANDER\Desktop\Cliente\COPY_FISH_WON_NEW\Binario\Client\EterLib\GrpRenderTargetTexture.cpp
;	COMDAT ?Create@CGraphicRenderTargetTexture@@QAE_NHHW4_D3DFORMAT@@0@Z
_TEXT	SEGMENT
_width$ = 8						; size = 4
_height$ = 12						; size = 4
_texFormat$ = 16					; size = 4
_depthFormat$ = 20					; size = 4
?Create@CGraphicRenderTargetTexture@@QAE_NHHW4_D3DFORMAT@@0@Z PROC ; CGraphicRenderTargetTexture::Create, COMDAT
; _this$ = ecx

; 39   : {

  00000	55		 push	 ebp
  00001	8b ec		 mov	 ebp, esp
  00003	53		 push	 ebx
  00004	56		 push	 esi
  00005	57		 push	 edi
  00006	8b f1		 mov	 esi, ecx

; 40   : 	Reset();

  00008	e8 00 00 00 00	 call	 ?Reset@CGraphicRenderTargetTexture@@IAEXXZ ; CGraphicRenderTargetTexture::Reset

; 41   : 
; 42   : 	m_height = height;
; 43   : 	m_width = width;
; 44   : 
; 45   : 	if (!CreateRenderTexture(width, height, texFormat))

  0000d	ff 75 10	 push	 DWORD PTR _texFormat$[ebp]
  00010	8b 7d 0c	 mov	 edi, DWORD PTR _height$[ebp]
  00013	8b ce		 mov	 ecx, esi
  00015	8b 5d 08	 mov	 ebx, DWORD PTR _width$[ebp]
  00018	57		 push	 edi
  00019	53		 push	 ebx
  0001a	89 7e 0c	 mov	 DWORD PTR [esi+12], edi
  0001d	89 5e 08	 mov	 DWORD PTR [esi+8], ebx
  00020	e8 00 00 00 00	 call	 ?CreateRenderTexture@CGraphicRenderTargetTexture@@QAE_NHHW4_D3DFORMAT@@@Z ; CGraphicRenderTargetTexture::CreateRenderTexture
  00025	84 c0		 test	 al, al
  00027	74 19		 je	 SHORT $LN5@Create

; 46   : 		return false;
; 47   : 
; 48   : 	if (!CreateRenderDepthStencil(width, height, depthFormat))

  00029	ff 75 14	 push	 DWORD PTR _depthFormat$[ebp]
  0002c	8b ce		 mov	 ecx, esi
  0002e	57		 push	 edi
  0002f	53		 push	 ebx
  00030	e8 00 00 00 00	 call	 ?CreateRenderDepthStencil@CGraphicRenderTargetTexture@@QAE_NHHW4_D3DFORMAT@@@Z ; CGraphicRenderTargetTexture::CreateRenderDepthStencil
  00035	84 c0		 test	 al, al
  00037	74 09		 je	 SHORT $LN5@Create

; 49   : 		return false;
; 50   : 
; 51   : 	return true;
; 52   : }

  00039	5f		 pop	 edi
  0003a	5e		 pop	 esi
  0003b	b0 01		 mov	 al, 1
  0003d	5b		 pop	 ebx
  0003e	5d		 pop	 ebp
  0003f	c2 10 00	 ret	 16			; 00000010H
$LN5@Create:
  00042	5f		 pop	 edi
  00043	5e		 pop	 esi
  00044	32 c0		 xor	 al, al
  00046	5b		 pop	 ebx
  00047	5d		 pop	 ebp
  00048	c2 10 00	 ret	 16			; 00000010H
?Create@CGraphicRenderTargetTexture@@QAE_NHHW4_D3DFORMAT@@0@Z ENDP ; CGraphicRenderTargetTexture::Create
_TEXT	ENDS
; Function compile flags: /Ogtp
; File C:\Users\ALEXANDER\Desktop\Cliente\COPY_FISH_WON_NEW\Binario\Client\EterLib\GrpRenderTargetTexture.cpp
;	COMDAT ??1CGraphicRenderTargetTexture@@UAE@XZ
_TEXT	SEGMENT
__$EHRec$ = -12						; size = 12
??1CGraphicRenderTargetTexture@@UAE@XZ PROC		; CGraphicRenderTargetTexture::~CGraphicRenderTargetTexture, COMDAT
; _this$ = ecx

; 20   : {

  00000	55		 push	 ebp
  00001	8b ec		 mov	 ebp, esp
  00003	6a ff		 push	 -1
  00005	68 00 00 00 00	 push	 __ehhandler$??1CGraphicRenderTargetTexture@@UAE@XZ
  0000a	64 a1 00 00 00
	00		 mov	 eax, DWORD PTR fs:0
  00010	50		 push	 eax
  00011	56		 push	 esi
  00012	a1 00 00 00 00	 mov	 eax, DWORD PTR ___security_cookie
  00017	33 c5		 xor	 eax, ebp
  00019	50		 push	 eax
  0001a	8d 45 f4	 lea	 eax, DWORD PTR __$EHRec$[ebp]
  0001d	64 a3 00 00 00
	00		 mov	 DWORD PTR fs:0, eax
  00023	8b f1		 mov	 esi, ecx
  00025	c7 06 00 00 00
	00		 mov	 DWORD PTR [esi], OFFSET ??_7CGraphicRenderTargetTexture@@6B@

; 21   : 	Reset();

  0002b	e8 00 00 00 00	 call	 ?Reset@CGraphicRenderTargetTexture@@IAEXXZ ; CGraphicRenderTargetTexture::Reset

; 22   : }

  00030	8b ce		 mov	 ecx, esi
  00032	e8 00 00 00 00	 call	 ??1CGraphicTexture@@MAE@XZ ; CGraphicTexture::~CGraphicTexture
  00037	8b 4d f4	 mov	 ecx, DWORD PTR __$EHRec$[ebp]
  0003a	64 89 0d 00 00
	00 00		 mov	 DWORD PTR fs:0, ecx
  00041	59		 pop	 ecx
  00042	5e		 pop	 esi
  00043	8b e5		 mov	 esp, ebp
  00045	5d		 pop	 ebp
  00046	c3		 ret	 0
  00047	cc		 int	 3
  00048	cc		 int	 3
  00049	cc		 int	 3
  0004a	cc		 int	 3
  0004b	cc		 int	 3
_TEXT	ENDS
;	COMDAT text$x
text$x	SEGMENT
__ehhandler$??1CGraphicRenderTargetTexture@@UAE@XZ:
  00000	90		 npad	 1
  00001	90		 npad	 1
  00002	8b 54 24 08	 mov	 edx, DWORD PTR [esp+8]
  00006	8d 42 0c	 lea	 eax, DWORD PTR [edx+12]
  00009	8b 4a f8	 mov	 ecx, DWORD PTR [edx-8]
  0000c	33 c8		 xor	 ecx, eax
  0000e	e8 00 00 00 00	 call	 @__security_check_cookie@4
  00013	b8 00 00 00 00	 mov	 eax, OFFSET __ehfuncinfo$??1CGraphicRenderTargetTexture@@UAE@XZ
  00018	e9 00 00 00 00	 jmp	 ___CxxFrameHandler3
text$x	ENDS
??1CGraphicRenderTargetTexture@@UAE@XZ ENDP		; CGraphicRenderTargetTexture::~CGraphicRenderTargetTexture
; Function compile flags: /Ogtp
; File C:\Users\ALEXANDER\Desktop\Cliente\COPY_FISH_WON_NEW\Binario\Client\EterLib\GrpRenderTargetTexture.cpp
; File C:\Users\ALEXANDER\Desktop\Cliente\COPY_FISH_WON_NEW\Binario\Client\EterLib\GrpRenderTargetTexture.h
; File C:\Users\ALEXANDER\Desktop\Cliente\COPY_FISH_WON_NEW\Binario\Client\EterLib\GrpRenderTargetTexture.cpp
;	COMDAT ??0CGraphicRenderTargetTexture@@QAE@XZ
_TEXT	SEGMENT
_this$ = -16						; size = 4
__$EHRec$ = -12						; size = 12
??0CGraphicRenderTargetTexture@@QAE@XZ PROC		; CGraphicRenderTargetTexture::CGraphicRenderTargetTexture, COMDAT
; _this$ = ecx

; 11   : {

  00000	55		 push	 ebp
  00001	8b ec		 mov	 ebp, esp
  00003	6a ff		 push	 -1
  00005	68 00 00 00 00	 push	 __ehhandler$??0CGraphicRenderTargetTexture@@QAE@XZ
  0000a	64 a1 00 00 00
	00		 mov	 eax, DWORD PTR fs:0
  00010	50		 push	 eax
  00011	51		 push	 ecx
  00012	56		 push	 esi
  00013	a1 00 00 00 00	 mov	 eax, DWORD PTR ___security_cookie
  00018	33 c5		 xor	 eax, ebp
  0001a	50		 push	 eax
  0001b	8d 45 f4	 lea	 eax, DWORD PTR __$EHRec$[ebp]
  0001e	64 a3 00 00 00
	00		 mov	 DWORD PTR fs:0, eax
  00024	8b f1		 mov	 esi, ecx
  00026	89 75 f0	 mov	 DWORD PTR _this$[ebp], esi
  00029	e8 00 00 00 00	 call	 ??0CGraphicTexture@@IAE@XZ ; CGraphicTexture::CGraphicTexture
  0002e	0f 57 c0	 xorps	 xmm0, xmm0
  00031	c7 06 00 00 00
	00		 mov	 DWORD PTR [esi], OFFSET ??_7CGraphicRenderTargetTexture@@6B@
; File C:\Users\ALEXANDER\Desktop\Cliente\COPY_FISH_WON_NEW\Binario\Client\EterLib\GrpRenderTargetTexture.h

; 30   : 	LPDIRECT3DTEXTURE8 m_lpd3dRenderTexture{};

  00037	c7 46 14 00 00
	00 00		 mov	 DWORD PTR [esi+20], 0
; File C:\Users\ALEXANDER\Desktop\Cliente\COPY_FISH_WON_NEW\Binario\Client\EterLib\GrpRenderTargetTexture.cpp

; 12   : 	Initialize();

  0003e	8b ce		 mov	 ecx, esi
  00040	c7 46 18 00 00
	00 00		 mov	 DWORD PTR [esi+24], 0
  00047	c7 46 1c 00 00
	00 00		 mov	 DWORD PTR [esi+28], 0
  0004e	c7 46 20 00 00
	00 00		 mov	 DWORD PTR [esi+32], 0
  00055	c7 46 24 00 00
	00 00		 mov	 DWORD PTR [esi+36], 0
  0005c	c7 46 28 00 00
	00 00		 mov	 DWORD PTR [esi+40], 0
  00063	c7 46 2c 00 00
	00 00		 mov	 DWORD PTR [esi+44], 0
  0006a	c7 45 fc 00 00
	00 00		 mov	 DWORD PTR __$EHRec$[ebp+8], 0
  00071	0f 11 46 30	 movups	 XMMWORD PTR [esi+48], xmm0
  00075	e8 00 00 00 00	 call	 ?Initialize@CGraphicTexture@@IAEXXZ ; CGraphicTexture::Initialize

; 13   : 	m_renderRect.left = 0;

  0007a	c7 46 30 00 00
	00 00		 mov	 DWORD PTR [esi+48], 0

; 14   : 	m_renderRect.top = 0;
; 15   : 	m_renderRect.right = 0;
; 16   : 	m_renderRect.bottom = 0;
; 17   : }

  00081	8b c6		 mov	 eax, esi
  00083	c7 46 34 00 00
	00 00		 mov	 DWORD PTR [esi+52], 0
  0008a	c7 46 38 00 00
	00 00		 mov	 DWORD PTR [esi+56], 0
  00091	c7 46 3c 00 00
	00 00		 mov	 DWORD PTR [esi+60], 0
  00098	8b 4d f4	 mov	 ecx, DWORD PTR __$EHRec$[ebp]
  0009b	64 89 0d 00 00
	00 00		 mov	 DWORD PTR fs:0, ecx
  000a2	59		 pop	 ecx
  000a3	5e		 pop	 esi
  000a4	8b e5		 mov	 esp, ebp
  000a6	5d		 pop	 ebp
  000a7	c3		 ret	 0
_TEXT	ENDS
;	COMDAT text$x
text$x	SEGMENT
__unwindfunclet$??0CGraphicRenderTargetTexture@@QAE@XZ$0:
  00000	8b 4d f0	 mov	 ecx, DWORD PTR _this$[ebp]
  00003	e9 00 00 00 00	 jmp	 ??1CGraphicTexture@@MAE@XZ ; CGraphicTexture::~CGraphicTexture
  00008	cc		 int	 3
  00009	cc		 int	 3
  0000a	cc		 int	 3
  0000b	cc		 int	 3
  0000c	cc		 int	 3
__ehhandler$??0CGraphicRenderTargetTexture@@QAE@XZ:
  0000d	90		 npad	 1
  0000e	90		 npad	 1
  0000f	8b 54 24 08	 mov	 edx, DWORD PTR [esp+8]
  00013	8d 42 0c	 lea	 eax, DWORD PTR [edx+12]
  00016	8b 4a f4	 mov	 ecx, DWORD PTR [edx-12]
  00019	33 c8		 xor	 ecx, eax
  0001b	e8 00 00 00 00	 call	 @__security_check_cookie@4
  00020	b8 00 00 00 00	 mov	 eax, OFFSET __ehfuncinfo$??0CGraphicRenderTargetTexture@@QAE@XZ
  00025	e9 00 00 00 00	 jmp	 ___CxxFrameHandler3
text$x	ENDS
??0CGraphicRenderTargetTexture@@QAE@XZ ENDP		; CGraphicRenderTargetTexture::CGraphicRenderTargetTexture
; Function compile flags: /Ogtp
;	COMDAT ??0SPDTVertex@@QAE@XZ
_TEXT	SEGMENT
??0SPDTVertex@@QAE@XZ PROC				; SPDTVertex::SPDTVertex, COMDAT
; _this$ = ecx
  00000	8b c1		 mov	 eax, ecx
  00002	c3		 ret	 0
??0SPDTVertex@@QAE@XZ ENDP				; SPDTVertex::SPDTVertex
_TEXT	ENDS
; Function compile flags: /Ogtp
;	COMDAT ??_H@YGXPAXIIP6EPAX0@Z@Z
_TEXT	SEGMENT
___t$ = 8						; size = 4
___s$ = 12						; size = 4
___n$ = 16						; size = 4
___f$ = 20						; size = 4
??_H@YGXPAXIIP6EPAX0@Z@Z PROC				; `vector constructor iterator', COMDAT
  00000	55		 push	 ebp
  00001	8b ec		 mov	 ebp, esp
  00003	56		 push	 esi
  00004	8b 75 10	 mov	 esi, DWORD PTR ___n$[ebp]
  00007	85 f6		 test	 esi, esi
  00009	74 16		 je	 SHORT $LN6@vector
  0000b	53		 push	 ebx
  0000c	8b 5d 14	 mov	 ebx, DWORD PTR ___f$[ebp]
  0000f	57		 push	 edi
  00010	8b 7d 08	 mov	 edi, DWORD PTR ___t$[ebp]
$LL2@vector:
  00013	8b cf		 mov	 ecx, edi
  00015	ff d3		 call	 ebx
  00017	03 7d 0c	 add	 edi, DWORD PTR ___s$[ebp]
  0001a	83 ee 01	 sub	 esi, 1
  0001d	75 f4		 jne	 SHORT $LL2@vector
  0001f	5f		 pop	 edi
  00020	5b		 pop	 ebx
$LN6@vector:
  00021	5e		 pop	 esi
  00022	5d		 pop	 ebp
  00023	c2 10 00	 ret	 16			; 00000010H
??_H@YGXPAXIIP6EPAX0@Z@Z ENDP				; `vector constructor iterator'
_TEXT	ENDS
END
