; Listing generated by Microsoft (R) Optimizing Compiler Version 19.29.30151.0 

	TITLE	C:\Users\ALEXANDER\Desktop\Cliente\COPY_FISH_WON_NEW\Binario\Client\EterLib\Distribute\RenderTarget.obj
	.686P
	.XMM
	include listing.inc
	.model	flat

INCLUDELIB LIBCMT
INCLUDELIB OLDNAMES

PUBLIC	??_7?$CDynamicPoolEx@VCAirResistanceDecorator@NEffectUpdateDecorator@@@@6B@ ; CDynamicPoolEx<NEffectUpdateDecorator::CAirResistanceDecorator>::`vftable'
PUBLIC	??_G?$CDynamicPoolEx@VCAirResistanceDecorator@NEffectUpdateDecorator@@@@UAEPAXI@Z ; CDynamicPoolEx<NEffectUpdateDecorator::CAirResistanceDecorator>::`scalar deleting destructor'
PUBLIC	??_7?$CDynamicPoolEx@VCTextureAnimationRandomDecorator@NEffectUpdateDecorator@@@@6B@ ; CDynamicPoolEx<NEffectUpdateDecorator::CTextureAnimationRandomDecorator>::`vftable'
PUBLIC	??_G?$CDynamicPoolEx@VCTextureAnimationRandomDecorator@NEffectUpdateDecorator@@@@UAEPAXI@Z ; CDynamicPoolEx<NEffectUpdateDecorator::CTextureAnimationRandomDecorator>::`scalar deleting destructor'
PUBLIC	??_7?$CDynamicPoolEx@VCTextureAnimationCCWDecorator@NEffectUpdateDecorator@@@@6B@ ; CDynamicPoolEx<NEffectUpdateDecorator::CTextureAnimationCCWDecorator>::`vftable'
PUBLIC	??_G?$CDynamicPoolEx@VCTextureAnimationCCWDecorator@NEffectUpdateDecorator@@@@UAEPAXI@Z ; CDynamicPoolEx<NEffectUpdateDecorator::CTextureAnimationCCWDecorator>::`scalar deleting destructor'
PUBLIC	??_7?$CDynamicPoolEx@VCTextureAnimationCWDecorator@NEffectUpdateDecorator@@@@6B@ ; CDynamicPoolEx<NEffectUpdateDecorator::CTextureAnimationCWDecorator>::`vftable'
PUBLIC	??_G?$CDynamicPoolEx@VCTextureAnimationCWDecorator@NEffectUpdateDecorator@@@@UAEPAXI@Z ; CDynamicPoolEx<NEffectUpdateDecorator::CTextureAnimationCWDecorator>::`scalar deleting destructor'
PUBLIC	??_7?$CDynamicPoolEx@VCNullDecorator@NEffectUpdateDecorator@@@@6B@ ; CDynamicPoolEx<NEffectUpdateDecorator::CNullDecorator>::`vftable'
PUBLIC	??_G?$CDynamicPoolEx@VCNullDecorator@NEffectUpdateDecorator@@@@UAEPAXI@Z ; CDynamicPoolEx<NEffectUpdateDecorator::CNullDecorator>::`scalar deleting destructor'
PUBLIC	??_7?$CDynamicPoolEx@VCHeaderDecorator@NEffectUpdateDecorator@@@@6B@ ; CDynamicPoolEx<NEffectUpdateDecorator::CHeaderDecorator>::`vftable'
PUBLIC	??_G?$CDynamicPoolEx@VCHeaderDecorator@NEffectUpdateDecorator@@@@UAEPAXI@Z ; CDynamicPoolEx<NEffectUpdateDecorator::CHeaderDecorator>::`scalar deleting destructor'
PUBLIC	??_R4?$CDynamicPoolEx@VCHeaderDecorator@NEffectUpdateDecorator@@@@6B@ ; CDynamicPoolEx<NEffectUpdateDecorator::CHeaderDecorator>::`RTTI Complete Object Locator'
PUBLIC	??_R0?AV?$CDynamicPoolEx@VCHeaderDecorator@NEffectUpdateDecorator@@@@@8 ; CDynamicPoolEx<NEffectUpdateDecorator::CHeaderDecorator> `RTTI Type Descriptor'
PUBLIC	??_R3?$CDynamicPoolEx@VCHeaderDecorator@NEffectUpdateDecorator@@@@8 ; CDynamicPoolEx<NEffectUpdateDecorator::CHeaderDecorator>::`RTTI Class Hierarchy Descriptor'
PUBLIC	??_R2?$CDynamicPoolEx@VCHeaderDecorator@NEffectUpdateDecorator@@@@8 ; CDynamicPoolEx<NEffectUpdateDecorator::CHeaderDecorator>::`RTTI Base Class Array'
PUBLIC	??_R1A@?0A@EA@?$CDynamicPoolEx@VCHeaderDecorator@NEffectUpdateDecorator@@@@8 ; CDynamicPoolEx<NEffectUpdateDecorator::CHeaderDecorator>::`RTTI Base Class Descriptor at (0,-1,0,64)'
PUBLIC	??_R4?$CDynamicPoolEx@VCNullDecorator@NEffectUpdateDecorator@@@@6B@ ; CDynamicPoolEx<NEffectUpdateDecorator::CNullDecorator>::`RTTI Complete Object Locator'
PUBLIC	??_R0?AV?$CDynamicPoolEx@VCNullDecorator@NEffectUpdateDecorator@@@@@8 ; CDynamicPoolEx<NEffectUpdateDecorator::CNullDecorator> `RTTI Type Descriptor'
PUBLIC	??_R3?$CDynamicPoolEx@VCNullDecorator@NEffectUpdateDecorator@@@@8 ; CDynamicPoolEx<NEffectUpdateDecorator::CNullDecorator>::`RTTI Class Hierarchy Descriptor'
PUBLIC	??_R2?$CDynamicPoolEx@VCNullDecorator@NEffectUpdateDecorator@@@@8 ; CDynamicPoolEx<NEffectUpdateDecorator::CNullDecorator>::`RTTI Base Class Array'
PUBLIC	??_R1A@?0A@EA@?$CDynamicPoolEx@VCNullDecorator@NEffectUpdateDecorator@@@@8 ; CDynamicPoolEx<NEffectUpdateDecorator::CNullDecorator>::`RTTI Base Class Descriptor at (0,-1,0,64)'
PUBLIC	??_R4?$CDynamicPoolEx@VCTextureAnimationCWDecorator@NEffectUpdateDecorator@@@@6B@ ; CDynamicPoolEx<NEffectUpdateDecorator::CTextureAnimationCWDecorator>::`RTTI Complete Object Locator'
PUBLIC	??_R0?AV?$CDynamicPoolEx@VCTextureAnimationCWDecorator@NEffectUpdateDecorator@@@@@8 ; CDynamicPoolEx<NEffectUpdateDecorator::CTextureAnimationCWDecorator> `RTTI Type Descriptor'
PUBLIC	??_R3?$CDynamicPoolEx@VCTextureAnimationCWDecorator@NEffectUpdateDecorator@@@@8 ; CDynamicPoolEx<NEffectUpdateDecorator::CTextureAnimationCWDecorator>::`RTTI Class Hierarchy Descriptor'
PUBLIC	??_R2?$CDynamicPoolEx@VCTextureAnimationCWDecorator@NEffectUpdateDecorator@@@@8 ; CDynamicPoolEx<NEffectUpdateDecorator::CTextureAnimationCWDecorator>::`RTTI Base Class Array'
PUBLIC	??_R1A@?0A@EA@?$CDynamicPoolEx@VCTextureAnimationCWDecorator@NEffectUpdateDecorator@@@@8 ; CDynamicPoolEx<NEffectUpdateDecorator::CTextureAnimationCWDecorator>::`RTTI Base Class Descriptor at (0,-1,0,64)'
PUBLIC	??_R4?$CDynamicPoolEx@VCTextureAnimationCCWDecorator@NEffectUpdateDecorator@@@@6B@ ; CDynamicPoolEx<NEffectUpdateDecorator::CTextureAnimationCCWDecorator>::`RTTI Complete Object Locator'
PUBLIC	??_R0?AV?$CDynamicPoolEx@VCTextureAnimationCCWDecorator@NEffectUpdateDecorator@@@@@8 ; CDynamicPoolEx<NEffectUpdateDecorator::CTextureAnimationCCWDecorator> `RTTI Type Descriptor'
PUBLIC	??_R3?$CDynamicPoolEx@VCTextureAnimationCCWDecorator@NEffectUpdateDecorator@@@@8 ; CDynamicPoolEx<NEffectUpdateDecorator::CTextureAnimationCCWDecorator>::`RTTI Class Hierarchy Descriptor'
PUBLIC	??_R2?$CDynamicPoolEx@VCTextureAnimationCCWDecorator@NEffectUpdateDecorator@@@@8 ; CDynamicPoolEx<NEffectUpdateDecorator::CTextureAnimationCCWDecorator>::`RTTI Base Class Array'
PUBLIC	??_R1A@?0A@EA@?$CDynamicPoolEx@VCTextureAnimationCCWDecorator@NEffectUpdateDecorator@@@@8 ; CDynamicPoolEx<NEffectUpdateDecorator::CTextureAnimationCCWDecorator>::`RTTI Base Class Descriptor at (0,-1,0,64)'
PUBLIC	??_R4?$CDynamicPoolEx@VCTextureAnimationRandomDecorator@NEffectUpdateDecorator@@@@6B@ ; CDynamicPoolEx<NEffectUpdateDecorator::CTextureAnimationRandomDecorator>::`RTTI Complete Object Locator'
PUBLIC	??_R0?AV?$CDynamicPoolEx@VCTextureAnimationRandomDecorator@NEffectUpdateDecorator@@@@@8 ; CDynamicPoolEx<NEffectUpdateDecorator::CTextureAnimationRandomDecorator> `RTTI Type Descriptor'
PUBLIC	??_R3?$CDynamicPoolEx@VCTextureAnimationRandomDecorator@NEffectUpdateDecorator@@@@8 ; CDynamicPoolEx<NEffectUpdateDecorator::CTextureAnimationRandomDecorator>::`RTTI Class Hierarchy Descriptor'
PUBLIC	??_R2?$CDynamicPoolEx@VCTextureAnimationRandomDecorator@NEffectUpdateDecorator@@@@8 ; CDynamicPoolEx<NEffectUpdateDecorator::CTextureAnimationRandomDecorator>::`RTTI Base Class Array'
PUBLIC	??_R1A@?0A@EA@?$CDynamicPoolEx@VCTextureAnimationRandomDecorator@NEffectUpdateDecorator@@@@8 ; CDynamicPoolEx<NEffectUpdateDecorator::CTextureAnimationRandomDecorator>::`RTTI Base Class Descriptor at (0,-1,0,64)'
PUBLIC	??_R4?$CDynamicPoolEx@VCAirResistanceDecorator@NEffectUpdateDecorator@@@@6B@ ; CDynamicPoolEx<NEffectUpdateDecorator::CAirResistanceDecorator>::`RTTI Complete Object Locator'
PUBLIC	??_R0?AV?$CDynamicPoolEx@VCAirResistanceDecorator@NEffectUpdateDecorator@@@@@8 ; CDynamicPoolEx<NEffectUpdateDecorator::CAirResistanceDecorator> `RTTI Type Descriptor'
PUBLIC	??_R3?$CDynamicPoolEx@VCAirResistanceDecorator@NEffectUpdateDecorator@@@@8 ; CDynamicPoolEx<NEffectUpdateDecorator::CAirResistanceDecorator>::`RTTI Class Hierarchy Descriptor'
PUBLIC	??_R2?$CDynamicPoolEx@VCAirResistanceDecorator@NEffectUpdateDecorator@@@@8 ; CDynamicPoolEx<NEffectUpdateDecorator::CAirResistanceDecorator>::`RTTI Base Class Array'
PUBLIC	??_R1A@?0A@EA@?$CDynamicPoolEx@VCAirResistanceDecorator@NEffectUpdateDecorator@@@@8 ; CDynamicPoolEx<NEffectUpdateDecorator::CAirResistanceDecorator>::`RTTI Base Class Descriptor at (0,-1,0,64)'
PUBLIC	??_R4?$CDynamicPoolEx@VCGravityDecorator@NEffectUpdateDecorator@@@@6B@ ; CDynamicPoolEx<NEffectUpdateDecorator::CGravityDecorator>::`RTTI Complete Object Locator'
PUBLIC	??_R0?AV?$CDynamicPoolEx@VCGravityDecorator@NEffectUpdateDecorator@@@@@8 ; CDynamicPoolEx<NEffectUpdateDecorator::CGravityDecorator> `RTTI Type Descriptor'
PUBLIC	??_R3?$CDynamicPoolEx@VCGravityDecorator@NEffectUpdateDecorator@@@@8 ; CDynamicPoolEx<NEffectUpdateDecorator::CGravityDecorator>::`RTTI Class Hierarchy Descriptor'
PUBLIC	??_R2?$CDynamicPoolEx@VCGravityDecorator@NEffectUpdateDecorator@@@@8 ; CDynamicPoolEx<NEffectUpdateDecorator::CGravityDecorator>::`RTTI Base Class Array'
PUBLIC	??_R1A@?0A@EA@?$CDynamicPoolEx@VCGravityDecorator@NEffectUpdateDecorator@@@@8 ; CDynamicPoolEx<NEffectUpdateDecorator::CGravityDecorator>::`RTTI Base Class Descriptor at (0,-1,0,64)'
PUBLIC	??_R4?$CDynamicPoolEx@VCRotationDecorator@NEffectUpdateDecorator@@@@6B@ ; CDynamicPoolEx<NEffectUpdateDecorator::CRotationDecorator>::`RTTI Complete Object Locator'
PUBLIC	??_R0?AV?$CDynamicPoolEx@VCRotationDecorator@NEffectUpdateDecorator@@@@@8 ; CDynamicPoolEx<NEffectUpdateDecorator::CRotationDecorator> `RTTI Type Descriptor'
PUBLIC	??_R3?$CDynamicPoolEx@VCRotationDecorator@NEffectUpdateDecorator@@@@8 ; CDynamicPoolEx<NEffectUpdateDecorator::CRotationDecorator>::`RTTI Class Hierarchy Descriptor'
PUBLIC	??_R2?$CDynamicPoolEx@VCRotationDecorator@NEffectUpdateDecorator@@@@8 ; CDynamicPoolEx<NEffectUpdateDecorator::CRotationDecorator>::`RTTI Base Class Array'
PUBLIC	??_R1A@?0A@EA@?$CDynamicPoolEx@VCRotationDecorator@NEffectUpdateDecorator@@@@8 ; CDynamicPoolEx<NEffectUpdateDecorator::CRotationDecorator>::`RTTI Base Class Descriptor at (0,-1,0,64)'
PUBLIC	??_7?$CDynamicPoolEx@VCRotationDecorator@NEffectUpdateDecorator@@@@6B@ ; CDynamicPoolEx<NEffectUpdateDecorator::CRotationDecorator>::`vftable'
PUBLIC	??_G?$CDynamicPoolEx@VCRotationDecorator@NEffectUpdateDecorator@@@@UAEPAXI@Z ; CDynamicPoolEx<NEffectUpdateDecorator::CRotationDecorator>::`scalar deleting destructor'
PUBLIC	??_7?$CDynamicPoolEx@VCGravityDecorator@NEffectUpdateDecorator@@@@6B@ ; CDynamicPoolEx<NEffectUpdateDecorator::CGravityDecorator>::`vftable'
PUBLIC	??_G?$CDynamicPoolEx@VCGravityDecorator@NEffectUpdateDecorator@@@@UAEPAXI@Z ; CDynamicPoolEx<NEffectUpdateDecorator::CGravityDecorator>::`scalar deleting destructor'
EXTRN	??_E?$CDynamicPoolEx@VCAirResistanceDecorator@NEffectUpdateDecorator@@@@UAEPAXI@Z:PROC ; CDynamicPoolEx<NEffectUpdateDecorator::CAirResistanceDecorator>::`vector deleting destructor'
EXTRN	??_E?$CDynamicPoolEx@VCTextureAnimationRandomDecorator@NEffectUpdateDecorator@@@@UAEPAXI@Z:PROC ; CDynamicPoolEx<NEffectUpdateDecorator::CTextureAnimationRandomDecorator>::`vector deleting destructor'
EXTRN	??_E?$CDynamicPoolEx@VCTextureAnimationCCWDecorator@NEffectUpdateDecorator@@@@UAEPAXI@Z:PROC ; CDynamicPoolEx<NEffectUpdateDecorator::CTextureAnimationCCWDecorator>::`vector deleting destructor'
EXTRN	??_E?$CDynamicPoolEx@VCTextureAnimationCWDecorator@NEffectUpdateDecorator@@@@UAEPAXI@Z:PROC ; CDynamicPoolEx<NEffectUpdateDecorator::CTextureAnimationCWDecorator>::`vector deleting destructor'
EXTRN	??_E?$CDynamicPoolEx@VCNullDecorator@NEffectUpdateDecorator@@@@UAEPAXI@Z:PROC ; CDynamicPoolEx<NEffectUpdateDecorator::CNullDecorator>::`vector deleting destructor'
EXTRN	??_E?$CDynamicPoolEx@VCHeaderDecorator@NEffectUpdateDecorator@@@@UAEPAXI@Z:PROC ; CDynamicPoolEx<NEffectUpdateDecorator::CHeaderDecorator>::`vector deleting destructor'
EXTRN	??_7type_info@@6B@:QWORD			; type_info::`vftable'
EXTRN	??_E?$CDynamicPoolEx@VCRotationDecorator@NEffectUpdateDecorator@@@@UAEPAXI@Z:PROC ; CDynamicPoolEx<NEffectUpdateDecorator::CRotationDecorator>::`vector deleting destructor'
EXTRN	??_E?$CDynamicPoolEx@VCGravityDecorator@NEffectUpdateDecorator@@@@UAEPAXI@Z:PROC ; CDynamicPoolEx<NEffectUpdateDecorator::CGravityDecorator>::`vector deleting destructor'
CONST	SEGMENT
?_Fake_alloc@std@@3U_Fake_allocator@1@B	ORG $+1		; std::_Fake_alloc
CONST	ENDS
;	COMDAT ??_7?$CDynamicPoolEx@VCGravityDecorator@NEffectUpdateDecorator@@@@6B@
CONST	SEGMENT
??_7?$CDynamicPoolEx@VCGravityDecorator@NEffectUpdateDecorator@@@@6B@ DD FLAT:??_R4?$CDynamicPoolEx@VCGravityDecorator@NEffectUpdateDecorator@@@@6B@ ; CDynamicPoolEx<NEffectUpdateDecorator::CGravityDecorator>::`vftable'
	DD	FLAT:??_E?$CDynamicPoolEx@VCGravityDecorator@NEffectUpdateDecorator@@@@UAEPAXI@Z
CONST	ENDS
;	COMDAT ??_7?$CDynamicPoolEx@VCRotationDecorator@NEffectUpdateDecorator@@@@6B@
CONST	SEGMENT
??_7?$CDynamicPoolEx@VCRotationDecorator@NEffectUpdateDecorator@@@@6B@ DD FLAT:??_R4?$CDynamicPoolEx@VCRotationDecorator@NEffectUpdateDecorator@@@@6B@ ; CDynamicPoolEx<NEffectUpdateDecorator::CRotationDecorator>::`vftable'
	DD	FLAT:??_E?$CDynamicPoolEx@VCRotationDecorator@NEffectUpdateDecorator@@@@UAEPAXI@Z
CONST	ENDS
;	COMDAT ??_R1A@?0A@EA@?$CDynamicPoolEx@VCRotationDecorator@NEffectUpdateDecorator@@@@8
rdata$r	SEGMENT
??_R1A@?0A@EA@?$CDynamicPoolEx@VCRotationDecorator@NEffectUpdateDecorator@@@@8 DD FLAT:??_R0?AV?$CDynamicPoolEx@VCRotationDecorator@NEffectUpdateDecorator@@@@@8 ; CDynamicPoolEx<NEffectUpdateDecorator::CRotationDecorator>::`RTTI Base Class Descriptor at (0,-1,0,64)'
	DD	00H
	DD	00H
	DD	0ffffffffH
	DD	00H
	DD	040H
	DD	FLAT:??_R3?$CDynamicPoolEx@VCRotationDecorator@NEffectUpdateDecorator@@@@8
rdata$r	ENDS
;	COMDAT ??_R2?$CDynamicPoolEx@VCRotationDecorator@NEffectUpdateDecorator@@@@8
rdata$r	SEGMENT
??_R2?$CDynamicPoolEx@VCRotationDecorator@NEffectUpdateDecorator@@@@8 DD FLAT:??_R1A@?0A@EA@?$CDynamicPoolEx@VCRotationDecorator@NEffectUpdateDecorator@@@@8 ; CDynamicPoolEx<NEffectUpdateDecorator::CRotationDecorator>::`RTTI Base Class Array'
rdata$r	ENDS
;	COMDAT ??_R3?$CDynamicPoolEx@VCRotationDecorator@NEffectUpdateDecorator@@@@8
rdata$r	SEGMENT
??_R3?$CDynamicPoolEx@VCRotationDecorator@NEffectUpdateDecorator@@@@8 DD 00H ; CDynamicPoolEx<NEffectUpdateDecorator::CRotationDecorator>::`RTTI Class Hierarchy Descriptor'
	DD	00H
	DD	01H
	DD	FLAT:??_R2?$CDynamicPoolEx@VCRotationDecorator@NEffectUpdateDecorator@@@@8
rdata$r	ENDS
;	COMDAT ??_R0?AV?$CDynamicPoolEx@VCRotationDecorator@NEffectUpdateDecorator@@@@@8
data$rs	SEGMENT
??_R0?AV?$CDynamicPoolEx@VCRotationDecorator@NEffectUpdateDecorator@@@@@8 DD FLAT:??_7type_info@@6B@ ; CDynamicPoolEx<NEffectUpdateDecorator::CRotationDecorator> `RTTI Type Descriptor'
	DD	00H
	DB	'.?AV?$CDynamicPoolEx@VCRotationDecorator@NEffectUpdateDe'
	DB	'corator@@@@', 00H
data$rs	ENDS
;	COMDAT ??_R4?$CDynamicPoolEx@VCRotationDecorator@NEffectUpdateDecorator@@@@6B@
rdata$r	SEGMENT
??_R4?$CDynamicPoolEx@VCRotationDecorator@NEffectUpdateDecorator@@@@6B@ DD 00H ; CDynamicPoolEx<NEffectUpdateDecorator::CRotationDecorator>::`RTTI Complete Object Locator'
	DD	00H
	DD	00H
	DD	FLAT:??_R0?AV?$CDynamicPoolEx@VCRotationDecorator@NEffectUpdateDecorator@@@@@8
	DD	FLAT:??_R3?$CDynamicPoolEx@VCRotationDecorator@NEffectUpdateDecorator@@@@8
rdata$r	ENDS
;	COMDAT ??_R1A@?0A@EA@?$CDynamicPoolEx@VCGravityDecorator@NEffectUpdateDecorator@@@@8
rdata$r	SEGMENT
??_R1A@?0A@EA@?$CDynamicPoolEx@VCGravityDecorator@NEffectUpdateDecorator@@@@8 DD FLAT:??_R0?AV?$CDynamicPoolEx@VCGravityDecorator@NEffectUpdateDecorator@@@@@8 ; CDynamicPoolEx<NEffectUpdateDecorator::CGravityDecorator>::`RTTI Base Class Descriptor at (0,-1,0,64)'
	DD	00H
	DD	00H
	DD	0ffffffffH
	DD	00H
	DD	040H
	DD	FLAT:??_R3?$CDynamicPoolEx@VCGravityDecorator@NEffectUpdateDecorator@@@@8
rdata$r	ENDS
;	COMDAT ??_R2?$CDynamicPoolEx@VCGravityDecorator@NEffectUpdateDecorator@@@@8
rdata$r	SEGMENT
??_R2?$CDynamicPoolEx@VCGravityDecorator@NEffectUpdateDecorator@@@@8 DD FLAT:??_R1A@?0A@EA@?$CDynamicPoolEx@VCGravityDecorator@NEffectUpdateDecorator@@@@8 ; CDynamicPoolEx<NEffectUpdateDecorator::CGravityDecorator>::`RTTI Base Class Array'
rdata$r	ENDS
;	COMDAT ??_R3?$CDynamicPoolEx@VCGravityDecorator@NEffectUpdateDecorator@@@@8
rdata$r	SEGMENT
??_R3?$CDynamicPoolEx@VCGravityDecorator@NEffectUpdateDecorator@@@@8 DD 00H ; CDynamicPoolEx<NEffectUpdateDecorator::CGravityDecorator>::`RTTI Class Hierarchy Descriptor'
	DD	00H
	DD	01H
	DD	FLAT:??_R2?$CDynamicPoolEx@VCGravityDecorator@NEffectUpdateDecorator@@@@8
rdata$r	ENDS
;	COMDAT ??_R0?AV?$CDynamicPoolEx@VCGravityDecorator@NEffectUpdateDecorator@@@@@8
data$rs	SEGMENT
??_R0?AV?$CDynamicPoolEx@VCGravityDecorator@NEffectUpdateDecorator@@@@@8 DD FLAT:??_7type_info@@6B@ ; CDynamicPoolEx<NEffectUpdateDecorator::CGravityDecorator> `RTTI Type Descriptor'
	DD	00H
	DB	'.?AV?$CDynamicPoolEx@VCGravityDecorator@NEffectUpdateDec'
	DB	'orator@@@@', 00H
data$rs	ENDS
;	COMDAT ??_R4?$CDynamicPoolEx@VCGravityDecorator@NEffectUpdateDecorator@@@@6B@
rdata$r	SEGMENT
??_R4?$CDynamicPoolEx@VCGravityDecorator@NEffectUpdateDecorator@@@@6B@ DD 00H ; CDynamicPoolEx<NEffectUpdateDecorator::CGravityDecorator>::`RTTI Complete Object Locator'
	DD	00H
	DD	00H
	DD	FLAT:??_R0?AV?$CDynamicPoolEx@VCGravityDecorator@NEffectUpdateDecorator@@@@@8
	DD	FLAT:??_R3?$CDynamicPoolEx@VCGravityDecorator@NEffectUpdateDecorator@@@@8
rdata$r	ENDS
;	COMDAT ??_R1A@?0A@EA@?$CDynamicPoolEx@VCAirResistanceDecorator@NEffectUpdateDecorator@@@@8
rdata$r	SEGMENT
??_R1A@?0A@EA@?$CDynamicPoolEx@VCAirResistanceDecorator@NEffectUpdateDecorator@@@@8 DD FLAT:??_R0?AV?$CDynamicPoolEx@VCAirResistanceDecorator@NEffectUpdateDecorator@@@@@8 ; CDynamicPoolEx<NEffectUpdateDecorator::CAirResistanceDecorator>::`RTTI Base Class Descriptor at (0,-1,0,64)'
	DD	00H
	DD	00H
	DD	0ffffffffH
	DD	00H
	DD	040H
	DD	FLAT:??_R3?$CDynamicPoolEx@VCAirResistanceDecorator@NEffectUpdateDecorator@@@@8
rdata$r	ENDS
;	COMDAT ??_R2?$CDynamicPoolEx@VCAirResistanceDecorator@NEffectUpdateDecorator@@@@8
rdata$r	SEGMENT
??_R2?$CDynamicPoolEx@VCAirResistanceDecorator@NEffectUpdateDecorator@@@@8 DD FLAT:??_R1A@?0A@EA@?$CDynamicPoolEx@VCAirResistanceDecorator@NEffectUpdateDecorator@@@@8 ; CDynamicPoolEx<NEffectUpdateDecorator::CAirResistanceDecorator>::`RTTI Base Class Array'
rdata$r	ENDS
;	COMDAT ??_R3?$CDynamicPoolEx@VCAirResistanceDecorator@NEffectUpdateDecorator@@@@8
rdata$r	SEGMENT
??_R3?$CDynamicPoolEx@VCAirResistanceDecorator@NEffectUpdateDecorator@@@@8 DD 00H ; CDynamicPoolEx<NEffectUpdateDecorator::CAirResistanceDecorator>::`RTTI Class Hierarchy Descriptor'
	DD	00H
	DD	01H
	DD	FLAT:??_R2?$CDynamicPoolEx@VCAirResistanceDecorator@NEffectUpdateDecorator@@@@8
rdata$r	ENDS
;	COMDAT ??_R0?AV?$CDynamicPoolEx@VCAirResistanceDecorator@NEffectUpdateDecorator@@@@@8
data$rs	SEGMENT
??_R0?AV?$CDynamicPoolEx@VCAirResistanceDecorator@NEffectUpdateDecorator@@@@@8 DD FLAT:??_7type_info@@6B@ ; CDynamicPoolEx<NEffectUpdateDecorator::CAirResistanceDecorator> `RTTI Type Descriptor'
	DD	00H
	DB	'.?AV?$CDynamicPoolEx@VCAirResistanceDecorator@NEffectUpd'
	DB	'ateDecorator@@@@', 00H
data$rs	ENDS
;	COMDAT ??_R4?$CDynamicPoolEx@VCAirResistanceDecorator@NEffectUpdateDecorator@@@@6B@
rdata$r	SEGMENT
??_R4?$CDynamicPoolEx@VCAirResistanceDecorator@NEffectUpdateDecorator@@@@6B@ DD 00H ; CDynamicPoolEx<NEffectUpdateDecorator::CAirResistanceDecorator>::`RTTI Complete Object Locator'
	DD	00H
	DD	00H
	DD	FLAT:??_R0?AV?$CDynamicPoolEx@VCAirResistanceDecorator@NEffectUpdateDecorator@@@@@8
	DD	FLAT:??_R3?$CDynamicPoolEx@VCAirResistanceDecorator@NEffectUpdateDecorator@@@@8
rdata$r	ENDS
;	COMDAT ??_R1A@?0A@EA@?$CDynamicPoolEx@VCTextureAnimationRandomDecorator@NEffectUpdateDecorator@@@@8
rdata$r	SEGMENT
??_R1A@?0A@EA@?$CDynamicPoolEx@VCTextureAnimationRandomDecorator@NEffectUpdateDecorator@@@@8 DD FLAT:??_R0?AV?$CDynamicPoolEx@VCTextureAnimationRandomDecorator@NEffectUpdateDecorator@@@@@8 ; CDynamicPoolEx<NEffectUpdateDecorator::CTextureAnimationRandomDecorator>::`RTTI Base Class Descriptor at (0,-1,0,64)'
	DD	00H
	DD	00H
	DD	0ffffffffH
	DD	00H
	DD	040H
	DD	FLAT:??_R3?$CDynamicPoolEx@VCTextureAnimationRandomDecorator@NEffectUpdateDecorator@@@@8
rdata$r	ENDS
;	COMDAT ??_R2?$CDynamicPoolEx@VCTextureAnimationRandomDecorator@NEffectUpdateDecorator@@@@8
rdata$r	SEGMENT
??_R2?$CDynamicPoolEx@VCTextureAnimationRandomDecorator@NEffectUpdateDecorator@@@@8 DD FLAT:??_R1A@?0A@EA@?$CDynamicPoolEx@VCTextureAnimationRandomDecorator@NEffectUpdateDecorator@@@@8 ; CDynamicPoolEx<NEffectUpdateDecorator::CTextureAnimationRandomDecorator>::`RTTI Base Class Array'
rdata$r	ENDS
;	COMDAT ??_R3?$CDynamicPoolEx@VCTextureAnimationRandomDecorator@NEffectUpdateDecorator@@@@8
rdata$r	SEGMENT
??_R3?$CDynamicPoolEx@VCTextureAnimationRandomDecorator@NEffectUpdateDecorator@@@@8 DD 00H ; CDynamicPoolEx<NEffectUpdateDecorator::CTextureAnimationRandomDecorator>::`RTTI Class Hierarchy Descriptor'
	DD	00H
	DD	01H
	DD	FLAT:??_R2?$CDynamicPoolEx@VCTextureAnimationRandomDecorator@NEffectUpdateDecorator@@@@8
rdata$r	ENDS
;	COMDAT ??_R0?AV?$CDynamicPoolEx@VCTextureAnimationRandomDecorator@NEffectUpdateDecorator@@@@@8
data$rs	SEGMENT
??_R0?AV?$CDynamicPoolEx@VCTextureAnimationRandomDecorator@NEffectUpdateDecorator@@@@@8 DD FLAT:??_7type_info@@6B@ ; CDynamicPoolEx<NEffectUpdateDecorator::CTextureAnimationRandomDecorator> `RTTI Type Descriptor'
	DD	00H
	DB	'.?AV?$CDynamicPoolEx@VCTextureAnimationRandomDecorator@N'
	DB	'EffectUpdateDecorator@@@@', 00H
data$rs	ENDS
;	COMDAT ??_R4?$CDynamicPoolEx@VCTextureAnimationRandomDecorator@NEffectUpdateDecorator@@@@6B@
rdata$r	SEGMENT
??_R4?$CDynamicPoolEx@VCTextureAnimationRandomDecorator@NEffectUpdateDecorator@@@@6B@ DD 00H ; CDynamicPoolEx<NEffectUpdateDecorator::CTextureAnimationRandomDecorator>::`RTTI Complete Object Locator'
	DD	00H
	DD	00H
	DD	FLAT:??_R0?AV?$CDynamicPoolEx@VCTextureAnimationRandomDecorator@NEffectUpdateDecorator@@@@@8
	DD	FLAT:??_R3?$CDynamicPoolEx@VCTextureAnimationRandomDecorator@NEffectUpdateDecorator@@@@8
rdata$r	ENDS
;	COMDAT ??_R1A@?0A@EA@?$CDynamicPoolEx@VCTextureAnimationCCWDecorator@NEffectUpdateDecorator@@@@8
rdata$r	SEGMENT
??_R1A@?0A@EA@?$CDynamicPoolEx@VCTextureAnimationCCWDecorator@NEffectUpdateDecorator@@@@8 DD FLAT:??_R0?AV?$CDynamicPoolEx@VCTextureAnimationCCWDecorator@NEffectUpdateDecorator@@@@@8 ; CDynamicPoolEx<NEffectUpdateDecorator::CTextureAnimationCCWDecorator>::`RTTI Base Class Descriptor at (0,-1,0,64)'
	DD	00H
	DD	00H
	DD	0ffffffffH
	DD	00H
	DD	040H
	DD	FLAT:??_R3?$CDynamicPoolEx@VCTextureAnimationCCWDecorator@NEffectUpdateDecorator@@@@8
rdata$r	ENDS
;	COMDAT ??_R2?$CDynamicPoolEx@VCTextureAnimationCCWDecorator@NEffectUpdateDecorator@@@@8
rdata$r	SEGMENT
??_R2?$CDynamicPoolEx@VCTextureAnimationCCWDecorator@NEffectUpdateDecorator@@@@8 DD FLAT:??_R1A@?0A@EA@?$CDynamicPoolEx@VCTextureAnimationCCWDecorator@NEffectUpdateDecorator@@@@8 ; CDynamicPoolEx<NEffectUpdateDecorator::CTextureAnimationCCWDecorator>::`RTTI Base Class Array'
rdata$r	ENDS
;	COMDAT ??_R3?$CDynamicPoolEx@VCTextureAnimationCCWDecorator@NEffectUpdateDecorator@@@@8
rdata$r	SEGMENT
??_R3?$CDynamicPoolEx@VCTextureAnimationCCWDecorator@NEffectUpdateDecorator@@@@8 DD 00H ; CDynamicPoolEx<NEffectUpdateDecorator::CTextureAnimationCCWDecorator>::`RTTI Class Hierarchy Descriptor'
	DD	00H
	DD	01H
	DD	FLAT:??_R2?$CDynamicPoolEx@VCTextureAnimationCCWDecorator@NEffectUpdateDecorator@@@@8
rdata$r	ENDS
;	COMDAT ??_R0?AV?$CDynamicPoolEx@VCTextureAnimationCCWDecorator@NEffectUpdateDecorator@@@@@8
data$rs	SEGMENT
??_R0?AV?$CDynamicPoolEx@VCTextureAnimationCCWDecorator@NEffectUpdateDecorator@@@@@8 DD FLAT:??_7type_info@@6B@ ; CDynamicPoolEx<NEffectUpdateDecorator::CTextureAnimationCCWDecorator> `RTTI Type Descriptor'
	DD	00H
	DB	'.?AV?$CDynamicPoolEx@VCTextureAnimationCCWDecorator@NEff'
	DB	'ectUpdateDecorator@@@@', 00H
data$rs	ENDS
;	COMDAT ??_R4?$CDynamicPoolEx@VCTextureAnimationCCWDecorator@NEffectUpdateDecorator@@@@6B@
rdata$r	SEGMENT
??_R4?$CDynamicPoolEx@VCTextureAnimationCCWDecorator@NEffectUpdateDecorator@@@@6B@ DD 00H ; CDynamicPoolEx<NEffectUpdateDecorator::CTextureAnimationCCWDecorator>::`RTTI Complete Object Locator'
	DD	00H
	DD	00H
	DD	FLAT:??_R0?AV?$CDynamicPoolEx@VCTextureAnimationCCWDecorator@NEffectUpdateDecorator@@@@@8
	DD	FLAT:??_R3?$CDynamicPoolEx@VCTextureAnimationCCWDecorator@NEffectUpdateDecorator@@@@8
rdata$r	ENDS
;	COMDAT ??_R1A@?0A@EA@?$CDynamicPoolEx@VCTextureAnimationCWDecorator@NEffectUpdateDecorator@@@@8
rdata$r	SEGMENT
??_R1A@?0A@EA@?$CDynamicPoolEx@VCTextureAnimationCWDecorator@NEffectUpdateDecorator@@@@8 DD FLAT:??_R0?AV?$CDynamicPoolEx@VCTextureAnimationCWDecorator@NEffectUpdateDecorator@@@@@8 ; CDynamicPoolEx<NEffectUpdateDecorator::CTextureAnimationCWDecorator>::`RTTI Base Class Descriptor at (0,-1,0,64)'
	DD	00H
	DD	00H
	DD	0ffffffffH
	DD	00H
	DD	040H
	DD	FLAT:??_R3?$CDynamicPoolEx@VCTextureAnimationCWDecorator@NEffectUpdateDecorator@@@@8
rdata$r	ENDS
;	COMDAT ??_R2?$CDynamicPoolEx@VCTextureAnimationCWDecorator@NEffectUpdateDecorator@@@@8
rdata$r	SEGMENT
??_R2?$CDynamicPoolEx@VCTextureAnimationCWDecorator@NEffectUpdateDecorator@@@@8 DD FLAT:??_R1A@?0A@EA@?$CDynamicPoolEx@VCTextureAnimationCWDecorator@NEffectUpdateDecorator@@@@8 ; CDynamicPoolEx<NEffectUpdateDecorator::CTextureAnimationCWDecorator>::`RTTI Base Class Array'
rdata$r	ENDS
;	COMDAT ??_R3?$CDynamicPoolEx@VCTextureAnimationCWDecorator@NEffectUpdateDecorator@@@@8
rdata$r	SEGMENT
??_R3?$CDynamicPoolEx@VCTextureAnimationCWDecorator@NEffectUpdateDecorator@@@@8 DD 00H ; CDynamicPoolEx<NEffectUpdateDecorator::CTextureAnimationCWDecorator>::`RTTI Class Hierarchy Descriptor'
	DD	00H
	DD	01H
	DD	FLAT:??_R2?$CDynamicPoolEx@VCTextureAnimationCWDecorator@NEffectUpdateDecorator@@@@8
rdata$r	ENDS
;	COMDAT ??_R0?AV?$CDynamicPoolEx@VCTextureAnimationCWDecorator@NEffectUpdateDecorator@@@@@8
data$rs	SEGMENT
??_R0?AV?$CDynamicPoolEx@VCTextureAnimationCWDecorator@NEffectUpdateDecorator@@@@@8 DD FLAT:??_7type_info@@6B@ ; CDynamicPoolEx<NEffectUpdateDecorator::CTextureAnimationCWDecorator> `RTTI Type Descriptor'
	DD	00H
	DB	'.?AV?$CDynamicPoolEx@VCTextureAnimationCWDecorator@NEffe'
	DB	'ctUpdateDecorator@@@@', 00H
data$rs	ENDS
;	COMDAT ??_R4?$CDynamicPoolEx@VCTextureAnimationCWDecorator@NEffectUpdateDecorator@@@@6B@
rdata$r	SEGMENT
??_R4?$CDynamicPoolEx@VCTextureAnimationCWDecorator@NEffectUpdateDecorator@@@@6B@ DD 00H ; CDynamicPoolEx<NEffectUpdateDecorator::CTextureAnimationCWDecorator>::`RTTI Complete Object Locator'
	DD	00H
	DD	00H
	DD	FLAT:??_R0?AV?$CDynamicPoolEx@VCTextureAnimationCWDecorator@NEffectUpdateDecorator@@@@@8
	DD	FLAT:??_R3?$CDynamicPoolEx@VCTextureAnimationCWDecorator@NEffectUpdateDecorator@@@@8
rdata$r	ENDS
;	COMDAT ??_R1A@?0A@EA@?$CDynamicPoolEx@VCNullDecorator@NEffectUpdateDecorator@@@@8
rdata$r	SEGMENT
??_R1A@?0A@EA@?$CDynamicPoolEx@VCNullDecorator@NEffectUpdateDecorator@@@@8 DD FLAT:??_R0?AV?$CDynamicPoolEx@VCNullDecorator@NEffectUpdateDecorator@@@@@8 ; CDynamicPoolEx<NEffectUpdateDecorator::CNullDecorator>::`RTTI Base Class Descriptor at (0,-1,0,64)'
	DD	00H
	DD	00H
	DD	0ffffffffH
	DD	00H
	DD	040H
	DD	FLAT:??_R3?$CDynamicPoolEx@VCNullDecorator@NEffectUpdateDecorator@@@@8
rdata$r	ENDS
;	COMDAT ??_R2?$CDynamicPoolEx@VCNullDecorator@NEffectUpdateDecorator@@@@8
rdata$r	SEGMENT
??_R2?$CDynamicPoolEx@VCNullDecorator@NEffectUpdateDecorator@@@@8 DD FLAT:??_R1A@?0A@EA@?$CDynamicPoolEx@VCNullDecorator@NEffectUpdateDecorator@@@@8 ; CDynamicPoolEx<NEffectUpdateDecorator::CNullDecorator>::`RTTI Base Class Array'
rdata$r	ENDS
;	COMDAT ??_R3?$CDynamicPoolEx@VCNullDecorator@NEffectUpdateDecorator@@@@8
rdata$r	SEGMENT
??_R3?$CDynamicPoolEx@VCNullDecorator@NEffectUpdateDecorator@@@@8 DD 00H ; CDynamicPoolEx<NEffectUpdateDecorator::CNullDecorator>::`RTTI Class Hierarchy Descriptor'
	DD	00H
	DD	01H
	DD	FLAT:??_R2?$CDynamicPoolEx@VCNullDecorator@NEffectUpdateDecorator@@@@8
rdata$r	ENDS
;	COMDAT ??_R0?AV?$CDynamicPoolEx@VCNullDecorator@NEffectUpdateDecorator@@@@@8
data$rs	SEGMENT
??_R0?AV?$CDynamicPoolEx@VCNullDecorator@NEffectUpdateDecorator@@@@@8 DD FLAT:??_7type_info@@6B@ ; CDynamicPoolEx<NEffectUpdateDecorator::CNullDecorator> `RTTI Type Descriptor'
	DD	00H
	DB	'.?AV?$CDynamicPoolEx@VCNullDecorator@NEffectUpdateDecora'
	DB	'tor@@@@', 00H
data$rs	ENDS
;	COMDAT ??_R4?$CDynamicPoolEx@VCNullDecorator@NEffectUpdateDecorator@@@@6B@
rdata$r	SEGMENT
??_R4?$CDynamicPoolEx@VCNullDecorator@NEffectUpdateDecorator@@@@6B@ DD 00H ; CDynamicPoolEx<NEffectUpdateDecorator::CNullDecorator>::`RTTI Complete Object Locator'
	DD	00H
	DD	00H
	DD	FLAT:??_R0?AV?$CDynamicPoolEx@VCNullDecorator@NEffectUpdateDecorator@@@@@8
	DD	FLAT:??_R3?$CDynamicPoolEx@VCNullDecorator@NEffectUpdateDecorator@@@@8
rdata$r	ENDS
;	COMDAT ??_R1A@?0A@EA@?$CDynamicPoolEx@VCHeaderDecorator@NEffectUpdateDecorator@@@@8
rdata$r	SEGMENT
??_R1A@?0A@EA@?$CDynamicPoolEx@VCHeaderDecorator@NEffectUpdateDecorator@@@@8 DD FLAT:??_R0?AV?$CDynamicPoolEx@VCHeaderDecorator@NEffectUpdateDecorator@@@@@8 ; CDynamicPoolEx<NEffectUpdateDecorator::CHeaderDecorator>::`RTTI Base Class Descriptor at (0,-1,0,64)'
	DD	00H
	DD	00H
	DD	0ffffffffH
	DD	00H
	DD	040H
	DD	FLAT:??_R3?$CDynamicPoolEx@VCHeaderDecorator@NEffectUpdateDecorator@@@@8
rdata$r	ENDS
;	COMDAT ??_R2?$CDynamicPoolEx@VCHeaderDecorator@NEffectUpdateDecorator@@@@8
rdata$r	SEGMENT
??_R2?$CDynamicPoolEx@VCHeaderDecorator@NEffectUpdateDecorator@@@@8 DD FLAT:??_R1A@?0A@EA@?$CDynamicPoolEx@VCHeaderDecorator@NEffectUpdateDecorator@@@@8 ; CDynamicPoolEx<NEffectUpdateDecorator::CHeaderDecorator>::`RTTI Base Class Array'
rdata$r	ENDS
;	COMDAT ??_R3?$CDynamicPoolEx@VCHeaderDecorator@NEffectUpdateDecorator@@@@8
rdata$r	SEGMENT
??_R3?$CDynamicPoolEx@VCHeaderDecorator@NEffectUpdateDecorator@@@@8 DD 00H ; CDynamicPoolEx<NEffectUpdateDecorator::CHeaderDecorator>::`RTTI Class Hierarchy Descriptor'
	DD	00H
	DD	01H
	DD	FLAT:??_R2?$CDynamicPoolEx@VCHeaderDecorator@NEffectUpdateDecorator@@@@8
rdata$r	ENDS
;	COMDAT ??_R0?AV?$CDynamicPoolEx@VCHeaderDecorator@NEffectUpdateDecorator@@@@@8
data$rs	SEGMENT
??_R0?AV?$CDynamicPoolEx@VCHeaderDecorator@NEffectUpdateDecorator@@@@@8 DD FLAT:??_7type_info@@6B@ ; CDynamicPoolEx<NEffectUpdateDecorator::CHeaderDecorator> `RTTI Type Descriptor'
	DD	00H
	DB	'.?AV?$CDynamicPoolEx@VCHeaderDecorator@NEffectUpdateDeco'
	DB	'rator@@@@', 00H
data$rs	ENDS
;	COMDAT ??_R4?$CDynamicPoolEx@VCHeaderDecorator@NEffectUpdateDecorator@@@@6B@
rdata$r	SEGMENT
??_R4?$CDynamicPoolEx@VCHeaderDecorator@NEffectUpdateDecorator@@@@6B@ DD 00H ; CDynamicPoolEx<NEffectUpdateDecorator::CHeaderDecorator>::`RTTI Complete Object Locator'
	DD	00H
	DD	00H
	DD	FLAT:??_R0?AV?$CDynamicPoolEx@VCHeaderDecorator@NEffectUpdateDecorator@@@@@8
	DD	FLAT:??_R3?$CDynamicPoolEx@VCHeaderDecorator@NEffectUpdateDecorator@@@@8
rdata$r	ENDS
;	COMDAT ??_7?$CDynamicPoolEx@VCHeaderDecorator@NEffectUpdateDecorator@@@@6B@
CONST	SEGMENT
??_7?$CDynamicPoolEx@VCHeaderDecorator@NEffectUpdateDecorator@@@@6B@ DD FLAT:??_R4?$CDynamicPoolEx@VCHeaderDecorator@NEffectUpdateDecorator@@@@6B@ ; CDynamicPoolEx<NEffectUpdateDecorator::CHeaderDecorator>::`vftable'
	DD	FLAT:??_E?$CDynamicPoolEx@VCHeaderDecorator@NEffectUpdateDecorator@@@@UAEPAXI@Z
CONST	ENDS
;	COMDAT ??_7?$CDynamicPoolEx@VCNullDecorator@NEffectUpdateDecorator@@@@6B@
CONST	SEGMENT
??_7?$CDynamicPoolEx@VCNullDecorator@NEffectUpdateDecorator@@@@6B@ DD FLAT:??_R4?$CDynamicPoolEx@VCNullDecorator@NEffectUpdateDecorator@@@@6B@ ; CDynamicPoolEx<NEffectUpdateDecorator::CNullDecorator>::`vftable'
	DD	FLAT:??_E?$CDynamicPoolEx@VCNullDecorator@NEffectUpdateDecorator@@@@UAEPAXI@Z
CONST	ENDS
;	COMDAT ??_7?$CDynamicPoolEx@VCTextureAnimationCWDecorator@NEffectUpdateDecorator@@@@6B@
CONST	SEGMENT
??_7?$CDynamicPoolEx@VCTextureAnimationCWDecorator@NEffectUpdateDecorator@@@@6B@ DD FLAT:??_R4?$CDynamicPoolEx@VCTextureAnimationCWDecorator@NEffectUpdateDecorator@@@@6B@ ; CDynamicPoolEx<NEffectUpdateDecorator::CTextureAnimationCWDecorator>::`vftable'
	DD	FLAT:??_E?$CDynamicPoolEx@VCTextureAnimationCWDecorator@NEffectUpdateDecorator@@@@UAEPAXI@Z
CONST	ENDS
;	COMDAT ??_7?$CDynamicPoolEx@VCTextureAnimationCCWDecorator@NEffectUpdateDecorator@@@@6B@
CONST	SEGMENT
??_7?$CDynamicPoolEx@VCTextureAnimationCCWDecorator@NEffectUpdateDecorator@@@@6B@ DD FLAT:??_R4?$CDynamicPoolEx@VCTextureAnimationCCWDecorator@NEffectUpdateDecorator@@@@6B@ ; CDynamicPoolEx<NEffectUpdateDecorator::CTextureAnimationCCWDecorator>::`vftable'
	DD	FLAT:??_E?$CDynamicPoolEx@VCTextureAnimationCCWDecorator@NEffectUpdateDecorator@@@@UAEPAXI@Z
CONST	ENDS
;	COMDAT ??_7?$CDynamicPoolEx@VCTextureAnimationRandomDecorator@NEffectUpdateDecorator@@@@6B@
CONST	SEGMENT
??_7?$CDynamicPoolEx@VCTextureAnimationRandomDecorator@NEffectUpdateDecorator@@@@6B@ DD FLAT:??_R4?$CDynamicPoolEx@VCTextureAnimationRandomDecorator@NEffectUpdateDecorator@@@@6B@ ; CDynamicPoolEx<NEffectUpdateDecorator::CTextureAnimationRandomDecorator>::`vftable'
	DD	FLAT:??_E?$CDynamicPoolEx@VCTextureAnimationRandomDecorator@NEffectUpdateDecorator@@@@UAEPAXI@Z
CONST	ENDS
;	COMDAT ??_7?$CDynamicPoolEx@VCAirResistanceDecorator@NEffectUpdateDecorator@@@@6B@
CONST	SEGMENT
??_7?$CDynamicPoolEx@VCAirResistanceDecorator@NEffectUpdateDecorator@@@@6B@ DD FLAT:??_R4?$CDynamicPoolEx@VCAirResistanceDecorator@NEffectUpdateDecorator@@@@6B@ ; CDynamicPoolEx<NEffectUpdateDecorator::CAirResistanceDecorator>::`vftable'
	DD	FLAT:??_E?$CDynamicPoolEx@VCAirResistanceDecorator@NEffectUpdateDecorator@@@@UAEPAXI@Z
CONST	ENDS
PUBLIC	??_H@YGXPAXIIP6EPAX0@Z@Z			; `vector constructor iterator'
PUBLIC	?__empty_global_delete@@YAXPAX@Z		; __empty_global_delete
PUBLIC	?__empty_global_delete@@YAXPAXI@Z		; __empty_global_delete
PUBLIC	??0exception@std@@QAE@ABV01@@Z			; std::exception::exception
PUBLIC	??1exception@std@@UAE@XZ			; std::exception::~exception
PUBLIC	?what@exception@std@@UBEPBDXZ			; std::exception::what
PUBLIC	??_Gexception@std@@UAEPAXI@Z			; std::exception::`scalar deleting destructor'
PUBLIC	??0CRenderTarget@@QAE@KK@Z			; CRenderTarget::CRenderTarget
PUBLIC	??1CRenderTarget@@QAE@XZ			; CRenderTarget::~CRenderTarget
PUBLIC	?SetVisibility@CRenderTarget@@QAEX_N@Z		; CRenderTarget::SetVisibility
PUBLIC	?RenderTexture@CRenderTarget@@QBEXXZ		; CRenderTarget::RenderTexture
PUBLIC	?SetRenderingRect@CRenderTarget@@QBEXPAUtagRECT@@@Z ; CRenderTarget::SetRenderingRect
PUBLIC	?SelectModel@CRenderTarget@@QAEXK@Z		; CRenderTarget::SelectModel
PUBLIC	?CreateBackground@CRenderTarget@@QAE_NPBDKK@Z	; CRenderTarget::CreateBackground
PUBLIC	?RenderBackground@CRenderTarget@@QBEXXZ		; CRenderTarget::RenderBackground
PUBLIC	?UpdateModel@CRenderTarget@@QAEXXZ		; CRenderTarget::UpdateModel
PUBLIC	?DeformModel@CRenderTarget@@QBEXXZ		; CRenderTarget::DeformModel
PUBLIC	?RenderModel@CRenderTarget@@QBEXXZ		; CRenderTarget::RenderModel
PUBLIC	?SetZoom@CRenderTarget@@QAEX_N@Z		; CRenderTarget::SetZoom
PUBLIC	?CreateTextures@CRenderTarget@@QBEXXZ		; CRenderTarget::CreateTextures
PUBLIC	?ReleaseTextures@CRenderTarget@@QBEXXZ		; CRenderTarget::ReleaseTextures
PUBLIC	??1?$unique_ptr@VCInstanceBase@@U?$default_delete@VCInstanceBase@@@std@@@std@@QAE@XZ ; std::unique_ptr<CInstanceBase,std::default_delete<CInstanceBase> >::~unique_ptr<CInstanceBase,std::default_delete<CInstanceBase> >
PUBLIC	??1?$unique_ptr@VCGraphicImageInstance@@U?$default_delete@VCGraphicImageInstance@@@std@@@std@@QAE@XZ ; std::unique_ptr<CGraphicImageInstance,std::default_delete<CGraphicImageInstance> >::~unique_ptr<CGraphicImageInstance,std::default_delete<CGraphicImageInstance> >
PUBLIC	??1?$unique_ptr@VCGraphicRenderTargetTexture@@U?$default_delete@VCGraphicRenderTargetTexture@@@std@@@std@@QAE@XZ ; std::unique_ptr<CGraphicRenderTargetTexture,std::default_delete<CGraphicRenderTargetTexture> >::~unique_ptr<CGraphicRenderTargetTexture,std::default_delete<CGraphicRenderTargetTexture> >
PUBLIC	??0runtime_error@std@@QAE@PBD@Z			; std::runtime_error::runtime_error
PUBLIC	??1runtime_error@std@@UAE@XZ			; std::runtime_error::~runtime_error
PUBLIC	??0runtime_error@std@@QAE@ABV01@@Z		; std::runtime_error::runtime_error
PUBLIC	??_Gruntime_error@std@@UAEPAXI@Z		; std::runtime_error::`scalar deleting destructor'
PUBLIC	??1SCreateData@CInstanceBase@@QAE@XZ		; CInstanceBase::SCreateData::~SCreateData
PUBLIC	??$make_unique@VCInstanceBase@@$$V$0A@@std@@YA?AV?$unique_ptr@VCInstanceBase@@U?$default_delete@VCInstanceBase@@@std@@@0@XZ ; std::make_unique<CInstanceBase,0>
PUBLIC	??$make_unique@VCGraphicImageInstance@@$$V$0A@@std@@YA?AV?$unique_ptr@VCGraphicImageInstance@@U?$default_delete@VCGraphicImageInstance@@@std@@@0@XZ ; std::make_unique<CGraphicImageInstance,0>
PUBLIC	??1?$CDynamicPoolEx@VCRotationDecorator@NEffectUpdateDecorator@@@@UAE@XZ ; CDynamicPoolEx<NEffectUpdateDecorator::CRotationDecorator>::~CDynamicPoolEx<NEffectUpdateDecorator::CRotationDecorator>
PUBLIC	?Delete@?$CDynamicPoolEx@VCRotationDecorator@NEffectUpdateDecorator@@@@KAXPAVCRotationDecorator@NEffectUpdateDecorator@@@Z ; CDynamicPoolEx<NEffectUpdateDecorator::CRotationDecorator>::Delete
PUBLIC	??1?$CDynamicPoolEx@VCGravityDecorator@NEffectUpdateDecorator@@@@UAE@XZ ; CDynamicPoolEx<NEffectUpdateDecorator::CGravityDecorator>::~CDynamicPoolEx<NEffectUpdateDecorator::CGravityDecorator>
PUBLIC	?Delete@?$CDynamicPoolEx@VCGravityDecorator@NEffectUpdateDecorator@@@@KAXPAVCGravityDecorator@NEffectUpdateDecorator@@@Z ; CDynamicPoolEx<NEffectUpdateDecorator::CGravityDecorator>::Delete
PUBLIC	??1?$CDynamicPoolEx@VCAirResistanceDecorator@NEffectUpdateDecorator@@@@UAE@XZ ; CDynamicPoolEx<NEffectUpdateDecorator::CAirResistanceDecorator>::~CDynamicPoolEx<NEffectUpdateDecorator::CAirResistanceDecorator>
PUBLIC	?Delete@?$CDynamicPoolEx@VCAirResistanceDecorator@NEffectUpdateDecorator@@@@KAXPAVCAirResistanceDecorator@NEffectUpdateDecorator@@@Z ; CDynamicPoolEx<NEffectUpdateDecorator::CAirResistanceDecorator>::Delete
PUBLIC	??1?$CDynamicPoolEx@VCTextureAnimationRandomDecorator@NEffectUpdateDecorator@@@@UAE@XZ ; CDynamicPoolEx<NEffectUpdateDecorator::CTextureAnimationRandomDecorator>::~CDynamicPoolEx<NEffectUpdateDecorator::CTextureAnimationRandomDecorator>
PUBLIC	?Delete@?$CDynamicPoolEx@VCTextureAnimationRandomDecorator@NEffectUpdateDecorator@@@@KAXPAVCTextureAnimationRandomDecorator@NEffectUpdateDecorator@@@Z ; CDynamicPoolEx<NEffectUpdateDecorator::CTextureAnimationRandomDecorator>::Delete
PUBLIC	??1?$CDynamicPoolEx@VCTextureAnimationCCWDecorator@NEffectUpdateDecorator@@@@UAE@XZ ; CDynamicPoolEx<NEffectUpdateDecorator::CTextureAnimationCCWDecorator>::~CDynamicPoolEx<NEffectUpdateDecorator::CTextureAnimationCCWDecorator>
PUBLIC	?Delete@?$CDynamicPoolEx@VCTextureAnimationCCWDecorator@NEffectUpdateDecorator@@@@KAXPAVCTextureAnimationCCWDecorator@NEffectUpdateDecorator@@@Z ; CDynamicPoolEx<NEffectUpdateDecorator::CTextureAnimationCCWDecorator>::Delete
PUBLIC	??1?$CDynamicPoolEx@VCTextureAnimationCWDecorator@NEffectUpdateDecorator@@@@UAE@XZ ; CDynamicPoolEx<NEffectUpdateDecorator::CTextureAnimationCWDecorator>::~CDynamicPoolEx<NEffectUpdateDecorator::CTextureAnimationCWDecorator>
PUBLIC	?Delete@?$CDynamicPoolEx@VCTextureAnimationCWDecorator@NEffectUpdateDecorator@@@@KAXPAVCTextureAnimationCWDecorator@NEffectUpdateDecorator@@@Z ; CDynamicPoolEx<NEffectUpdateDecorator::CTextureAnimationCWDecorator>::Delete
PUBLIC	??1?$CDynamicPoolEx@VCNullDecorator@NEffectUpdateDecorator@@@@UAE@XZ ; CDynamicPoolEx<NEffectUpdateDecorator::CNullDecorator>::~CDynamicPoolEx<NEffectUpdateDecorator::CNullDecorator>
PUBLIC	?Delete@?$CDynamicPoolEx@VCNullDecorator@NEffectUpdateDecorator@@@@KAXPAVCNullDecorator@NEffectUpdateDecorator@@@Z ; CDynamicPoolEx<NEffectUpdateDecorator::CNullDecorator>::Delete
PUBLIC	??1?$CDynamicPoolEx@VCHeaderDecorator@NEffectUpdateDecorator@@@@UAE@XZ ; CDynamicPoolEx<NEffectUpdateDecorator::CHeaderDecorator>::~CDynamicPoolEx<NEffectUpdateDecorator::CHeaderDecorator>
PUBLIC	?Delete@?$CDynamicPoolEx@VCHeaderDecorator@NEffectUpdateDecorator@@@@KAXPAVCHeaderDecorator@NEffectUpdateDecorator@@@Z ; CDynamicPoolEx<NEffectUpdateDecorator::CHeaderDecorator>::Delete
PUBLIC	??_7exception@std@@6B@				; std::exception::`vftable'
PUBLIC	??_C@_0BC@EOODALEL@Unknown?5exception@		; `string'
PUBLIC	??_R0?AVexception@std@@@8			; std::exception `RTTI Type Descriptor'
PUBLIC	__CT??_R0?AVexception@std@@@8??0exception@std@@QAE@ABV01@@Z12
PUBLIC	??_R4exception@std@@6B@				; std::exception::`RTTI Complete Object Locator'
PUBLIC	??_R3exception@std@@8				; std::exception::`RTTI Class Hierarchy Descriptor'
PUBLIC	??_R2exception@std@@8				; std::exception::`RTTI Base Class Array'
PUBLIC	??_R1A@?0A@EA@exception@std@@8			; std::exception::`RTTI Base Class Descriptor at (0,-1,0,64)'
PUBLIC	?ms_singleton@?$CSingleton@VCCameraManager@@@@0PAVCCameraManager@@A ; CSingleton<CCameraManager>::ms_singleton
PUBLIC	??_7runtime_error@std@@6B@			; std::runtime_error::`vftable'
PUBLIC	??_R0?AVruntime_error@std@@@8			; std::runtime_error `RTTI Type Descriptor'
PUBLIC	__CT??_R0?AVruntime_error@std@@@8??0runtime_error@std@@QAE@ABV01@@Z12
PUBLIC	?ms_singleton@?$CSingleton@VCPythonGraphic@@@@0PAVCPythonGraphic@@A ; CSingleton<CPythonGraphic>::ms_singleton
PUBLIC	?ms_kPool@?$CPooledObject@VCHeaderDecorator@NEffectUpdateDecorator@@@@1V?$CDynamicPoolEx@VCHeaderDecorator@NEffectUpdateDecorator@@@@A ; CPooledObject<NEffectUpdateDecorator::CHeaderDecorator>::ms_kPool
PUBLIC	?ms_kPool@?$CPooledObject@VCNullDecorator@NEffectUpdateDecorator@@@@1V?$CDynamicPoolEx@VCNullDecorator@NEffectUpdateDecorator@@@@A ; CPooledObject<NEffectUpdateDecorator::CNullDecorator>::ms_kPool
PUBLIC	?ms_kPool@?$CPooledObject@VCTextureAnimationCWDecorator@NEffectUpdateDecorator@@@@1V?$CDynamicPoolEx@VCTextureAnimationCWDecorator@NEffectUpdateDecorator@@@@A ; CPooledObject<NEffectUpdateDecorator::CTextureAnimationCWDecorator>::ms_kPool
PUBLIC	?ms_kPool@?$CPooledObject@VCTextureAnimationCCWDecorator@NEffectUpdateDecorator@@@@1V?$CDynamicPoolEx@VCTextureAnimationCCWDecorator@NEffectUpdateDecorator@@@@A ; CPooledObject<NEffectUpdateDecorator::CTextureAnimationCCWDecorator>::ms_kPool
PUBLIC	?ms_kPool@?$CPooledObject@VCTextureAnimationRandomDecorator@NEffectUpdateDecorator@@@@1V?$CDynamicPoolEx@VCTextureAnimationRandomDecorator@NEffectUpdateDecorator@@@@A ; CPooledObject<NEffectUpdateDecorator::CTextureAnimationRandomDecorator>::ms_kPool
PUBLIC	?ms_kPool@?$CPooledObject@VCAirResistanceDecorator@NEffectUpdateDecorator@@@@1V?$CDynamicPoolEx@VCAirResistanceDecorator@NEffectUpdateDecorator@@@@A ; CPooledObject<NEffectUpdateDecorator::CAirResistanceDecorator>::ms_kPool
PUBLIC	?ms_kPool@?$CPooledObject@VCGravityDecorator@NEffectUpdateDecorator@@@@1V?$CDynamicPoolEx@VCGravityDecorator@NEffectUpdateDecorator@@@@A ; CPooledObject<NEffectUpdateDecorator::CGravityDecorator>::ms_kPool
PUBLIC	?ms_kPool@?$CPooledObject@VCRotationDecorator@NEffectUpdateDecorator@@@@1V?$CDynamicPoolEx@VCRotationDecorator@NEffectUpdateDecorator@@@@A ; CPooledObject<NEffectUpdateDecorator::CRotationDecorator>::ms_kPool
PUBLIC	?ms_singleton@?$CSingleton@VCStateManager@@@@0PAVCStateManager@@A ; CSingleton<CStateManager>::ms_singleton
PUBLIC	?ms_singleton@?$CSingleton@VCResourceManager@@@@0PAVCResourceManager@@A ; CSingleton<CResourceManager>::ms_singleton
PUBLIC	??_C@_0FB@JFPMNOBI@CRenderTarget?3?3CRenderTarget?3?5C@ ; `string'
PUBLIC	__TI2?AVruntime_error@std@@
PUBLIC	__CTA2?AVruntime_error@std@@
PUBLIC	??_C@_0EL@IABPBIKF@CRenderTarget?3?3CRenderTarget?3?5C@ ; `string'
PUBLIC	??_R0?AVCResource@@@8				; CResource `RTTI Type Descriptor'
PUBLIC	??_R0?AVCGraphicImage@@@8			; CGraphicImage `RTTI Type Descriptor'
PUBLIC	??_R4runtime_error@std@@6B@			; std::runtime_error::`RTTI Complete Object Locator'
PUBLIC	??_R3runtime_error@std@@8			; std::runtime_error::`RTTI Class Hierarchy Descriptor'
PUBLIC	??_R2runtime_error@std@@8			; std::runtime_error::`RTTI Base Class Array'
PUBLIC	??_R1A@?0A@EA@runtime_error@std@@8		; std::runtime_error::`RTTI Base Class Descriptor at (0,-1,0,64)'
PUBLIC	__real@3f000000
PUBLIC	__real@3f800000
PUBLIC	__real@40400000
PUBLIC	__real@40a00000
PUBLIC	__real@410e6666
PUBLIC	__real@430c0000
PUBLIC	__real@43b40000
PUBLIC	__real@465ac000
PUBLIC	__xmm@41f00000000000000000000000000000
PUBLIC	__xmm@80000000800000008000000080000000
EXTRN	??2@YAPAXI@Z:PROC				; operator new
EXTRN	??3@YAXPAX@Z:PROC				; operator delete
EXTRN	??3@YAXPAXI@Z:PROC				; operator delete
EXTRN	_atexit:PROC
EXTRN	__invalid_parameter_noinfo_noreturn:PROC
EXTRN	_fmaxf:PROC
EXTRN	_fminf:PROC
EXTRN	___std_exception_copy:PROC
EXTRN	___std_exception_destroy:PROC
EXTRN	??_Eexception@std@@UAEPAXI@Z:PROC		; std::exception::`vector deleting destructor'
EXTRN	?TraceError@@YAXPBDZZ:PROC			; TraceError
EXTRN	?SetPerspective@CGraphicBase@@QAEXMMMM@Z:PROC	; CGraphicBase::SetPerspective
EXTRN	?GetFOV@CGraphicBase@@QAEMXZ:PROC		; CGraphicBase::GetFOV
EXTRN	?GetAspect@CGraphicBase@@QAEMXZ:PROC		; CGraphicBase::GetAspect
EXTRN	?GetNearY@CGraphicBase@@QAEMXZ:PROC		; CGraphicBase::GetNearY
EXTRN	?GetFarY@CGraphicBase@@QAEMXZ:PROC		; CGraphicBase::GetFarY
EXTRN	?UpdateViewMatrix@CGraphicBase@@QAEXXZ:PROC	; CGraphicBase::UpdateViewMatrix
EXTRN	??0CGraphicRenderTargetTexture@@QAE@XZ:PROC	; CGraphicRenderTargetTexture::CGraphicRenderTargetTexture
EXTRN	?Create@CGraphicRenderTargetTexture@@QAE_NHHW4_D3DFORMAT@@0@Z:PROC ; CGraphicRenderTargetTexture::Create
EXTRN	?CreateTextures@CGraphicRenderTargetTexture@@QAEXXZ:PROC ; CGraphicRenderTargetTexture::CreateTextures
EXTRN	?SetRenderTarget@CGraphicRenderTargetTexture@@QAEXXZ:PROC ; CGraphicRenderTargetTexture::SetRenderTarget
EXTRN	?ResetRenderTarget@CGraphicRenderTargetTexture@@QAEXXZ:PROC ; CGraphicRenderTargetTexture::ResetRenderTarget
EXTRN	?SetRenderingRect@CGraphicRenderTargetTexture@@QAEXPAUtagRECT@@@Z:PROC ; CGraphicRenderTargetTexture::SetRenderingRect
EXTRN	?GetRenderingRect@CGraphicRenderTargetTexture@@QAEPAUtagRECT@@XZ:PROC ; CGraphicRenderTargetTexture::GetRenderingRect
EXTRN	?ReleaseTextures@CGraphicRenderTargetTexture@@QAEXXZ:PROC ; CGraphicRenderTargetTexture::ReleaseTextures
EXTRN	?Clear@CGraphicRenderTargetTexture@@SAXXZ:PROC	; CGraphicRenderTargetTexture::Clear
EXTRN	?Render@CGraphicRenderTargetTexture@@QBEXXZ:PROC ; CGraphicRenderTargetTexture::Render
EXTRN	?SetViewParams@CCamera@@QAEXABUD3DXVECTOR3@@00@Z:PROC ; CCamera::SetViewParams
EXTRN	?SetTargetHeight@CCamera@@QAEXM@Z:PROC		; CCamera::SetTargetHeight
EXTRN	?GetCurrentCamera@CCameraManager@@QAEPAVCCamera@@XZ:PROC ; CCameraManager::GetCurrentCamera
EXTRN	?SetCurrentCamera@CCameraManager@@QAEXE@Z:PROC	; CCameraManager::SetCurrentCamera
EXTRN	?ResetToPreviousCamera@CCameraManager@@QAEXXZ:PROC ; CCameraManager::ResetToPreviousCamera
EXTRN	?GetWidth@CGraphicImage@@QBEHXZ:PROC		; CGraphicImage::GetWidth
EXTRN	?GetHeight@CGraphicImage@@QBEHXZ:PROC		; CGraphicImage::GetHeight
EXTRN	??0CGraphicImageInstance@@QAE@XZ:PROC		; CGraphicImageInstance::CGraphicImageInstance
EXTRN	?Render@CGraphicImageInstance@@QAEXXZ:PROC	; CGraphicImageInstance::Render
EXTRN	?SetImagePointer@CGraphicImageInstance@@QAEXPAVCGraphicImage@@@Z:PROC ; CGraphicImageInstance::SetImagePointer
EXTRN	?SetScale@CGraphicImageInstance@@QAEXMM@Z:PROC	; CGraphicImageInstance::SetScale
EXTRN	??_Eruntime_error@std@@UAEPAXI@Z:PROC		; std::runtime_error::`vector deleting destructor'
EXTRN	?ClearDepthBuffer@CScreen@@QAEXXZ:PROC		; CScreen::ClearDepthBuffer
EXTRN	?PushState@CPythonGraphic@@QAEXXZ:PROC		; CPythonGraphic::PushState
EXTRN	?PopState@CPythonGraphic@@QAEXXZ:PROC		; CPythonGraphic::PopState
EXTRN	?SetInterfaceRenderState@CPythonGraphic@@QAEXXZ:PROC ; CPythonGraphic::SetInterfaceRenderState
EXTRN	?SetViewport@CPythonGraphic@@QAEXMMMM@Z:PROC	; CPythonGraphic::SetViewport
EXTRN	?RestoreViewport@CPythonGraphic@@QAEXXZ:PROC	; CPythonGraphic::RestoreViewport
EXTRN	?SetRenderState@CStateManager@@QAEXW4_D3DRENDERSTATETYPE@@K@Z:PROC ; CStateManager::SetRenderState
EXTRN	?GetRenderState@CStateManager@@QAEKW4_D3DRENDERSTATETYPE@@@Z:PROC ; CStateManager::GetRenderState
EXTRN	?GetHeight@CActorInstance@@QAEMXZ:PROC		; CActorInstance::GetHeight
EXTRN	?RotationProcess@CActorInstance@@QAEXXZ:PROC	; CActorInstance::RotationProcess
EXTRN	??0CAffectFlagContainer@@QAE@XZ:PROC		; CAffectFlagContainer::CAffectFlagContainer
EXTRN	??1CAffectFlagContainer@@QAE@XZ:PROC		; CAffectFlagContainer::~CAffectFlagContainer
EXTRN	??0CInstanceBase@@QAE@XZ:PROC			; CInstanceBase::CInstanceBase
EXTRN	?Create@CInstanceBase@@QAE_NABUSCreateData@1@@Z:PROC ; CInstanceBase::Create
EXTRN	?Transform@CInstanceBase@@QAEXXZ:PROC		; CInstanceBase::Transform
EXTRN	?Deform@CInstanceBase@@QAEXXZ:PROC		; CInstanceBase::Deform
EXTRN	?Render@CInstanceBase@@QAEXXZ:PROC		; CInstanceBase::Render
EXTRN	?NEW_SetPixelPosition@CInstanceBase@@QAEXABUD3DXVECTOR3@@@Z:PROC ; CInstanceBase::NEW_SetPixelPosition
EXTRN	?SetRotation@CInstanceBase@@QAEXM@Z:PROC	; CInstanceBase::SetRotation
EXTRN	?SetLoopMotion@CInstanceBase@@QAEXGMM@Z:PROC	; CInstanceBase::SetLoopMotion
EXTRN	?Refresh@CInstanceBase@@QAEXK_N@Z:PROC		; CInstanceBase::Refresh
EXTRN	?GetGraphicThingInstanceRef@CInstanceBase@@QAEAAVCActorInstance@@XZ:PROC ; CInstanceBase::GetGraphicThingInstanceRef
EXTRN	?SetAlwaysRender@CInstanceBase@@QAEX_N@Z:PROC	; CInstanceBase::SetAlwaysRender
EXTRN	?GetResourcePointer@CResourceManager@@QAEPAVCResource@@PBD@Z:PROC ; CResourceManager::GetResourcePointer
EXTRN	@__security_check_cookie@4:PROC
EXTRN	__CxxThrowException@8:PROC
EXTRN	___CxxFrameHandler3:PROC
EXTRN	___RTDynamicCast:PROC
EXTRN	_memset:PROC
EXTRN	___security_cookie:DWORD
EXTRN	__fltused:DWORD
;	COMDAT ?ms_singleton@?$CSingleton@VCCameraManager@@@@0PAVCCameraManager@@A
_BSS	SEGMENT
?ms_singleton@?$CSingleton@VCCameraManager@@@@0PAVCCameraManager@@A DD 01H DUP (?) ; CSingleton<CCameraManager>::ms_singleton
_BSS	ENDS
;	COMDAT ?ms_singleton@?$CSingleton@VCPythonGraphic@@@@0PAVCPythonGraphic@@A
_BSS	SEGMENT
?ms_singleton@?$CSingleton@VCPythonGraphic@@@@0PAVCPythonGraphic@@A DD 01H DUP (?) ; CSingleton<CPythonGraphic>::ms_singleton
_BSS	ENDS
;	COMDAT ?ms_singleton@?$CSingleton@VCStateManager@@@@0PAVCStateManager@@A
_BSS	SEGMENT
?ms_singleton@?$CSingleton@VCStateManager@@@@0PAVCStateManager@@A DD 01H DUP (?) ; CSingleton<CStateManager>::ms_singleton
_BSS	ENDS
;	COMDAT ?ms_singleton@?$CSingleton@VCResourceManager@@@@0PAVCResourceManager@@A
_BSS	SEGMENT
?ms_singleton@?$CSingleton@VCResourceManager@@@@0PAVCResourceManager@@A DD 01H DUP (?) ; CSingleton<CResourceManager>::ms_singleton
_BSS	ENDS
;	COMDAT CRT$XCU
CRT$XCU	SEGMENT
??ms_kPool$initializer$@?$CPooledObject@VCHeaderDecorator@NEffectUpdateDecorator@@@@1P6AXXZA@@3P6AXXZA DD FLAT:??__E?ms_kPool@?$CPooledObject@VCHeaderDecorator@NEffectUpdateDecorator@@@@1V?$CDynamicPoolEx@VCHeaderDecorator@NEffectUpdateDecorator@@@@A@@YAXXZ ; ??ms_kPool$initializer$@?$CPooledObject@VCHeaderDecorator@NEffectUpdateDecorator@@@@1P6AXXZA@@3P6AXXZA
CRT$XCU	ENDS
;	COMDAT __xmm@80000000800000008000000080000000
CONST	SEGMENT
__xmm@80000000800000008000000080000000 DB 00H, 00H, 00H, 080H, 00H, 00H, 00H
	DB	080H, 00H, 00H, 00H, 080H, 00H, 00H, 00H, 080H
CONST	ENDS
;	COMDAT __xmm@41f00000000000000000000000000000
CONST	SEGMENT
__xmm@41f00000000000000000000000000000 DB 00H, 00H, 00H, 00H, 00H, 00H, 00H
	DB	00H, 00H, 00H, 00H, 00H, 00H, 00H, 0f0H, 'A'
CONST	ENDS
;	COMDAT __real@465ac000
CONST	SEGMENT
__real@465ac000 DD 0465ac000r			; 14000
CONST	ENDS
;	COMDAT __real@43b40000
CONST	SEGMENT
__real@43b40000 DD 043b40000r			; 360
CONST	ENDS
;	COMDAT __real@430c0000
CONST	SEGMENT
__real@430c0000 DD 0430c0000r			; 140
CONST	ENDS
;	COMDAT __real@410e6666
CONST	SEGMENT
__real@410e6666 DD 0410e6666r			; 8.9
CONST	ENDS
;	COMDAT __real@40a00000
CONST	SEGMENT
__real@40a00000 DD 040a00000r			; 5
CONST	ENDS
;	COMDAT __real@40400000
CONST	SEGMENT
__real@40400000 DD 040400000r			; 3
CONST	ENDS
;	COMDAT __real@3f800000
CONST	SEGMENT
__real@3f800000 DD 03f800000r			; 1
CONST	ENDS
;	COMDAT __real@3f000000
CONST	SEGMENT
__real@3f000000 DD 03f000000r			; 0.5
CONST	ENDS
;	COMDAT ??_R1A@?0A@EA@runtime_error@std@@8
rdata$r	SEGMENT
??_R1A@?0A@EA@runtime_error@std@@8 DD FLAT:??_R0?AVruntime_error@std@@@8 ; std::runtime_error::`RTTI Base Class Descriptor at (0,-1,0,64)'
	DD	01H
	DD	00H
	DD	0ffffffffH
	DD	00H
	DD	040H
	DD	FLAT:??_R3runtime_error@std@@8
rdata$r	ENDS
;	COMDAT ??_R2runtime_error@std@@8
rdata$r	SEGMENT
??_R2runtime_error@std@@8 DD FLAT:??_R1A@?0A@EA@runtime_error@std@@8 ; std::runtime_error::`RTTI Base Class Array'
	DD	FLAT:??_R1A@?0A@EA@exception@std@@8
rdata$r	ENDS
;	COMDAT ??_R3runtime_error@std@@8
rdata$r	SEGMENT
??_R3runtime_error@std@@8 DD 00H			; std::runtime_error::`RTTI Class Hierarchy Descriptor'
	DD	00H
	DD	02H
	DD	FLAT:??_R2runtime_error@std@@8
rdata$r	ENDS
;	COMDAT ??_R4runtime_error@std@@6B@
rdata$r	SEGMENT
??_R4runtime_error@std@@6B@ DD 00H			; std::runtime_error::`RTTI Complete Object Locator'
	DD	00H
	DD	00H
	DD	FLAT:??_R0?AVruntime_error@std@@@8
	DD	FLAT:??_R3runtime_error@std@@8
rdata$r	ENDS
;	COMDAT ??_R0?AVCGraphicImage@@@8
data$r	SEGMENT
??_R0?AVCGraphicImage@@@8 DD FLAT:??_7type_info@@6B@	; CGraphicImage `RTTI Type Descriptor'
	DD	00H
	DB	'.?AVCGraphicImage@@', 00H
data$r	ENDS
;	COMDAT ??_R0?AVCResource@@@8
data$r	SEGMENT
??_R0?AVCResource@@@8 DD FLAT:??_7type_info@@6B@	; CResource `RTTI Type Descriptor'
	DD	00H
	DB	'.?AVCResource@@', 00H
data$r	ENDS
;	COMDAT ??_C@_0EL@IABPBIKF@CRenderTarget?3?3CRenderTarget?3?5C@
CONST	SEGMENT
??_C@_0EL@IABPBIKF@CRenderTarget?3?3CRenderTarget?3?5C@ DB 'CRenderTarget'
	DB	'::CRenderTarget: Could not create CGraphicRenderTargetTexture'
	DB	00H						; `string'
CONST	ENDS
;	COMDAT __CTA2?AVruntime_error@std@@
xdata$x	SEGMENT
__CTA2?AVruntime_error@std@@ DD 02H
	DD	FLAT:__CT??_R0?AVruntime_error@std@@@8??0runtime_error@std@@QAE@ABV01@@Z12
	DD	FLAT:__CT??_R0?AVexception@std@@@8??0exception@std@@QAE@ABV01@@Z12
xdata$x	ENDS
;	COMDAT __TI2?AVruntime_error@std@@
xdata$x	SEGMENT
__TI2?AVruntime_error@std@@ DD 00H
	DD	FLAT:??1runtime_error@std@@UAE@XZ
	DD	00H
	DD	FLAT:__CTA2?AVruntime_error@std@@
xdata$x	ENDS
;	COMDAT ??_C@_0FB@JFPMNOBI@CRenderTarget?3?3CRenderTarget?3?5C@
CONST	SEGMENT
??_C@_0FB@JFPMNOBI@CRenderTarget?3?3CRenderTarget?3?5C@ DB 'CRenderTarget'
	DB	'::CRenderTarget: Could not create CGraphicRenderTargetTexture'
	DB	' %dx%d', 00H				; `string'
CONST	ENDS
_DATA	SEGMENT
?NPOS@@3USItemPos@@B DB 01H DUP (?)
	DW	0ffffH					; NPOS
_DATA	ENDS
;	COMDAT ?ms_kPool@?$CPooledObject@VCRotationDecorator@NEffectUpdateDecorator@@@@1V?$CDynamicPoolEx@VCRotationDecorator@NEffectUpdateDecorator@@@@A
_DATA	SEGMENT
?ms_kPool@?$CPooledObject@VCRotationDecorator@NEffectUpdateDecorator@@@@1V?$CDynamicPoolEx@VCRotationDecorator@NEffectUpdateDecorator@@@@A DD FLAT:??_7?$CDynamicPoolEx@VCRotationDecorator@NEffectUpdateDecorator@@@@6B@ ; CPooledObject<NEffectUpdateDecorator::CRotationDecorator>::ms_kPool
	DD	00H
	DD	00H
	DD	00H
	DD	00H
	DD	00H
	DD	00H
	DD	00H
	DD	00H
_DATA	ENDS
;	COMDAT ?ms_kPool@?$CPooledObject@VCGravityDecorator@NEffectUpdateDecorator@@@@1V?$CDynamicPoolEx@VCGravityDecorator@NEffectUpdateDecorator@@@@A
_DATA	SEGMENT
?ms_kPool@?$CPooledObject@VCGravityDecorator@NEffectUpdateDecorator@@@@1V?$CDynamicPoolEx@VCGravityDecorator@NEffectUpdateDecorator@@@@A DD FLAT:??_7?$CDynamicPoolEx@VCGravityDecorator@NEffectUpdateDecorator@@@@6B@ ; CPooledObject<NEffectUpdateDecorator::CGravityDecorator>::ms_kPool
	DD	00H
	DD	00H
	DD	00H
	DD	00H
	DD	00H
	DD	00H
	DD	00H
	DD	00H
_DATA	ENDS
;	COMDAT ?ms_kPool@?$CPooledObject@VCAirResistanceDecorator@NEffectUpdateDecorator@@@@1V?$CDynamicPoolEx@VCAirResistanceDecorator@NEffectUpdateDecorator@@@@A
_DATA	SEGMENT
?ms_kPool@?$CPooledObject@VCAirResistanceDecorator@NEffectUpdateDecorator@@@@1V?$CDynamicPoolEx@VCAirResistanceDecorator@NEffectUpdateDecorator@@@@A DD FLAT:??_7?$CDynamicPoolEx@VCAirResistanceDecorator@NEffectUpdateDecorator@@@@6B@ ; CPooledObject<NEffectUpdateDecorator::CAirResistanceDecorator>::ms_kPool
	DD	00H
	DD	00H
	DD	00H
	DD	00H
	DD	00H
	DD	00H
	DD	00H
	DD	00H
_DATA	ENDS
;	COMDAT ?ms_kPool@?$CPooledObject@VCTextureAnimationRandomDecorator@NEffectUpdateDecorator@@@@1V?$CDynamicPoolEx@VCTextureAnimationRandomDecorator@NEffectUpdateDecorator@@@@A
_DATA	SEGMENT
?ms_kPool@?$CPooledObject@VCTextureAnimationRandomDecorator@NEffectUpdateDecorator@@@@1V?$CDynamicPoolEx@VCTextureAnimationRandomDecorator@NEffectUpdateDecorator@@@@A DD FLAT:??_7?$CDynamicPoolEx@VCTextureAnimationRandomDecorator@NEffectUpdateDecorator@@@@6B@ ; CPooledObject<NEffectUpdateDecorator::CTextureAnimationRandomDecorator>::ms_kPool
	DD	00H
	DD	00H
	DD	00H
	DD	00H
	DD	00H
	DD	00H
	DD	00H
	DD	00H
_DATA	ENDS
;	COMDAT ?ms_kPool@?$CPooledObject@VCTextureAnimationCCWDecorator@NEffectUpdateDecorator@@@@1V?$CDynamicPoolEx@VCTextureAnimationCCWDecorator@NEffectUpdateDecorator@@@@A
_DATA	SEGMENT
?ms_kPool@?$CPooledObject@VCTextureAnimationCCWDecorator@NEffectUpdateDecorator@@@@1V?$CDynamicPoolEx@VCTextureAnimationCCWDecorator@NEffectUpdateDecorator@@@@A DD FLAT:??_7?$CDynamicPoolEx@VCTextureAnimationCCWDecorator@NEffectUpdateDecorator@@@@6B@ ; CPooledObject<NEffectUpdateDecorator::CTextureAnimationCCWDecorator>::ms_kPool
	DD	00H
	DD	00H
	DD	00H
	DD	00H
	DD	00H
	DD	00H
	DD	00H
	DD	00H
_DATA	ENDS
;	COMDAT ?ms_kPool@?$CPooledObject@VCTextureAnimationCWDecorator@NEffectUpdateDecorator@@@@1V?$CDynamicPoolEx@VCTextureAnimationCWDecorator@NEffectUpdateDecorator@@@@A
_DATA	SEGMENT
?ms_kPool@?$CPooledObject@VCTextureAnimationCWDecorator@NEffectUpdateDecorator@@@@1V?$CDynamicPoolEx@VCTextureAnimationCWDecorator@NEffectUpdateDecorator@@@@A DD FLAT:??_7?$CDynamicPoolEx@VCTextureAnimationCWDecorator@NEffectUpdateDecorator@@@@6B@ ; CPooledObject<NEffectUpdateDecorator::CTextureAnimationCWDecorator>::ms_kPool
	DD	00H
	DD	00H
	DD	00H
	DD	00H
	DD	00H
	DD	00H
	DD	00H
	DD	00H
_DATA	ENDS
;	COMDAT ?ms_kPool@?$CPooledObject@VCNullDecorator@NEffectUpdateDecorator@@@@1V?$CDynamicPoolEx@VCNullDecorator@NEffectUpdateDecorator@@@@A
_DATA	SEGMENT
?ms_kPool@?$CPooledObject@VCNullDecorator@NEffectUpdateDecorator@@@@1V?$CDynamicPoolEx@VCNullDecorator@NEffectUpdateDecorator@@@@A DD FLAT:??_7?$CDynamicPoolEx@VCNullDecorator@NEffectUpdateDecorator@@@@6B@ ; CPooledObject<NEffectUpdateDecorator::CNullDecorator>::ms_kPool
	DD	00H
	DD	00H
	DD	00H
	DD	00H
	DD	00H
	DD	00H
	DD	00H
	DD	00H
_DATA	ENDS
;	COMDAT ?ms_kPool@?$CPooledObject@VCHeaderDecorator@NEffectUpdateDecorator@@@@1V?$CDynamicPoolEx@VCHeaderDecorator@NEffectUpdateDecorator@@@@A
_DATA	SEGMENT
?ms_kPool@?$CPooledObject@VCHeaderDecorator@NEffectUpdateDecorator@@@@1V?$CDynamicPoolEx@VCHeaderDecorator@NEffectUpdateDecorator@@@@A DD FLAT:??_7?$CDynamicPoolEx@VCHeaderDecorator@NEffectUpdateDecorator@@@@6B@ ; CPooledObject<NEffectUpdateDecorator::CHeaderDecorator>::ms_kPool
	DD	00H
	DD	00H
	DD	00H
	DD	00H
	DD	00H
	DD	00H
	DD	00H
	DD	00H
_DATA	ENDS
;	COMDAT __CT??_R0?AVruntime_error@std@@@8??0runtime_error@std@@QAE@ABV01@@Z12
xdata$x	SEGMENT
__CT??_R0?AVruntime_error@std@@@8??0runtime_error@std@@QAE@ABV01@@Z12 DD 00H
	DD	FLAT:??_R0?AVruntime_error@std@@@8
	DD	00H
	DD	0ffffffffH
	ORG $+4
	DD	0cH
	DD	FLAT:??0runtime_error@std@@QAE@ABV01@@Z
xdata$x	ENDS
;	COMDAT ??_R0?AVruntime_error@std@@@8
data$r	SEGMENT
??_R0?AVruntime_error@std@@@8 DD FLAT:??_7type_info@@6B@ ; std::runtime_error `RTTI Type Descriptor'
	DD	00H
	DB	'.?AVruntime_error@std@@', 00H
data$r	ENDS
;	COMDAT ??_7runtime_error@std@@6B@
CONST	SEGMENT
??_7runtime_error@std@@6B@ DD FLAT:??_R4runtime_error@std@@6B@ ; std::runtime_error::`vftable'
	DD	FLAT:??_Eruntime_error@std@@UAEPAXI@Z
	DD	FLAT:?what@exception@std@@UBEPBDXZ
CONST	ENDS
;	COMDAT ??_R1A@?0A@EA@exception@std@@8
rdata$r	SEGMENT
??_R1A@?0A@EA@exception@std@@8 DD FLAT:??_R0?AVexception@std@@@8 ; std::exception::`RTTI Base Class Descriptor at (0,-1,0,64)'
	DD	00H
	DD	00H
	DD	0ffffffffH
	DD	00H
	DD	040H
	DD	FLAT:??_R3exception@std@@8
rdata$r	ENDS
;	COMDAT ??_R2exception@std@@8
rdata$r	SEGMENT
??_R2exception@std@@8 DD FLAT:??_R1A@?0A@EA@exception@std@@8 ; std::exception::`RTTI Base Class Array'
rdata$r	ENDS
;	COMDAT ??_R3exception@std@@8
rdata$r	SEGMENT
??_R3exception@std@@8 DD 00H				; std::exception::`RTTI Class Hierarchy Descriptor'
	DD	00H
	DD	01H
	DD	FLAT:??_R2exception@std@@8
rdata$r	ENDS
;	COMDAT ??_R4exception@std@@6B@
rdata$r	SEGMENT
??_R4exception@std@@6B@ DD 00H				; std::exception::`RTTI Complete Object Locator'
	DD	00H
	DD	00H
	DD	FLAT:??_R0?AVexception@std@@@8
	DD	FLAT:??_R3exception@std@@8
rdata$r	ENDS
;	COMDAT __CT??_R0?AVexception@std@@@8??0exception@std@@QAE@ABV01@@Z12
xdata$x	SEGMENT
__CT??_R0?AVexception@std@@@8??0exception@std@@QAE@ABV01@@Z12 DD 00H
	DD	FLAT:??_R0?AVexception@std@@@8
	DD	00H
	DD	0ffffffffH
	ORG $+4
	DD	0cH
	DD	FLAT:??0exception@std@@QAE@ABV01@@Z
xdata$x	ENDS
;	COMDAT ??_R0?AVexception@std@@@8
data$r	SEGMENT
??_R0?AVexception@std@@@8 DD FLAT:??_7type_info@@6B@	; std::exception `RTTI Type Descriptor'
	DD	00H
	DB	'.?AVexception@std@@', 00H
data$r	ENDS
;	COMDAT ??_C@_0BC@EOODALEL@Unknown?5exception@
CONST	SEGMENT
??_C@_0BC@EOODALEL@Unknown?5exception@ DB 'Unknown exception', 00H ; `string'
CONST	ENDS
;	COMDAT ??_7exception@std@@6B@
CONST	SEGMENT
??_7exception@std@@6B@ DD FLAT:??_R4exception@std@@6B@	; std::exception::`vftable'
	DD	FLAT:??_Eexception@std@@UAEPAXI@Z
	DD	FLAT:?what@exception@std@@UBEPBDXZ
CONST	ENDS
;	COMDAT xdata$x
xdata$x	SEGMENT
__unwindtable$??$make_unique@VCGraphicImageInstance@@$$V$0A@@std@@YA?AV?$unique_ptr@VCGraphicImageInstance@@U?$default_delete@VCGraphicImageInstance@@@std@@@0@XZ DD 0ffffffffH
	DD	FLAT:__unwindfunclet$??$make_unique@VCGraphicImageInstance@@$$V$0A@@std@@YA?AV?$unique_ptr@VCGraphicImageInstance@@U?$default_delete@VCGraphicImageInstance@@@std@@@0@XZ$0
__ehfuncinfo$??$make_unique@VCGraphicImageInstance@@$$V$0A@@std@@YA?AV?$unique_ptr@VCGraphicImageInstance@@U?$default_delete@VCGraphicImageInstance@@@std@@@0@XZ DD 019930522H
	DD	01H
	DD	FLAT:__unwindtable$??$make_unique@VCGraphicImageInstance@@$$V$0A@@std@@YA?AV?$unique_ptr@VCGraphicImageInstance@@U?$default_delete@VCGraphicImageInstance@@@std@@@0@XZ
	DD	2 DUP(00H)
	DD	2 DUP(00H)
	DD	00H
	DD	01H
xdata$x	ENDS
;	COMDAT xdata$x
xdata$x	SEGMENT
__unwindtable$??$make_unique@VCInstanceBase@@$$V$0A@@std@@YA?AV?$unique_ptr@VCInstanceBase@@U?$default_delete@VCInstanceBase@@@std@@@0@XZ DD 0ffffffffH
	DD	FLAT:__unwindfunclet$??$make_unique@VCInstanceBase@@$$V$0A@@std@@YA?AV?$unique_ptr@VCInstanceBase@@U?$default_delete@VCInstanceBase@@@std@@@0@XZ$0
__ehfuncinfo$??$make_unique@VCInstanceBase@@$$V$0A@@std@@YA?AV?$unique_ptr@VCInstanceBase@@U?$default_delete@VCInstanceBase@@@std@@@0@XZ DD 019930522H
	DD	01H
	DD	FLAT:__unwindtable$??$make_unique@VCInstanceBase@@$$V$0A@@std@@YA?AV?$unique_ptr@VCInstanceBase@@U?$default_delete@VCInstanceBase@@@std@@@0@XZ
	DD	2 DUP(00H)
	DD	2 DUP(00H)
	DD	00H
	DD	01H
xdata$x	ENDS
;	COMDAT xdata$x
xdata$x	SEGMENT
__unwindtable$?SelectModel@CRenderTarget@@QAEXK@Z DD 0ffffffffH
	DD	FLAT:__unwindfunclet$?SelectModel@CRenderTarget@@QAEXK@Z$2
	DD	00H
	DD	FLAT:__unwindfunclet$?SelectModel@CRenderTarget@@QAEXK@Z$4
__ehfuncinfo$?SelectModel@CRenderTarget@@QAEXK@Z DD 019930522H
	DD	02H
	DD	FLAT:__unwindtable$?SelectModel@CRenderTarget@@QAEXK@Z
	DD	2 DUP(00H)
	DD	2 DUP(00H)
	DD	00H
	DD	01H
xdata$x	ENDS
;	COMDAT xdata$x
xdata$x	SEGMENT
__unwindtable$??0CRenderTarget@@QAE@KK@Z DD 0ffffffffH
	DD	FLAT:__unwindfunclet$??0CRenderTarget@@QAE@KK@Z$0
	DD	00H
	DD	FLAT:__unwindfunclet$??0CRenderTarget@@QAE@KK@Z$1
	DD	01H
	DD	FLAT:__unwindfunclet$??0CRenderTarget@@QAE@KK@Z$2
	DD	02H
	DD	FLAT:__unwindfunclet$??0CRenderTarget@@QAE@KK@Z$3
__ehfuncinfo$??0CRenderTarget@@QAE@KK@Z DD 019930522H
	DD	04H
	DD	FLAT:__unwindtable$??0CRenderTarget@@QAE@KK@Z
	DD	2 DUP(00H)
	DD	2 DUP(00H)
	DD	00H
	DD	01H
xdata$x	ENDS
;	COMDAT CRT$XCU
CRT$XCU	SEGMENT
??ms_kPool$initializer$@?$CPooledObject@VCNullDecorator@NEffectUpdateDecorator@@@@1P6AXXZA@@3P6AXXZA DD FLAT:??__E?ms_kPool@?$CPooledObject@VCNullDecorator@NEffectUpdateDecorator@@@@1V?$CDynamicPoolEx@VCNullDecorator@NEffectUpdateDecorator@@@@A@@YAXXZ ; ??ms_kPool$initializer$@?$CPooledObject@VCNullDecorator@NEffectUpdateDecorator@@@@1P6AXXZA@@3P6AXXZA
CRT$XCU	ENDS
;	COMDAT CRT$XCU
CRT$XCU	SEGMENT
??ms_kPool$initializer$@?$CPooledObject@VCTextureAnimationCWDecorator@NEffectUpdateDecorator@@@@1P6AXXZA@@3P6AXXZA DD FLAT:??__E?ms_kPool@?$CPooledObject@VCTextureAnimationCWDecorator@NEffectUpdateDecorator@@@@1V?$CDynamicPoolEx@VCTextureAnimationCWDecorator@NEffectUpdateDecorator@@@@A@@YAXXZ ; ??ms_kPool$initializer$@?$CPooledObject@VCTextureAnimationCWDecorator@NEffectUpdateDecorator@@@@1P6AXXZA@@3P6AXXZA
CRT$XCU	ENDS
;	COMDAT CRT$XCU
CRT$XCU	SEGMENT
??ms_kPool$initializer$@?$CPooledObject@VCTextureAnimationCCWDecorator@NEffectUpdateDecorator@@@@1P6AXXZA@@3P6AXXZA DD FLAT:??__E?ms_kPool@?$CPooledObject@VCTextureAnimationCCWDecorator@NEffectUpdateDecorator@@@@1V?$CDynamicPoolEx@VCTextureAnimationCCWDecorator@NEffectUpdateDecorator@@@@A@@YAXXZ ; ??ms_kPool$initializer$@?$CPooledObject@VCTextureAnimationCCWDecorator@NEffectUpdateDecorator@@@@1P6AXXZA@@3P6AXXZA
CRT$XCU	ENDS
;	COMDAT CRT$XCU
CRT$XCU	SEGMENT
??ms_kPool$initializer$@?$CPooledObject@VCTextureAnimationRandomDecorator@NEffectUpdateDecorator@@@@1P6AXXZA@@3P6AXXZA DD FLAT:??__E?ms_kPool@?$CPooledObject@VCTextureAnimationRandomDecorator@NEffectUpdateDecorator@@@@1V?$CDynamicPoolEx@VCTextureAnimationRandomDecorator@NEffectUpdateDecorator@@@@A@@YAXXZ ; ??ms_kPool$initializer$@?$CPooledObject@VCTextureAnimationRandomDecorator@NEffectUpdateDecorator@@@@1P6AXXZA@@3P6AXXZA
CRT$XCU	ENDS
;	COMDAT CRT$XCU
CRT$XCU	SEGMENT
??ms_kPool$initializer$@?$CPooledObject@VCAirResistanceDecorator@NEffectUpdateDecorator@@@@1P6AXXZA@@3P6AXXZA DD FLAT:??__E?ms_kPool@?$CPooledObject@VCAirResistanceDecorator@NEffectUpdateDecorator@@@@1V?$CDynamicPoolEx@VCAirResistanceDecorator@NEffectUpdateDecorator@@@@A@@YAXXZ ; ??ms_kPool$initializer$@?$CPooledObject@VCAirResistanceDecorator@NEffectUpdateDecorator@@@@1P6AXXZA@@3P6AXXZA
CRT$XCU	ENDS
;	COMDAT CRT$XCU
CRT$XCU	SEGMENT
??ms_kPool$initializer$@?$CPooledObject@VCGravityDecorator@NEffectUpdateDecorator@@@@1P6AXXZA@@3P6AXXZA DD FLAT:??__E?ms_kPool@?$CPooledObject@VCGravityDecorator@NEffectUpdateDecorator@@@@1V?$CDynamicPoolEx@VCGravityDecorator@NEffectUpdateDecorator@@@@A@@YAXXZ ; ??ms_kPool$initializer$@?$CPooledObject@VCGravityDecorator@NEffectUpdateDecorator@@@@1P6AXXZA@@3P6AXXZA
CRT$XCU	ENDS
;	COMDAT CRT$XCU
CRT$XCU	SEGMENT
??ms_kPool$initializer$@?$CPooledObject@VCRotationDecorator@NEffectUpdateDecorator@@@@1P6AXXZA@@3P6AXXZA DD FLAT:??__E?ms_kPool@?$CPooledObject@VCRotationDecorator@NEffectUpdateDecorator@@@@1V?$CDynamicPoolEx@VCRotationDecorator@NEffectUpdateDecorator@@@@A@@YAXXZ ; ??ms_kPool$initializer$@?$CPooledObject@VCRotationDecorator@NEffectUpdateDecorator@@@@1P6AXXZA@@3P6AXXZA
CRT$XCU	ENDS
; Function compile flags: /Ogtp
;	COMDAT ??__F?ms_kPool@?$CPooledObject@VCRotationDecorator@NEffectUpdateDecorator@@@@1V?$CDynamicPoolEx@VCRotationDecorator@NEffectUpdateDecorator@@@@A@@YAXXZ
text$yd	SEGMENT
??__F?ms_kPool@?$CPooledObject@VCRotationDecorator@NEffectUpdateDecorator@@@@1V?$CDynamicPoolEx@VCRotationDecorator@NEffectUpdateDecorator@@@@A@@YAXXZ PROC ; `dynamic atexit destructor for 'CPooledObject<NEffectUpdateDecorator::CRotationDecorator>::ms_kPool'', COMDAT
  00000	b9 00 00 00 00	 mov	 ecx, OFFSET ?ms_kPool@?$CPooledObject@VCRotationDecorator@NEffectUpdateDecorator@@@@1V?$CDynamicPoolEx@VCRotationDecorator@NEffectUpdateDecorator@@@@A ; CPooledObject<NEffectUpdateDecorator::CRotationDecorator>::ms_kPool
  00005	e9 00 00 00 00	 jmp	 ??1?$CDynamicPoolEx@VCRotationDecorator@NEffectUpdateDecorator@@@@UAE@XZ ; CDynamicPoolEx<NEffectUpdateDecorator::CRotationDecorator>::~CDynamicPoolEx<NEffectUpdateDecorator::CRotationDecorator>
??__F?ms_kPool@?$CPooledObject@VCRotationDecorator@NEffectUpdateDecorator@@@@1V?$CDynamicPoolEx@VCRotationDecorator@NEffectUpdateDecorator@@@@A@@YAXXZ ENDP ; `dynamic atexit destructor for 'CPooledObject<NEffectUpdateDecorator::CRotationDecorator>::ms_kPool''
text$yd	ENDS
; Function compile flags: /Ogtp
; File C:\Users\ALEXANDER\Desktop\Cliente\COPY_FISH_WON_NEW\Binario\Client\eterlib\Pool.h
;	COMDAT ??__E?ms_kPool@?$CPooledObject@VCRotationDecorator@NEffectUpdateDecorator@@@@1V?$CDynamicPoolEx@VCRotationDecorator@NEffectUpdateDecorator@@@@A@@YAXXZ
text$di	SEGMENT
??__E?ms_kPool@?$CPooledObject@VCRotationDecorator@NEffectUpdateDecorator@@@@1V?$CDynamicPoolEx@VCRotationDecorator@NEffectUpdateDecorator@@@@A@@YAXXZ PROC ; `dynamic initializer for 'CPooledObject<NEffectUpdateDecorator::CRotationDecorator>::ms_kPool'', COMDAT

; 272  : template <class T> CDynamicPoolEx<T> CPooledObject<T>::ms_kPool;

  00000	68 00 00 00 00	 push	 OFFSET ??__F?ms_kPool@?$CPooledObject@VCRotationDecorator@NEffectUpdateDecorator@@@@1V?$CDynamicPoolEx@VCRotationDecorator@NEffectUpdateDecorator@@@@A@@YAXXZ ; `dynamic atexit destructor for 'CPooledObject<NEffectUpdateDecorator::CRotationDecorator>::ms_kPool''
  00005	e8 00 00 00 00	 call	 _atexit
  0000a	59		 pop	 ecx
  0000b	c3		 ret	 0
??__E?ms_kPool@?$CPooledObject@VCRotationDecorator@NEffectUpdateDecorator@@@@1V?$CDynamicPoolEx@VCRotationDecorator@NEffectUpdateDecorator@@@@A@@YAXXZ ENDP ; `dynamic initializer for 'CPooledObject<NEffectUpdateDecorator::CRotationDecorator>::ms_kPool''
text$di	ENDS
; Function compile flags: /Ogtp
;	COMDAT ??__F?ms_kPool@?$CPooledObject@VCGravityDecorator@NEffectUpdateDecorator@@@@1V?$CDynamicPoolEx@VCGravityDecorator@NEffectUpdateDecorator@@@@A@@YAXXZ
text$yd	SEGMENT
??__F?ms_kPool@?$CPooledObject@VCGravityDecorator@NEffectUpdateDecorator@@@@1V?$CDynamicPoolEx@VCGravityDecorator@NEffectUpdateDecorator@@@@A@@YAXXZ PROC ; `dynamic atexit destructor for 'CPooledObject<NEffectUpdateDecorator::CGravityDecorator>::ms_kPool'', COMDAT
  00000	b9 00 00 00 00	 mov	 ecx, OFFSET ?ms_kPool@?$CPooledObject@VCGravityDecorator@NEffectUpdateDecorator@@@@1V?$CDynamicPoolEx@VCGravityDecorator@NEffectUpdateDecorator@@@@A ; CPooledObject<NEffectUpdateDecorator::CGravityDecorator>::ms_kPool
  00005	e9 00 00 00 00	 jmp	 ??1?$CDynamicPoolEx@VCGravityDecorator@NEffectUpdateDecorator@@@@UAE@XZ ; CDynamicPoolEx<NEffectUpdateDecorator::CGravityDecorator>::~CDynamicPoolEx<NEffectUpdateDecorator::CGravityDecorator>
??__F?ms_kPool@?$CPooledObject@VCGravityDecorator@NEffectUpdateDecorator@@@@1V?$CDynamicPoolEx@VCGravityDecorator@NEffectUpdateDecorator@@@@A@@YAXXZ ENDP ; `dynamic atexit destructor for 'CPooledObject<NEffectUpdateDecorator::CGravityDecorator>::ms_kPool''
text$yd	ENDS
; Function compile flags: /Ogtp
; File C:\Users\ALEXANDER\Desktop\Cliente\COPY_FISH_WON_NEW\Binario\Client\eterlib\Pool.h
;	COMDAT ??__E?ms_kPool@?$CPooledObject@VCGravityDecorator@NEffectUpdateDecorator@@@@1V?$CDynamicPoolEx@VCGravityDecorator@NEffectUpdateDecorator@@@@A@@YAXXZ
text$di	SEGMENT
??__E?ms_kPool@?$CPooledObject@VCGravityDecorator@NEffectUpdateDecorator@@@@1V?$CDynamicPoolEx@VCGravityDecorator@NEffectUpdateDecorator@@@@A@@YAXXZ PROC ; `dynamic initializer for 'CPooledObject<NEffectUpdateDecorator::CGravityDecorator>::ms_kPool'', COMDAT

; 272  : template <class T> CDynamicPoolEx<T> CPooledObject<T>::ms_kPool;

  00000	68 00 00 00 00	 push	 OFFSET ??__F?ms_kPool@?$CPooledObject@VCGravityDecorator@NEffectUpdateDecorator@@@@1V?$CDynamicPoolEx@VCGravityDecorator@NEffectUpdateDecorator@@@@A@@YAXXZ ; `dynamic atexit destructor for 'CPooledObject<NEffectUpdateDecorator::CGravityDecorator>::ms_kPool''
  00005	e8 00 00 00 00	 call	 _atexit
  0000a	59		 pop	 ecx
  0000b	c3		 ret	 0
??__E?ms_kPool@?$CPooledObject@VCGravityDecorator@NEffectUpdateDecorator@@@@1V?$CDynamicPoolEx@VCGravityDecorator@NEffectUpdateDecorator@@@@A@@YAXXZ ENDP ; `dynamic initializer for 'CPooledObject<NEffectUpdateDecorator::CGravityDecorator>::ms_kPool''
text$di	ENDS
; Function compile flags: /Ogtp
;	COMDAT ??__F?ms_kPool@?$CPooledObject@VCAirResistanceDecorator@NEffectUpdateDecorator@@@@1V?$CDynamicPoolEx@VCAirResistanceDecorator@NEffectUpdateDecorator@@@@A@@YAXXZ
text$yd	SEGMENT
??__F?ms_kPool@?$CPooledObject@VCAirResistanceDecorator@NEffectUpdateDecorator@@@@1V?$CDynamicPoolEx@VCAirResistanceDecorator@NEffectUpdateDecorator@@@@A@@YAXXZ PROC ; `dynamic atexit destructor for 'CPooledObject<NEffectUpdateDecorator::CAirResistanceDecorator>::ms_kPool'', COMDAT
  00000	b9 00 00 00 00	 mov	 ecx, OFFSET ?ms_kPool@?$CPooledObject@VCAirResistanceDecorator@NEffectUpdateDecorator@@@@1V?$CDynamicPoolEx@VCAirResistanceDecorator@NEffectUpdateDecorator@@@@A ; CPooledObject<NEffectUpdateDecorator::CAirResistanceDecorator>::ms_kPool
  00005	e9 00 00 00 00	 jmp	 ??1?$CDynamicPoolEx@VCAirResistanceDecorator@NEffectUpdateDecorator@@@@UAE@XZ ; CDynamicPoolEx<NEffectUpdateDecorator::CAirResistanceDecorator>::~CDynamicPoolEx<NEffectUpdateDecorator::CAirResistanceDecorator>
??__F?ms_kPool@?$CPooledObject@VCAirResistanceDecorator@NEffectUpdateDecorator@@@@1V?$CDynamicPoolEx@VCAirResistanceDecorator@NEffectUpdateDecorator@@@@A@@YAXXZ ENDP ; `dynamic atexit destructor for 'CPooledObject<NEffectUpdateDecorator::CAirResistanceDecorator>::ms_kPool''
text$yd	ENDS
; Function compile flags: /Ogtp
; File C:\Users\ALEXANDER\Desktop\Cliente\COPY_FISH_WON_NEW\Binario\Client\eterlib\Pool.h
;	COMDAT ??__E?ms_kPool@?$CPooledObject@VCAirResistanceDecorator@NEffectUpdateDecorator@@@@1V?$CDynamicPoolEx@VCAirResistanceDecorator@NEffectUpdateDecorator@@@@A@@YAXXZ
text$di	SEGMENT
??__E?ms_kPool@?$CPooledObject@VCAirResistanceDecorator@NEffectUpdateDecorator@@@@1V?$CDynamicPoolEx@VCAirResistanceDecorator@NEffectUpdateDecorator@@@@A@@YAXXZ PROC ; `dynamic initializer for 'CPooledObject<NEffectUpdateDecorator::CAirResistanceDecorator>::ms_kPool'', COMDAT

; 272  : template <class T> CDynamicPoolEx<T> CPooledObject<T>::ms_kPool;

  00000	68 00 00 00 00	 push	 OFFSET ??__F?ms_kPool@?$CPooledObject@VCAirResistanceDecorator@NEffectUpdateDecorator@@@@1V?$CDynamicPoolEx@VCAirResistanceDecorator@NEffectUpdateDecorator@@@@A@@YAXXZ ; `dynamic atexit destructor for 'CPooledObject<NEffectUpdateDecorator::CAirResistanceDecorator>::ms_kPool''
  00005	e8 00 00 00 00	 call	 _atexit
  0000a	59		 pop	 ecx
  0000b	c3		 ret	 0
??__E?ms_kPool@?$CPooledObject@VCAirResistanceDecorator@NEffectUpdateDecorator@@@@1V?$CDynamicPoolEx@VCAirResistanceDecorator@NEffectUpdateDecorator@@@@A@@YAXXZ ENDP ; `dynamic initializer for 'CPooledObject<NEffectUpdateDecorator::CAirResistanceDecorator>::ms_kPool''
text$di	ENDS
; Function compile flags: /Ogtp
;	COMDAT ??__F?ms_kPool@?$CPooledObject@VCTextureAnimationRandomDecorator@NEffectUpdateDecorator@@@@1V?$CDynamicPoolEx@VCTextureAnimationRandomDecorator@NEffectUpdateDecorator@@@@A@@YAXXZ
text$yd	SEGMENT
??__F?ms_kPool@?$CPooledObject@VCTextureAnimationRandomDecorator@NEffectUpdateDecorator@@@@1V?$CDynamicPoolEx@VCTextureAnimationRandomDecorator@NEffectUpdateDecorator@@@@A@@YAXXZ PROC ; `dynamic atexit destructor for 'CPooledObject<NEffectUpdateDecorator::CTextureAnimationRandomDecorator>::ms_kPool'', COMDAT
  00000	b9 00 00 00 00	 mov	 ecx, OFFSET ?ms_kPool@?$CPooledObject@VCTextureAnimationRandomDecorator@NEffectUpdateDecorator@@@@1V?$CDynamicPoolEx@VCTextureAnimationRandomDecorator@NEffectUpdateDecorator@@@@A ; CPooledObject<NEffectUpdateDecorator::CTextureAnimationRandomDecorator>::ms_kPool
  00005	e9 00 00 00 00	 jmp	 ??1?$CDynamicPoolEx@VCTextureAnimationRandomDecorator@NEffectUpdateDecorator@@@@UAE@XZ ; CDynamicPoolEx<NEffectUpdateDecorator::CTextureAnimationRandomDecorator>::~CDynamicPoolEx<NEffectUpdateDecorator::CTextureAnimationRandomDecorator>
??__F?ms_kPool@?$CPooledObject@VCTextureAnimationRandomDecorator@NEffectUpdateDecorator@@@@1V?$CDynamicPoolEx@VCTextureAnimationRandomDecorator@NEffectUpdateDecorator@@@@A@@YAXXZ ENDP ; `dynamic atexit destructor for 'CPooledObject<NEffectUpdateDecorator::CTextureAnimationRandomDecorator>::ms_kPool''
text$yd	ENDS
; Function compile flags: /Ogtp
; File C:\Users\ALEXANDER\Desktop\Cliente\COPY_FISH_WON_NEW\Binario\Client\eterlib\Pool.h
;	COMDAT ??__E?ms_kPool@?$CPooledObject@VCTextureAnimationRandomDecorator@NEffectUpdateDecorator@@@@1V?$CDynamicPoolEx@VCTextureAnimationRandomDecorator@NEffectUpdateDecorator@@@@A@@YAXXZ
text$di	SEGMENT
??__E?ms_kPool@?$CPooledObject@VCTextureAnimationRandomDecorator@NEffectUpdateDecorator@@@@1V?$CDynamicPoolEx@VCTextureAnimationRandomDecorator@NEffectUpdateDecorator@@@@A@@YAXXZ PROC ; `dynamic initializer for 'CPooledObject<NEffectUpdateDecorator::CTextureAnimationRandomDecorator>::ms_kPool'', COMDAT

; 272  : template <class T> CDynamicPoolEx<T> CPooledObject<T>::ms_kPool;

  00000	68 00 00 00 00	 push	 OFFSET ??__F?ms_kPool@?$CPooledObject@VCTextureAnimationRandomDecorator@NEffectUpdateDecorator@@@@1V?$CDynamicPoolEx@VCTextureAnimationRandomDecorator@NEffectUpdateDecorator@@@@A@@YAXXZ ; `dynamic atexit destructor for 'CPooledObject<NEffectUpdateDecorator::CTextureAnimationRandomDecorator>::ms_kPool''
  00005	e8 00 00 00 00	 call	 _atexit
  0000a	59		 pop	 ecx
  0000b	c3		 ret	 0
??__E?ms_kPool@?$CPooledObject@VCTextureAnimationRandomDecorator@NEffectUpdateDecorator@@@@1V?$CDynamicPoolEx@VCTextureAnimationRandomDecorator@NEffectUpdateDecorator@@@@A@@YAXXZ ENDP ; `dynamic initializer for 'CPooledObject<NEffectUpdateDecorator::CTextureAnimationRandomDecorator>::ms_kPool''
text$di	ENDS
; Function compile flags: /Ogtp
;	COMDAT ??__F?ms_kPool@?$CPooledObject@VCTextureAnimationCCWDecorator@NEffectUpdateDecorator@@@@1V?$CDynamicPoolEx@VCTextureAnimationCCWDecorator@NEffectUpdateDecorator@@@@A@@YAXXZ
text$yd	SEGMENT
??__F?ms_kPool@?$CPooledObject@VCTextureAnimationCCWDecorator@NEffectUpdateDecorator@@@@1V?$CDynamicPoolEx@VCTextureAnimationCCWDecorator@NEffectUpdateDecorator@@@@A@@YAXXZ PROC ; `dynamic atexit destructor for 'CPooledObject<NEffectUpdateDecorator::CTextureAnimationCCWDecorator>::ms_kPool'', COMDAT
  00000	b9 00 00 00 00	 mov	 ecx, OFFSET ?ms_kPool@?$CPooledObject@VCTextureAnimationCCWDecorator@NEffectUpdateDecorator@@@@1V?$CDynamicPoolEx@VCTextureAnimationCCWDecorator@NEffectUpdateDecorator@@@@A ; CPooledObject<NEffectUpdateDecorator::CTextureAnimationCCWDecorator>::ms_kPool
  00005	e9 00 00 00 00	 jmp	 ??1?$CDynamicPoolEx@VCTextureAnimationCCWDecorator@NEffectUpdateDecorator@@@@UAE@XZ ; CDynamicPoolEx<NEffectUpdateDecorator::CTextureAnimationCCWDecorator>::~CDynamicPoolEx<NEffectUpdateDecorator::CTextureAnimationCCWDecorator>
??__F?ms_kPool@?$CPooledObject@VCTextureAnimationCCWDecorator@NEffectUpdateDecorator@@@@1V?$CDynamicPoolEx@VCTextureAnimationCCWDecorator@NEffectUpdateDecorator@@@@A@@YAXXZ ENDP ; `dynamic atexit destructor for 'CPooledObject<NEffectUpdateDecorator::CTextureAnimationCCWDecorator>::ms_kPool''
text$yd	ENDS
; Function compile flags: /Ogtp
; File C:\Users\ALEXANDER\Desktop\Cliente\COPY_FISH_WON_NEW\Binario\Client\eterlib\Pool.h
;	COMDAT ??__E?ms_kPool@?$CPooledObject@VCTextureAnimationCCWDecorator@NEffectUpdateDecorator@@@@1V?$CDynamicPoolEx@VCTextureAnimationCCWDecorator@NEffectUpdateDecorator@@@@A@@YAXXZ
text$di	SEGMENT
??__E?ms_kPool@?$CPooledObject@VCTextureAnimationCCWDecorator@NEffectUpdateDecorator@@@@1V?$CDynamicPoolEx@VCTextureAnimationCCWDecorator@NEffectUpdateDecorator@@@@A@@YAXXZ PROC ; `dynamic initializer for 'CPooledObject<NEffectUpdateDecorator::CTextureAnimationCCWDecorator>::ms_kPool'', COMDAT

; 272  : template <class T> CDynamicPoolEx<T> CPooledObject<T>::ms_kPool;

  00000	68 00 00 00 00	 push	 OFFSET ??__F?ms_kPool@?$CPooledObject@VCTextureAnimationCCWDecorator@NEffectUpdateDecorator@@@@1V?$CDynamicPoolEx@VCTextureAnimationCCWDecorator@NEffectUpdateDecorator@@@@A@@YAXXZ ; `dynamic atexit destructor for 'CPooledObject<NEffectUpdateDecorator::CTextureAnimationCCWDecorator>::ms_kPool''
  00005	e8 00 00 00 00	 call	 _atexit
  0000a	59		 pop	 ecx
  0000b	c3		 ret	 0
??__E?ms_kPool@?$CPooledObject@VCTextureAnimationCCWDecorator@NEffectUpdateDecorator@@@@1V?$CDynamicPoolEx@VCTextureAnimationCCWDecorator@NEffectUpdateDecorator@@@@A@@YAXXZ ENDP ; `dynamic initializer for 'CPooledObject<NEffectUpdateDecorator::CTextureAnimationCCWDecorator>::ms_kPool''
text$di	ENDS
; Function compile flags: /Ogtp
;	COMDAT ??__F?ms_kPool@?$CPooledObject@VCTextureAnimationCWDecorator@NEffectUpdateDecorator@@@@1V?$CDynamicPoolEx@VCTextureAnimationCWDecorator@NEffectUpdateDecorator@@@@A@@YAXXZ
text$yd	SEGMENT
??__F?ms_kPool@?$CPooledObject@VCTextureAnimationCWDecorator@NEffectUpdateDecorator@@@@1V?$CDynamicPoolEx@VCTextureAnimationCWDecorator@NEffectUpdateDecorator@@@@A@@YAXXZ PROC ; `dynamic atexit destructor for 'CPooledObject<NEffectUpdateDecorator::CTextureAnimationCWDecorator>::ms_kPool'', COMDAT
  00000	b9 00 00 00 00	 mov	 ecx, OFFSET ?ms_kPool@?$CPooledObject@VCTextureAnimationCWDecorator@NEffectUpdateDecorator@@@@1V?$CDynamicPoolEx@VCTextureAnimationCWDecorator@NEffectUpdateDecorator@@@@A ; CPooledObject<NEffectUpdateDecorator::CTextureAnimationCWDecorator>::ms_kPool
  00005	e9 00 00 00 00	 jmp	 ??1?$CDynamicPoolEx@VCTextureAnimationCWDecorator@NEffectUpdateDecorator@@@@UAE@XZ ; CDynamicPoolEx<NEffectUpdateDecorator::CTextureAnimationCWDecorator>::~CDynamicPoolEx<NEffectUpdateDecorator::CTextureAnimationCWDecorator>
??__F?ms_kPool@?$CPooledObject@VCTextureAnimationCWDecorator@NEffectUpdateDecorator@@@@1V?$CDynamicPoolEx@VCTextureAnimationCWDecorator@NEffectUpdateDecorator@@@@A@@YAXXZ ENDP ; `dynamic atexit destructor for 'CPooledObject<NEffectUpdateDecorator::CTextureAnimationCWDecorator>::ms_kPool''
text$yd	ENDS
; Function compile flags: /Ogtp
; File C:\Users\ALEXANDER\Desktop\Cliente\COPY_FISH_WON_NEW\Binario\Client\eterlib\Pool.h
;	COMDAT ??__E?ms_kPool@?$CPooledObject@VCTextureAnimationCWDecorator@NEffectUpdateDecorator@@@@1V?$CDynamicPoolEx@VCTextureAnimationCWDecorator@NEffectUpdateDecorator@@@@A@@YAXXZ
text$di	SEGMENT
??__E?ms_kPool@?$CPooledObject@VCTextureAnimationCWDecorator@NEffectUpdateDecorator@@@@1V?$CDynamicPoolEx@VCTextureAnimationCWDecorator@NEffectUpdateDecorator@@@@A@@YAXXZ PROC ; `dynamic initializer for 'CPooledObject<NEffectUpdateDecorator::CTextureAnimationCWDecorator>::ms_kPool'', COMDAT

; 272  : template <class T> CDynamicPoolEx<T> CPooledObject<T>::ms_kPool;

  00000	68 00 00 00 00	 push	 OFFSET ??__F?ms_kPool@?$CPooledObject@VCTextureAnimationCWDecorator@NEffectUpdateDecorator@@@@1V?$CDynamicPoolEx@VCTextureAnimationCWDecorator@NEffectUpdateDecorator@@@@A@@YAXXZ ; `dynamic atexit destructor for 'CPooledObject<NEffectUpdateDecorator::CTextureAnimationCWDecorator>::ms_kPool''
  00005	e8 00 00 00 00	 call	 _atexit
  0000a	59		 pop	 ecx
  0000b	c3		 ret	 0
??__E?ms_kPool@?$CPooledObject@VCTextureAnimationCWDecorator@NEffectUpdateDecorator@@@@1V?$CDynamicPoolEx@VCTextureAnimationCWDecorator@NEffectUpdateDecorator@@@@A@@YAXXZ ENDP ; `dynamic initializer for 'CPooledObject<NEffectUpdateDecorator::CTextureAnimationCWDecorator>::ms_kPool''
text$di	ENDS
; Function compile flags: /Ogtp
;	COMDAT ??__F?ms_kPool@?$CPooledObject@VCNullDecorator@NEffectUpdateDecorator@@@@1V?$CDynamicPoolEx@VCNullDecorator@NEffectUpdateDecorator@@@@A@@YAXXZ
text$yd	SEGMENT
??__F?ms_kPool@?$CPooledObject@VCNullDecorator@NEffectUpdateDecorator@@@@1V?$CDynamicPoolEx@VCNullDecorator@NEffectUpdateDecorator@@@@A@@YAXXZ PROC ; `dynamic atexit destructor for 'CPooledObject<NEffectUpdateDecorator::CNullDecorator>::ms_kPool'', COMDAT
  00000	b9 00 00 00 00	 mov	 ecx, OFFSET ?ms_kPool@?$CPooledObject@VCNullDecorator@NEffectUpdateDecorator@@@@1V?$CDynamicPoolEx@VCNullDecorator@NEffectUpdateDecorator@@@@A ; CPooledObject<NEffectUpdateDecorator::CNullDecorator>::ms_kPool
  00005	e9 00 00 00 00	 jmp	 ??1?$CDynamicPoolEx@VCNullDecorator@NEffectUpdateDecorator@@@@UAE@XZ ; CDynamicPoolEx<NEffectUpdateDecorator::CNullDecorator>::~CDynamicPoolEx<NEffectUpdateDecorator::CNullDecorator>
??__F?ms_kPool@?$CPooledObject@VCNullDecorator@NEffectUpdateDecorator@@@@1V?$CDynamicPoolEx@VCNullDecorator@NEffectUpdateDecorator@@@@A@@YAXXZ ENDP ; `dynamic atexit destructor for 'CPooledObject<NEffectUpdateDecorator::CNullDecorator>::ms_kPool''
text$yd	ENDS
; Function compile flags: /Ogtp
; File C:\Users\ALEXANDER\Desktop\Cliente\COPY_FISH_WON_NEW\Binario\Client\eterlib\Pool.h
;	COMDAT ??__E?ms_kPool@?$CPooledObject@VCNullDecorator@NEffectUpdateDecorator@@@@1V?$CDynamicPoolEx@VCNullDecorator@NEffectUpdateDecorator@@@@A@@YAXXZ
text$di	SEGMENT
??__E?ms_kPool@?$CPooledObject@VCNullDecorator@NEffectUpdateDecorator@@@@1V?$CDynamicPoolEx@VCNullDecorator@NEffectUpdateDecorator@@@@A@@YAXXZ PROC ; `dynamic initializer for 'CPooledObject<NEffectUpdateDecorator::CNullDecorator>::ms_kPool'', COMDAT

; 272  : template <class T> CDynamicPoolEx<T> CPooledObject<T>::ms_kPool;

  00000	68 00 00 00 00	 push	 OFFSET ??__F?ms_kPool@?$CPooledObject@VCNullDecorator@NEffectUpdateDecorator@@@@1V?$CDynamicPoolEx@VCNullDecorator@NEffectUpdateDecorator@@@@A@@YAXXZ ; `dynamic atexit destructor for 'CPooledObject<NEffectUpdateDecorator::CNullDecorator>::ms_kPool''
  00005	e8 00 00 00 00	 call	 _atexit
  0000a	59		 pop	 ecx
  0000b	c3		 ret	 0
??__E?ms_kPool@?$CPooledObject@VCNullDecorator@NEffectUpdateDecorator@@@@1V?$CDynamicPoolEx@VCNullDecorator@NEffectUpdateDecorator@@@@A@@YAXXZ ENDP ; `dynamic initializer for 'CPooledObject<NEffectUpdateDecorator::CNullDecorator>::ms_kPool''
text$di	ENDS
; Function compile flags: /Ogtp
;	COMDAT ??__F?ms_kPool@?$CPooledObject@VCHeaderDecorator@NEffectUpdateDecorator@@@@1V?$CDynamicPoolEx@VCHeaderDecorator@NEffectUpdateDecorator@@@@A@@YAXXZ
text$yd	SEGMENT
??__F?ms_kPool@?$CPooledObject@VCHeaderDecorator@NEffectUpdateDecorator@@@@1V?$CDynamicPoolEx@VCHeaderDecorator@NEffectUpdateDecorator@@@@A@@YAXXZ PROC ; `dynamic atexit destructor for 'CPooledObject<NEffectUpdateDecorator::CHeaderDecorator>::ms_kPool'', COMDAT
  00000	b9 00 00 00 00	 mov	 ecx, OFFSET ?ms_kPool@?$CPooledObject@VCHeaderDecorator@NEffectUpdateDecorator@@@@1V?$CDynamicPoolEx@VCHeaderDecorator@NEffectUpdateDecorator@@@@A ; CPooledObject<NEffectUpdateDecorator::CHeaderDecorator>::ms_kPool
  00005	e9 00 00 00 00	 jmp	 ??1?$CDynamicPoolEx@VCHeaderDecorator@NEffectUpdateDecorator@@@@UAE@XZ ; CDynamicPoolEx<NEffectUpdateDecorator::CHeaderDecorator>::~CDynamicPoolEx<NEffectUpdateDecorator::CHeaderDecorator>
??__F?ms_kPool@?$CPooledObject@VCHeaderDecorator@NEffectUpdateDecorator@@@@1V?$CDynamicPoolEx@VCHeaderDecorator@NEffectUpdateDecorator@@@@A@@YAXXZ ENDP ; `dynamic atexit destructor for 'CPooledObject<NEffectUpdateDecorator::CHeaderDecorator>::ms_kPool''
text$yd	ENDS
; Function compile flags: /Ogtp
; File C:\Users\ALEXANDER\Desktop\Cliente\COPY_FISH_WON_NEW\Binario\Client\eterlib\Pool.h
;	COMDAT ??__E?ms_kPool@?$CPooledObject@VCHeaderDecorator@NEffectUpdateDecorator@@@@1V?$CDynamicPoolEx@VCHeaderDecorator@NEffectUpdateDecorator@@@@A@@YAXXZ
text$di	SEGMENT
??__E?ms_kPool@?$CPooledObject@VCHeaderDecorator@NEffectUpdateDecorator@@@@1V?$CDynamicPoolEx@VCHeaderDecorator@NEffectUpdateDecorator@@@@A@@YAXXZ PROC ; `dynamic initializer for 'CPooledObject<NEffectUpdateDecorator::CHeaderDecorator>::ms_kPool'', COMDAT

; 272  : template <class T> CDynamicPoolEx<T> CPooledObject<T>::ms_kPool;

  00000	68 00 00 00 00	 push	 OFFSET ??__F?ms_kPool@?$CPooledObject@VCHeaderDecorator@NEffectUpdateDecorator@@@@1V?$CDynamicPoolEx@VCHeaderDecorator@NEffectUpdateDecorator@@@@A@@YAXXZ ; `dynamic atexit destructor for 'CPooledObject<NEffectUpdateDecorator::CHeaderDecorator>::ms_kPool''
  00005	e8 00 00 00 00	 call	 _atexit
  0000a	59		 pop	 ecx
  0000b	c3		 ret	 0
??__E?ms_kPool@?$CPooledObject@VCHeaderDecorator@NEffectUpdateDecorator@@@@1V?$CDynamicPoolEx@VCHeaderDecorator@NEffectUpdateDecorator@@@@A@@YAXXZ ENDP ; `dynamic initializer for 'CPooledObject<NEffectUpdateDecorator::CHeaderDecorator>::ms_kPool''
text$di	ENDS
; Function compile flags: /Ogtp
;	COMDAT ??_G?$CDynamicPoolEx@VCHeaderDecorator@NEffectUpdateDecorator@@@@UAEPAXI@Z
_TEXT	SEGMENT
___flags$ = 8						; size = 4
??_G?$CDynamicPoolEx@VCHeaderDecorator@NEffectUpdateDecorator@@@@UAEPAXI@Z PROC ; CDynamicPoolEx<NEffectUpdateDecorator::CHeaderDecorator>::`scalar deleting destructor', COMDAT
; _this$ = ecx
  00000	55		 push	 ebp
  00001	8b ec		 mov	 ebp, esp
  00003	56		 push	 esi
  00004	8b f1		 mov	 esi, ecx
  00006	e8 00 00 00 00	 call	 ??1?$CDynamicPoolEx@VCHeaderDecorator@NEffectUpdateDecorator@@@@UAE@XZ ; CDynamicPoolEx<NEffectUpdateDecorator::CHeaderDecorator>::~CDynamicPoolEx<NEffectUpdateDecorator::CHeaderDecorator>
  0000b	f6 45 08 01	 test	 BYTE PTR ___flags$[ebp], 1
  0000f	74 0b		 je	 SHORT $LN4@scalar
  00011	6a 24		 push	 36			; 00000024H
  00013	56		 push	 esi
  00014	e8 00 00 00 00	 call	 ??3@YAXPAXI@Z		; operator delete
  00019	83 c4 08	 add	 esp, 8
$LN4@scalar:
  0001c	8b c6		 mov	 eax, esi
  0001e	5e		 pop	 esi
  0001f	5d		 pop	 ebp
  00020	c2 04 00	 ret	 4
??_G?$CDynamicPoolEx@VCHeaderDecorator@NEffectUpdateDecorator@@@@UAEPAXI@Z ENDP ; CDynamicPoolEx<NEffectUpdateDecorator::CHeaderDecorator>::`scalar deleting destructor'
_TEXT	ENDS
; Function compile flags: /Ogtp
; File C:\Users\ALEXANDER\Desktop\Cliente\COPY_FISH_WON_NEW\Binario\Client\eterlib\Pool.h
;	COMDAT ?Delete@?$CDynamicPoolEx@VCHeaderDecorator@NEffectUpdateDecorator@@@@KAXPAVCHeaderDecorator@NEffectUpdateDecorator@@@Z
_TEXT	SEGMENT
_pkData$ = 8						; size = 4
?Delete@?$CDynamicPoolEx@VCHeaderDecorator@NEffectUpdateDecorator@@@@KAXPAVCHeaderDecorator@NEffectUpdateDecorator@@@Z PROC ; CDynamicPoolEx<NEffectUpdateDecorator::CHeaderDecorator>::Delete, COMDAT

; 224  : 			::operator delete(pkData);

  00000	e9 00 00 00 00	 jmp	 ??3@YAXPAX@Z		; operator delete
?Delete@?$CDynamicPoolEx@VCHeaderDecorator@NEffectUpdateDecorator@@@@KAXPAVCHeaderDecorator@NEffectUpdateDecorator@@@Z ENDP ; CDynamicPoolEx<NEffectUpdateDecorator::CHeaderDecorator>::Delete
_TEXT	ENDS
; Function compile flags: /Ogtp
; File C:\Users\ALEXANDER\Desktop\Cliente\COPY_FISH_WON_NEW\Binario\Client\eterlib\Pool.h
; File D:\visual studio 2019\visual studio 2019\VC\Tools\MSVC\14.29.30133\include\vector
; File D:\visual studio 2019\visual studio 2019\VC\Tools\MSVC\14.29.30133\include\algorithm
; File C:\Users\ALEXANDER\Desktop\Cliente\COPY_FISH_WON_NEW\Binario\Client\eterlib\Pool.h
; File D:\visual studio 2019\visual studio 2019\VC\Tools\MSVC\14.29.30133\include\algorithm
; File C:\Users\ALEXANDER\Desktop\Cliente\COPY_FISH_WON_NEW\Binario\Client\eterlib\Pool.h
; File D:\visual studio 2019\visual studio 2019\VC\Tools\MSVC\14.29.30133\include\algorithm
; File C:\Users\ALEXANDER\Desktop\Cliente\COPY_FISH_WON_NEW\Binario\Client\eterlib\Pool.h
; File D:\visual studio 2019\visual studio 2019\VC\Tools\MSVC\14.29.30133\include\vector
; File D:\visual studio 2019\visual studio 2019\VC\Tools\MSVC\14.29.30133\include\xmemory
; File D:\visual studio 2019\visual studio 2019\VC\Tools\MSVC\14.29.30133\include\vector
; File D:\visual studio 2019\visual studio 2019\VC\Tools\MSVC\14.29.30133\include\xmemory
; File D:\visual studio 2019\visual studio 2019\VC\Tools\MSVC\14.29.30133\include\vector
; File D:\visual studio 2019\visual studio 2019\VC\Tools\MSVC\14.29.30133\include\xmemory
; File D:\visual studio 2019\visual studio 2019\VC\Tools\MSVC\14.29.30133\include\vector
; File D:\visual studio 2019\visual studio 2019\VC\Tools\MSVC\14.29.30133\include\xmemory
; File D:\visual studio 2019\visual studio 2019\VC\Tools\MSVC\14.29.30133\include\vector
; File C:\Users\ALEXANDER\Desktop\Cliente\COPY_FISH_WON_NEW\Binario\Client\eterlib\Pool.h
; File D:\visual studio 2019\visual studio 2019\VC\Tools\MSVC\14.29.30133\include\xmemory
; File C:\Users\ALEXANDER\Desktop\Cliente\COPY_FISH_WON_NEW\Binario\Client\eterlib\Pool.h
;	COMDAT ??1?$CDynamicPoolEx@VCHeaderDecorator@NEffectUpdateDecorator@@@@UAE@XZ
_TEXT	SEGMENT
??1?$CDynamicPoolEx@VCHeaderDecorator@NEffectUpdateDecorator@@@@UAE@XZ PROC ; CDynamicPoolEx<NEffectUpdateDecorator::CHeaderDecorator>::~CDynamicPoolEx<NEffectUpdateDecorator::CHeaderDecorator>, COMDAT
; _this$ = ecx

; 132  : 		{

  00000	53		 push	 ebx
  00001	56		 push	 esi
  00002	57		 push	 edi
  00003	8b f9		 mov	 edi, ecx
  00005	c7 07 00 00 00
	00		 mov	 DWORD PTR [edi], OFFSET ??_7?$CDynamicPoolEx@VCHeaderDecorator@NEffectUpdateDecorator@@@@6B@
; File D:\visual studio 2019\visual studio 2019\VC\Tools\MSVC\14.29.30133\include\vector

; 41   :     _CONSTEXPR20_CONTAINER _Vector_const_iterator(_Tptr _Parg, const _Container_base* _Pvector) noexcept : _Ptr(_Parg) {

  0000b	8b 5f 08	 mov	 ebx, DWORD PTR [edi+8]
  0000e	8b 77 04	 mov	 esi, DWORD PTR [edi+4]
; File D:\visual studio 2019\visual studio 2019\VC\Tools\MSVC\14.29.30133\include\algorithm

; 232  :     for (; _UFirst != _ULast; ++_UFirst) {

  00011	3b f3		 cmp	 esi, ebx
  00013	74 14		 je	 SHORT $LN19@CDynamicPo
$LL20@CDynamicPo:
; File C:\Users\ALEXANDER\Desktop\Cliente\COPY_FISH_WON_NEW\Binario\Client\eterlib\Pool.h

; 224  : 			::operator delete(pkData);

  00015	ff 36		 push	 DWORD PTR [esi]
  00017	e8 00 00 00 00	 call	 ??3@YAXPAX@Z		; operator delete
; File D:\visual studio 2019\visual studio 2019\VC\Tools\MSVC\14.29.30133\include\algorithm

; 232  :     for (; _UFirst != _ULast; ++_UFirst) {

  0001c	83 c6 04	 add	 esi, 4
; File C:\Users\ALEXANDER\Desktop\Cliente\COPY_FISH_WON_NEW\Binario\Client\eterlib\Pool.h

; 224  : 			::operator delete(pkData);

  0001f	83 c4 04	 add	 esp, 4
; File D:\visual studio 2019\visual studio 2019\VC\Tools\MSVC\14.29.30133\include\algorithm

; 232  :     for (; _UFirst != _ULast; ++_UFirst) {

  00022	3b f3		 cmp	 esi, ebx
  00024	75 ef		 jne	 SHORT $LL20@CDynamicPo
  00026	8b 77 04	 mov	 esi, DWORD PTR [edi+4]
$LN19@CDynamicPo:
; File C:\Users\ALEXANDER\Desktop\Cliente\COPY_FISH_WON_NEW\Binario\Client\eterlib\Pool.h

; 162  : 			m_kVct_pkFree.clear();

  00029	8b 47 10	 mov	 eax, DWORD PTR [edi+16]
  0002c	89 77 08	 mov	 DWORD PTR [edi+8], esi
  0002f	89 47 14	 mov	 DWORD PTR [edi+20], eax
; File D:\visual studio 2019\visual studio 2019\VC\Tools\MSVC\14.29.30133\include\vector

; 1750 :         if (_Myfirst) { // destroy and deallocate old array

  00032	85 c0		 test	 eax, eax
  00034	74 41		 je	 SHORT $LN27@CDynamicPo

; 1751 :             _Destroy(_Myfirst, _Mylast);
; 1752 :             _Getal().deallocate(_Myfirst, static_cast<size_type>(_Myend - _Myfirst));

  00036	8b 4f 18	 mov	 ecx, DWORD PTR [edi+24]
  00039	2b c8		 sub	 ecx, eax
; File D:\visual studio 2019\visual studio 2019\VC\Tools\MSVC\14.29.30133\include\xmemory

; 797  :         _Deallocate<_New_alignof<_Ty>>(_Ptr, sizeof(_Ty) * _Count);

  0003b	83 e1 fc	 and	 ecx, -4			; fffffffcH

; 251  :         if (_Bytes >= _Big_allocation_threshold) { // boost the alignment of big allocations to help autovectorization

  0003e	81 f9 00 10 00
	00		 cmp	 ecx, 4096		; 00001000H
  00044	72 12		 jb	 SHORT $LN43@CDynamicPo

; 150  :     const uintptr_t _Ptr_container   = _Ptr_user[-1];

  00046	8b 50 fc	 mov	 edx, DWORD PTR [eax-4]
  00049	83 c1 23	 add	 ecx, 35			; 00000023H

; 151  : 
; 152  :     // If the following asserts, it likely means that we are performing
; 153  :     // an aligned delete on memory coming from an unaligned allocation.
; 154  :     _STL_ASSERT(_Ptr_user[-2] == _Big_allocation_sentinel, "invalid argument");
; 155  : 
; 156  :     // Extra paranoia on aligned allocation/deallocation; ensure _Ptr_container is
; 157  :     // in range [_Min_back_shift, _Non_user_size]
; 158  : #ifdef _DEBUG
; 159  :     constexpr uintptr_t _Min_back_shift = 2 * sizeof(void*);
; 160  : #else // ^^^ _DEBUG ^^^ // vvv !_DEBUG vvv
; 161  :     constexpr uintptr_t _Min_back_shift = sizeof(void*);
; 162  : #endif // _DEBUG
; 163  :     const uintptr_t _Back_shift = reinterpret_cast<uintptr_t>(_Ptr) - _Ptr_container;

  0004c	2b c2		 sub	 eax, edx

; 164  :     _STL_VERIFY(_Back_shift >= _Min_back_shift && _Back_shift <= _Non_user_size, "invalid argument");

  0004e	83 c0 fc	 add	 eax, -4			; fffffffcH
  00051	83 f8 1f	 cmp	 eax, 31			; 0000001fH
  00054	77 6d		 ja	 SHORT $LN65@CDynamicPo

; 165  :     _Ptr = reinterpret_cast<void*>(_Ptr_container);

  00056	8b c2		 mov	 eax, edx
$LN43@CDynamicPo:

; 255  :         ::operator delete(_Ptr, _Bytes);

  00058	51		 push	 ecx
  00059	50		 push	 eax
  0005a	e8 00 00 00 00	 call	 ??3@YAXPAXI@Z		; operator delete
; File D:\visual studio 2019\visual studio 2019\VC\Tools\MSVC\14.29.30133\include\vector

; 1754 :             _Myfirst = nullptr;

  0005f	c7 47 10 00 00
	00 00		 mov	 DWORD PTR [edi+16], 0
; File D:\visual studio 2019\visual studio 2019\VC\Tools\MSVC\14.29.30133\include\xmemory

; 255  :         ::operator delete(_Ptr, _Bytes);

  00066	83 c4 08	 add	 esp, 8
; File D:\visual studio 2019\visual studio 2019\VC\Tools\MSVC\14.29.30133\include\vector

; 1755 :             _Mylast  = nullptr;

  00069	c7 47 14 00 00
	00 00		 mov	 DWORD PTR [edi+20], 0

; 1756 :             _Myend   = nullptr;

  00070	c7 47 18 00 00
	00 00		 mov	 DWORD PTR [edi+24], 0
$LN27@CDynamicPo:

; 1750 :         if (_Myfirst) { // destroy and deallocate old array

  00077	8b 47 04	 mov	 eax, DWORD PTR [edi+4]
  0007a	85 c0		 test	 eax, eax
  0007c	74 41		 je	 SHORT $LN52@CDynamicPo

; 1751 :             _Destroy(_Myfirst, _Mylast);
; 1752 :             _Getal().deallocate(_Myfirst, static_cast<size_type>(_Myend - _Myfirst));

  0007e	8b 4f 0c	 mov	 ecx, DWORD PTR [edi+12]
  00081	2b c8		 sub	 ecx, eax
; File D:\visual studio 2019\visual studio 2019\VC\Tools\MSVC\14.29.30133\include\xmemory

; 797  :         _Deallocate<_New_alignof<_Ty>>(_Ptr, sizeof(_Ty) * _Count);

  00083	83 e1 fc	 and	 ecx, -4			; fffffffcH

; 251  :         if (_Bytes >= _Big_allocation_threshold) { // boost the alignment of big allocations to help autovectorization

  00086	81 f9 00 10 00
	00		 cmp	 ecx, 4096		; 00001000H
  0008c	72 12		 jb	 SHORT $LN68@CDynamicPo

; 150  :     const uintptr_t _Ptr_container   = _Ptr_user[-1];

  0008e	8b 50 fc	 mov	 edx, DWORD PTR [eax-4]
  00091	83 c1 23	 add	 ecx, 35			; 00000023H

; 151  : 
; 152  :     // If the following asserts, it likely means that we are performing
; 153  :     // an aligned delete on memory coming from an unaligned allocation.
; 154  :     _STL_ASSERT(_Ptr_user[-2] == _Big_allocation_sentinel, "invalid argument");
; 155  : 
; 156  :     // Extra paranoia on aligned allocation/deallocation; ensure _Ptr_container is
; 157  :     // in range [_Min_back_shift, _Non_user_size]
; 158  : #ifdef _DEBUG
; 159  :     constexpr uintptr_t _Min_back_shift = 2 * sizeof(void*);
; 160  : #else // ^^^ _DEBUG ^^^ // vvv !_DEBUG vvv
; 161  :     constexpr uintptr_t _Min_back_shift = sizeof(void*);
; 162  : #endif // _DEBUG
; 163  :     const uintptr_t _Back_shift = reinterpret_cast<uintptr_t>(_Ptr) - _Ptr_container;

  00094	2b c2		 sub	 eax, edx

; 164  :     _STL_VERIFY(_Back_shift >= _Min_back_shift && _Back_shift <= _Non_user_size, "invalid argument");

  00096	83 c0 fc	 add	 eax, -4			; fffffffcH
  00099	83 f8 1f	 cmp	 eax, 31			; 0000001fH
  0009c	77 25		 ja	 SHORT $LN65@CDynamicPo

; 165  :     _Ptr = reinterpret_cast<void*>(_Ptr_container);

  0009e	8b c2		 mov	 eax, edx
$LN68@CDynamicPo:

; 255  :         ::operator delete(_Ptr, _Bytes);

  000a0	51		 push	 ecx
  000a1	50		 push	 eax
  000a2	e8 00 00 00 00	 call	 ??3@YAXPAXI@Z		; operator delete
; File D:\visual studio 2019\visual studio 2019\VC\Tools\MSVC\14.29.30133\include\vector

; 1754 :             _Myfirst = nullptr;

  000a7	c7 47 04 00 00
	00 00		 mov	 DWORD PTR [edi+4], 0
; File D:\visual studio 2019\visual studio 2019\VC\Tools\MSVC\14.29.30133\include\xmemory

; 255  :         ::operator delete(_Ptr, _Bytes);

  000ae	83 c4 08	 add	 esp, 8
; File D:\visual studio 2019\visual studio 2019\VC\Tools\MSVC\14.29.30133\include\vector

; 1755 :             _Mylast  = nullptr;

  000b1	c7 47 08 00 00
	00 00		 mov	 DWORD PTR [edi+8], 0

; 1756 :             _Myend   = nullptr;

  000b8	c7 47 0c 00 00
	00 00		 mov	 DWORD PTR [edi+12], 0
$LN52@CDynamicPo:
  000bf	5f		 pop	 edi
; File C:\Users\ALEXANDER\Desktop\Cliente\COPY_FISH_WON_NEW\Binario\Client\eterlib\Pool.h

; 142  : 		}

  000c0	5e		 pop	 esi
  000c1	5b		 pop	 ebx
  000c2	c3		 ret	 0
$LN65@CDynamicPo:
; File D:\visual studio 2019\visual studio 2019\VC\Tools\MSVC\14.29.30133\include\xmemory

; 164  :     _STL_VERIFY(_Back_shift >= _Min_back_shift && _Back_shift <= _Non_user_size, "invalid argument");

  000c3	e8 00 00 00 00	 call	 __invalid_parameter_noinfo_noreturn
$LN77@CDynamicPo:
  000c8	cc		 int	 3
??1?$CDynamicPoolEx@VCHeaderDecorator@NEffectUpdateDecorator@@@@UAE@XZ ENDP ; CDynamicPoolEx<NEffectUpdateDecorator::CHeaderDecorator>::~CDynamicPoolEx<NEffectUpdateDecorator::CHeaderDecorator>
_TEXT	ENDS
; Function compile flags: /Ogtp
;	COMDAT ??_G?$CDynamicPoolEx@VCNullDecorator@NEffectUpdateDecorator@@@@UAEPAXI@Z
_TEXT	SEGMENT
___flags$ = 8						; size = 4
??_G?$CDynamicPoolEx@VCNullDecorator@NEffectUpdateDecorator@@@@UAEPAXI@Z PROC ; CDynamicPoolEx<NEffectUpdateDecorator::CNullDecorator>::`scalar deleting destructor', COMDAT
; _this$ = ecx
  00000	55		 push	 ebp
  00001	8b ec		 mov	 ebp, esp
  00003	56		 push	 esi
  00004	8b f1		 mov	 esi, ecx
  00006	e8 00 00 00 00	 call	 ??1?$CDynamicPoolEx@VCNullDecorator@NEffectUpdateDecorator@@@@UAE@XZ ; CDynamicPoolEx<NEffectUpdateDecorator::CNullDecorator>::~CDynamicPoolEx<NEffectUpdateDecorator::CNullDecorator>
  0000b	f6 45 08 01	 test	 BYTE PTR ___flags$[ebp], 1
  0000f	74 0b		 je	 SHORT $LN4@scalar
  00011	6a 24		 push	 36			; 00000024H
  00013	56		 push	 esi
  00014	e8 00 00 00 00	 call	 ??3@YAXPAXI@Z		; operator delete
  00019	83 c4 08	 add	 esp, 8
$LN4@scalar:
  0001c	8b c6		 mov	 eax, esi
  0001e	5e		 pop	 esi
  0001f	5d		 pop	 ebp
  00020	c2 04 00	 ret	 4
??_G?$CDynamicPoolEx@VCNullDecorator@NEffectUpdateDecorator@@@@UAEPAXI@Z ENDP ; CDynamicPoolEx<NEffectUpdateDecorator::CNullDecorator>::`scalar deleting destructor'
_TEXT	ENDS
; Function compile flags: /Ogtp
; File C:\Users\ALEXANDER\Desktop\Cliente\COPY_FISH_WON_NEW\Binario\Client\eterlib\Pool.h
;	COMDAT ?Delete@?$CDynamicPoolEx@VCNullDecorator@NEffectUpdateDecorator@@@@KAXPAVCNullDecorator@NEffectUpdateDecorator@@@Z
_TEXT	SEGMENT
_pkData$ = 8						; size = 4
?Delete@?$CDynamicPoolEx@VCNullDecorator@NEffectUpdateDecorator@@@@KAXPAVCNullDecorator@NEffectUpdateDecorator@@@Z PROC ; CDynamicPoolEx<NEffectUpdateDecorator::CNullDecorator>::Delete, COMDAT

; 224  : 			::operator delete(pkData);

  00000	e9 00 00 00 00	 jmp	 ??3@YAXPAX@Z		; operator delete
?Delete@?$CDynamicPoolEx@VCNullDecorator@NEffectUpdateDecorator@@@@KAXPAVCNullDecorator@NEffectUpdateDecorator@@@Z ENDP ; CDynamicPoolEx<NEffectUpdateDecorator::CNullDecorator>::Delete
_TEXT	ENDS
; Function compile flags: /Ogtp
; File C:\Users\ALEXANDER\Desktop\Cliente\COPY_FISH_WON_NEW\Binario\Client\eterlib\Pool.h
; File D:\visual studio 2019\visual studio 2019\VC\Tools\MSVC\14.29.30133\include\vector
; File D:\visual studio 2019\visual studio 2019\VC\Tools\MSVC\14.29.30133\include\algorithm
; File C:\Users\ALEXANDER\Desktop\Cliente\COPY_FISH_WON_NEW\Binario\Client\eterlib\Pool.h
; File D:\visual studio 2019\visual studio 2019\VC\Tools\MSVC\14.29.30133\include\algorithm
; File C:\Users\ALEXANDER\Desktop\Cliente\COPY_FISH_WON_NEW\Binario\Client\eterlib\Pool.h
; File D:\visual studio 2019\visual studio 2019\VC\Tools\MSVC\14.29.30133\include\algorithm
; File C:\Users\ALEXANDER\Desktop\Cliente\COPY_FISH_WON_NEW\Binario\Client\eterlib\Pool.h
; File D:\visual studio 2019\visual studio 2019\VC\Tools\MSVC\14.29.30133\include\vector
; File D:\visual studio 2019\visual studio 2019\VC\Tools\MSVC\14.29.30133\include\xmemory
; File D:\visual studio 2019\visual studio 2019\VC\Tools\MSVC\14.29.30133\include\vector
; File D:\visual studio 2019\visual studio 2019\VC\Tools\MSVC\14.29.30133\include\xmemory
; File D:\visual studio 2019\visual studio 2019\VC\Tools\MSVC\14.29.30133\include\vector
; File D:\visual studio 2019\visual studio 2019\VC\Tools\MSVC\14.29.30133\include\xmemory
; File D:\visual studio 2019\visual studio 2019\VC\Tools\MSVC\14.29.30133\include\vector
; File D:\visual studio 2019\visual studio 2019\VC\Tools\MSVC\14.29.30133\include\xmemory
; File D:\visual studio 2019\visual studio 2019\VC\Tools\MSVC\14.29.30133\include\vector
; File C:\Users\ALEXANDER\Desktop\Cliente\COPY_FISH_WON_NEW\Binario\Client\eterlib\Pool.h
; File D:\visual studio 2019\visual studio 2019\VC\Tools\MSVC\14.29.30133\include\xmemory
; File C:\Users\ALEXANDER\Desktop\Cliente\COPY_FISH_WON_NEW\Binario\Client\eterlib\Pool.h
;	COMDAT ??1?$CDynamicPoolEx@VCNullDecorator@NEffectUpdateDecorator@@@@UAE@XZ
_TEXT	SEGMENT
??1?$CDynamicPoolEx@VCNullDecorator@NEffectUpdateDecorator@@@@UAE@XZ PROC ; CDynamicPoolEx<NEffectUpdateDecorator::CNullDecorator>::~CDynamicPoolEx<NEffectUpdateDecorator::CNullDecorator>, COMDAT
; _this$ = ecx

; 132  : 		{

  00000	53		 push	 ebx
  00001	56		 push	 esi
  00002	57		 push	 edi
  00003	8b f9		 mov	 edi, ecx
  00005	c7 07 00 00 00
	00		 mov	 DWORD PTR [edi], OFFSET ??_7?$CDynamicPoolEx@VCNullDecorator@NEffectUpdateDecorator@@@@6B@
; File D:\visual studio 2019\visual studio 2019\VC\Tools\MSVC\14.29.30133\include\vector

; 41   :     _CONSTEXPR20_CONTAINER _Vector_const_iterator(_Tptr _Parg, const _Container_base* _Pvector) noexcept : _Ptr(_Parg) {

  0000b	8b 5f 08	 mov	 ebx, DWORD PTR [edi+8]
  0000e	8b 77 04	 mov	 esi, DWORD PTR [edi+4]
; File D:\visual studio 2019\visual studio 2019\VC\Tools\MSVC\14.29.30133\include\algorithm

; 232  :     for (; _UFirst != _ULast; ++_UFirst) {

  00011	3b f3		 cmp	 esi, ebx
  00013	74 14		 je	 SHORT $LN19@CDynamicPo
$LL20@CDynamicPo:
; File C:\Users\ALEXANDER\Desktop\Cliente\COPY_FISH_WON_NEW\Binario\Client\eterlib\Pool.h

; 224  : 			::operator delete(pkData);

  00015	ff 36		 push	 DWORD PTR [esi]
  00017	e8 00 00 00 00	 call	 ??3@YAXPAX@Z		; operator delete
; File D:\visual studio 2019\visual studio 2019\VC\Tools\MSVC\14.29.30133\include\algorithm

; 232  :     for (; _UFirst != _ULast; ++_UFirst) {

  0001c	83 c6 04	 add	 esi, 4
; File C:\Users\ALEXANDER\Desktop\Cliente\COPY_FISH_WON_NEW\Binario\Client\eterlib\Pool.h

; 224  : 			::operator delete(pkData);

  0001f	83 c4 04	 add	 esp, 4
; File D:\visual studio 2019\visual studio 2019\VC\Tools\MSVC\14.29.30133\include\algorithm

; 232  :     for (; _UFirst != _ULast; ++_UFirst) {

  00022	3b f3		 cmp	 esi, ebx
  00024	75 ef		 jne	 SHORT $LL20@CDynamicPo
  00026	8b 77 04	 mov	 esi, DWORD PTR [edi+4]
$LN19@CDynamicPo:
; File C:\Users\ALEXANDER\Desktop\Cliente\COPY_FISH_WON_NEW\Binario\Client\eterlib\Pool.h

; 162  : 			m_kVct_pkFree.clear();

  00029	8b 47 10	 mov	 eax, DWORD PTR [edi+16]
  0002c	89 77 08	 mov	 DWORD PTR [edi+8], esi
  0002f	89 47 14	 mov	 DWORD PTR [edi+20], eax
; File D:\visual studio 2019\visual studio 2019\VC\Tools\MSVC\14.29.30133\include\vector

; 1750 :         if (_Myfirst) { // destroy and deallocate old array

  00032	85 c0		 test	 eax, eax
  00034	74 41		 je	 SHORT $LN27@CDynamicPo

; 1751 :             _Destroy(_Myfirst, _Mylast);
; 1752 :             _Getal().deallocate(_Myfirst, static_cast<size_type>(_Myend - _Myfirst));

  00036	8b 4f 18	 mov	 ecx, DWORD PTR [edi+24]
  00039	2b c8		 sub	 ecx, eax
; File D:\visual studio 2019\visual studio 2019\VC\Tools\MSVC\14.29.30133\include\xmemory

; 797  :         _Deallocate<_New_alignof<_Ty>>(_Ptr, sizeof(_Ty) * _Count);

  0003b	83 e1 fc	 and	 ecx, -4			; fffffffcH

; 251  :         if (_Bytes >= _Big_allocation_threshold) { // boost the alignment of big allocations to help autovectorization

  0003e	81 f9 00 10 00
	00		 cmp	 ecx, 4096		; 00001000H
  00044	72 12		 jb	 SHORT $LN43@CDynamicPo

; 150  :     const uintptr_t _Ptr_container   = _Ptr_user[-1];

  00046	8b 50 fc	 mov	 edx, DWORD PTR [eax-4]
  00049	83 c1 23	 add	 ecx, 35			; 00000023H

; 151  : 
; 152  :     // If the following asserts, it likely means that we are performing
; 153  :     // an aligned delete on memory coming from an unaligned allocation.
; 154  :     _STL_ASSERT(_Ptr_user[-2] == _Big_allocation_sentinel, "invalid argument");
; 155  : 
; 156  :     // Extra paranoia on aligned allocation/deallocation; ensure _Ptr_container is
; 157  :     // in range [_Min_back_shift, _Non_user_size]
; 158  : #ifdef _DEBUG
; 159  :     constexpr uintptr_t _Min_back_shift = 2 * sizeof(void*);
; 160  : #else // ^^^ _DEBUG ^^^ // vvv !_DEBUG vvv
; 161  :     constexpr uintptr_t _Min_back_shift = sizeof(void*);
; 162  : #endif // _DEBUG
; 163  :     const uintptr_t _Back_shift = reinterpret_cast<uintptr_t>(_Ptr) - _Ptr_container;

  0004c	2b c2		 sub	 eax, edx

; 164  :     _STL_VERIFY(_Back_shift >= _Min_back_shift && _Back_shift <= _Non_user_size, "invalid argument");

  0004e	83 c0 fc	 add	 eax, -4			; fffffffcH
  00051	83 f8 1f	 cmp	 eax, 31			; 0000001fH
  00054	77 6d		 ja	 SHORT $LN65@CDynamicPo

; 165  :     _Ptr = reinterpret_cast<void*>(_Ptr_container);

  00056	8b c2		 mov	 eax, edx
$LN43@CDynamicPo:

; 255  :         ::operator delete(_Ptr, _Bytes);

  00058	51		 push	 ecx
  00059	50		 push	 eax
  0005a	e8 00 00 00 00	 call	 ??3@YAXPAXI@Z		; operator delete
; File D:\visual studio 2019\visual studio 2019\VC\Tools\MSVC\14.29.30133\include\vector

; 1754 :             _Myfirst = nullptr;

  0005f	c7 47 10 00 00
	00 00		 mov	 DWORD PTR [edi+16], 0
; File D:\visual studio 2019\visual studio 2019\VC\Tools\MSVC\14.29.30133\include\xmemory

; 255  :         ::operator delete(_Ptr, _Bytes);

  00066	83 c4 08	 add	 esp, 8
; File D:\visual studio 2019\visual studio 2019\VC\Tools\MSVC\14.29.30133\include\vector

; 1755 :             _Mylast  = nullptr;

  00069	c7 47 14 00 00
	00 00		 mov	 DWORD PTR [edi+20], 0

; 1756 :             _Myend   = nullptr;

  00070	c7 47 18 00 00
	00 00		 mov	 DWORD PTR [edi+24], 0
$LN27@CDynamicPo:

; 1750 :         if (_Myfirst) { // destroy and deallocate old array

  00077	8b 47 04	 mov	 eax, DWORD PTR [edi+4]
  0007a	85 c0		 test	 eax, eax
  0007c	74 41		 je	 SHORT $LN52@CDynamicPo

; 1751 :             _Destroy(_Myfirst, _Mylast);
; 1752 :             _Getal().deallocate(_Myfirst, static_cast<size_type>(_Myend - _Myfirst));

  0007e	8b 4f 0c	 mov	 ecx, DWORD PTR [edi+12]
  00081	2b c8		 sub	 ecx, eax
; File D:\visual studio 2019\visual studio 2019\VC\Tools\MSVC\14.29.30133\include\xmemory

; 797  :         _Deallocate<_New_alignof<_Ty>>(_Ptr, sizeof(_Ty) * _Count);

  00083	83 e1 fc	 and	 ecx, -4			; fffffffcH

; 251  :         if (_Bytes >= _Big_allocation_threshold) { // boost the alignment of big allocations to help autovectorization

  00086	81 f9 00 10 00
	00		 cmp	 ecx, 4096		; 00001000H
  0008c	72 12		 jb	 SHORT $LN68@CDynamicPo

; 150  :     const uintptr_t _Ptr_container   = _Ptr_user[-1];

  0008e	8b 50 fc	 mov	 edx, DWORD PTR [eax-4]
  00091	83 c1 23	 add	 ecx, 35			; 00000023H

; 151  : 
; 152  :     // If the following asserts, it likely means that we are performing
; 153  :     // an aligned delete on memory coming from an unaligned allocation.
; 154  :     _STL_ASSERT(_Ptr_user[-2] == _Big_allocation_sentinel, "invalid argument");
; 155  : 
; 156  :     // Extra paranoia on aligned allocation/deallocation; ensure _Ptr_container is
; 157  :     // in range [_Min_back_shift, _Non_user_size]
; 158  : #ifdef _DEBUG
; 159  :     constexpr uintptr_t _Min_back_shift = 2 * sizeof(void*);
; 160  : #else // ^^^ _DEBUG ^^^ // vvv !_DEBUG vvv
; 161  :     constexpr uintptr_t _Min_back_shift = sizeof(void*);
; 162  : #endif // _DEBUG
; 163  :     const uintptr_t _Back_shift = reinterpret_cast<uintptr_t>(_Ptr) - _Ptr_container;

  00094	2b c2		 sub	 eax, edx

; 164  :     _STL_VERIFY(_Back_shift >= _Min_back_shift && _Back_shift <= _Non_user_size, "invalid argument");

  00096	83 c0 fc	 add	 eax, -4			; fffffffcH
  00099	83 f8 1f	 cmp	 eax, 31			; 0000001fH
  0009c	77 25		 ja	 SHORT $LN65@CDynamicPo

; 165  :     _Ptr = reinterpret_cast<void*>(_Ptr_container);

  0009e	8b c2		 mov	 eax, edx
$LN68@CDynamicPo:

; 255  :         ::operator delete(_Ptr, _Bytes);

  000a0	51		 push	 ecx
  000a1	50		 push	 eax
  000a2	e8 00 00 00 00	 call	 ??3@YAXPAXI@Z		; operator delete
; File D:\visual studio 2019\visual studio 2019\VC\Tools\MSVC\14.29.30133\include\vector

; 1754 :             _Myfirst = nullptr;

  000a7	c7 47 04 00 00
	00 00		 mov	 DWORD PTR [edi+4], 0
; File D:\visual studio 2019\visual studio 2019\VC\Tools\MSVC\14.29.30133\include\xmemory

; 255  :         ::operator delete(_Ptr, _Bytes);

  000ae	83 c4 08	 add	 esp, 8
; File D:\visual studio 2019\visual studio 2019\VC\Tools\MSVC\14.29.30133\include\vector

; 1755 :             _Mylast  = nullptr;

  000b1	c7 47 08 00 00
	00 00		 mov	 DWORD PTR [edi+8], 0

; 1756 :             _Myend   = nullptr;

  000b8	c7 47 0c 00 00
	00 00		 mov	 DWORD PTR [edi+12], 0
$LN52@CDynamicPo:
  000bf	5f		 pop	 edi
; File C:\Users\ALEXANDER\Desktop\Cliente\COPY_FISH_WON_NEW\Binario\Client\eterlib\Pool.h

; 142  : 		}

  000c0	5e		 pop	 esi
  000c1	5b		 pop	 ebx
  000c2	c3		 ret	 0
$LN65@CDynamicPo:
; File D:\visual studio 2019\visual studio 2019\VC\Tools\MSVC\14.29.30133\include\xmemory

; 164  :     _STL_VERIFY(_Back_shift >= _Min_back_shift && _Back_shift <= _Non_user_size, "invalid argument");

  000c3	e8 00 00 00 00	 call	 __invalid_parameter_noinfo_noreturn
$LN77@CDynamicPo:
  000c8	cc		 int	 3
??1?$CDynamicPoolEx@VCNullDecorator@NEffectUpdateDecorator@@@@UAE@XZ ENDP ; CDynamicPoolEx<NEffectUpdateDecorator::CNullDecorator>::~CDynamicPoolEx<NEffectUpdateDecorator::CNullDecorator>
_TEXT	ENDS
; Function compile flags: /Ogtp
;	COMDAT ??_G?$CDynamicPoolEx@VCTextureAnimationCWDecorator@NEffectUpdateDecorator@@@@UAEPAXI@Z
_TEXT	SEGMENT
___flags$ = 8						; size = 4
??_G?$CDynamicPoolEx@VCTextureAnimationCWDecorator@NEffectUpdateDecorator@@@@UAEPAXI@Z PROC ; CDynamicPoolEx<NEffectUpdateDecorator::CTextureAnimationCWDecorator>::`scalar deleting destructor', COMDAT
; _this$ = ecx
  00000	55		 push	 ebp
  00001	8b ec		 mov	 ebp, esp
  00003	56		 push	 esi
  00004	8b f1		 mov	 esi, ecx
  00006	e8 00 00 00 00	 call	 ??1?$CDynamicPoolEx@VCTextureAnimationCWDecorator@NEffectUpdateDecorator@@@@UAE@XZ ; CDynamicPoolEx<NEffectUpdateDecorator::CTextureAnimationCWDecorator>::~CDynamicPoolEx<NEffectUpdateDecorator::CTextureAnimationCWDecorator>
  0000b	f6 45 08 01	 test	 BYTE PTR ___flags$[ebp], 1
  0000f	74 0b		 je	 SHORT $LN4@scalar
  00011	6a 24		 push	 36			; 00000024H
  00013	56		 push	 esi
  00014	e8 00 00 00 00	 call	 ??3@YAXPAXI@Z		; operator delete
  00019	83 c4 08	 add	 esp, 8
$LN4@scalar:
  0001c	8b c6		 mov	 eax, esi
  0001e	5e		 pop	 esi
  0001f	5d		 pop	 ebp
  00020	c2 04 00	 ret	 4
??_G?$CDynamicPoolEx@VCTextureAnimationCWDecorator@NEffectUpdateDecorator@@@@UAEPAXI@Z ENDP ; CDynamicPoolEx<NEffectUpdateDecorator::CTextureAnimationCWDecorator>::`scalar deleting destructor'
_TEXT	ENDS
; Function compile flags: /Ogtp
; File C:\Users\ALEXANDER\Desktop\Cliente\COPY_FISH_WON_NEW\Binario\Client\eterlib\Pool.h
;	COMDAT ?Delete@?$CDynamicPoolEx@VCTextureAnimationCWDecorator@NEffectUpdateDecorator@@@@KAXPAVCTextureAnimationCWDecorator@NEffectUpdateDecorator@@@Z
_TEXT	SEGMENT
_pkData$ = 8						; size = 4
?Delete@?$CDynamicPoolEx@VCTextureAnimationCWDecorator@NEffectUpdateDecorator@@@@KAXPAVCTextureAnimationCWDecorator@NEffectUpdateDecorator@@@Z PROC ; CDynamicPoolEx<NEffectUpdateDecorator::CTextureAnimationCWDecorator>::Delete, COMDAT

; 224  : 			::operator delete(pkData);

  00000	e9 00 00 00 00	 jmp	 ??3@YAXPAX@Z		; operator delete
?Delete@?$CDynamicPoolEx@VCTextureAnimationCWDecorator@NEffectUpdateDecorator@@@@KAXPAVCTextureAnimationCWDecorator@NEffectUpdateDecorator@@@Z ENDP ; CDynamicPoolEx<NEffectUpdateDecorator::CTextureAnimationCWDecorator>::Delete
_TEXT	ENDS
; Function compile flags: /Ogtp
; File C:\Users\ALEXANDER\Desktop\Cliente\COPY_FISH_WON_NEW\Binario\Client\eterlib\Pool.h
; File D:\visual studio 2019\visual studio 2019\VC\Tools\MSVC\14.29.30133\include\vector
; File D:\visual studio 2019\visual studio 2019\VC\Tools\MSVC\14.29.30133\include\algorithm
; File C:\Users\ALEXANDER\Desktop\Cliente\COPY_FISH_WON_NEW\Binario\Client\eterlib\Pool.h
; File D:\visual studio 2019\visual studio 2019\VC\Tools\MSVC\14.29.30133\include\algorithm
; File C:\Users\ALEXANDER\Desktop\Cliente\COPY_FISH_WON_NEW\Binario\Client\eterlib\Pool.h
; File D:\visual studio 2019\visual studio 2019\VC\Tools\MSVC\14.29.30133\include\algorithm
; File C:\Users\ALEXANDER\Desktop\Cliente\COPY_FISH_WON_NEW\Binario\Client\eterlib\Pool.h
; File D:\visual studio 2019\visual studio 2019\VC\Tools\MSVC\14.29.30133\include\vector
; File D:\visual studio 2019\visual studio 2019\VC\Tools\MSVC\14.29.30133\include\xmemory
; File D:\visual studio 2019\visual studio 2019\VC\Tools\MSVC\14.29.30133\include\vector
; File D:\visual studio 2019\visual studio 2019\VC\Tools\MSVC\14.29.30133\include\xmemory
; File D:\visual studio 2019\visual studio 2019\VC\Tools\MSVC\14.29.30133\include\vector
; File D:\visual studio 2019\visual studio 2019\VC\Tools\MSVC\14.29.30133\include\xmemory
; File D:\visual studio 2019\visual studio 2019\VC\Tools\MSVC\14.29.30133\include\vector
; File D:\visual studio 2019\visual studio 2019\VC\Tools\MSVC\14.29.30133\include\xmemory
; File D:\visual studio 2019\visual studio 2019\VC\Tools\MSVC\14.29.30133\include\vector
; File C:\Users\ALEXANDER\Desktop\Cliente\COPY_FISH_WON_NEW\Binario\Client\eterlib\Pool.h
; File D:\visual studio 2019\visual studio 2019\VC\Tools\MSVC\14.29.30133\include\xmemory
; File C:\Users\ALEXANDER\Desktop\Cliente\COPY_FISH_WON_NEW\Binario\Client\eterlib\Pool.h
;	COMDAT ??1?$CDynamicPoolEx@VCTextureAnimationCWDecorator@NEffectUpdateDecorator@@@@UAE@XZ
_TEXT	SEGMENT
??1?$CDynamicPoolEx@VCTextureAnimationCWDecorator@NEffectUpdateDecorator@@@@UAE@XZ PROC ; CDynamicPoolEx<NEffectUpdateDecorator::CTextureAnimationCWDecorator>::~CDynamicPoolEx<NEffectUpdateDecorator::CTextureAnimationCWDecorator>, COMDAT
; _this$ = ecx

; 132  : 		{

  00000	53		 push	 ebx
  00001	56		 push	 esi
  00002	57		 push	 edi
  00003	8b f9		 mov	 edi, ecx
  00005	c7 07 00 00 00
	00		 mov	 DWORD PTR [edi], OFFSET ??_7?$CDynamicPoolEx@VCTextureAnimationCWDecorator@NEffectUpdateDecorator@@@@6B@
; File D:\visual studio 2019\visual studio 2019\VC\Tools\MSVC\14.29.30133\include\vector

; 41   :     _CONSTEXPR20_CONTAINER _Vector_const_iterator(_Tptr _Parg, const _Container_base* _Pvector) noexcept : _Ptr(_Parg) {

  0000b	8b 5f 08	 mov	 ebx, DWORD PTR [edi+8]
  0000e	8b 77 04	 mov	 esi, DWORD PTR [edi+4]
; File D:\visual studio 2019\visual studio 2019\VC\Tools\MSVC\14.29.30133\include\algorithm

; 232  :     for (; _UFirst != _ULast; ++_UFirst) {

  00011	3b f3		 cmp	 esi, ebx
  00013	74 14		 je	 SHORT $LN19@CDynamicPo
$LL20@CDynamicPo:
; File C:\Users\ALEXANDER\Desktop\Cliente\COPY_FISH_WON_NEW\Binario\Client\eterlib\Pool.h

; 224  : 			::operator delete(pkData);

  00015	ff 36		 push	 DWORD PTR [esi]
  00017	e8 00 00 00 00	 call	 ??3@YAXPAX@Z		; operator delete
; File D:\visual studio 2019\visual studio 2019\VC\Tools\MSVC\14.29.30133\include\algorithm

; 232  :     for (; _UFirst != _ULast; ++_UFirst) {

  0001c	83 c6 04	 add	 esi, 4
; File C:\Users\ALEXANDER\Desktop\Cliente\COPY_FISH_WON_NEW\Binario\Client\eterlib\Pool.h

; 224  : 			::operator delete(pkData);

  0001f	83 c4 04	 add	 esp, 4
; File D:\visual studio 2019\visual studio 2019\VC\Tools\MSVC\14.29.30133\include\algorithm

; 232  :     for (; _UFirst != _ULast; ++_UFirst) {

  00022	3b f3		 cmp	 esi, ebx
  00024	75 ef		 jne	 SHORT $LL20@CDynamicPo
  00026	8b 77 04	 mov	 esi, DWORD PTR [edi+4]
$LN19@CDynamicPo:
; File C:\Users\ALEXANDER\Desktop\Cliente\COPY_FISH_WON_NEW\Binario\Client\eterlib\Pool.h

; 162  : 			m_kVct_pkFree.clear();

  00029	8b 47 10	 mov	 eax, DWORD PTR [edi+16]
  0002c	89 77 08	 mov	 DWORD PTR [edi+8], esi
  0002f	89 47 14	 mov	 DWORD PTR [edi+20], eax
; File D:\visual studio 2019\visual studio 2019\VC\Tools\MSVC\14.29.30133\include\vector

; 1750 :         if (_Myfirst) { // destroy and deallocate old array

  00032	85 c0		 test	 eax, eax
  00034	74 41		 je	 SHORT $LN27@CDynamicPo

; 1751 :             _Destroy(_Myfirst, _Mylast);
; 1752 :             _Getal().deallocate(_Myfirst, static_cast<size_type>(_Myend - _Myfirst));

  00036	8b 4f 18	 mov	 ecx, DWORD PTR [edi+24]
  00039	2b c8		 sub	 ecx, eax
; File D:\visual studio 2019\visual studio 2019\VC\Tools\MSVC\14.29.30133\include\xmemory

; 797  :         _Deallocate<_New_alignof<_Ty>>(_Ptr, sizeof(_Ty) * _Count);

  0003b	83 e1 fc	 and	 ecx, -4			; fffffffcH

; 251  :         if (_Bytes >= _Big_allocation_threshold) { // boost the alignment of big allocations to help autovectorization

  0003e	81 f9 00 10 00
	00		 cmp	 ecx, 4096		; 00001000H
  00044	72 12		 jb	 SHORT $LN43@CDynamicPo

; 150  :     const uintptr_t _Ptr_container   = _Ptr_user[-1];

  00046	8b 50 fc	 mov	 edx, DWORD PTR [eax-4]
  00049	83 c1 23	 add	 ecx, 35			; 00000023H

; 151  : 
; 152  :     // If the following asserts, it likely means that we are performing
; 153  :     // an aligned delete on memory coming from an unaligned allocation.
; 154  :     _STL_ASSERT(_Ptr_user[-2] == _Big_allocation_sentinel, "invalid argument");
; 155  : 
; 156  :     // Extra paranoia on aligned allocation/deallocation; ensure _Ptr_container is
; 157  :     // in range [_Min_back_shift, _Non_user_size]
; 158  : #ifdef _DEBUG
; 159  :     constexpr uintptr_t _Min_back_shift = 2 * sizeof(void*);
; 160  : #else // ^^^ _DEBUG ^^^ // vvv !_DEBUG vvv
; 161  :     constexpr uintptr_t _Min_back_shift = sizeof(void*);
; 162  : #endif // _DEBUG
; 163  :     const uintptr_t _Back_shift = reinterpret_cast<uintptr_t>(_Ptr) - _Ptr_container;

  0004c	2b c2		 sub	 eax, edx

; 164  :     _STL_VERIFY(_Back_shift >= _Min_back_shift && _Back_shift <= _Non_user_size, "invalid argument");

  0004e	83 c0 fc	 add	 eax, -4			; fffffffcH
  00051	83 f8 1f	 cmp	 eax, 31			; 0000001fH
  00054	77 6d		 ja	 SHORT $LN65@CDynamicPo

; 165  :     _Ptr = reinterpret_cast<void*>(_Ptr_container);

  00056	8b c2		 mov	 eax, edx
$LN43@CDynamicPo:

; 255  :         ::operator delete(_Ptr, _Bytes);

  00058	51		 push	 ecx
  00059	50		 push	 eax
  0005a	e8 00 00 00 00	 call	 ??3@YAXPAXI@Z		; operator delete
; File D:\visual studio 2019\visual studio 2019\VC\Tools\MSVC\14.29.30133\include\vector

; 1754 :             _Myfirst = nullptr;

  0005f	c7 47 10 00 00
	00 00		 mov	 DWORD PTR [edi+16], 0
; File D:\visual studio 2019\visual studio 2019\VC\Tools\MSVC\14.29.30133\include\xmemory

; 255  :         ::operator delete(_Ptr, _Bytes);

  00066	83 c4 08	 add	 esp, 8
; File D:\visual studio 2019\visual studio 2019\VC\Tools\MSVC\14.29.30133\include\vector

; 1755 :             _Mylast  = nullptr;

  00069	c7 47 14 00 00
	00 00		 mov	 DWORD PTR [edi+20], 0

; 1756 :             _Myend   = nullptr;

  00070	c7 47 18 00 00
	00 00		 mov	 DWORD PTR [edi+24], 0
$LN27@CDynamicPo:

; 1750 :         if (_Myfirst) { // destroy and deallocate old array

  00077	8b 47 04	 mov	 eax, DWORD PTR [edi+4]
  0007a	85 c0		 test	 eax, eax
  0007c	74 41		 je	 SHORT $LN52@CDynamicPo

; 1751 :             _Destroy(_Myfirst, _Mylast);
; 1752 :             _Getal().deallocate(_Myfirst, static_cast<size_type>(_Myend - _Myfirst));

  0007e	8b 4f 0c	 mov	 ecx, DWORD PTR [edi+12]
  00081	2b c8		 sub	 ecx, eax
; File D:\visual studio 2019\visual studio 2019\VC\Tools\MSVC\14.29.30133\include\xmemory

; 797  :         _Deallocate<_New_alignof<_Ty>>(_Ptr, sizeof(_Ty) * _Count);

  00083	83 e1 fc	 and	 ecx, -4			; fffffffcH

; 251  :         if (_Bytes >= _Big_allocation_threshold) { // boost the alignment of big allocations to help autovectorization

  00086	81 f9 00 10 00
	00		 cmp	 ecx, 4096		; 00001000H
  0008c	72 12		 jb	 SHORT $LN68@CDynamicPo

; 150  :     const uintptr_t _Ptr_container   = _Ptr_user[-1];

  0008e	8b 50 fc	 mov	 edx, DWORD PTR [eax-4]
  00091	83 c1 23	 add	 ecx, 35			; 00000023H

; 151  : 
; 152  :     // If the following asserts, it likely means that we are performing
; 153  :     // an aligned delete on memory coming from an unaligned allocation.
; 154  :     _STL_ASSERT(_Ptr_user[-2] == _Big_allocation_sentinel, "invalid argument");
; 155  : 
; 156  :     // Extra paranoia on aligned allocation/deallocation; ensure _Ptr_container is
; 157  :     // in range [_Min_back_shift, _Non_user_size]
; 158  : #ifdef _DEBUG
; 159  :     constexpr uintptr_t _Min_back_shift = 2 * sizeof(void*);
; 160  : #else // ^^^ _DEBUG ^^^ // vvv !_DEBUG vvv
; 161  :     constexpr uintptr_t _Min_back_shift = sizeof(void*);
; 162  : #endif // _DEBUG
; 163  :     const uintptr_t _Back_shift = reinterpret_cast<uintptr_t>(_Ptr) - _Ptr_container;

  00094	2b c2		 sub	 eax, edx

; 164  :     _STL_VERIFY(_Back_shift >= _Min_back_shift && _Back_shift <= _Non_user_size, "invalid argument");

  00096	83 c0 fc	 add	 eax, -4			; fffffffcH
  00099	83 f8 1f	 cmp	 eax, 31			; 0000001fH
  0009c	77 25		 ja	 SHORT $LN65@CDynamicPo

; 165  :     _Ptr = reinterpret_cast<void*>(_Ptr_container);

  0009e	8b c2		 mov	 eax, edx
$LN68@CDynamicPo:

; 255  :         ::operator delete(_Ptr, _Bytes);

  000a0	51		 push	 ecx
  000a1	50		 push	 eax
  000a2	e8 00 00 00 00	 call	 ??3@YAXPAXI@Z		; operator delete
; File D:\visual studio 2019\visual studio 2019\VC\Tools\MSVC\14.29.30133\include\vector

; 1754 :             _Myfirst = nullptr;

  000a7	c7 47 04 00 00
	00 00		 mov	 DWORD PTR [edi+4], 0
; File D:\visual studio 2019\visual studio 2019\VC\Tools\MSVC\14.29.30133\include\xmemory

; 255  :         ::operator delete(_Ptr, _Bytes);

  000ae	83 c4 08	 add	 esp, 8
; File D:\visual studio 2019\visual studio 2019\VC\Tools\MSVC\14.29.30133\include\vector

; 1755 :             _Mylast  = nullptr;

  000b1	c7 47 08 00 00
	00 00		 mov	 DWORD PTR [edi+8], 0

; 1756 :             _Myend   = nullptr;

  000b8	c7 47 0c 00 00
	00 00		 mov	 DWORD PTR [edi+12], 0
$LN52@CDynamicPo:
  000bf	5f		 pop	 edi
; File C:\Users\ALEXANDER\Desktop\Cliente\COPY_FISH_WON_NEW\Binario\Client\eterlib\Pool.h

; 142  : 		}

  000c0	5e		 pop	 esi
  000c1	5b		 pop	 ebx
  000c2	c3		 ret	 0
$LN65@CDynamicPo:
; File D:\visual studio 2019\visual studio 2019\VC\Tools\MSVC\14.29.30133\include\xmemory

; 164  :     _STL_VERIFY(_Back_shift >= _Min_back_shift && _Back_shift <= _Non_user_size, "invalid argument");

  000c3	e8 00 00 00 00	 call	 __invalid_parameter_noinfo_noreturn
$LN77@CDynamicPo:
  000c8	cc		 int	 3
??1?$CDynamicPoolEx@VCTextureAnimationCWDecorator@NEffectUpdateDecorator@@@@UAE@XZ ENDP ; CDynamicPoolEx<NEffectUpdateDecorator::CTextureAnimationCWDecorator>::~CDynamicPoolEx<NEffectUpdateDecorator::CTextureAnimationCWDecorator>
_TEXT	ENDS
; Function compile flags: /Ogtp
;	COMDAT ??_G?$CDynamicPoolEx@VCTextureAnimationCCWDecorator@NEffectUpdateDecorator@@@@UAEPAXI@Z
_TEXT	SEGMENT
___flags$ = 8						; size = 4
??_G?$CDynamicPoolEx@VCTextureAnimationCCWDecorator@NEffectUpdateDecorator@@@@UAEPAXI@Z PROC ; CDynamicPoolEx<NEffectUpdateDecorator::CTextureAnimationCCWDecorator>::`scalar deleting destructor', COMDAT
; _this$ = ecx
  00000	55		 push	 ebp
  00001	8b ec		 mov	 ebp, esp
  00003	56		 push	 esi
  00004	8b f1		 mov	 esi, ecx
  00006	e8 00 00 00 00	 call	 ??1?$CDynamicPoolEx@VCTextureAnimationCCWDecorator@NEffectUpdateDecorator@@@@UAE@XZ ; CDynamicPoolEx<NEffectUpdateDecorator::CTextureAnimationCCWDecorator>::~CDynamicPoolEx<NEffectUpdateDecorator::CTextureAnimationCCWDecorator>
  0000b	f6 45 08 01	 test	 BYTE PTR ___flags$[ebp], 1
  0000f	74 0b		 je	 SHORT $LN4@scalar
  00011	6a 24		 push	 36			; 00000024H
  00013	56		 push	 esi
  00014	e8 00 00 00 00	 call	 ??3@YAXPAXI@Z		; operator delete
  00019	83 c4 08	 add	 esp, 8
$LN4@scalar:
  0001c	8b c6		 mov	 eax, esi
  0001e	5e		 pop	 esi
  0001f	5d		 pop	 ebp
  00020	c2 04 00	 ret	 4
??_G?$CDynamicPoolEx@VCTextureAnimationCCWDecorator@NEffectUpdateDecorator@@@@UAEPAXI@Z ENDP ; CDynamicPoolEx<NEffectUpdateDecorator::CTextureAnimationCCWDecorator>::`scalar deleting destructor'
_TEXT	ENDS
; Function compile flags: /Ogtp
; File C:\Users\ALEXANDER\Desktop\Cliente\COPY_FISH_WON_NEW\Binario\Client\eterlib\Pool.h
;	COMDAT ?Delete@?$CDynamicPoolEx@VCTextureAnimationCCWDecorator@NEffectUpdateDecorator@@@@KAXPAVCTextureAnimationCCWDecorator@NEffectUpdateDecorator@@@Z
_TEXT	SEGMENT
_pkData$ = 8						; size = 4
?Delete@?$CDynamicPoolEx@VCTextureAnimationCCWDecorator@NEffectUpdateDecorator@@@@KAXPAVCTextureAnimationCCWDecorator@NEffectUpdateDecorator@@@Z PROC ; CDynamicPoolEx<NEffectUpdateDecorator::CTextureAnimationCCWDecorator>::Delete, COMDAT

; 224  : 			::operator delete(pkData);

  00000	e9 00 00 00 00	 jmp	 ??3@YAXPAX@Z		; operator delete
?Delete@?$CDynamicPoolEx@VCTextureAnimationCCWDecorator@NEffectUpdateDecorator@@@@KAXPAVCTextureAnimationCCWDecorator@NEffectUpdateDecorator@@@Z ENDP ; CDynamicPoolEx<NEffectUpdateDecorator::CTextureAnimationCCWDecorator>::Delete
_TEXT	ENDS
; Function compile flags: /Ogtp
; File C:\Users\ALEXANDER\Desktop\Cliente\COPY_FISH_WON_NEW\Binario\Client\eterlib\Pool.h
; File D:\visual studio 2019\visual studio 2019\VC\Tools\MSVC\14.29.30133\include\vector
; File D:\visual studio 2019\visual studio 2019\VC\Tools\MSVC\14.29.30133\include\algorithm
; File C:\Users\ALEXANDER\Desktop\Cliente\COPY_FISH_WON_NEW\Binario\Client\eterlib\Pool.h
; File D:\visual studio 2019\visual studio 2019\VC\Tools\MSVC\14.29.30133\include\algorithm
; File C:\Users\ALEXANDER\Desktop\Cliente\COPY_FISH_WON_NEW\Binario\Client\eterlib\Pool.h
; File D:\visual studio 2019\visual studio 2019\VC\Tools\MSVC\14.29.30133\include\algorithm
; File C:\Users\ALEXANDER\Desktop\Cliente\COPY_FISH_WON_NEW\Binario\Client\eterlib\Pool.h
; File D:\visual studio 2019\visual studio 2019\VC\Tools\MSVC\14.29.30133\include\vector
; File D:\visual studio 2019\visual studio 2019\VC\Tools\MSVC\14.29.30133\include\xmemory
; File D:\visual studio 2019\visual studio 2019\VC\Tools\MSVC\14.29.30133\include\vector
; File D:\visual studio 2019\visual studio 2019\VC\Tools\MSVC\14.29.30133\include\xmemory
; File D:\visual studio 2019\visual studio 2019\VC\Tools\MSVC\14.29.30133\include\vector
; File D:\visual studio 2019\visual studio 2019\VC\Tools\MSVC\14.29.30133\include\xmemory
; File D:\visual studio 2019\visual studio 2019\VC\Tools\MSVC\14.29.30133\include\vector
; File D:\visual studio 2019\visual studio 2019\VC\Tools\MSVC\14.29.30133\include\xmemory
; File D:\visual studio 2019\visual studio 2019\VC\Tools\MSVC\14.29.30133\include\vector
; File C:\Users\ALEXANDER\Desktop\Cliente\COPY_FISH_WON_NEW\Binario\Client\eterlib\Pool.h
; File D:\visual studio 2019\visual studio 2019\VC\Tools\MSVC\14.29.30133\include\xmemory
; File C:\Users\ALEXANDER\Desktop\Cliente\COPY_FISH_WON_NEW\Binario\Client\eterlib\Pool.h
;	COMDAT ??1?$CDynamicPoolEx@VCTextureAnimationCCWDecorator@NEffectUpdateDecorator@@@@UAE@XZ
_TEXT	SEGMENT
??1?$CDynamicPoolEx@VCTextureAnimationCCWDecorator@NEffectUpdateDecorator@@@@UAE@XZ PROC ; CDynamicPoolEx<NEffectUpdateDecorator::CTextureAnimationCCWDecorator>::~CDynamicPoolEx<NEffectUpdateDecorator::CTextureAnimationCCWDecorator>, COMDAT
; _this$ = ecx

; 132  : 		{

  00000	53		 push	 ebx
  00001	56		 push	 esi
  00002	57		 push	 edi
  00003	8b f9		 mov	 edi, ecx
  00005	c7 07 00 00 00
	00		 mov	 DWORD PTR [edi], OFFSET ??_7?$CDynamicPoolEx@VCTextureAnimationCCWDecorator@NEffectUpdateDecorator@@@@6B@
; File D:\visual studio 2019\visual studio 2019\VC\Tools\MSVC\14.29.30133\include\vector

; 41   :     _CONSTEXPR20_CONTAINER _Vector_const_iterator(_Tptr _Parg, const _Container_base* _Pvector) noexcept : _Ptr(_Parg) {

  0000b	8b 5f 08	 mov	 ebx, DWORD PTR [edi+8]
  0000e	8b 77 04	 mov	 esi, DWORD PTR [edi+4]
; File D:\visual studio 2019\visual studio 2019\VC\Tools\MSVC\14.29.30133\include\algorithm

; 232  :     for (; _UFirst != _ULast; ++_UFirst) {

  00011	3b f3		 cmp	 esi, ebx
  00013	74 14		 je	 SHORT $LN19@CDynamicPo
$LL20@CDynamicPo:
; File C:\Users\ALEXANDER\Desktop\Cliente\COPY_FISH_WON_NEW\Binario\Client\eterlib\Pool.h

; 224  : 			::operator delete(pkData);

  00015	ff 36		 push	 DWORD PTR [esi]
  00017	e8 00 00 00 00	 call	 ??3@YAXPAX@Z		; operator delete
; File D:\visual studio 2019\visual studio 2019\VC\Tools\MSVC\14.29.30133\include\algorithm

; 232  :     for (; _UFirst != _ULast; ++_UFirst) {

  0001c	83 c6 04	 add	 esi, 4
; File C:\Users\ALEXANDER\Desktop\Cliente\COPY_FISH_WON_NEW\Binario\Client\eterlib\Pool.h

; 224  : 			::operator delete(pkData);

  0001f	83 c4 04	 add	 esp, 4
; File D:\visual studio 2019\visual studio 2019\VC\Tools\MSVC\14.29.30133\include\algorithm

; 232  :     for (; _UFirst != _ULast; ++_UFirst) {

  00022	3b f3		 cmp	 esi, ebx
  00024	75 ef		 jne	 SHORT $LL20@CDynamicPo
  00026	8b 77 04	 mov	 esi, DWORD PTR [edi+4]
$LN19@CDynamicPo:
; File C:\Users\ALEXANDER\Desktop\Cliente\COPY_FISH_WON_NEW\Binario\Client\eterlib\Pool.h

; 162  : 			m_kVct_pkFree.clear();

  00029	8b 47 10	 mov	 eax, DWORD PTR [edi+16]
  0002c	89 77 08	 mov	 DWORD PTR [edi+8], esi
  0002f	89 47 14	 mov	 DWORD PTR [edi+20], eax
; File D:\visual studio 2019\visual studio 2019\VC\Tools\MSVC\14.29.30133\include\vector

; 1750 :         if (_Myfirst) { // destroy and deallocate old array

  00032	85 c0		 test	 eax, eax
  00034	74 41		 je	 SHORT $LN27@CDynamicPo

; 1751 :             _Destroy(_Myfirst, _Mylast);
; 1752 :             _Getal().deallocate(_Myfirst, static_cast<size_type>(_Myend - _Myfirst));

  00036	8b 4f 18	 mov	 ecx, DWORD PTR [edi+24]
  00039	2b c8		 sub	 ecx, eax
; File D:\visual studio 2019\visual studio 2019\VC\Tools\MSVC\14.29.30133\include\xmemory

; 797  :         _Deallocate<_New_alignof<_Ty>>(_Ptr, sizeof(_Ty) * _Count);

  0003b	83 e1 fc	 and	 ecx, -4			; fffffffcH

; 251  :         if (_Bytes >= _Big_allocation_threshold) { // boost the alignment of big allocations to help autovectorization

  0003e	81 f9 00 10 00
	00		 cmp	 ecx, 4096		; 00001000H
  00044	72 12		 jb	 SHORT $LN43@CDynamicPo

; 150  :     const uintptr_t _Ptr_container   = _Ptr_user[-1];

  00046	8b 50 fc	 mov	 edx, DWORD PTR [eax-4]
  00049	83 c1 23	 add	 ecx, 35			; 00000023H

; 151  : 
; 152  :     // If the following asserts, it likely means that we are performing
; 153  :     // an aligned delete on memory coming from an unaligned allocation.
; 154  :     _STL_ASSERT(_Ptr_user[-2] == _Big_allocation_sentinel, "invalid argument");
; 155  : 
; 156  :     // Extra paranoia on aligned allocation/deallocation; ensure _Ptr_container is
; 157  :     // in range [_Min_back_shift, _Non_user_size]
; 158  : #ifdef _DEBUG
; 159  :     constexpr uintptr_t _Min_back_shift = 2 * sizeof(void*);
; 160  : #else // ^^^ _DEBUG ^^^ // vvv !_DEBUG vvv
; 161  :     constexpr uintptr_t _Min_back_shift = sizeof(void*);
; 162  : #endif // _DEBUG
; 163  :     const uintptr_t _Back_shift = reinterpret_cast<uintptr_t>(_Ptr) - _Ptr_container;

  0004c	2b c2		 sub	 eax, edx

; 164  :     _STL_VERIFY(_Back_shift >= _Min_back_shift && _Back_shift <= _Non_user_size, "invalid argument");

  0004e	83 c0 fc	 add	 eax, -4			; fffffffcH
  00051	83 f8 1f	 cmp	 eax, 31			; 0000001fH
  00054	77 6d		 ja	 SHORT $LN65@CDynamicPo

; 165  :     _Ptr = reinterpret_cast<void*>(_Ptr_container);

  00056	8b c2		 mov	 eax, edx
$LN43@CDynamicPo:

; 255  :         ::operator delete(_Ptr, _Bytes);

  00058	51		 push	 ecx
  00059	50		 push	 eax
  0005a	e8 00 00 00 00	 call	 ??3@YAXPAXI@Z		; operator delete
; File D:\visual studio 2019\visual studio 2019\VC\Tools\MSVC\14.29.30133\include\vector

; 1754 :             _Myfirst = nullptr;

  0005f	c7 47 10 00 00
	00 00		 mov	 DWORD PTR [edi+16], 0
; File D:\visual studio 2019\visual studio 2019\VC\Tools\MSVC\14.29.30133\include\xmemory

; 255  :         ::operator delete(_Ptr, _Bytes);

  00066	83 c4 08	 add	 esp, 8
; File D:\visual studio 2019\visual studio 2019\VC\Tools\MSVC\14.29.30133\include\vector

; 1755 :             _Mylast  = nullptr;

  00069	c7 47 14 00 00
	00 00		 mov	 DWORD PTR [edi+20], 0

; 1756 :             _Myend   = nullptr;

  00070	c7 47 18 00 00
	00 00		 mov	 DWORD PTR [edi+24], 0
$LN27@CDynamicPo:

; 1750 :         if (_Myfirst) { // destroy and deallocate old array

  00077	8b 47 04	 mov	 eax, DWORD PTR [edi+4]
  0007a	85 c0		 test	 eax, eax
  0007c	74 41		 je	 SHORT $LN52@CDynamicPo

; 1751 :             _Destroy(_Myfirst, _Mylast);
; 1752 :             _Getal().deallocate(_Myfirst, static_cast<size_type>(_Myend - _Myfirst));

  0007e	8b 4f 0c	 mov	 ecx, DWORD PTR [edi+12]
  00081	2b c8		 sub	 ecx, eax
; File D:\visual studio 2019\visual studio 2019\VC\Tools\MSVC\14.29.30133\include\xmemory

; 797  :         _Deallocate<_New_alignof<_Ty>>(_Ptr, sizeof(_Ty) * _Count);

  00083	83 e1 fc	 and	 ecx, -4			; fffffffcH

; 251  :         if (_Bytes >= _Big_allocation_threshold) { // boost the alignment of big allocations to help autovectorization

  00086	81 f9 00 10 00
	00		 cmp	 ecx, 4096		; 00001000H
  0008c	72 12		 jb	 SHORT $LN68@CDynamicPo

; 150  :     const uintptr_t _Ptr_container   = _Ptr_user[-1];

  0008e	8b 50 fc	 mov	 edx, DWORD PTR [eax-4]
  00091	83 c1 23	 add	 ecx, 35			; 00000023H

; 151  : 
; 152  :     // If the following asserts, it likely means that we are performing
; 153  :     // an aligned delete on memory coming from an unaligned allocation.
; 154  :     _STL_ASSERT(_Ptr_user[-2] == _Big_allocation_sentinel, "invalid argument");
; 155  : 
; 156  :     // Extra paranoia on aligned allocation/deallocation; ensure _Ptr_container is
; 157  :     // in range [_Min_back_shift, _Non_user_size]
; 158  : #ifdef _DEBUG
; 159  :     constexpr uintptr_t _Min_back_shift = 2 * sizeof(void*);
; 160  : #else // ^^^ _DEBUG ^^^ // vvv !_DEBUG vvv
; 161  :     constexpr uintptr_t _Min_back_shift = sizeof(void*);
; 162  : #endif // _DEBUG
; 163  :     const uintptr_t _Back_shift = reinterpret_cast<uintptr_t>(_Ptr) - _Ptr_container;

  00094	2b c2		 sub	 eax, edx

; 164  :     _STL_VERIFY(_Back_shift >= _Min_back_shift && _Back_shift <= _Non_user_size, "invalid argument");

  00096	83 c0 fc	 add	 eax, -4			; fffffffcH
  00099	83 f8 1f	 cmp	 eax, 31			; 0000001fH
  0009c	77 25		 ja	 SHORT $LN65@CDynamicPo

; 165  :     _Ptr = reinterpret_cast<void*>(_Ptr_container);

  0009e	8b c2		 mov	 eax, edx
$LN68@CDynamicPo:

; 255  :         ::operator delete(_Ptr, _Bytes);

  000a0	51		 push	 ecx
  000a1	50		 push	 eax
  000a2	e8 00 00 00 00	 call	 ??3@YAXPAXI@Z		; operator delete
; File D:\visual studio 2019\visual studio 2019\VC\Tools\MSVC\14.29.30133\include\vector

; 1754 :             _Myfirst = nullptr;

  000a7	c7 47 04 00 00
	00 00		 mov	 DWORD PTR [edi+4], 0
; File D:\visual studio 2019\visual studio 2019\VC\Tools\MSVC\14.29.30133\include\xmemory

; 255  :         ::operator delete(_Ptr, _Bytes);

  000ae	83 c4 08	 add	 esp, 8
; File D:\visual studio 2019\visual studio 2019\VC\Tools\MSVC\14.29.30133\include\vector

; 1755 :             _Mylast  = nullptr;

  000b1	c7 47 08 00 00
	00 00		 mov	 DWORD PTR [edi+8], 0

; 1756 :             _Myend   = nullptr;

  000b8	c7 47 0c 00 00
	00 00		 mov	 DWORD PTR [edi+12], 0
$LN52@CDynamicPo:
  000bf	5f		 pop	 edi
; File C:\Users\ALEXANDER\Desktop\Cliente\COPY_FISH_WON_NEW\Binario\Client\eterlib\Pool.h

; 142  : 		}

  000c0	5e		 pop	 esi
  000c1	5b		 pop	 ebx
  000c2	c3		 ret	 0
$LN65@CDynamicPo:
; File D:\visual studio 2019\visual studio 2019\VC\Tools\MSVC\14.29.30133\include\xmemory

; 164  :     _STL_VERIFY(_Back_shift >= _Min_back_shift && _Back_shift <= _Non_user_size, "invalid argument");

  000c3	e8 00 00 00 00	 call	 __invalid_parameter_noinfo_noreturn
$LN77@CDynamicPo:
  000c8	cc		 int	 3
??1?$CDynamicPoolEx@VCTextureAnimationCCWDecorator@NEffectUpdateDecorator@@@@UAE@XZ ENDP ; CDynamicPoolEx<NEffectUpdateDecorator::CTextureAnimationCCWDecorator>::~CDynamicPoolEx<NEffectUpdateDecorator::CTextureAnimationCCWDecorator>
_TEXT	ENDS
; Function compile flags: /Ogtp
;	COMDAT ??_G?$CDynamicPoolEx@VCTextureAnimationRandomDecorator@NEffectUpdateDecorator@@@@UAEPAXI@Z
_TEXT	SEGMENT
___flags$ = 8						; size = 4
??_G?$CDynamicPoolEx@VCTextureAnimationRandomDecorator@NEffectUpdateDecorator@@@@UAEPAXI@Z PROC ; CDynamicPoolEx<NEffectUpdateDecorator::CTextureAnimationRandomDecorator>::`scalar deleting destructor', COMDAT
; _this$ = ecx
  00000	55		 push	 ebp
  00001	8b ec		 mov	 ebp, esp
  00003	56		 push	 esi
  00004	8b f1		 mov	 esi, ecx
  00006	e8 00 00 00 00	 call	 ??1?$CDynamicPoolEx@VCTextureAnimationRandomDecorator@NEffectUpdateDecorator@@@@UAE@XZ ; CDynamicPoolEx<NEffectUpdateDecorator::CTextureAnimationRandomDecorator>::~CDynamicPoolEx<NEffectUpdateDecorator::CTextureAnimationRandomDecorator>
  0000b	f6 45 08 01	 test	 BYTE PTR ___flags$[ebp], 1
  0000f	74 0b		 je	 SHORT $LN4@scalar
  00011	6a 24		 push	 36			; 00000024H
  00013	56		 push	 esi
  00014	e8 00 00 00 00	 call	 ??3@YAXPAXI@Z		; operator delete
  00019	83 c4 08	 add	 esp, 8
$LN4@scalar:
  0001c	8b c6		 mov	 eax, esi
  0001e	5e		 pop	 esi
  0001f	5d		 pop	 ebp
  00020	c2 04 00	 ret	 4
??_G?$CDynamicPoolEx@VCTextureAnimationRandomDecorator@NEffectUpdateDecorator@@@@UAEPAXI@Z ENDP ; CDynamicPoolEx<NEffectUpdateDecorator::CTextureAnimationRandomDecorator>::`scalar deleting destructor'
_TEXT	ENDS
; Function compile flags: /Ogtp
; File C:\Users\ALEXANDER\Desktop\Cliente\COPY_FISH_WON_NEW\Binario\Client\eterlib\Pool.h
;	COMDAT ?Delete@?$CDynamicPoolEx@VCTextureAnimationRandomDecorator@NEffectUpdateDecorator@@@@KAXPAVCTextureAnimationRandomDecorator@NEffectUpdateDecorator@@@Z
_TEXT	SEGMENT
_pkData$ = 8						; size = 4
?Delete@?$CDynamicPoolEx@VCTextureAnimationRandomDecorator@NEffectUpdateDecorator@@@@KAXPAVCTextureAnimationRandomDecorator@NEffectUpdateDecorator@@@Z PROC ; CDynamicPoolEx<NEffectUpdateDecorator::CTextureAnimationRandomDecorator>::Delete, COMDAT

; 224  : 			::operator delete(pkData);

  00000	e9 00 00 00 00	 jmp	 ??3@YAXPAX@Z		; operator delete
?Delete@?$CDynamicPoolEx@VCTextureAnimationRandomDecorator@NEffectUpdateDecorator@@@@KAXPAVCTextureAnimationRandomDecorator@NEffectUpdateDecorator@@@Z ENDP ; CDynamicPoolEx<NEffectUpdateDecorator::CTextureAnimationRandomDecorator>::Delete
_TEXT	ENDS
; Function compile flags: /Ogtp
; File C:\Users\ALEXANDER\Desktop\Cliente\COPY_FISH_WON_NEW\Binario\Client\eterlib\Pool.h
; File D:\visual studio 2019\visual studio 2019\VC\Tools\MSVC\14.29.30133\include\vector
; File D:\visual studio 2019\visual studio 2019\VC\Tools\MSVC\14.29.30133\include\algorithm
; File C:\Users\ALEXANDER\Desktop\Cliente\COPY_FISH_WON_NEW\Binario\Client\eterlib\Pool.h
; File D:\visual studio 2019\visual studio 2019\VC\Tools\MSVC\14.29.30133\include\algorithm
; File C:\Users\ALEXANDER\Desktop\Cliente\COPY_FISH_WON_NEW\Binario\Client\eterlib\Pool.h
; File D:\visual studio 2019\visual studio 2019\VC\Tools\MSVC\14.29.30133\include\algorithm
; File C:\Users\ALEXANDER\Desktop\Cliente\COPY_FISH_WON_NEW\Binario\Client\eterlib\Pool.h
; File D:\visual studio 2019\visual studio 2019\VC\Tools\MSVC\14.29.30133\include\vector
; File D:\visual studio 2019\visual studio 2019\VC\Tools\MSVC\14.29.30133\include\xmemory
; File D:\visual studio 2019\visual studio 2019\VC\Tools\MSVC\14.29.30133\include\vector
; File D:\visual studio 2019\visual studio 2019\VC\Tools\MSVC\14.29.30133\include\xmemory
; File D:\visual studio 2019\visual studio 2019\VC\Tools\MSVC\14.29.30133\include\vector
; File D:\visual studio 2019\visual studio 2019\VC\Tools\MSVC\14.29.30133\include\xmemory
; File D:\visual studio 2019\visual studio 2019\VC\Tools\MSVC\14.29.30133\include\vector
; File D:\visual studio 2019\visual studio 2019\VC\Tools\MSVC\14.29.30133\include\xmemory
; File D:\visual studio 2019\visual studio 2019\VC\Tools\MSVC\14.29.30133\include\vector
; File C:\Users\ALEXANDER\Desktop\Cliente\COPY_FISH_WON_NEW\Binario\Client\eterlib\Pool.h
; File D:\visual studio 2019\visual studio 2019\VC\Tools\MSVC\14.29.30133\include\xmemory
; File C:\Users\ALEXANDER\Desktop\Cliente\COPY_FISH_WON_NEW\Binario\Client\eterlib\Pool.h
;	COMDAT ??1?$CDynamicPoolEx@VCTextureAnimationRandomDecorator@NEffectUpdateDecorator@@@@UAE@XZ
_TEXT	SEGMENT
??1?$CDynamicPoolEx@VCTextureAnimationRandomDecorator@NEffectUpdateDecorator@@@@UAE@XZ PROC ; CDynamicPoolEx<NEffectUpdateDecorator::CTextureAnimationRandomDecorator>::~CDynamicPoolEx<NEffectUpdateDecorator::CTextureAnimationRandomDecorator>, COMDAT
; _this$ = ecx

; 132  : 		{

  00000	53		 push	 ebx
  00001	56		 push	 esi
  00002	57		 push	 edi
  00003	8b f9		 mov	 edi, ecx
  00005	c7 07 00 00 00
	00		 mov	 DWORD PTR [edi], OFFSET ??_7?$CDynamicPoolEx@VCTextureAnimationRandomDecorator@NEffectUpdateDecorator@@@@6B@
; File D:\visual studio 2019\visual studio 2019\VC\Tools\MSVC\14.29.30133\include\vector

; 41   :     _CONSTEXPR20_CONTAINER _Vector_const_iterator(_Tptr _Parg, const _Container_base* _Pvector) noexcept : _Ptr(_Parg) {

  0000b	8b 5f 08	 mov	 ebx, DWORD PTR [edi+8]
  0000e	8b 77 04	 mov	 esi, DWORD PTR [edi+4]
; File D:\visual studio 2019\visual studio 2019\VC\Tools\MSVC\14.29.30133\include\algorithm

; 232  :     for (; _UFirst != _ULast; ++_UFirst) {

  00011	3b f3		 cmp	 esi, ebx
  00013	74 14		 je	 SHORT $LN19@CDynamicPo
$LL20@CDynamicPo:
; File C:\Users\ALEXANDER\Desktop\Cliente\COPY_FISH_WON_NEW\Binario\Client\eterlib\Pool.h

; 224  : 			::operator delete(pkData);

  00015	ff 36		 push	 DWORD PTR [esi]
  00017	e8 00 00 00 00	 call	 ??3@YAXPAX@Z		; operator delete
; File D:\visual studio 2019\visual studio 2019\VC\Tools\MSVC\14.29.30133\include\algorithm

; 232  :     for (; _UFirst != _ULast; ++_UFirst) {

  0001c	83 c6 04	 add	 esi, 4
; File C:\Users\ALEXANDER\Desktop\Cliente\COPY_FISH_WON_NEW\Binario\Client\eterlib\Pool.h

; 224  : 			::operator delete(pkData);

  0001f	83 c4 04	 add	 esp, 4
; File D:\visual studio 2019\visual studio 2019\VC\Tools\MSVC\14.29.30133\include\algorithm

; 232  :     for (; _UFirst != _ULast; ++_UFirst) {

  00022	3b f3		 cmp	 esi, ebx
  00024	75 ef		 jne	 SHORT $LL20@CDynamicPo
  00026	8b 77 04	 mov	 esi, DWORD PTR [edi+4]
$LN19@CDynamicPo:
; File C:\Users\ALEXANDER\Desktop\Cliente\COPY_FISH_WON_NEW\Binario\Client\eterlib\Pool.h

; 162  : 			m_kVct_pkFree.clear();

  00029	8b 47 10	 mov	 eax, DWORD PTR [edi+16]
  0002c	89 77 08	 mov	 DWORD PTR [edi+8], esi
  0002f	89 47 14	 mov	 DWORD PTR [edi+20], eax
; File D:\visual studio 2019\visual studio 2019\VC\Tools\MSVC\14.29.30133\include\vector

; 1750 :         if (_Myfirst) { // destroy and deallocate old array

  00032	85 c0		 test	 eax, eax
  00034	74 41		 je	 SHORT $LN27@CDynamicPo

; 1751 :             _Destroy(_Myfirst, _Mylast);
; 1752 :             _Getal().deallocate(_Myfirst, static_cast<size_type>(_Myend - _Myfirst));

  00036	8b 4f 18	 mov	 ecx, DWORD PTR [edi+24]
  00039	2b c8		 sub	 ecx, eax
; File D:\visual studio 2019\visual studio 2019\VC\Tools\MSVC\14.29.30133\include\xmemory

; 797  :         _Deallocate<_New_alignof<_Ty>>(_Ptr, sizeof(_Ty) * _Count);

  0003b	83 e1 fc	 and	 ecx, -4			; fffffffcH

; 251  :         if (_Bytes >= _Big_allocation_threshold) { // boost the alignment of big allocations to help autovectorization

  0003e	81 f9 00 10 00
	00		 cmp	 ecx, 4096		; 00001000H
  00044	72 12		 jb	 SHORT $LN43@CDynamicPo

; 150  :     const uintptr_t _Ptr_container   = _Ptr_user[-1];

  00046	8b 50 fc	 mov	 edx, DWORD PTR [eax-4]
  00049	83 c1 23	 add	 ecx, 35			; 00000023H

; 151  : 
; 152  :     // If the following asserts, it likely means that we are performing
; 153  :     // an aligned delete on memory coming from an unaligned allocation.
; 154  :     _STL_ASSERT(_Ptr_user[-2] == _Big_allocation_sentinel, "invalid argument");
; 155  : 
; 156  :     // Extra paranoia on aligned allocation/deallocation; ensure _Ptr_container is
; 157  :     // in range [_Min_back_shift, _Non_user_size]
; 158  : #ifdef _DEBUG
; 159  :     constexpr uintptr_t _Min_back_shift = 2 * sizeof(void*);
; 160  : #else // ^^^ _DEBUG ^^^ // vvv !_DEBUG vvv
; 161  :     constexpr uintptr_t _Min_back_shift = sizeof(void*);
; 162  : #endif // _DEBUG
; 163  :     const uintptr_t _Back_shift = reinterpret_cast<uintptr_t>(_Ptr) - _Ptr_container;

  0004c	2b c2		 sub	 eax, edx

; 164  :     _STL_VERIFY(_Back_shift >= _Min_back_shift && _Back_shift <= _Non_user_size, "invalid argument");

  0004e	83 c0 fc	 add	 eax, -4			; fffffffcH
  00051	83 f8 1f	 cmp	 eax, 31			; 0000001fH
  00054	77 6d		 ja	 SHORT $LN65@CDynamicPo

; 165  :     _Ptr = reinterpret_cast<void*>(_Ptr_container);

  00056	8b c2		 mov	 eax, edx
$LN43@CDynamicPo:

; 255  :         ::operator delete(_Ptr, _Bytes);

  00058	51		 push	 ecx
  00059	50		 push	 eax
  0005a	e8 00 00 00 00	 call	 ??3@YAXPAXI@Z		; operator delete
; File D:\visual studio 2019\visual studio 2019\VC\Tools\MSVC\14.29.30133\include\vector

; 1754 :             _Myfirst = nullptr;

  0005f	c7 47 10 00 00
	00 00		 mov	 DWORD PTR [edi+16], 0
; File D:\visual studio 2019\visual studio 2019\VC\Tools\MSVC\14.29.30133\include\xmemory

; 255  :         ::operator delete(_Ptr, _Bytes);

  00066	83 c4 08	 add	 esp, 8
; File D:\visual studio 2019\visual studio 2019\VC\Tools\MSVC\14.29.30133\include\vector

; 1755 :             _Mylast  = nullptr;

  00069	c7 47 14 00 00
	00 00		 mov	 DWORD PTR [edi+20], 0

; 1756 :             _Myend   = nullptr;

  00070	c7 47 18 00 00
	00 00		 mov	 DWORD PTR [edi+24], 0
$LN27@CDynamicPo:

; 1750 :         if (_Myfirst) { // destroy and deallocate old array

  00077	8b 47 04	 mov	 eax, DWORD PTR [edi+4]
  0007a	85 c0		 test	 eax, eax
  0007c	74 41		 je	 SHORT $LN52@CDynamicPo

; 1751 :             _Destroy(_Myfirst, _Mylast);
; 1752 :             _Getal().deallocate(_Myfirst, static_cast<size_type>(_Myend - _Myfirst));

  0007e	8b 4f 0c	 mov	 ecx, DWORD PTR [edi+12]
  00081	2b c8		 sub	 ecx, eax
; File D:\visual studio 2019\visual studio 2019\VC\Tools\MSVC\14.29.30133\include\xmemory

; 797  :         _Deallocate<_New_alignof<_Ty>>(_Ptr, sizeof(_Ty) * _Count);

  00083	83 e1 fc	 and	 ecx, -4			; fffffffcH

; 251  :         if (_Bytes >= _Big_allocation_threshold) { // boost the alignment of big allocations to help autovectorization

  00086	81 f9 00 10 00
	00		 cmp	 ecx, 4096		; 00001000H
  0008c	72 12		 jb	 SHORT $LN68@CDynamicPo

; 150  :     const uintptr_t _Ptr_container   = _Ptr_user[-1];

  0008e	8b 50 fc	 mov	 edx, DWORD PTR [eax-4]
  00091	83 c1 23	 add	 ecx, 35			; 00000023H

; 151  : 
; 152  :     // If the following asserts, it likely means that we are performing
; 153  :     // an aligned delete on memory coming from an unaligned allocation.
; 154  :     _STL_ASSERT(_Ptr_user[-2] == _Big_allocation_sentinel, "invalid argument");
; 155  : 
; 156  :     // Extra paranoia on aligned allocation/deallocation; ensure _Ptr_container is
; 157  :     // in range [_Min_back_shift, _Non_user_size]
; 158  : #ifdef _DEBUG
; 159  :     constexpr uintptr_t _Min_back_shift = 2 * sizeof(void*);
; 160  : #else // ^^^ _DEBUG ^^^ // vvv !_DEBUG vvv
; 161  :     constexpr uintptr_t _Min_back_shift = sizeof(void*);
; 162  : #endif // _DEBUG
; 163  :     const uintptr_t _Back_shift = reinterpret_cast<uintptr_t>(_Ptr) - _Ptr_container;

  00094	2b c2		 sub	 eax, edx

; 164  :     _STL_VERIFY(_Back_shift >= _Min_back_shift && _Back_shift <= _Non_user_size, "invalid argument");

  00096	83 c0 fc	 add	 eax, -4			; fffffffcH
  00099	83 f8 1f	 cmp	 eax, 31			; 0000001fH
  0009c	77 25		 ja	 SHORT $LN65@CDynamicPo

; 165  :     _Ptr = reinterpret_cast<void*>(_Ptr_container);

  0009e	8b c2		 mov	 eax, edx
$LN68@CDynamicPo:

; 255  :         ::operator delete(_Ptr, _Bytes);

  000a0	51		 push	 ecx
  000a1	50		 push	 eax
  000a2	e8 00 00 00 00	 call	 ??3@YAXPAXI@Z		; operator delete
; File D:\visual studio 2019\visual studio 2019\VC\Tools\MSVC\14.29.30133\include\vector

; 1754 :             _Myfirst = nullptr;

  000a7	c7 47 04 00 00
	00 00		 mov	 DWORD PTR [edi+4], 0
; File D:\visual studio 2019\visual studio 2019\VC\Tools\MSVC\14.29.30133\include\xmemory

; 255  :         ::operator delete(_Ptr, _Bytes);

  000ae	83 c4 08	 add	 esp, 8
; File D:\visual studio 2019\visual studio 2019\VC\Tools\MSVC\14.29.30133\include\vector

; 1755 :             _Mylast  = nullptr;

  000b1	c7 47 08 00 00
	00 00		 mov	 DWORD PTR [edi+8], 0

; 1756 :             _Myend   = nullptr;

  000b8	c7 47 0c 00 00
	00 00		 mov	 DWORD PTR [edi+12], 0
$LN52@CDynamicPo:
  000bf	5f		 pop	 edi
; File C:\Users\ALEXANDER\Desktop\Cliente\COPY_FISH_WON_NEW\Binario\Client\eterlib\Pool.h

; 142  : 		}

  000c0	5e		 pop	 esi
  000c1	5b		 pop	 ebx
  000c2	c3		 ret	 0
$LN65@CDynamicPo:
; File D:\visual studio 2019\visual studio 2019\VC\Tools\MSVC\14.29.30133\include\xmemory

; 164  :     _STL_VERIFY(_Back_shift >= _Min_back_shift && _Back_shift <= _Non_user_size, "invalid argument");

  000c3	e8 00 00 00 00	 call	 __invalid_parameter_noinfo_noreturn
$LN77@CDynamicPo:
  000c8	cc		 int	 3
??1?$CDynamicPoolEx@VCTextureAnimationRandomDecorator@NEffectUpdateDecorator@@@@UAE@XZ ENDP ; CDynamicPoolEx<NEffectUpdateDecorator::CTextureAnimationRandomDecorator>::~CDynamicPoolEx<NEffectUpdateDecorator::CTextureAnimationRandomDecorator>
_TEXT	ENDS
; Function compile flags: /Ogtp
;	COMDAT ??_G?$CDynamicPoolEx@VCAirResistanceDecorator@NEffectUpdateDecorator@@@@UAEPAXI@Z
_TEXT	SEGMENT
___flags$ = 8						; size = 4
??_G?$CDynamicPoolEx@VCAirResistanceDecorator@NEffectUpdateDecorator@@@@UAEPAXI@Z PROC ; CDynamicPoolEx<NEffectUpdateDecorator::CAirResistanceDecorator>::`scalar deleting destructor', COMDAT
; _this$ = ecx
  00000	55		 push	 ebp
  00001	8b ec		 mov	 ebp, esp
  00003	56		 push	 esi
  00004	8b f1		 mov	 esi, ecx
  00006	e8 00 00 00 00	 call	 ??1?$CDynamicPoolEx@VCAirResistanceDecorator@NEffectUpdateDecorator@@@@UAE@XZ ; CDynamicPoolEx<NEffectUpdateDecorator::CAirResistanceDecorator>::~CDynamicPoolEx<NEffectUpdateDecorator::CAirResistanceDecorator>
  0000b	f6 45 08 01	 test	 BYTE PTR ___flags$[ebp], 1
  0000f	74 0b		 je	 SHORT $LN4@scalar
  00011	6a 24		 push	 36			; 00000024H
  00013	56		 push	 esi
  00014	e8 00 00 00 00	 call	 ??3@YAXPAXI@Z		; operator delete
  00019	83 c4 08	 add	 esp, 8
$LN4@scalar:
  0001c	8b c6		 mov	 eax, esi
  0001e	5e		 pop	 esi
  0001f	5d		 pop	 ebp
  00020	c2 04 00	 ret	 4
??_G?$CDynamicPoolEx@VCAirResistanceDecorator@NEffectUpdateDecorator@@@@UAEPAXI@Z ENDP ; CDynamicPoolEx<NEffectUpdateDecorator::CAirResistanceDecorator>::`scalar deleting destructor'
_TEXT	ENDS
; Function compile flags: /Ogtp
; File C:\Users\ALEXANDER\Desktop\Cliente\COPY_FISH_WON_NEW\Binario\Client\eterlib\Pool.h
;	COMDAT ?Delete@?$CDynamicPoolEx@VCAirResistanceDecorator@NEffectUpdateDecorator@@@@KAXPAVCAirResistanceDecorator@NEffectUpdateDecorator@@@Z
_TEXT	SEGMENT
_pkData$ = 8						; size = 4
?Delete@?$CDynamicPoolEx@VCAirResistanceDecorator@NEffectUpdateDecorator@@@@KAXPAVCAirResistanceDecorator@NEffectUpdateDecorator@@@Z PROC ; CDynamicPoolEx<NEffectUpdateDecorator::CAirResistanceDecorator>::Delete, COMDAT

; 224  : 			::operator delete(pkData);

  00000	e9 00 00 00 00	 jmp	 ??3@YAXPAX@Z		; operator delete
?Delete@?$CDynamicPoolEx@VCAirResistanceDecorator@NEffectUpdateDecorator@@@@KAXPAVCAirResistanceDecorator@NEffectUpdateDecorator@@@Z ENDP ; CDynamicPoolEx<NEffectUpdateDecorator::CAirResistanceDecorator>::Delete
_TEXT	ENDS
; Function compile flags: /Ogtp
; File C:\Users\ALEXANDER\Desktop\Cliente\COPY_FISH_WON_NEW\Binario\Client\eterlib\Pool.h
; File D:\visual studio 2019\visual studio 2019\VC\Tools\MSVC\14.29.30133\include\vector
; File D:\visual studio 2019\visual studio 2019\VC\Tools\MSVC\14.29.30133\include\algorithm
; File C:\Users\ALEXANDER\Desktop\Cliente\COPY_FISH_WON_NEW\Binario\Client\eterlib\Pool.h
; File D:\visual studio 2019\visual studio 2019\VC\Tools\MSVC\14.29.30133\include\algorithm
; File C:\Users\ALEXANDER\Desktop\Cliente\COPY_FISH_WON_NEW\Binario\Client\eterlib\Pool.h
; File D:\visual studio 2019\visual studio 2019\VC\Tools\MSVC\14.29.30133\include\algorithm
; File C:\Users\ALEXANDER\Desktop\Cliente\COPY_FISH_WON_NEW\Binario\Client\eterlib\Pool.h
; File D:\visual studio 2019\visual studio 2019\VC\Tools\MSVC\14.29.30133\include\vector
; File D:\visual studio 2019\visual studio 2019\VC\Tools\MSVC\14.29.30133\include\xmemory
; File D:\visual studio 2019\visual studio 2019\VC\Tools\MSVC\14.29.30133\include\vector
; File D:\visual studio 2019\visual studio 2019\VC\Tools\MSVC\14.29.30133\include\xmemory
; File D:\visual studio 2019\visual studio 2019\VC\Tools\MSVC\14.29.30133\include\vector
; File D:\visual studio 2019\visual studio 2019\VC\Tools\MSVC\14.29.30133\include\xmemory
; File D:\visual studio 2019\visual studio 2019\VC\Tools\MSVC\14.29.30133\include\vector
; File D:\visual studio 2019\visual studio 2019\VC\Tools\MSVC\14.29.30133\include\xmemory
; File D:\visual studio 2019\visual studio 2019\VC\Tools\MSVC\14.29.30133\include\vector
; File C:\Users\ALEXANDER\Desktop\Cliente\COPY_FISH_WON_NEW\Binario\Client\eterlib\Pool.h
; File D:\visual studio 2019\visual studio 2019\VC\Tools\MSVC\14.29.30133\include\xmemory
; File C:\Users\ALEXANDER\Desktop\Cliente\COPY_FISH_WON_NEW\Binario\Client\eterlib\Pool.h
;	COMDAT ??1?$CDynamicPoolEx@VCAirResistanceDecorator@NEffectUpdateDecorator@@@@UAE@XZ
_TEXT	SEGMENT
??1?$CDynamicPoolEx@VCAirResistanceDecorator@NEffectUpdateDecorator@@@@UAE@XZ PROC ; CDynamicPoolEx<NEffectUpdateDecorator::CAirResistanceDecorator>::~CDynamicPoolEx<NEffectUpdateDecorator::CAirResistanceDecorator>, COMDAT
; _this$ = ecx

; 132  : 		{

  00000	53		 push	 ebx
  00001	56		 push	 esi
  00002	57		 push	 edi
  00003	8b f9		 mov	 edi, ecx
  00005	c7 07 00 00 00
	00		 mov	 DWORD PTR [edi], OFFSET ??_7?$CDynamicPoolEx@VCAirResistanceDecorator@NEffectUpdateDecorator@@@@6B@
; File D:\visual studio 2019\visual studio 2019\VC\Tools\MSVC\14.29.30133\include\vector

; 41   :     _CONSTEXPR20_CONTAINER _Vector_const_iterator(_Tptr _Parg, const _Container_base* _Pvector) noexcept : _Ptr(_Parg) {

  0000b	8b 5f 08	 mov	 ebx, DWORD PTR [edi+8]
  0000e	8b 77 04	 mov	 esi, DWORD PTR [edi+4]
; File D:\visual studio 2019\visual studio 2019\VC\Tools\MSVC\14.29.30133\include\algorithm

; 232  :     for (; _UFirst != _ULast; ++_UFirst) {

  00011	3b f3		 cmp	 esi, ebx
  00013	74 14		 je	 SHORT $LN19@CDynamicPo
$LL20@CDynamicPo:
; File C:\Users\ALEXANDER\Desktop\Cliente\COPY_FISH_WON_NEW\Binario\Client\eterlib\Pool.h

; 224  : 			::operator delete(pkData);

  00015	ff 36		 push	 DWORD PTR [esi]
  00017	e8 00 00 00 00	 call	 ??3@YAXPAX@Z		; operator delete
; File D:\visual studio 2019\visual studio 2019\VC\Tools\MSVC\14.29.30133\include\algorithm

; 232  :     for (; _UFirst != _ULast; ++_UFirst) {

  0001c	83 c6 04	 add	 esi, 4
; File C:\Users\ALEXANDER\Desktop\Cliente\COPY_FISH_WON_NEW\Binario\Client\eterlib\Pool.h

; 224  : 			::operator delete(pkData);

  0001f	83 c4 04	 add	 esp, 4
; File D:\visual studio 2019\visual studio 2019\VC\Tools\MSVC\14.29.30133\include\algorithm

; 232  :     for (; _UFirst != _ULast; ++_UFirst) {

  00022	3b f3		 cmp	 esi, ebx
  00024	75 ef		 jne	 SHORT $LL20@CDynamicPo
  00026	8b 77 04	 mov	 esi, DWORD PTR [edi+4]
$LN19@CDynamicPo:
; File C:\Users\ALEXANDER\Desktop\Cliente\COPY_FISH_WON_NEW\Binario\Client\eterlib\Pool.h

; 162  : 			m_kVct_pkFree.clear();

  00029	8b 47 10	 mov	 eax, DWORD PTR [edi+16]
  0002c	89 77 08	 mov	 DWORD PTR [edi+8], esi
  0002f	89 47 14	 mov	 DWORD PTR [edi+20], eax
; File D:\visual studio 2019\visual studio 2019\VC\Tools\MSVC\14.29.30133\include\vector

; 1750 :         if (_Myfirst) { // destroy and deallocate old array

  00032	85 c0		 test	 eax, eax
  00034	74 41		 je	 SHORT $LN27@CDynamicPo

; 1751 :             _Destroy(_Myfirst, _Mylast);
; 1752 :             _Getal().deallocate(_Myfirst, static_cast<size_type>(_Myend - _Myfirst));

  00036	8b 4f 18	 mov	 ecx, DWORD PTR [edi+24]
  00039	2b c8		 sub	 ecx, eax
; File D:\visual studio 2019\visual studio 2019\VC\Tools\MSVC\14.29.30133\include\xmemory

; 797  :         _Deallocate<_New_alignof<_Ty>>(_Ptr, sizeof(_Ty) * _Count);

  0003b	83 e1 fc	 and	 ecx, -4			; fffffffcH

; 251  :         if (_Bytes >= _Big_allocation_threshold) { // boost the alignment of big allocations to help autovectorization

  0003e	81 f9 00 10 00
	00		 cmp	 ecx, 4096		; 00001000H
  00044	72 12		 jb	 SHORT $LN43@CDynamicPo

; 150  :     const uintptr_t _Ptr_container   = _Ptr_user[-1];

  00046	8b 50 fc	 mov	 edx, DWORD PTR [eax-4]
  00049	83 c1 23	 add	 ecx, 35			; 00000023H

; 151  : 
; 152  :     // If the following asserts, it likely means that we are performing
; 153  :     // an aligned delete on memory coming from an unaligned allocation.
; 154  :     _STL_ASSERT(_Ptr_user[-2] == _Big_allocation_sentinel, "invalid argument");
; 155  : 
; 156  :     // Extra paranoia on aligned allocation/deallocation; ensure _Ptr_container is
; 157  :     // in range [_Min_back_shift, _Non_user_size]
; 158  : #ifdef _DEBUG
; 159  :     constexpr uintptr_t _Min_back_shift = 2 * sizeof(void*);
; 160  : #else // ^^^ _DEBUG ^^^ // vvv !_DEBUG vvv
; 161  :     constexpr uintptr_t _Min_back_shift = sizeof(void*);
; 162  : #endif // _DEBUG
; 163  :     const uintptr_t _Back_shift = reinterpret_cast<uintptr_t>(_Ptr) - _Ptr_container;

  0004c	2b c2		 sub	 eax, edx

; 164  :     _STL_VERIFY(_Back_shift >= _Min_back_shift && _Back_shift <= _Non_user_size, "invalid argument");

  0004e	83 c0 fc	 add	 eax, -4			; fffffffcH
  00051	83 f8 1f	 cmp	 eax, 31			; 0000001fH
  00054	77 6d		 ja	 SHORT $LN65@CDynamicPo

; 165  :     _Ptr = reinterpret_cast<void*>(_Ptr_container);

  00056	8b c2		 mov	 eax, edx
$LN43@CDynamicPo:

; 255  :         ::operator delete(_Ptr, _Bytes);

  00058	51		 push	 ecx
  00059	50		 push	 eax
  0005a	e8 00 00 00 00	 call	 ??3@YAXPAXI@Z		; operator delete
; File D:\visual studio 2019\visual studio 2019\VC\Tools\MSVC\14.29.30133\include\vector

; 1754 :             _Myfirst = nullptr;

  0005f	c7 47 10 00 00
	00 00		 mov	 DWORD PTR [edi+16], 0
; File D:\visual studio 2019\visual studio 2019\VC\Tools\MSVC\14.29.30133\include\xmemory

; 255  :         ::operator delete(_Ptr, _Bytes);

  00066	83 c4 08	 add	 esp, 8
; File D:\visual studio 2019\visual studio 2019\VC\Tools\MSVC\14.29.30133\include\vector

; 1755 :             _Mylast  = nullptr;

  00069	c7 47 14 00 00
	00 00		 mov	 DWORD PTR [edi+20], 0

; 1756 :             _Myend   = nullptr;

  00070	c7 47 18 00 00
	00 00		 mov	 DWORD PTR [edi+24], 0
$LN27@CDynamicPo:

; 1750 :         if (_Myfirst) { // destroy and deallocate old array

  00077	8b 47 04	 mov	 eax, DWORD PTR [edi+4]
  0007a	85 c0		 test	 eax, eax
  0007c	74 41		 je	 SHORT $LN52@CDynamicPo

; 1751 :             _Destroy(_Myfirst, _Mylast);
; 1752 :             _Getal().deallocate(_Myfirst, static_cast<size_type>(_Myend - _Myfirst));

  0007e	8b 4f 0c	 mov	 ecx, DWORD PTR [edi+12]
  00081	2b c8		 sub	 ecx, eax
; File D:\visual studio 2019\visual studio 2019\VC\Tools\MSVC\14.29.30133\include\xmemory

; 797  :         _Deallocate<_New_alignof<_Ty>>(_Ptr, sizeof(_Ty) * _Count);

  00083	83 e1 fc	 and	 ecx, -4			; fffffffcH

; 251  :         if (_Bytes >= _Big_allocation_threshold) { // boost the alignment of big allocations to help autovectorization

  00086	81 f9 00 10 00
	00		 cmp	 ecx, 4096		; 00001000H
  0008c	72 12		 jb	 SHORT $LN68@CDynamicPo

; 150  :     const uintptr_t _Ptr_container   = _Ptr_user[-1];

  0008e	8b 50 fc	 mov	 edx, DWORD PTR [eax-4]
  00091	83 c1 23	 add	 ecx, 35			; 00000023H

; 151  : 
; 152  :     // If the following asserts, it likely means that we are performing
; 153  :     // an aligned delete on memory coming from an unaligned allocation.
; 154  :     _STL_ASSERT(_Ptr_user[-2] == _Big_allocation_sentinel, "invalid argument");
; 155  : 
; 156  :     // Extra paranoia on aligned allocation/deallocation; ensure _Ptr_container is
; 157  :     // in range [_Min_back_shift, _Non_user_size]
; 158  : #ifdef _DEBUG
; 159  :     constexpr uintptr_t _Min_back_shift = 2 * sizeof(void*);
; 160  : #else // ^^^ _DEBUG ^^^ // vvv !_DEBUG vvv
; 161  :     constexpr uintptr_t _Min_back_shift = sizeof(void*);
; 162  : #endif // _DEBUG
; 163  :     const uintptr_t _Back_shift = reinterpret_cast<uintptr_t>(_Ptr) - _Ptr_container;

  00094	2b c2		 sub	 eax, edx

; 164  :     _STL_VERIFY(_Back_shift >= _Min_back_shift && _Back_shift <= _Non_user_size, "invalid argument");

  00096	83 c0 fc	 add	 eax, -4			; fffffffcH
  00099	83 f8 1f	 cmp	 eax, 31			; 0000001fH
  0009c	77 25		 ja	 SHORT $LN65@CDynamicPo

; 165  :     _Ptr = reinterpret_cast<void*>(_Ptr_container);

  0009e	8b c2		 mov	 eax, edx
$LN68@CDynamicPo:

; 255  :         ::operator delete(_Ptr, _Bytes);

  000a0	51		 push	 ecx
  000a1	50		 push	 eax
  000a2	e8 00 00 00 00	 call	 ??3@YAXPAXI@Z		; operator delete
; File D:\visual studio 2019\visual studio 2019\VC\Tools\MSVC\14.29.30133\include\vector

; 1754 :             _Myfirst = nullptr;

  000a7	c7 47 04 00 00
	00 00		 mov	 DWORD PTR [edi+4], 0
; File D:\visual studio 2019\visual studio 2019\VC\Tools\MSVC\14.29.30133\include\xmemory

; 255  :         ::operator delete(_Ptr, _Bytes);

  000ae	83 c4 08	 add	 esp, 8
; File D:\visual studio 2019\visual studio 2019\VC\Tools\MSVC\14.29.30133\include\vector

; 1755 :             _Mylast  = nullptr;

  000b1	c7 47 08 00 00
	00 00		 mov	 DWORD PTR [edi+8], 0

; 1756 :             _Myend   = nullptr;

  000b8	c7 47 0c 00 00
	00 00		 mov	 DWORD PTR [edi+12], 0
$LN52@CDynamicPo:
  000bf	5f		 pop	 edi
; File C:\Users\ALEXANDER\Desktop\Cliente\COPY_FISH_WON_NEW\Binario\Client\eterlib\Pool.h

; 142  : 		}

  000c0	5e		 pop	 esi
  000c1	5b		 pop	 ebx
  000c2	c3		 ret	 0
$LN65@CDynamicPo:
; File D:\visual studio 2019\visual studio 2019\VC\Tools\MSVC\14.29.30133\include\xmemory

; 164  :     _STL_VERIFY(_Back_shift >= _Min_back_shift && _Back_shift <= _Non_user_size, "invalid argument");

  000c3	e8 00 00 00 00	 call	 __invalid_parameter_noinfo_noreturn
$LN77@CDynamicPo:
  000c8	cc		 int	 3
??1?$CDynamicPoolEx@VCAirResistanceDecorator@NEffectUpdateDecorator@@@@UAE@XZ ENDP ; CDynamicPoolEx<NEffectUpdateDecorator::CAirResistanceDecorator>::~CDynamicPoolEx<NEffectUpdateDecorator::CAirResistanceDecorator>
_TEXT	ENDS
; Function compile flags: /Ogtp
;	COMDAT ??_G?$CDynamicPoolEx@VCGravityDecorator@NEffectUpdateDecorator@@@@UAEPAXI@Z
_TEXT	SEGMENT
___flags$ = 8						; size = 4
??_G?$CDynamicPoolEx@VCGravityDecorator@NEffectUpdateDecorator@@@@UAEPAXI@Z PROC ; CDynamicPoolEx<NEffectUpdateDecorator::CGravityDecorator>::`scalar deleting destructor', COMDAT
; _this$ = ecx
  00000	55		 push	 ebp
  00001	8b ec		 mov	 ebp, esp
  00003	56		 push	 esi
  00004	8b f1		 mov	 esi, ecx
  00006	e8 00 00 00 00	 call	 ??1?$CDynamicPoolEx@VCGravityDecorator@NEffectUpdateDecorator@@@@UAE@XZ ; CDynamicPoolEx<NEffectUpdateDecorator::CGravityDecorator>::~CDynamicPoolEx<NEffectUpdateDecorator::CGravityDecorator>
  0000b	f6 45 08 01	 test	 BYTE PTR ___flags$[ebp], 1
  0000f	74 0b		 je	 SHORT $LN4@scalar
  00011	6a 24		 push	 36			; 00000024H
  00013	56		 push	 esi
  00014	e8 00 00 00 00	 call	 ??3@YAXPAXI@Z		; operator delete
  00019	83 c4 08	 add	 esp, 8
$LN4@scalar:
  0001c	8b c6		 mov	 eax, esi
  0001e	5e		 pop	 esi
  0001f	5d		 pop	 ebp
  00020	c2 04 00	 ret	 4
??_G?$CDynamicPoolEx@VCGravityDecorator@NEffectUpdateDecorator@@@@UAEPAXI@Z ENDP ; CDynamicPoolEx<NEffectUpdateDecorator::CGravityDecorator>::`scalar deleting destructor'
_TEXT	ENDS
; Function compile flags: /Ogtp
; File C:\Users\ALEXANDER\Desktop\Cliente\COPY_FISH_WON_NEW\Binario\Client\eterlib\Pool.h
;	COMDAT ?Delete@?$CDynamicPoolEx@VCGravityDecorator@NEffectUpdateDecorator@@@@KAXPAVCGravityDecorator@NEffectUpdateDecorator@@@Z
_TEXT	SEGMENT
_pkData$ = 8						; size = 4
?Delete@?$CDynamicPoolEx@VCGravityDecorator@NEffectUpdateDecorator@@@@KAXPAVCGravityDecorator@NEffectUpdateDecorator@@@Z PROC ; CDynamicPoolEx<NEffectUpdateDecorator::CGravityDecorator>::Delete, COMDAT

; 224  : 			::operator delete(pkData);

  00000	e9 00 00 00 00	 jmp	 ??3@YAXPAX@Z		; operator delete
?Delete@?$CDynamicPoolEx@VCGravityDecorator@NEffectUpdateDecorator@@@@KAXPAVCGravityDecorator@NEffectUpdateDecorator@@@Z ENDP ; CDynamicPoolEx<NEffectUpdateDecorator::CGravityDecorator>::Delete
_TEXT	ENDS
; Function compile flags: /Ogtp
; File C:\Users\ALEXANDER\Desktop\Cliente\COPY_FISH_WON_NEW\Binario\Client\eterlib\Pool.h
; File D:\visual studio 2019\visual studio 2019\VC\Tools\MSVC\14.29.30133\include\vector
; File D:\visual studio 2019\visual studio 2019\VC\Tools\MSVC\14.29.30133\include\algorithm
; File C:\Users\ALEXANDER\Desktop\Cliente\COPY_FISH_WON_NEW\Binario\Client\eterlib\Pool.h
; File D:\visual studio 2019\visual studio 2019\VC\Tools\MSVC\14.29.30133\include\algorithm
; File C:\Users\ALEXANDER\Desktop\Cliente\COPY_FISH_WON_NEW\Binario\Client\eterlib\Pool.h
; File D:\visual studio 2019\visual studio 2019\VC\Tools\MSVC\14.29.30133\include\algorithm
; File C:\Users\ALEXANDER\Desktop\Cliente\COPY_FISH_WON_NEW\Binario\Client\eterlib\Pool.h
; File D:\visual studio 2019\visual studio 2019\VC\Tools\MSVC\14.29.30133\include\vector
; File D:\visual studio 2019\visual studio 2019\VC\Tools\MSVC\14.29.30133\include\xmemory
; File D:\visual studio 2019\visual studio 2019\VC\Tools\MSVC\14.29.30133\include\vector
; File D:\visual studio 2019\visual studio 2019\VC\Tools\MSVC\14.29.30133\include\xmemory
; File D:\visual studio 2019\visual studio 2019\VC\Tools\MSVC\14.29.30133\include\vector
; File D:\visual studio 2019\visual studio 2019\VC\Tools\MSVC\14.29.30133\include\xmemory
; File D:\visual studio 2019\visual studio 2019\VC\Tools\MSVC\14.29.30133\include\vector
; File D:\visual studio 2019\visual studio 2019\VC\Tools\MSVC\14.29.30133\include\xmemory
; File D:\visual studio 2019\visual studio 2019\VC\Tools\MSVC\14.29.30133\include\vector
; File C:\Users\ALEXANDER\Desktop\Cliente\COPY_FISH_WON_NEW\Binario\Client\eterlib\Pool.h
; File D:\visual studio 2019\visual studio 2019\VC\Tools\MSVC\14.29.30133\include\xmemory
; File C:\Users\ALEXANDER\Desktop\Cliente\COPY_FISH_WON_NEW\Binario\Client\eterlib\Pool.h
;	COMDAT ??1?$CDynamicPoolEx@VCGravityDecorator@NEffectUpdateDecorator@@@@UAE@XZ
_TEXT	SEGMENT
??1?$CDynamicPoolEx@VCGravityDecorator@NEffectUpdateDecorator@@@@UAE@XZ PROC ; CDynamicPoolEx<NEffectUpdateDecorator::CGravityDecorator>::~CDynamicPoolEx<NEffectUpdateDecorator::CGravityDecorator>, COMDAT
; _this$ = ecx

; 132  : 		{

  00000	53		 push	 ebx
  00001	56		 push	 esi
  00002	57		 push	 edi
  00003	8b f9		 mov	 edi, ecx
  00005	c7 07 00 00 00
	00		 mov	 DWORD PTR [edi], OFFSET ??_7?$CDynamicPoolEx@VCGravityDecorator@NEffectUpdateDecorator@@@@6B@
; File D:\visual studio 2019\visual studio 2019\VC\Tools\MSVC\14.29.30133\include\vector

; 41   :     _CONSTEXPR20_CONTAINER _Vector_const_iterator(_Tptr _Parg, const _Container_base* _Pvector) noexcept : _Ptr(_Parg) {

  0000b	8b 5f 08	 mov	 ebx, DWORD PTR [edi+8]
  0000e	8b 77 04	 mov	 esi, DWORD PTR [edi+4]
; File D:\visual studio 2019\visual studio 2019\VC\Tools\MSVC\14.29.30133\include\algorithm

; 232  :     for (; _UFirst != _ULast; ++_UFirst) {

  00011	3b f3		 cmp	 esi, ebx
  00013	74 14		 je	 SHORT $LN19@CDynamicPo
$LL20@CDynamicPo:
; File C:\Users\ALEXANDER\Desktop\Cliente\COPY_FISH_WON_NEW\Binario\Client\eterlib\Pool.h

; 224  : 			::operator delete(pkData);

  00015	ff 36		 push	 DWORD PTR [esi]
  00017	e8 00 00 00 00	 call	 ??3@YAXPAX@Z		; operator delete
; File D:\visual studio 2019\visual studio 2019\VC\Tools\MSVC\14.29.30133\include\algorithm

; 232  :     for (; _UFirst != _ULast; ++_UFirst) {

  0001c	83 c6 04	 add	 esi, 4
; File C:\Users\ALEXANDER\Desktop\Cliente\COPY_FISH_WON_NEW\Binario\Client\eterlib\Pool.h

; 224  : 			::operator delete(pkData);

  0001f	83 c4 04	 add	 esp, 4
; File D:\visual studio 2019\visual studio 2019\VC\Tools\MSVC\14.29.30133\include\algorithm

; 232  :     for (; _UFirst != _ULast; ++_UFirst) {

  00022	3b f3		 cmp	 esi, ebx
  00024	75 ef		 jne	 SHORT $LL20@CDynamicPo
  00026	8b 77 04	 mov	 esi, DWORD PTR [edi+4]
$LN19@CDynamicPo:
; File C:\Users\ALEXANDER\Desktop\Cliente\COPY_FISH_WON_NEW\Binario\Client\eterlib\Pool.h

; 162  : 			m_kVct_pkFree.clear();

  00029	8b 47 10	 mov	 eax, DWORD PTR [edi+16]
  0002c	89 77 08	 mov	 DWORD PTR [edi+8], esi
  0002f	89 47 14	 mov	 DWORD PTR [edi+20], eax
; File D:\visual studio 2019\visual studio 2019\VC\Tools\MSVC\14.29.30133\include\vector

; 1750 :         if (_Myfirst) { // destroy and deallocate old array

  00032	85 c0		 test	 eax, eax
  00034	74 41		 je	 SHORT $LN27@CDynamicPo

; 1751 :             _Destroy(_Myfirst, _Mylast);
; 1752 :             _Getal().deallocate(_Myfirst, static_cast<size_type>(_Myend - _Myfirst));

  00036	8b 4f 18	 mov	 ecx, DWORD PTR [edi+24]
  00039	2b c8		 sub	 ecx, eax
; File D:\visual studio 2019\visual studio 2019\VC\Tools\MSVC\14.29.30133\include\xmemory

; 797  :         _Deallocate<_New_alignof<_Ty>>(_Ptr, sizeof(_Ty) * _Count);

  0003b	83 e1 fc	 and	 ecx, -4			; fffffffcH

; 251  :         if (_Bytes >= _Big_allocation_threshold) { // boost the alignment of big allocations to help autovectorization

  0003e	81 f9 00 10 00
	00		 cmp	 ecx, 4096		; 00001000H
  00044	72 12		 jb	 SHORT $LN43@CDynamicPo

; 150  :     const uintptr_t _Ptr_container   = _Ptr_user[-1];

  00046	8b 50 fc	 mov	 edx, DWORD PTR [eax-4]
  00049	83 c1 23	 add	 ecx, 35			; 00000023H

; 151  : 
; 152  :     // If the following asserts, it likely means that we are performing
; 153  :     // an aligned delete on memory coming from an unaligned allocation.
; 154  :     _STL_ASSERT(_Ptr_user[-2] == _Big_allocation_sentinel, "invalid argument");
; 155  : 
; 156  :     // Extra paranoia on aligned allocation/deallocation; ensure _Ptr_container is
; 157  :     // in range [_Min_back_shift, _Non_user_size]
; 158  : #ifdef _DEBUG
; 159  :     constexpr uintptr_t _Min_back_shift = 2 * sizeof(void*);
; 160  : #else // ^^^ _DEBUG ^^^ // vvv !_DEBUG vvv
; 161  :     constexpr uintptr_t _Min_back_shift = sizeof(void*);
; 162  : #endif // _DEBUG
; 163  :     const uintptr_t _Back_shift = reinterpret_cast<uintptr_t>(_Ptr) - _Ptr_container;

  0004c	2b c2		 sub	 eax, edx

; 164  :     _STL_VERIFY(_Back_shift >= _Min_back_shift && _Back_shift <= _Non_user_size, "invalid argument");

  0004e	83 c0 fc	 add	 eax, -4			; fffffffcH
  00051	83 f8 1f	 cmp	 eax, 31			; 0000001fH
  00054	77 6d		 ja	 SHORT $LN65@CDynamicPo

; 165  :     _Ptr = reinterpret_cast<void*>(_Ptr_container);

  00056	8b c2		 mov	 eax, edx
$LN43@CDynamicPo:

; 255  :         ::operator delete(_Ptr, _Bytes);

  00058	51		 push	 ecx
  00059	50		 push	 eax
  0005a	e8 00 00 00 00	 call	 ??3@YAXPAXI@Z		; operator delete
; File D:\visual studio 2019\visual studio 2019\VC\Tools\MSVC\14.29.30133\include\vector

; 1754 :             _Myfirst = nullptr;

  0005f	c7 47 10 00 00
	00 00		 mov	 DWORD PTR [edi+16], 0
; File D:\visual studio 2019\visual studio 2019\VC\Tools\MSVC\14.29.30133\include\xmemory

; 255  :         ::operator delete(_Ptr, _Bytes);

  00066	83 c4 08	 add	 esp, 8
; File D:\visual studio 2019\visual studio 2019\VC\Tools\MSVC\14.29.30133\include\vector

; 1755 :             _Mylast  = nullptr;

  00069	c7 47 14 00 00
	00 00		 mov	 DWORD PTR [edi+20], 0

; 1756 :             _Myend   = nullptr;

  00070	c7 47 18 00 00
	00 00		 mov	 DWORD PTR [edi+24], 0
$LN27@CDynamicPo:

; 1750 :         if (_Myfirst) { // destroy and deallocate old array

  00077	8b 47 04	 mov	 eax, DWORD PTR [edi+4]
  0007a	85 c0		 test	 eax, eax
  0007c	74 41		 je	 SHORT $LN52@CDynamicPo

; 1751 :             _Destroy(_Myfirst, _Mylast);
; 1752 :             _Getal().deallocate(_Myfirst, static_cast<size_type>(_Myend - _Myfirst));

  0007e	8b 4f 0c	 mov	 ecx, DWORD PTR [edi+12]
  00081	2b c8		 sub	 ecx, eax
; File D:\visual studio 2019\visual studio 2019\VC\Tools\MSVC\14.29.30133\include\xmemory

; 797  :         _Deallocate<_New_alignof<_Ty>>(_Ptr, sizeof(_Ty) * _Count);

  00083	83 e1 fc	 and	 ecx, -4			; fffffffcH

; 251  :         if (_Bytes >= _Big_allocation_threshold) { // boost the alignment of big allocations to help autovectorization

  00086	81 f9 00 10 00
	00		 cmp	 ecx, 4096		; 00001000H
  0008c	72 12		 jb	 SHORT $LN68@CDynamicPo

; 150  :     const uintptr_t _Ptr_container   = _Ptr_user[-1];

  0008e	8b 50 fc	 mov	 edx, DWORD PTR [eax-4]
  00091	83 c1 23	 add	 ecx, 35			; 00000023H

; 151  : 
; 152  :     // If the following asserts, it likely means that we are performing
; 153  :     // an aligned delete on memory coming from an unaligned allocation.
; 154  :     _STL_ASSERT(_Ptr_user[-2] == _Big_allocation_sentinel, "invalid argument");
; 155  : 
; 156  :     // Extra paranoia on aligned allocation/deallocation; ensure _Ptr_container is
; 157  :     // in range [_Min_back_shift, _Non_user_size]
; 158  : #ifdef _DEBUG
; 159  :     constexpr uintptr_t _Min_back_shift = 2 * sizeof(void*);
; 160  : #else // ^^^ _DEBUG ^^^ // vvv !_DEBUG vvv
; 161  :     constexpr uintptr_t _Min_back_shift = sizeof(void*);
; 162  : #endif // _DEBUG
; 163  :     const uintptr_t _Back_shift = reinterpret_cast<uintptr_t>(_Ptr) - _Ptr_container;

  00094	2b c2		 sub	 eax, edx

; 164  :     _STL_VERIFY(_Back_shift >= _Min_back_shift && _Back_shift <= _Non_user_size, "invalid argument");

  00096	83 c0 fc	 add	 eax, -4			; fffffffcH
  00099	83 f8 1f	 cmp	 eax, 31			; 0000001fH
  0009c	77 25		 ja	 SHORT $LN65@CDynamicPo

; 165  :     _Ptr = reinterpret_cast<void*>(_Ptr_container);

  0009e	8b c2		 mov	 eax, edx
$LN68@CDynamicPo:

; 255  :         ::operator delete(_Ptr, _Bytes);

  000a0	51		 push	 ecx
  000a1	50		 push	 eax
  000a2	e8 00 00 00 00	 call	 ??3@YAXPAXI@Z		; operator delete
; File D:\visual studio 2019\visual studio 2019\VC\Tools\MSVC\14.29.30133\include\vector

; 1754 :             _Myfirst = nullptr;

  000a7	c7 47 04 00 00
	00 00		 mov	 DWORD PTR [edi+4], 0
; File D:\visual studio 2019\visual studio 2019\VC\Tools\MSVC\14.29.30133\include\xmemory

; 255  :         ::operator delete(_Ptr, _Bytes);

  000ae	83 c4 08	 add	 esp, 8
; File D:\visual studio 2019\visual studio 2019\VC\Tools\MSVC\14.29.30133\include\vector

; 1755 :             _Mylast  = nullptr;

  000b1	c7 47 08 00 00
	00 00		 mov	 DWORD PTR [edi+8], 0

; 1756 :             _Myend   = nullptr;

  000b8	c7 47 0c 00 00
	00 00		 mov	 DWORD PTR [edi+12], 0
$LN52@CDynamicPo:
  000bf	5f		 pop	 edi
; File C:\Users\ALEXANDER\Desktop\Cliente\COPY_FISH_WON_NEW\Binario\Client\eterlib\Pool.h

; 142  : 		}

  000c0	5e		 pop	 esi
  000c1	5b		 pop	 ebx
  000c2	c3		 ret	 0
$LN65@CDynamicPo:
; File D:\visual studio 2019\visual studio 2019\VC\Tools\MSVC\14.29.30133\include\xmemory

; 164  :     _STL_VERIFY(_Back_shift >= _Min_back_shift && _Back_shift <= _Non_user_size, "invalid argument");

  000c3	e8 00 00 00 00	 call	 __invalid_parameter_noinfo_noreturn
$LN77@CDynamicPo:
  000c8	cc		 int	 3
??1?$CDynamicPoolEx@VCGravityDecorator@NEffectUpdateDecorator@@@@UAE@XZ ENDP ; CDynamicPoolEx<NEffectUpdateDecorator::CGravityDecorator>::~CDynamicPoolEx<NEffectUpdateDecorator::CGravityDecorator>
_TEXT	ENDS
; Function compile flags: /Ogtp
;	COMDAT ??_G?$CDynamicPoolEx@VCRotationDecorator@NEffectUpdateDecorator@@@@UAEPAXI@Z
_TEXT	SEGMENT
___flags$ = 8						; size = 4
??_G?$CDynamicPoolEx@VCRotationDecorator@NEffectUpdateDecorator@@@@UAEPAXI@Z PROC ; CDynamicPoolEx<NEffectUpdateDecorator::CRotationDecorator>::`scalar deleting destructor', COMDAT
; _this$ = ecx
  00000	55		 push	 ebp
  00001	8b ec		 mov	 ebp, esp
  00003	56		 push	 esi
  00004	8b f1		 mov	 esi, ecx
  00006	e8 00 00 00 00	 call	 ??1?$CDynamicPoolEx@VCRotationDecorator@NEffectUpdateDecorator@@@@UAE@XZ ; CDynamicPoolEx<NEffectUpdateDecorator::CRotationDecorator>::~CDynamicPoolEx<NEffectUpdateDecorator::CRotationDecorator>
  0000b	f6 45 08 01	 test	 BYTE PTR ___flags$[ebp], 1
  0000f	74 0b		 je	 SHORT $LN4@scalar
  00011	6a 24		 push	 36			; 00000024H
  00013	56		 push	 esi
  00014	e8 00 00 00 00	 call	 ??3@YAXPAXI@Z		; operator delete
  00019	83 c4 08	 add	 esp, 8
$LN4@scalar:
  0001c	8b c6		 mov	 eax, esi
  0001e	5e		 pop	 esi
  0001f	5d		 pop	 ebp
  00020	c2 04 00	 ret	 4
??_G?$CDynamicPoolEx@VCRotationDecorator@NEffectUpdateDecorator@@@@UAEPAXI@Z ENDP ; CDynamicPoolEx<NEffectUpdateDecorator::CRotationDecorator>::`scalar deleting destructor'
_TEXT	ENDS
; Function compile flags: /Ogtp
; File C:\Users\ALEXANDER\Desktop\Cliente\COPY_FISH_WON_NEW\Binario\Client\eterlib\Pool.h
;	COMDAT ?Delete@?$CDynamicPoolEx@VCRotationDecorator@NEffectUpdateDecorator@@@@KAXPAVCRotationDecorator@NEffectUpdateDecorator@@@Z
_TEXT	SEGMENT
_pkData$ = 8						; size = 4
?Delete@?$CDynamicPoolEx@VCRotationDecorator@NEffectUpdateDecorator@@@@KAXPAVCRotationDecorator@NEffectUpdateDecorator@@@Z PROC ; CDynamicPoolEx<NEffectUpdateDecorator::CRotationDecorator>::Delete, COMDAT

; 224  : 			::operator delete(pkData);

  00000	e9 00 00 00 00	 jmp	 ??3@YAXPAX@Z		; operator delete
?Delete@?$CDynamicPoolEx@VCRotationDecorator@NEffectUpdateDecorator@@@@KAXPAVCRotationDecorator@NEffectUpdateDecorator@@@Z ENDP ; CDynamicPoolEx<NEffectUpdateDecorator::CRotationDecorator>::Delete
_TEXT	ENDS
; Function compile flags: /Ogtp
; File C:\Users\ALEXANDER\Desktop\Cliente\COPY_FISH_WON_NEW\Binario\Client\eterlib\Pool.h
; File D:\visual studio 2019\visual studio 2019\VC\Tools\MSVC\14.29.30133\include\vector
; File D:\visual studio 2019\visual studio 2019\VC\Tools\MSVC\14.29.30133\include\algorithm
; File C:\Users\ALEXANDER\Desktop\Cliente\COPY_FISH_WON_NEW\Binario\Client\eterlib\Pool.h
; File D:\visual studio 2019\visual studio 2019\VC\Tools\MSVC\14.29.30133\include\algorithm
; File C:\Users\ALEXANDER\Desktop\Cliente\COPY_FISH_WON_NEW\Binario\Client\eterlib\Pool.h
; File D:\visual studio 2019\visual studio 2019\VC\Tools\MSVC\14.29.30133\include\algorithm
; File C:\Users\ALEXANDER\Desktop\Cliente\COPY_FISH_WON_NEW\Binario\Client\eterlib\Pool.h
; File D:\visual studio 2019\visual studio 2019\VC\Tools\MSVC\14.29.30133\include\vector
; File D:\visual studio 2019\visual studio 2019\VC\Tools\MSVC\14.29.30133\include\xmemory
; File D:\visual studio 2019\visual studio 2019\VC\Tools\MSVC\14.29.30133\include\vector
; File D:\visual studio 2019\visual studio 2019\VC\Tools\MSVC\14.29.30133\include\xmemory
; File D:\visual studio 2019\visual studio 2019\VC\Tools\MSVC\14.29.30133\include\vector
; File D:\visual studio 2019\visual studio 2019\VC\Tools\MSVC\14.29.30133\include\xmemory
; File D:\visual studio 2019\visual studio 2019\VC\Tools\MSVC\14.29.30133\include\vector
; File D:\visual studio 2019\visual studio 2019\VC\Tools\MSVC\14.29.30133\include\xmemory
; File D:\visual studio 2019\visual studio 2019\VC\Tools\MSVC\14.29.30133\include\vector
; File C:\Users\ALEXANDER\Desktop\Cliente\COPY_FISH_WON_NEW\Binario\Client\eterlib\Pool.h
; File D:\visual studio 2019\visual studio 2019\VC\Tools\MSVC\14.29.30133\include\xmemory
; File C:\Users\ALEXANDER\Desktop\Cliente\COPY_FISH_WON_NEW\Binario\Client\eterlib\Pool.h
;	COMDAT ??1?$CDynamicPoolEx@VCRotationDecorator@NEffectUpdateDecorator@@@@UAE@XZ
_TEXT	SEGMENT
??1?$CDynamicPoolEx@VCRotationDecorator@NEffectUpdateDecorator@@@@UAE@XZ PROC ; CDynamicPoolEx<NEffectUpdateDecorator::CRotationDecorator>::~CDynamicPoolEx<NEffectUpdateDecorator::CRotationDecorator>, COMDAT
; _this$ = ecx

; 132  : 		{

  00000	53		 push	 ebx
  00001	56		 push	 esi
  00002	57		 push	 edi
  00003	8b f9		 mov	 edi, ecx
  00005	c7 07 00 00 00
	00		 mov	 DWORD PTR [edi], OFFSET ??_7?$CDynamicPoolEx@VCRotationDecorator@NEffectUpdateDecorator@@@@6B@
; File D:\visual studio 2019\visual studio 2019\VC\Tools\MSVC\14.29.30133\include\vector

; 41   :     _CONSTEXPR20_CONTAINER _Vector_const_iterator(_Tptr _Parg, const _Container_base* _Pvector) noexcept : _Ptr(_Parg) {

  0000b	8b 5f 08	 mov	 ebx, DWORD PTR [edi+8]
  0000e	8b 77 04	 mov	 esi, DWORD PTR [edi+4]
; File D:\visual studio 2019\visual studio 2019\VC\Tools\MSVC\14.29.30133\include\algorithm

; 232  :     for (; _UFirst != _ULast; ++_UFirst) {

  00011	3b f3		 cmp	 esi, ebx
  00013	74 14		 je	 SHORT $LN19@CDynamicPo
$LL20@CDynamicPo:
; File C:\Users\ALEXANDER\Desktop\Cliente\COPY_FISH_WON_NEW\Binario\Client\eterlib\Pool.h

; 224  : 			::operator delete(pkData);

  00015	ff 36		 push	 DWORD PTR [esi]
  00017	e8 00 00 00 00	 call	 ??3@YAXPAX@Z		; operator delete
; File D:\visual studio 2019\visual studio 2019\VC\Tools\MSVC\14.29.30133\include\algorithm

; 232  :     for (; _UFirst != _ULast; ++_UFirst) {

  0001c	83 c6 04	 add	 esi, 4
; File C:\Users\ALEXANDER\Desktop\Cliente\COPY_FISH_WON_NEW\Binario\Client\eterlib\Pool.h

; 224  : 			::operator delete(pkData);

  0001f	83 c4 04	 add	 esp, 4
; File D:\visual studio 2019\visual studio 2019\VC\Tools\MSVC\14.29.30133\include\algorithm

; 232  :     for (; _UFirst != _ULast; ++_UFirst) {

  00022	3b f3		 cmp	 esi, ebx
  00024	75 ef		 jne	 SHORT $LL20@CDynamicPo
  00026	8b 77 04	 mov	 esi, DWORD PTR [edi+4]
$LN19@CDynamicPo:
; File C:\Users\ALEXANDER\Desktop\Cliente\COPY_FISH_WON_NEW\Binario\Client\eterlib\Pool.h

; 162  : 			m_kVct_pkFree.clear();

  00029	8b 47 10	 mov	 eax, DWORD PTR [edi+16]
  0002c	89 77 08	 mov	 DWORD PTR [edi+8], esi
  0002f	89 47 14	 mov	 DWORD PTR [edi+20], eax
; File D:\visual studio 2019\visual studio 2019\VC\Tools\MSVC\14.29.30133\include\vector

; 1750 :         if (_Myfirst) { // destroy and deallocate old array

  00032	85 c0		 test	 eax, eax
  00034	74 41		 je	 SHORT $LN27@CDynamicPo

; 1751 :             _Destroy(_Myfirst, _Mylast);
; 1752 :             _Getal().deallocate(_Myfirst, static_cast<size_type>(_Myend - _Myfirst));

  00036	8b 4f 18	 mov	 ecx, DWORD PTR [edi+24]
  00039	2b c8		 sub	 ecx, eax
; File D:\visual studio 2019\visual studio 2019\VC\Tools\MSVC\14.29.30133\include\xmemory

; 797  :         _Deallocate<_New_alignof<_Ty>>(_Ptr, sizeof(_Ty) * _Count);

  0003b	83 e1 fc	 and	 ecx, -4			; fffffffcH

; 251  :         if (_Bytes >= _Big_allocation_threshold) { // boost the alignment of big allocations to help autovectorization

  0003e	81 f9 00 10 00
	00		 cmp	 ecx, 4096		; 00001000H
  00044	72 12		 jb	 SHORT $LN43@CDynamicPo

; 150  :     const uintptr_t _Ptr_container   = _Ptr_user[-1];

  00046	8b 50 fc	 mov	 edx, DWORD PTR [eax-4]
  00049	83 c1 23	 add	 ecx, 35			; 00000023H

; 151  : 
; 152  :     // If the following asserts, it likely means that we are performing
; 153  :     // an aligned delete on memory coming from an unaligned allocation.
; 154  :     _STL_ASSERT(_Ptr_user[-2] == _Big_allocation_sentinel, "invalid argument");
; 155  : 
; 156  :     // Extra paranoia on aligned allocation/deallocation; ensure _Ptr_container is
; 157  :     // in range [_Min_back_shift, _Non_user_size]
; 158  : #ifdef _DEBUG
; 159  :     constexpr uintptr_t _Min_back_shift = 2 * sizeof(void*);
; 160  : #else // ^^^ _DEBUG ^^^ // vvv !_DEBUG vvv
; 161  :     constexpr uintptr_t _Min_back_shift = sizeof(void*);
; 162  : #endif // _DEBUG
; 163  :     const uintptr_t _Back_shift = reinterpret_cast<uintptr_t>(_Ptr) - _Ptr_container;

  0004c	2b c2		 sub	 eax, edx

; 164  :     _STL_VERIFY(_Back_shift >= _Min_back_shift && _Back_shift <= _Non_user_size, "invalid argument");

  0004e	83 c0 fc	 add	 eax, -4			; fffffffcH
  00051	83 f8 1f	 cmp	 eax, 31			; 0000001fH
  00054	77 6d		 ja	 SHORT $LN65@CDynamicPo

; 165  :     _Ptr = reinterpret_cast<void*>(_Ptr_container);

  00056	8b c2		 mov	 eax, edx
$LN43@CDynamicPo:

; 255  :         ::operator delete(_Ptr, _Bytes);

  00058	51		 push	 ecx
  00059	50		 push	 eax
  0005a	e8 00 00 00 00	 call	 ??3@YAXPAXI@Z		; operator delete
; File D:\visual studio 2019\visual studio 2019\VC\Tools\MSVC\14.29.30133\include\vector

; 1754 :             _Myfirst = nullptr;

  0005f	c7 47 10 00 00
	00 00		 mov	 DWORD PTR [edi+16], 0
; File D:\visual studio 2019\visual studio 2019\VC\Tools\MSVC\14.29.30133\include\xmemory

; 255  :         ::operator delete(_Ptr, _Bytes);

  00066	83 c4 08	 add	 esp, 8
; File D:\visual studio 2019\visual studio 2019\VC\Tools\MSVC\14.29.30133\include\vector

; 1755 :             _Mylast  = nullptr;

  00069	c7 47 14 00 00
	00 00		 mov	 DWORD PTR [edi+20], 0

; 1756 :             _Myend   = nullptr;

  00070	c7 47 18 00 00
	00 00		 mov	 DWORD PTR [edi+24], 0
$LN27@CDynamicPo:

; 1750 :         if (_Myfirst) { // destroy and deallocate old array

  00077	8b 47 04	 mov	 eax, DWORD PTR [edi+4]
  0007a	85 c0		 test	 eax, eax
  0007c	74 41		 je	 SHORT $LN52@CDynamicPo

; 1751 :             _Destroy(_Myfirst, _Mylast);
; 1752 :             _Getal().deallocate(_Myfirst, static_cast<size_type>(_Myend - _Myfirst));

  0007e	8b 4f 0c	 mov	 ecx, DWORD PTR [edi+12]
  00081	2b c8		 sub	 ecx, eax
; File D:\visual studio 2019\visual studio 2019\VC\Tools\MSVC\14.29.30133\include\xmemory

; 797  :         _Deallocate<_New_alignof<_Ty>>(_Ptr, sizeof(_Ty) * _Count);

  00083	83 e1 fc	 and	 ecx, -4			; fffffffcH

; 251  :         if (_Bytes >= _Big_allocation_threshold) { // boost the alignment of big allocations to help autovectorization

  00086	81 f9 00 10 00
	00		 cmp	 ecx, 4096		; 00001000H
  0008c	72 12		 jb	 SHORT $LN68@CDynamicPo

; 150  :     const uintptr_t _Ptr_container   = _Ptr_user[-1];

  0008e	8b 50 fc	 mov	 edx, DWORD PTR [eax-4]
  00091	83 c1 23	 add	 ecx, 35			; 00000023H

; 151  : 
; 152  :     // If the following asserts, it likely means that we are performing
; 153  :     // an aligned delete on memory coming from an unaligned allocation.
; 154  :     _STL_ASSERT(_Ptr_user[-2] == _Big_allocation_sentinel, "invalid argument");
; 155  : 
; 156  :     // Extra paranoia on aligned allocation/deallocation; ensure _Ptr_container is
; 157  :     // in range [_Min_back_shift, _Non_user_size]
; 158  : #ifdef _DEBUG
; 159  :     constexpr uintptr_t _Min_back_shift = 2 * sizeof(void*);
; 160  : #else // ^^^ _DEBUG ^^^ // vvv !_DEBUG vvv
; 161  :     constexpr uintptr_t _Min_back_shift = sizeof(void*);
; 162  : #endif // _DEBUG
; 163  :     const uintptr_t _Back_shift = reinterpret_cast<uintptr_t>(_Ptr) - _Ptr_container;

  00094	2b c2		 sub	 eax, edx

; 164  :     _STL_VERIFY(_Back_shift >= _Min_back_shift && _Back_shift <= _Non_user_size, "invalid argument");

  00096	83 c0 fc	 add	 eax, -4			; fffffffcH
  00099	83 f8 1f	 cmp	 eax, 31			; 0000001fH
  0009c	77 25		 ja	 SHORT $LN65@CDynamicPo

; 165  :     _Ptr = reinterpret_cast<void*>(_Ptr_container);

  0009e	8b c2		 mov	 eax, edx
$LN68@CDynamicPo:

; 255  :         ::operator delete(_Ptr, _Bytes);

  000a0	51		 push	 ecx
  000a1	50		 push	 eax
  000a2	e8 00 00 00 00	 call	 ??3@YAXPAXI@Z		; operator delete
; File D:\visual studio 2019\visual studio 2019\VC\Tools\MSVC\14.29.30133\include\vector

; 1754 :             _Myfirst = nullptr;

  000a7	c7 47 04 00 00
	00 00		 mov	 DWORD PTR [edi+4], 0
; File D:\visual studio 2019\visual studio 2019\VC\Tools\MSVC\14.29.30133\include\xmemory

; 255  :         ::operator delete(_Ptr, _Bytes);

  000ae	83 c4 08	 add	 esp, 8
; File D:\visual studio 2019\visual studio 2019\VC\Tools\MSVC\14.29.30133\include\vector

; 1755 :             _Mylast  = nullptr;

  000b1	c7 47 08 00 00
	00 00		 mov	 DWORD PTR [edi+8], 0

; 1756 :             _Myend   = nullptr;

  000b8	c7 47 0c 00 00
	00 00		 mov	 DWORD PTR [edi+12], 0
$LN52@CDynamicPo:
  000bf	5f		 pop	 edi
; File C:\Users\ALEXANDER\Desktop\Cliente\COPY_FISH_WON_NEW\Binario\Client\eterlib\Pool.h

; 142  : 		}

  000c0	5e		 pop	 esi
  000c1	5b		 pop	 ebx
  000c2	c3		 ret	 0
$LN65@CDynamicPo:
; File D:\visual studio 2019\visual studio 2019\VC\Tools\MSVC\14.29.30133\include\xmemory

; 164  :     _STL_VERIFY(_Back_shift >= _Min_back_shift && _Back_shift <= _Non_user_size, "invalid argument");

  000c3	e8 00 00 00 00	 call	 __invalid_parameter_noinfo_noreturn
$LN77@CDynamicPo:
  000c8	cc		 int	 3
??1?$CDynamicPoolEx@VCRotationDecorator@NEffectUpdateDecorator@@@@UAE@XZ ENDP ; CDynamicPoolEx<NEffectUpdateDecorator::CRotationDecorator>::~CDynamicPoolEx<NEffectUpdateDecorator::CRotationDecorator>
_TEXT	ENDS
; Function compile flags: /Ogtp
; File D:\visual studio 2019\visual studio 2019\VC\Tools\MSVC\14.29.30133\include\memory
; File D:\visual studio 2019\visual studio 2019\VC\Tools\MSVC\14.29.30133\include\xmemory
; File D:\visual studio 2019\visual studio 2019\VC\Tools\MSVC\14.29.30133\include\memory
; File D:\visual studio 2019\visual studio 2019\VC\Tools\MSVC\14.29.30133\include\xmemory
; File D:\visual studio 2019\visual studio 2019\VC\Tools\MSVC\14.29.30133\include\memory
;	COMDAT ??$make_unique@VCGraphicImageInstance@@$$V$0A@@std@@YA?AV?$unique_ptr@VCGraphicImageInstance@@U?$default_delete@VCGraphicImageInstance@@@std@@@0@XZ
_TEXT	SEGMENT
$T2 = -16						; size = 4
__$EHRec$ = -12						; size = 12
___$ReturnUdt$ = 8					; size = 4
??$make_unique@VCGraphicImageInstance@@$$V$0A@@std@@YA?AV?$unique_ptr@VCGraphicImageInstance@@U?$default_delete@VCGraphicImageInstance@@@std@@@0@XZ PROC ; std::make_unique<CGraphicImageInstance,0>, COMDAT

; 3381 : _NODISCARD unique_ptr<_Ty> make_unique(_Types&&... _Args) { // make a unique_ptr

  00000	55		 push	 ebp
  00001	8b ec		 mov	 ebp, esp
  00003	6a ff		 push	 -1
  00005	68 00 00 00 00	 push	 __ehhandler$??$make_unique@VCGraphicImageInstance@@$$V$0A@@std@@YA?AV?$unique_ptr@VCGraphicImageInstance@@U?$default_delete@VCGraphicImageInstance@@@std@@@0@XZ
  0000a	64 a1 00 00 00
	00		 mov	 eax, DWORD PTR fs:0
  00010	50		 push	 eax
  00011	51		 push	 ecx
  00012	a1 00 00 00 00	 mov	 eax, DWORD PTR ___security_cookie
  00017	33 c5		 xor	 eax, ebp
  00019	50		 push	 eax
  0001a	8d 45 f4	 lea	 eax, DWORD PTR __$EHRec$[ebp]
  0001d	64 a3 00 00 00
	00		 mov	 DWORD PTR fs:0, eax

; 3382 :     return unique_ptr<_Ty>(new _Ty(_STD forward<_Types>(_Args)...));

  00023	6a 28		 push	 40			; 00000028H
  00025	e8 00 00 00 00	 call	 ??2@YAPAXI@Z		; operator new
  0002a	83 c4 04	 add	 esp, 4
  0002d	89 45 f0	 mov	 DWORD PTR $T2[ebp], eax
  00030	c7 45 fc 00 00
	00 00		 mov	 DWORD PTR __$EHRec$[ebp+8], 0
  00037	85 c0		 test	 eax, eax
  00039	74 1d		 je	 SHORT $LN3@make_uniqu
  0003b	8b c8		 mov	 ecx, eax
  0003d	e8 00 00 00 00	 call	 ??0CGraphicImageInstance@@QAE@XZ ; CGraphicImageInstance::CGraphicImageInstance
; File D:\visual studio 2019\visual studio 2019\VC\Tools\MSVC\14.29.30133\include\xmemory

; 1336 :         : _Ty1(_STD forward<_Other1>(_Val1)), _Myval2(_STD forward<_Other2>(_Val2)...) {}

  00042	8b 4d 08	 mov	 ecx, DWORD PTR ___$ReturnUdt$[ebp]
  00045	89 01		 mov	 DWORD PTR [ecx], eax
; File D:\visual studio 2019\visual studio 2019\VC\Tools\MSVC\14.29.30133\include\memory

; 3382 :     return unique_ptr<_Ty>(new _Ty(_STD forward<_Types>(_Args)...));

  00047	8b c1		 mov	 eax, ecx

; 3383 : }

  00049	8b 4d f4	 mov	 ecx, DWORD PTR __$EHRec$[ebp]
  0004c	64 89 0d 00 00
	00 00		 mov	 DWORD PTR fs:0, ecx
  00053	59		 pop	 ecx
  00054	8b e5		 mov	 esp, ebp
  00056	5d		 pop	 ebp
  00057	c3		 ret	 0
$LN3@make_uniqu:
; File D:\visual studio 2019\visual studio 2019\VC\Tools\MSVC\14.29.30133\include\xmemory

; 1336 :         : _Ty1(_STD forward<_Other1>(_Val1)), _Myval2(_STD forward<_Other2>(_Val2)...) {}

  00058	8b 45 08	 mov	 eax, DWORD PTR ___$ReturnUdt$[ebp]
  0005b	c7 00 00 00 00
	00		 mov	 DWORD PTR [eax], 0
; File D:\visual studio 2019\visual studio 2019\VC\Tools\MSVC\14.29.30133\include\memory

; 3383 : }

  00061	8b 4d f4	 mov	 ecx, DWORD PTR __$EHRec$[ebp]
  00064	64 89 0d 00 00
	00 00		 mov	 DWORD PTR fs:0, ecx
  0006b	59		 pop	 ecx
  0006c	8b e5		 mov	 esp, ebp
  0006e	5d		 pop	 ebp
  0006f	c3		 ret	 0
_TEXT	ENDS
;	COMDAT text$x
text$x	SEGMENT
__unwindfunclet$??$make_unique@VCGraphicImageInstance@@$$V$0A@@std@@YA?AV?$unique_ptr@VCGraphicImageInstance@@U?$default_delete@VCGraphicImageInstance@@@std@@@0@XZ$0:
  00000	6a 28		 push	 40			; 00000028H
  00002	8b 45 f0	 mov	 eax, DWORD PTR $T2[ebp]
  00005	50		 push	 eax
  00006	e8 00 00 00 00	 call	 ??3@YAXPAXI@Z		; operator delete
  0000b	83 c4 08	 add	 esp, 8
  0000e	c3		 ret	 0
  0000f	cc		 int	 3
  00010	cc		 int	 3
  00011	cc		 int	 3
  00012	cc		 int	 3
  00013	cc		 int	 3
__ehhandler$??$make_unique@VCGraphicImageInstance@@$$V$0A@@std@@YA?AV?$unique_ptr@VCGraphicImageInstance@@U?$default_delete@VCGraphicImageInstance@@@std@@@0@XZ:
  00014	90		 npad	 1
  00015	90		 npad	 1
  00016	8b 54 24 08	 mov	 edx, DWORD PTR [esp+8]
  0001a	8d 42 0c	 lea	 eax, DWORD PTR [edx+12]
  0001d	8b 4a f8	 mov	 ecx, DWORD PTR [edx-8]
  00020	33 c8		 xor	 ecx, eax
  00022	e8 00 00 00 00	 call	 @__security_check_cookie@4
  00027	b8 00 00 00 00	 mov	 eax, OFFSET __ehfuncinfo$??$make_unique@VCGraphicImageInstance@@$$V$0A@@std@@YA?AV?$unique_ptr@VCGraphicImageInstance@@U?$default_delete@VCGraphicImageInstance@@@std@@@0@XZ
  0002c	e9 00 00 00 00	 jmp	 ___CxxFrameHandler3
text$x	ENDS
??$make_unique@VCGraphicImageInstance@@$$V$0A@@std@@YA?AV?$unique_ptr@VCGraphicImageInstance@@U?$default_delete@VCGraphicImageInstance@@@std@@@0@XZ ENDP ; std::make_unique<CGraphicImageInstance,0>
; Function compile flags: /Ogtp
; File D:\visual studio 2019\visual studio 2019\VC\Tools\MSVC\14.29.30133\include\memory
; File D:\visual studio 2019\visual studio 2019\VC\Tools\MSVC\14.29.30133\include\xmemory
; File D:\visual studio 2019\visual studio 2019\VC\Tools\MSVC\14.29.30133\include\memory
; File D:\visual studio 2019\visual studio 2019\VC\Tools\MSVC\14.29.30133\include\xmemory
; File D:\visual studio 2019\visual studio 2019\VC\Tools\MSVC\14.29.30133\include\memory
;	COMDAT ??$make_unique@VCInstanceBase@@$$V$0A@@std@@YA?AV?$unique_ptr@VCInstanceBase@@U?$default_delete@VCInstanceBase@@@std@@@0@XZ
_TEXT	SEGMENT
$T2 = -16						; size = 4
__$EHRec$ = -12						; size = 12
___$ReturnUdt$ = 8					; size = 4
??$make_unique@VCInstanceBase@@$$V$0A@@std@@YA?AV?$unique_ptr@VCInstanceBase@@U?$default_delete@VCInstanceBase@@@std@@@0@XZ PROC ; std::make_unique<CInstanceBase,0>, COMDAT

; 3381 : _NODISCARD unique_ptr<_Ty> make_unique(_Types&&... _Args) { // make a unique_ptr

  00000	55		 push	 ebp
  00001	8b ec		 mov	 ebp, esp
  00003	6a ff		 push	 -1
  00005	68 00 00 00 00	 push	 __ehhandler$??$make_unique@VCInstanceBase@@$$V$0A@@std@@YA?AV?$unique_ptr@VCInstanceBase@@U?$default_delete@VCInstanceBase@@@std@@@0@XZ
  0000a	64 a1 00 00 00
	00		 mov	 eax, DWORD PTR fs:0
  00010	50		 push	 eax
  00011	51		 push	 ecx
  00012	a1 00 00 00 00	 mov	 eax, DWORD PTR ___security_cookie
  00017	33 c5		 xor	 eax, ebp
  00019	50		 push	 eax
  0001a	8d 45 f4	 lea	 eax, DWORD PTR __$EHRec$[ebp]
  0001d	64 a3 00 00 00
	00		 mov	 DWORD PTR fs:0, eax

; 3382 :     return unique_ptr<_Ty>(new _Ty(_STD forward<_Types>(_Args)...));

  00023	68 a4 1d 00 00	 push	 7588			; 00001da4H
  00028	e8 00 00 00 00	 call	 ??2@YAPAXI@Z		; operator new
  0002d	83 c4 04	 add	 esp, 4
  00030	89 45 f0	 mov	 DWORD PTR $T2[ebp], eax
  00033	c7 45 fc 00 00
	00 00		 mov	 DWORD PTR __$EHRec$[ebp+8], 0
  0003a	85 c0		 test	 eax, eax
  0003c	74 1d		 je	 SHORT $LN3@make_uniqu
  0003e	8b c8		 mov	 ecx, eax
  00040	e8 00 00 00 00	 call	 ??0CInstanceBase@@QAE@XZ ; CInstanceBase::CInstanceBase
; File D:\visual studio 2019\visual studio 2019\VC\Tools\MSVC\14.29.30133\include\xmemory

; 1336 :         : _Ty1(_STD forward<_Other1>(_Val1)), _Myval2(_STD forward<_Other2>(_Val2)...) {}

  00045	8b 4d 08	 mov	 ecx, DWORD PTR ___$ReturnUdt$[ebp]
  00048	89 01		 mov	 DWORD PTR [ecx], eax
; File D:\visual studio 2019\visual studio 2019\VC\Tools\MSVC\14.29.30133\include\memory

; 3382 :     return unique_ptr<_Ty>(new _Ty(_STD forward<_Types>(_Args)...));

  0004a	8b c1		 mov	 eax, ecx

; 3383 : }

  0004c	8b 4d f4	 mov	 ecx, DWORD PTR __$EHRec$[ebp]
  0004f	64 89 0d 00 00
	00 00		 mov	 DWORD PTR fs:0, ecx
  00056	59		 pop	 ecx
  00057	8b e5		 mov	 esp, ebp
  00059	5d		 pop	 ebp
  0005a	c3		 ret	 0
$LN3@make_uniqu:
; File D:\visual studio 2019\visual studio 2019\VC\Tools\MSVC\14.29.30133\include\xmemory

; 1336 :         : _Ty1(_STD forward<_Other1>(_Val1)), _Myval2(_STD forward<_Other2>(_Val2)...) {}

  0005b	8b 45 08	 mov	 eax, DWORD PTR ___$ReturnUdt$[ebp]
  0005e	c7 00 00 00 00
	00		 mov	 DWORD PTR [eax], 0
; File D:\visual studio 2019\visual studio 2019\VC\Tools\MSVC\14.29.30133\include\memory

; 3383 : }

  00064	8b 4d f4	 mov	 ecx, DWORD PTR __$EHRec$[ebp]
  00067	64 89 0d 00 00
	00 00		 mov	 DWORD PTR fs:0, ecx
  0006e	59		 pop	 ecx
  0006f	8b e5		 mov	 esp, ebp
  00071	5d		 pop	 ebp
  00072	c3		 ret	 0
_TEXT	ENDS
;	COMDAT text$x
text$x	SEGMENT
__unwindfunclet$??$make_unique@VCInstanceBase@@$$V$0A@@std@@YA?AV?$unique_ptr@VCInstanceBase@@U?$default_delete@VCInstanceBase@@@std@@@0@XZ$0:
  00000	68 a4 1d 00 00	 push	 7588			; 00001da4H
  00005	8b 45 f0	 mov	 eax, DWORD PTR $T2[ebp]
  00008	50		 push	 eax
  00009	e8 00 00 00 00	 call	 ??3@YAXPAXI@Z		; operator delete
  0000e	83 c4 08	 add	 esp, 8
  00011	c3		 ret	 0
  00012	cc		 int	 3
  00013	cc		 int	 3
  00014	cc		 int	 3
  00015	cc		 int	 3
  00016	cc		 int	 3
__ehhandler$??$make_unique@VCInstanceBase@@$$V$0A@@std@@YA?AV?$unique_ptr@VCInstanceBase@@U?$default_delete@VCInstanceBase@@@std@@@0@XZ:
  00017	90		 npad	 1
  00018	90		 npad	 1
  00019	8b 54 24 08	 mov	 edx, DWORD PTR [esp+8]
  0001d	8d 42 0c	 lea	 eax, DWORD PTR [edx+12]
  00020	8b 4a f8	 mov	 ecx, DWORD PTR [edx-8]
  00023	33 c8		 xor	 ecx, eax
  00025	e8 00 00 00 00	 call	 @__security_check_cookie@4
  0002a	b8 00 00 00 00	 mov	 eax, OFFSET __ehfuncinfo$??$make_unique@VCInstanceBase@@$$V$0A@@std@@YA?AV?$unique_ptr@VCInstanceBase@@U?$default_delete@VCInstanceBase@@@std@@@0@XZ
  0002f	e9 00 00 00 00	 jmp	 ___CxxFrameHandler3
text$x	ENDS
??$make_unique@VCInstanceBase@@$$V$0A@@std@@YA?AV?$unique_ptr@VCInstanceBase@@U?$default_delete@VCInstanceBase@@@std@@@0@XZ ENDP ; std::make_unique<CInstanceBase,0>
; Function compile flags: /Ogtp
; File D:\visual studio 2019\visual studio 2019\VC\Tools\MSVC\14.29.30133\include\xstring
; File D:\visual studio 2019\visual studio 2019\VC\Tools\MSVC\14.29.30133\include\xmemory
; File D:\visual studio 2019\visual studio 2019\VC\Tools\MSVC\14.29.30133\include\xstring
; File D:\visual studio 2019\visual studio 2019\VC\Tools\MSVC\14.29.30133\include\xmemory
; File D:\visual studio 2019\visual studio 2019\VC\Tools\MSVC\14.29.30133\include\xstring
; File D:\visual studio 2019\visual studio 2019\VC\Tools\MSVC\14.29.30133\include\xmemory
;	COMDAT ??1SCreateData@CInstanceBase@@QAE@XZ
_TEXT	SEGMENT
??1SCreateData@CInstanceBase@@QAE@XZ PROC		; CInstanceBase::SCreateData::~SCreateData, COMDAT
; _this$ = ecx
; File D:\visual studio 2019\visual studio 2019\VC\Tools\MSVC\14.29.30133\include\xstring

; 2286 :         return _BUF_SIZE <= _Myres;

  00000	56		 push	 esi
  00001	8b f1		 mov	 esi, ecx
  00003	8b 8e 60 01 00
	00		 mov	 ecx, DWORD PTR [esi+352]
  00009	83 f9 10	 cmp	 ecx, 16			; 00000010H

; 4584 :         if (_Mypair._Myval2._Large_string_engaged()) {

  0000c	72 2b		 jb	 SHORT $LN15@SCreateDat
; File D:\visual studio 2019\visual studio 2019\VC\Tools\MSVC\14.29.30133\include\xmemory

; 797  :         _Deallocate<_New_alignof<_Ty>>(_Ptr, sizeof(_Ty) * _Count);

  0000e	8b 86 4c 01 00
	00		 mov	 eax, DWORD PTR [esi+332]
; File D:\visual studio 2019\visual studio 2019\VC\Tools\MSVC\14.29.30133\include\xstring

; 4588 :             _Al.deallocate(_Ptr, _Mypair._Myval2._Myres + 1);

  00014	41		 inc	 ecx
; File D:\visual studio 2019\visual studio 2019\VC\Tools\MSVC\14.29.30133\include\xmemory

; 251  :         if (_Bytes >= _Big_allocation_threshold) { // boost the alignment of big allocations to help autovectorization

  00015	81 f9 00 10 00
	00		 cmp	 ecx, 4096		; 00001000H
  0001b	72 12		 jb	 SHORT $LN25@SCreateDat

; 150  :     const uintptr_t _Ptr_container   = _Ptr_user[-1];

  0001d	8b 50 fc	 mov	 edx, DWORD PTR [eax-4]
  00020	83 c1 23	 add	 ecx, 35			; 00000023H

; 151  : 
; 152  :     // If the following asserts, it likely means that we are performing
; 153  :     // an aligned delete on memory coming from an unaligned allocation.
; 154  :     _STL_ASSERT(_Ptr_user[-2] == _Big_allocation_sentinel, "invalid argument");
; 155  : 
; 156  :     // Extra paranoia on aligned allocation/deallocation; ensure _Ptr_container is
; 157  :     // in range [_Min_back_shift, _Non_user_size]
; 158  : #ifdef _DEBUG
; 159  :     constexpr uintptr_t _Min_back_shift = 2 * sizeof(void*);
; 160  : #else // ^^^ _DEBUG ^^^ // vvv !_DEBUG vvv
; 161  :     constexpr uintptr_t _Min_back_shift = sizeof(void*);
; 162  : #endif // _DEBUG
; 163  :     const uintptr_t _Back_shift = reinterpret_cast<uintptr_t>(_Ptr) - _Ptr_container;

  00023	2b c2		 sub	 eax, edx

; 164  :     _STL_VERIFY(_Back_shift >= _Min_back_shift && _Back_shift <= _Non_user_size, "invalid argument");

  00025	83 c0 fc	 add	 eax, -4			; fffffffcH
  00028	83 f8 1f	 cmp	 eax, 31			; 0000001fH
  0002b	77 33		 ja	 SHORT $LN22@SCreateDat

; 165  :     _Ptr = reinterpret_cast<void*>(_Ptr_container);

  0002d	8b c2		 mov	 eax, edx
$LN25@SCreateDat:

; 255  :         ::operator delete(_Ptr, _Bytes);

  0002f	51		 push	 ecx
  00030	50		 push	 eax
  00031	e8 00 00 00 00	 call	 ??3@YAXPAXI@Z		; operator delete
  00036	83 c4 08	 add	 esp, 8
$LN15@SCreateDat:
; File D:\visual studio 2019\visual studio 2019\VC\Tools\MSVC\14.29.30133\include\xstring

; 4599 :             _Mypair._Myval2._Mysize = 0;

  00039	c7 86 5c 01 00
	00 00 00 00 00	 mov	 DWORD PTR [esi+348], 0
  00043	8d 8e 41 01 00
	00		 lea	 ecx, DWORD PTR [esi+321]

; 4600 :             _Mypair._Myval2._Myres  = _BUF_SIZE - 1;

  00049	c7 86 60 01 00
	00 0f 00 00 00	 mov	 DWORD PTR [esi+352], 15	; 0000000fH

; 4601 :             // the _Traits::assign is last so the codegen doesn't think the char write can alias this
; 4602 :             _Traits::assign(_Mypair._Myval2._Bx._Buf[0], _Elem());

  00053	c6 86 4c 01 00
	00 00		 mov	 BYTE PTR [esi+332], 0
  0005a	5e		 pop	 esi
  0005b	e9 00 00 00 00	 jmp	 ??1CAffectFlagContainer@@QAE@XZ ; CAffectFlagContainer::~CAffectFlagContainer
$LN22@SCreateDat:
; File D:\visual studio 2019\visual studio 2019\VC\Tools\MSVC\14.29.30133\include\xmemory

; 164  :     _STL_VERIFY(_Back_shift >= _Min_back_shift && _Back_shift <= _Non_user_size, "invalid argument");

  00060	e8 00 00 00 00	 call	 __invalid_parameter_noinfo_noreturn
$LN31@SCreateDat:
  00065	cc		 int	 3
??1SCreateData@CInstanceBase@@QAE@XZ ENDP		; CInstanceBase::SCreateData::~SCreateData
_TEXT	ENDS
; Function compile flags: /Ogtp
; File D:\visual studio 2019\visual studio 2019\VC\Tools\MSVC\14.29.30133\include\vcruntime_exception.h
;	COMDAT ??_Gruntime_error@std@@UAEPAXI@Z
_TEXT	SEGMENT
___flags$ = 8						; size = 4
??_Gruntime_error@std@@UAEPAXI@Z PROC			; std::runtime_error::`scalar deleting destructor', COMDAT
; _this$ = ecx
  00000	55		 push	 ebp
  00001	8b ec		 mov	 ebp, esp

; 89   :     {

  00003	56		 push	 esi
  00004	8b f1		 mov	 esi, ecx

; 90   :         __std_exception_destroy(&_Data);

  00006	8d 46 04	 lea	 eax, DWORD PTR [esi+4]
  00009	c7 06 00 00 00
	00		 mov	 DWORD PTR [esi], OFFSET ??_7exception@std@@6B@
  0000f	50		 push	 eax
  00010	e8 00 00 00 00	 call	 ___std_exception_destroy
  00015	83 c4 04	 add	 esp, 4
  00018	f6 45 08 01	 test	 BYTE PTR ___flags$[ebp], 1
  0001c	74 0b		 je	 SHORT $LN9@scalar
  0001e	6a 0c		 push	 12			; 0000000cH
  00020	56		 push	 esi
  00021	e8 00 00 00 00	 call	 ??3@YAXPAXI@Z		; operator delete
  00026	83 c4 08	 add	 esp, 8
$LN9@scalar:
  00029	8b c6		 mov	 eax, esi
  0002b	5e		 pop	 esi
  0002c	5d		 pop	 ebp
  0002d	c2 04 00	 ret	 4
??_Gruntime_error@std@@UAEPAXI@Z ENDP			; std::runtime_error::`scalar deleting destructor'
_TEXT	ENDS
; Function compile flags: /Ogtp
; File D:\visual studio 2019\visual studio 2019\VC\Tools\MSVC\14.29.30133\include\vcruntime_exception.h
;	COMDAT ??0runtime_error@std@@QAE@ABV01@@Z
_TEXT	SEGMENT
___that$ = 8						; size = 4
??0runtime_error@std@@QAE@ABV01@@Z PROC			; std::runtime_error::runtime_error, COMDAT
; _this$ = ecx
  00000	55		 push	 ebp
  00001	8b ec		 mov	 ebp, esp

; 72   :     {

  00003	56		 push	 esi
  00004	8b f1		 mov	 esi, ecx
  00006	0f 57 c0	 xorps	 xmm0, xmm0

; 71   :         : _Data()

  00009	8d 46 04	 lea	 eax, DWORD PTR [esi+4]

; 73   :         __std_exception_copy(&_Other._Data, &_Data);

  0000c	50		 push	 eax
  0000d	c7 06 00 00 00
	00		 mov	 DWORD PTR [esi], OFFSET ??_7exception@std@@6B@
  00013	66 0f d6 00	 movq	 QWORD PTR [eax], xmm0
  00017	8b 45 08	 mov	 eax, DWORD PTR ___that$[ebp]
  0001a	83 c0 04	 add	 eax, 4
  0001d	50		 push	 eax
  0001e	e8 00 00 00 00	 call	 ___std_exception_copy
  00023	83 c4 08	 add	 esp, 8
  00026	c7 06 00 00 00
	00		 mov	 DWORD PTR [esi], OFFSET ??_7runtime_error@std@@6B@
  0002c	8b c6		 mov	 eax, esi
  0002e	5e		 pop	 esi
  0002f	5d		 pop	 ebp
  00030	c2 04 00	 ret	 4
??0runtime_error@std@@QAE@ABV01@@Z ENDP			; std::runtime_error::runtime_error
_TEXT	ENDS
; Function compile flags: /Ogtp
; File D:\visual studio 2019\visual studio 2019\VC\Tools\MSVC\14.29.30133\include\vcruntime_exception.h
;	COMDAT ??1runtime_error@std@@UAE@XZ
_TEXT	SEGMENT
??1runtime_error@std@@UAE@XZ PROC			; std::runtime_error::~runtime_error, COMDAT
; _this$ = ecx

; 90   :         __std_exception_destroy(&_Data);

  00000	8d 41 04	 lea	 eax, DWORD PTR [ecx+4]
  00003	c7 01 00 00 00
	00		 mov	 DWORD PTR [ecx], OFFSET ??_7exception@std@@6B@
  00009	50		 push	 eax
  0000a	e8 00 00 00 00	 call	 ___std_exception_destroy
  0000f	59		 pop	 ecx
  00010	c3		 ret	 0
??1runtime_error@std@@UAE@XZ ENDP			; std::runtime_error::~runtime_error
_TEXT	ENDS
; Function compile flags: /Ogtp
; File D:\visual studio 2019\visual studio 2019\VC\Tools\MSVC\14.29.30133\include\stdexcept
; File D:\visual studio 2019\visual studio 2019\VC\Tools\MSVC\14.29.30133\include\vcruntime_exception.h
; File D:\visual studio 2019\visual studio 2019\VC\Tools\MSVC\14.29.30133\include\stdexcept
; File D:\visual studio 2019\visual studio 2019\VC\Tools\MSVC\14.29.30133\include\vcruntime_exception.h
; File D:\visual studio 2019\visual studio 2019\VC\Tools\MSVC\14.29.30133\include\stdexcept
;	COMDAT ??0runtime_error@std@@QAE@PBD@Z
_TEXT	SEGMENT
__InitData$1 = -8					; size = 8
_this$ = -4						; size = 4
__Message$ = 8						; size = 4
??0runtime_error@std@@QAE@PBD@Z PROC			; std::runtime_error::runtime_error, COMDAT
; _this$ = ecx

; 107  :     explicit runtime_error(const char* _Message) : _Mybase(_Message) {}

  00000	55		 push	 ebp
  00001	8b ec		 mov	 ebp, esp
  00003	83 ec 08	 sub	 esp, 8
; File D:\visual studio 2019\visual studio 2019\VC\Tools\MSVC\14.29.30133\include\vcruntime_exception.h

; 60   :         __std_exception_data _InitData = { _Message, true };

  00006	8b 45 08	 mov	 eax, DWORD PTR __Message$[ebp]
  00009	0f 57 c0	 xorps	 xmm0, xmm0
; File D:\visual studio 2019\visual studio 2019\VC\Tools\MSVC\14.29.30133\include\stdexcept

; 107  :     explicit runtime_error(const char* _Message) : _Mybase(_Message) {}

  0000c	56		 push	 esi
  0000d	8b f1		 mov	 esi, ecx
  0000f	89 75 fc	 mov	 DWORD PTR _this$[ebp], esi
; File D:\visual studio 2019\visual studio 2019\VC\Tools\MSVC\14.29.30133\include\vcruntime_exception.h

; 58   :         : _Data()

  00012	8d 56 04	 lea	 edx, DWORD PTR [esi+4]

; 60   :         __std_exception_data _InitData = { _Message, true };

  00015	89 45 f8	 mov	 DWORD PTR __InitData$1[ebp], eax

; 61   :         __std_exception_copy(&_InitData, &_Data);

  00018	8d 45 f8	 lea	 eax, DWORD PTR __InitData$1[ebp]
  0001b	52		 push	 edx
  0001c	c7 06 00 00 00
	00		 mov	 DWORD PTR [esi], OFFSET ??_7exception@std@@6B@
  00022	50		 push	 eax
  00023	66 0f d6 02	 movq	 QWORD PTR [edx], xmm0
  00027	c6 45 fc 01	 mov	 BYTE PTR __InitData$1[ebp+4], 1
  0002b	e8 00 00 00 00	 call	 ___std_exception_copy
  00030	83 c4 08	 add	 esp, 8
; File D:\visual studio 2019\visual studio 2019\VC\Tools\MSVC\14.29.30133\include\stdexcept

; 107  :     explicit runtime_error(const char* _Message) : _Mybase(_Message) {}

  00033	c7 06 00 00 00
	00		 mov	 DWORD PTR [esi], OFFSET ??_7runtime_error@std@@6B@
  00039	8b c6		 mov	 eax, esi
  0003b	5e		 pop	 esi
  0003c	8b e5		 mov	 esp, ebp
  0003e	5d		 pop	 ebp
  0003f	c2 04 00	 ret	 4
??0runtime_error@std@@QAE@PBD@Z ENDP			; std::runtime_error::runtime_error
_TEXT	ENDS
; Function compile flags: /Ogtp
; File D:\visual studio 2019\visual studio 2019\VC\Tools\MSVC\14.29.30133\include\memory
;	COMDAT ??1?$unique_ptr@VCGraphicRenderTargetTexture@@U?$default_delete@VCGraphicRenderTargetTexture@@@std@@@std@@QAE@XZ
_TEXT	SEGMENT
??1?$unique_ptr@VCGraphicRenderTargetTexture@@U?$default_delete@VCGraphicRenderTargetTexture@@@std@@@std@@QAE@XZ PROC ; std::unique_ptr<CGraphicRenderTargetTexture,std::default_delete<CGraphicRenderTargetTexture> >::~unique_ptr<CGraphicRenderTargetTexture,std::default_delete<CGraphicRenderTargetTexture> >, COMDAT
; _this$ = ecx

; 3197 :         if (_Mypair._Myval2) {

  00000	8b 09		 mov	 ecx, DWORD PTR [ecx]
  00002	85 c9		 test	 ecx, ecx
  00004	74 06		 je	 SHORT $LN6@unique_ptr

; 3090 :         delete _Ptr;

  00006	8b 01		 mov	 eax, DWORD PTR [ecx]
  00008	6a 01		 push	 1
  0000a	ff 10		 call	 DWORD PTR [eax]
$LN6@unique_ptr:

; 3198 :             _Mypair._Get_first()(_Mypair._Myval2);
; 3199 :         }
; 3200 :     }

  0000c	c3		 ret	 0
??1?$unique_ptr@VCGraphicRenderTargetTexture@@U?$default_delete@VCGraphicRenderTargetTexture@@@std@@@std@@QAE@XZ ENDP ; std::unique_ptr<CGraphicRenderTargetTexture,std::default_delete<CGraphicRenderTargetTexture> >::~unique_ptr<CGraphicRenderTargetTexture,std::default_delete<CGraphicRenderTargetTexture> >
_TEXT	ENDS
; Function compile flags: /Ogtp
; File D:\visual studio 2019\visual studio 2019\VC\Tools\MSVC\14.29.30133\include\memory
;	COMDAT ??1?$unique_ptr@VCGraphicImageInstance@@U?$default_delete@VCGraphicImageInstance@@@std@@@std@@QAE@XZ
_TEXT	SEGMENT
??1?$unique_ptr@VCGraphicImageInstance@@U?$default_delete@VCGraphicImageInstance@@@std@@@std@@QAE@XZ PROC ; std::unique_ptr<CGraphicImageInstance,std::default_delete<CGraphicImageInstance> >::~unique_ptr<CGraphicImageInstance,std::default_delete<CGraphicImageInstance> >, COMDAT
; _this$ = ecx

; 3197 :         if (_Mypair._Myval2) {

  00000	8b 09		 mov	 ecx, DWORD PTR [ecx]
  00002	85 c9		 test	 ecx, ecx
  00004	74 06		 je	 SHORT $LN6@unique_ptr

; 3090 :         delete _Ptr;

  00006	8b 01		 mov	 eax, DWORD PTR [ecx]
  00008	6a 01		 push	 1
  0000a	ff 10		 call	 DWORD PTR [eax]
$LN6@unique_ptr:

; 3198 :             _Mypair._Get_first()(_Mypair._Myval2);
; 3199 :         }
; 3200 :     }

  0000c	c3		 ret	 0
??1?$unique_ptr@VCGraphicImageInstance@@U?$default_delete@VCGraphicImageInstance@@@std@@@std@@QAE@XZ ENDP ; std::unique_ptr<CGraphicImageInstance,std::default_delete<CGraphicImageInstance> >::~unique_ptr<CGraphicImageInstance,std::default_delete<CGraphicImageInstance> >
_TEXT	ENDS
; Function compile flags: /Ogtp
; File D:\visual studio 2019\visual studio 2019\VC\Tools\MSVC\14.29.30133\include\memory
;	COMDAT ??1?$unique_ptr@VCInstanceBase@@U?$default_delete@VCInstanceBase@@@std@@@std@@QAE@XZ
_TEXT	SEGMENT
??1?$unique_ptr@VCInstanceBase@@U?$default_delete@VCInstanceBase@@@std@@@std@@QAE@XZ PROC ; std::unique_ptr<CInstanceBase,std::default_delete<CInstanceBase> >::~unique_ptr<CInstanceBase,std::default_delete<CInstanceBase> >, COMDAT
; _this$ = ecx

; 3197 :         if (_Mypair._Myval2) {

  00000	8b 09		 mov	 ecx, DWORD PTR [ecx]
  00002	85 c9		 test	 ecx, ecx
  00004	74 06		 je	 SHORT $LN6@unique_ptr

; 3090 :         delete _Ptr;

  00006	8b 01		 mov	 eax, DWORD PTR [ecx]
  00008	6a 01		 push	 1
  0000a	ff 10		 call	 DWORD PTR [eax]
$LN6@unique_ptr:

; 3198 :             _Mypair._Get_first()(_Mypair._Myval2);
; 3199 :         }
; 3200 :     }

  0000c	c3		 ret	 0
??1?$unique_ptr@VCInstanceBase@@U?$default_delete@VCInstanceBase@@@std@@@std@@QAE@XZ ENDP ; std::unique_ptr<CInstanceBase,std::default_delete<CInstanceBase> >::~unique_ptr<CInstanceBase,std::default_delete<CInstanceBase> >
_TEXT	ENDS
; Function compile flags: /Ogtp
; File C:\Users\ALEXANDER\Desktop\Cliente\COPY_FISH_WON_NEW\Binario\Client\EterLib\RenderTarget.cpp
;	COMDAT ?ReleaseTextures@CRenderTarget@@QBEXXZ
_TEXT	SEGMENT
?ReleaseTextures@CRenderTarget@@QBEXXZ PROC		; CRenderTarget::ReleaseTextures, COMDAT
; _this$ = ecx

; 74   : 	m_pRenderTargetTexture->ReleaseTextures();

  00000	8b 49 08	 mov	 ecx, DWORD PTR [ecx+8]
  00003	e9 00 00 00 00	 jmp	 ?ReleaseTextures@CGraphicRenderTargetTexture@@QAEXXZ ; CGraphicRenderTargetTexture::ReleaseTextures
?ReleaseTextures@CRenderTarget@@QBEXXZ ENDP		; CRenderTarget::ReleaseTextures
_TEXT	ENDS
; Function compile flags: /Ogtp
; File C:\Users\ALEXANDER\Desktop\Cliente\COPY_FISH_WON_NEW\Binario\Client\EterLib\RenderTarget.cpp
;	COMDAT ?CreateTextures@CRenderTarget@@QBEXXZ
_TEXT	SEGMENT
?CreateTextures@CRenderTarget@@QBEXXZ PROC		; CRenderTarget::CreateTextures, COMDAT
; _this$ = ecx

; 69   : 	m_pRenderTargetTexture->CreateTextures();

  00000	8b 49 08	 mov	 ecx, DWORD PTR [ecx+8]
  00003	e9 00 00 00 00	 jmp	 ?CreateTextures@CGraphicRenderTargetTexture@@QAEXXZ ; CGraphicRenderTargetTexture::CreateTextures
?CreateTextures@CRenderTarget@@QBEXXZ ENDP		; CRenderTarget::CreateTextures
_TEXT	ENDS
; Function compile flags: /Ogtp
; File C:\Users\ALEXANDER\Desktop\Cliente\COPY_FISH_WON_NEW\Binario\Client\EterLib\RenderTarget.cpp
; File D:\visual studio 2019\visual studio 2019\VC\Tools\MSVC\14.29.30133\include\memory
; File C:\Users\ALEXANDER\Desktop\Cliente\COPY_FISH_WON_NEW\Binario\Client\EterLib\RenderTarget.cpp
; File D:\visual studio 2019\visual studio 2019\VC\Tools\MSVC\14.29.30133\include\cmath
; File C:\Users\ALEXANDER\Desktop\Cliente\COPY_FISH_WON_NEW\Binario\Client\EterLib\RenderTarget.cpp
; File D:\visual studio 2019\visual studio 2019\VC\Tools\MSVC\14.29.30133\include\cmath
; File C:\Users\ALEXANDER\Desktop\Cliente\COPY_FISH_WON_NEW\Binario\Client\EterLib\RenderTarget.cpp
; File D:\visual studio 2019\visual studio 2019\VC\Tools\MSVC\14.29.30133\include\cmath
; File C:\Users\ALEXANDER\Desktop\Cliente\COPY_FISH_WON_NEW\Binario\Client\EterLib\RenderTarget.cpp
; File D:\visual studio 2019\visual studio 2019\VC\Tools\MSVC\14.29.30133\include\cmath
; File C:\Users\ALEXANDER\Desktop\Cliente\COPY_FISH_WON_NEW\Binario\Client\EterLib\RenderTarget.cpp
; File D:\visual studio 2019\visual studio 2019\VC\Tools\MSVC\14.29.30133\include\cmath
; File C:\Users\ALEXANDER\Desktop\Cliente\COPY_FISH_WON_NEW\Binario\Client\EterLib\RenderTarget.cpp
;	COMDAT ?SetZoom@CRenderTarget@@QAEX_N@Z
_TEXT	SEGMENT
tv279 = -8						; size = 4
tv291 = -4						; size = 4
tv86 = 8						; size = 4
_bZoom$ = 8						; size = 1
?SetZoom@CRenderTarget@@QAEX_N@Z PROC			; CRenderTarget::SetZoom, COMDAT
; _this$ = ecx

; 123  : {

  00000	55		 push	 ebp
  00001	8b ec		 mov	 ebp, esp
  00003	83 ec 08	 sub	 esp, 8
  00006	56		 push	 esi
  00007	8b f1		 mov	 esi, ecx
; File D:\visual studio 2019\visual studio 2019\VC\Tools\MSVC\14.29.30133\include\memory

; 3223 :         return static_cast<bool>(_Mypair._Myval2);

  00009	83 3e 00	 cmp	 DWORD PTR [esi], 0
; File C:\Users\ALEXANDER\Desktop\Cliente\COPY_FISH_WON_NEW\Binario\Client\EterLib\RenderTarget.cpp

; 124  : 	if (!m_pModelInstance)

  0000c	0f 84 c0 00 00
	00		 je	 $LN4@SetZoom

; 125  : 		return;
; 126  : 
; 127  : 	if (bZoom)

  00012	f3 0f 10 46 10	 movss	 xmm0, DWORD PTR [esi+16]
  00017	83 ec 08	 sub	 esp, 8
  0001a	80 7d 08 00	 cmp	 BYTE PTR _bZoom$[ebp], 0
  0001e	0f 28 c8	 movaps	 xmm1, xmm0
  00021	f3 0f 59 0d 00
	00 00 00	 mulss	 xmm1, DWORD PTR __real@410e6666
  00029	f3 0f 10 56 1c	 movss	 xmm2, DWORD PTR [esi+28]
  0002e	f3 0f 10 5e 18	 movss	 xmm3, DWORD PTR [esi+24]
  00033	f3 0f 11 45 fc	 movss	 DWORD PTR tv291[ebp], xmm0
  00038	f3 0f 11 4d f8	 movss	 DWORD PTR tv279[ebp], xmm1
  0003d	74 39		 je	 SHORT $LN3@SetZoom

; 130  : 		float v3 = -(m_fEyeY * 8.9f - m_fEyeY * 3.0f);

  0003f	f3 0f 59 05 00
	00 00 00	 mulss	 xmm0, DWORD PTR __real@40400000
  00047	f3 0f 5c d3	 subss	 xmm2, xmm3
  0004b	f3 0f 5c c8	 subss	 xmm1, xmm0
; File D:\visual studio 2019\visual studio 2019\VC\Tools\MSVC\14.29.30133\include\cmath

; 139  :     return _CSTD fmaxf(_Xx, _Yx);

  0004f	f3 0f 11 54 24
	04		 movss	 DWORD PTR [esp+4], xmm2
; File C:\Users\ALEXANDER\Desktop\Cliente\COPY_FISH_WON_NEW\Binario\Client\EterLib\RenderTarget.cpp

; 129  : 		m_fZoomY = m_fZoomY - m_fTargetHeight;

  00055	f3 0f 11 56 1c	 movss	 DWORD PTR [esi+28], xmm2

; 130  : 		float v3 = -(m_fEyeY * 8.9f - m_fEyeY * 3.0f);

  0005a	0f 57 0d 00 00
	00 00		 xorps	 xmm1, DWORD PTR __xmm@80000000800000008000000080000000
; File D:\visual studio 2019\visual studio 2019\VC\Tools\MSVC\14.29.30133\include\cmath

; 139  :     return _CSTD fmaxf(_Xx, _Yx);

  00061	f3 0f 11 0c 24	 movss	 DWORD PTR [esp], xmm1
  00066	e8 00 00 00 00	 call	 _fmaxf
; File C:\Users\ALEXANDER\Desktop\Cliente\COPY_FISH_WON_NEW\Binario\Client\EterLib\RenderTarget.cpp

; 141  : }

  0006b	83 c4 08	 add	 esp, 8
  0006e	d9 5e 1c	 fstp	 DWORD PTR [esi+28]
  00071	5e		 pop	 esi
  00072	8b e5		 mov	 esp, ebp
  00074	5d		 pop	 ebp
  00075	c2 04 00	 ret	 4
$LN3@SetZoom:

; 131  : 		m_fZoomY = fmax(v3, m_fZoomY);
; 132  : 	}
; 133  : 	else
; 134  : 	{
; 135  : 		m_fZoomY = m_fZoomY + m_fTargetHeight;
; 136  : 		float v6 = 14000.0f - m_fEyeY * 8.9f;

  00078	f3 0f 10 05 00
	00 00 00	 movss	 xmm0, DWORD PTR __real@465ac000
  00080	f3 0f 58 da	 addss	 xmm3, xmm2
  00084	f3 0f 5c c1	 subss	 xmm0, xmm1
  00088	f3 0f 11 5e 1c	 movss	 DWORD PTR [esi+28], xmm3
; File D:\visual studio 2019\visual studio 2019\VC\Tools\MSVC\14.29.30133\include\cmath

; 143  :     return _CSTD fminf(_Xx, _Yx);

  0008d	f3 0f 11 44 24
	04		 movss	 DWORD PTR [esp+4], xmm0
  00093	f3 0f 11 1c 24	 movss	 DWORD PTR [esp], xmm3
  00098	e8 00 00 00 00	 call	 _fminf
; File C:\Users\ALEXANDER\Desktop\Cliente\COPY_FISH_WON_NEW\Binario\Client\EterLib\RenderTarget.cpp

; 137  : 		float v7 = m_fEyeY * 8.9f + m_fEyeY * 5.0f;

  0009d	f3 0f 10 4d fc	 movss	 xmm1, DWORD PTR tv291[ebp]
  000a2	f3 0f 59 0d 00
	00 00 00	 mulss	 xmm1, DWORD PTR __real@40a00000
; File D:\visual studio 2019\visual studio 2019\VC\Tools\MSVC\14.29.30133\include\cmath

; 143  :     return _CSTD fminf(_Xx, _Yx);

  000aa	d9 5d 08	 fstp	 DWORD PTR tv86[ebp]
; File C:\Users\ALEXANDER\Desktop\Cliente\COPY_FISH_WON_NEW\Binario\Client\EterLib\RenderTarget.cpp

; 138  : 		m_fZoomY = fmin(m_fZoomY, v6);

  000ad	f3 0f 10 45 08	 movss	 xmm0, DWORD PTR tv86[ebp]
  000b2	f3 0f 58 4d f8	 addss	 xmm1, DWORD PTR tv279[ebp]
  000b7	f3 0f 11 46 1c	 movss	 DWORD PTR [esi+28], xmm0
; File D:\visual studio 2019\visual studio 2019\VC\Tools\MSVC\14.29.30133\include\cmath

; 143  :     return _CSTD fminf(_Xx, _Yx);

  000bc	f3 0f 11 4c 24
	04		 movss	 DWORD PTR [esp+4], xmm1
  000c2	f3 0f 11 04 24	 movss	 DWORD PTR [esp], xmm0
  000c7	e8 00 00 00 00	 call	 _fminf
; File C:\Users\ALEXANDER\Desktop\Cliente\COPY_FISH_WON_NEW\Binario\Client\EterLib\RenderTarget.cpp

; 141  : }

  000cc	d9 5e 1c	 fstp	 DWORD PTR [esi+28]
  000cf	83 c4 08	 add	 esp, 8
$LN4@SetZoom:
  000d2	5e		 pop	 esi
  000d3	8b e5		 mov	 esp, ebp
  000d5	5d		 pop	 ebp
  000d6	c2 04 00	 ret	 4
?SetZoom@CRenderTarget@@QAEX_N@Z ENDP			; CRenderTarget::SetZoom
_TEXT	ENDS
; Function compile flags: /Ogtp
; File C:\Users\ALEXANDER\Desktop\Cliente\COPY_FISH_WON_NEW\Binario\Client\EterLib\RenderTarget.cpp
; File D:\visual studio 2019\visual studio 2019\VC\Tools\MSVC\14.29.30133\include\memory
; File C:\Users\ALEXANDER\Desktop\Cliente\COPY_FISH_WON_NEW\Binario\Client\EterLib\RenderTarget.cpp
; File D:\visual studio 2019\visual studio 2019\VC\Tools\MSVC\14.29.30133\include\memory
; File C:\Users\ALEXANDER\Desktop\Cliente\COPY_FISH_WON_NEW\Binario\Client\EterLib\RenderTarget.cpp
; File C:\Users\ALEXANDER\Desktop\Cliente\COPY_FISH_WON_NEW\Binario\extern\include\d3dx8math.inl
; File C:\Users\ALEXANDER\Desktop\Cliente\COPY_FISH_WON_NEW\Binario\Client\EterLib\RenderTarget.cpp
; File C:\Users\ALEXANDER\Desktop\Cliente\COPY_FISH_WON_NEW\Binario\extern\include\d3dx8math.inl
; File C:\Users\ALEXANDER\Desktop\Cliente\COPY_FISH_WON_NEW\Binario\Client\EterLib\RenderTarget.cpp
; File C:\Users\ALEXANDER\Desktop\Cliente\COPY_FISH_WON_NEW\Binario\extern\include\d3dx8math.inl
; File C:\Users\ALEXANDER\Desktop\Cliente\COPY_FISH_WON_NEW\Binario\Client\EterLib\RenderTarget.cpp
; File C:\Users\ALEXANDER\Desktop\Cliente\COPY_FISH_WON_NEW\Binario\extern\include\d3dx8math.inl
; File C:\Users\ALEXANDER\Desktop\Cliente\COPY_FISH_WON_NEW\Binario\Client\EterLib\RenderTarget.cpp
; File C:\Users\ALEXANDER\Desktop\Cliente\COPY_FISH_WON_NEW\Binario\extern\include\d3dx8math.inl
; File C:\Users\ALEXANDER\Desktop\Cliente\COPY_FISH_WON_NEW\Binario\Client\EterLib\RenderTarget.cpp
; File C:\Users\ALEXANDER\Desktop\Cliente\COPY_FISH_WON_NEW\Binario\extern\include\d3dx8math.inl
; File C:\Users\ALEXANDER\Desktop\Cliente\COPY_FISH_WON_NEW\Binario\Client\EterLib\RenderTarget.cpp
;	COMDAT ?RenderModel@CRenderTarget@@QBEXXZ
_TEXT	SEGMENT
_fFov$ = -72						; size = 4
_fAspect$ = -68						; size = 4
_fNearY$ = -64						; size = 4
_fFarY$ = -60						; size = 4
_fActorHeight$ = -56					; size = 4
_fHeight$1$ = -52					; size = 4
_fWidth$1$ = -48					; size = 4
_this$GSCopy$1$ = -44					; size = 4
_v3Eye$ = -40						; size = 12
_v3Target$ = -28					; size = 12
_v3Up$ = -16						; size = 12
__$ArrayPad$ = -4					; size = 4
?RenderModel@CRenderTarget@@QBEXXZ PROC			; CRenderTarget::RenderModel, COMDAT
; _this$ = ecx

; 205  : {

  00000	55		 push	 ebp
  00001	8b ec		 mov	 ebp, esp
  00003	83 ec 48	 sub	 esp, 72			; 00000048H
  00006	a1 00 00 00 00	 mov	 eax, DWORD PTR ___security_cookie
  0000b	33 c5		 xor	 eax, ebp
  0000d	89 45 fc	 mov	 DWORD PTR __$ArrayPad$[ebp], eax
  00010	56		 push	 esi
  00011	8b f1		 mov	 esi, ecx
  00013	89 75 d4	 mov	 DWORD PTR _this$GSCopy$1$[ebp], esi

; 206  : 	if (!m_bShow)

  00016	80 7e 20 00	 cmp	 BYTE PTR [esi+32], 0
  0001a	0f 84 5a 02 00
	00		 je	 $LN1@RenderMode

; 209  : 	auto& pRectRender = *m_pRenderTargetTexture->GetRenderingRect();

  00020	8b 4e 08	 mov	 ecx, DWORD PTR [esi+8]
  00023	57		 push	 edi
  00024	e8 00 00 00 00	 call	 ?GetRenderingRect@CGraphicRenderTargetTexture@@QAEPAUtagRECT@@XZ ; CGraphicRenderTargetTexture::GetRenderingRect
; File D:\visual studio 2019\visual studio 2019\VC\Tools\MSVC\14.29.30133\include\memory

; 3223 :         return static_cast<bool>(_Mypair._Myval2);

  00029	83 3e 00	 cmp	 DWORD PTR [esi], 0
; File C:\Users\ALEXANDER\Desktop\Cliente\COPY_FISH_WON_NEW\Binario\Client\EterLib\RenderTarget.cpp

; 209  : 	auto& pRectRender = *m_pRenderTargetTexture->GetRenderingRect();

  0002c	8b f8		 mov	 edi, eax

; 210  : 
; 211  : 	if (!m_pModelInstance)

  0002e	0f 84 45 02 00
	00		 je	 $LN16@RenderMode

; 212  : 		return;
; 213  : 
; 214  : 	m_pRenderTargetTexture->SetRenderTarget();

  00034	8b 4e 08	 mov	 ecx, DWORD PTR [esi+8]
  00037	e8 00 00 00 00	 call	 ?SetRenderTarget@CGraphicRenderTargetTexture@@QAEXXZ ; CGraphicRenderTargetTexture::SetRenderTarget
; File D:\visual studio 2019\visual studio 2019\VC\Tools\MSVC\14.29.30133\include\memory

; 3223 :         return static_cast<bool>(_Mypair._Myval2);

  0003c	83 7e 04 00	 cmp	 DWORD PTR [esi+4], 0
; File C:\Users\ALEXANDER\Desktop\Cliente\COPY_FISH_WON_NEW\Binario\Client\EterLib\RenderTarget.cpp

; 216  : 	if (!m_pBackgroundImage)

  00040	75 05		 jne	 SHORT $LN4@RenderMode

; 217  : 	{
; 218  : 		m_pRenderTargetTexture->Clear();

  00042	e8 00 00 00 00	 call	 ?Clear@CGraphicRenderTargetTexture@@SAXXZ ; CGraphicRenderTargetTexture::Clear
$LN4@RenderMode:

; 219  : 	}
; 220  : 
; 221  : 	CPythonGraphic::Instance().ClearDepthBuffer();

  00047	8b 0d 00 00 00
	00		 mov	 ecx, DWORD PTR ?ms_singleton@?$CSingleton@VCPythonGraphic@@@@0PAVCPythonGraphic@@A ; CSingleton<CPythonGraphic>::ms_singleton
  0004d	e8 00 00 00 00	 call	 ?ClearDepthBuffer@CScreen@@QAEXXZ ; CScreen::ClearDepthBuffer

; 222  : 
; 223  : 	float fFov = CPythonGraphic::Instance().GetFOV();

  00052	8b 0d 00 00 00
	00		 mov	 ecx, DWORD PTR ?ms_singleton@?$CSingleton@VCPythonGraphic@@@@0PAVCPythonGraphic@@A ; CSingleton<CPythonGraphic>::ms_singleton
  00058	e8 00 00 00 00	 call	 ?GetFOV@CGraphicBase@@QAEMXZ ; CGraphicBase::GetFOV

; 224  : 	float fAspect = CPythonGraphic::Instance().GetAspect();

  0005d	8b 0d 00 00 00
	00		 mov	 ecx, DWORD PTR ?ms_singleton@?$CSingleton@VCPythonGraphic@@@@0PAVCPythonGraphic@@A ; CSingleton<CPythonGraphic>::ms_singleton
  00063	d9 5d b8	 fstp	 DWORD PTR _fFov$[ebp]
  00066	e8 00 00 00 00	 call	 ?GetAspect@CGraphicBase@@QAEMXZ ; CGraphicBase::GetAspect

; 225  : 	float fNearY = CPythonGraphic::Instance().GetNearY();

  0006b	8b 0d 00 00 00
	00		 mov	 ecx, DWORD PTR ?ms_singleton@?$CSingleton@VCPythonGraphic@@@@0PAVCPythonGraphic@@A ; CSingleton<CPythonGraphic>::ms_singleton
  00071	d9 5d bc	 fstp	 DWORD PTR _fAspect$[ebp]
  00074	e8 00 00 00 00	 call	 ?GetNearY@CGraphicBase@@QAEMXZ ; CGraphicBase::GetNearY

; 226  : 	float fFarY = CPythonGraphic::Instance().GetFarY();

  00079	8b 0d 00 00 00
	00		 mov	 ecx, DWORD PTR ?ms_singleton@?$CSingleton@VCPythonGraphic@@@@0PAVCPythonGraphic@@A ; CSingleton<CPythonGraphic>::ms_singleton
  0007f	d9 5d c0	 fstp	 DWORD PTR _fNearY$[ebp]
  00082	e8 00 00 00 00	 call	 ?GetFarY@CGraphicBase@@QAEMXZ ; CGraphicBase::GetFarY
  00087	66 0f 6e 4f 08	 movd	 xmm1, DWORD PTR [edi+8]
  0008c	66 0f 6e 07	 movd	 xmm0, DWORD PTR [edi]

; 227  : 
; 228  : 	float fWidth = static_cast<float>(pRectRender.right) - static_cast<float>(pRectRender.left);

  00090	0f 5b c9	 cvtdq2ps xmm1, xmm1

; 229  : 	float fHeight = static_cast<float>(pRectRender.bottom) - static_cast<float>(pRectRender.top);
; 230  : 
; 231  : 	BOOL bIsFog = STATEMANAGER.GetRenderState(D3DRS_FOGENABLE);

  00093	8b 0d 00 00 00
	00		 mov	 ecx, DWORD PTR ?ms_singleton@?$CSingleton@VCStateManager@@@@0PAVCStateManager@@A ; CSingleton<CStateManager>::ms_singleton
  00099	6a 1c		 push	 28			; 0000001cH
  0009b	0f 5b c0	 cvtdq2ps xmm0, xmm0
  0009e	d9 5d c4	 fstp	 DWORD PTR _fFarY$[ebp]
  000a1	f3 0f 5c c8	 subss	 xmm1, xmm0
  000a5	66 0f 6e 47 04	 movd	 xmm0, DWORD PTR [edi+4]
  000aa	0f 5b c0	 cvtdq2ps xmm0, xmm0
  000ad	f3 0f 11 4d d0	 movss	 DWORD PTR _fWidth$1$[ebp], xmm1
  000b2	66 0f 6e 4f 0c	 movd	 xmm1, DWORD PTR [edi+12]
  000b7	0f 5b c9	 cvtdq2ps xmm1, xmm1
  000ba	f3 0f 5c c8	 subss	 xmm1, xmm0
  000be	f3 0f 11 4d cc	 movss	 DWORD PTR _fHeight$1$[ebp], xmm1
  000c3	e8 00 00 00 00	 call	 ?GetRenderState@CStateManager@@QAEKW4_D3DRENDERSTATETYPE@@@Z ; CStateManager::GetRenderState

; 232  : 	STATEMANAGER.SetRenderState(D3DRS_FOGENABLE, 0);

  000c8	8b 0d 00 00 00
	00		 mov	 ecx, DWORD PTR ?ms_singleton@?$CSingleton@VCStateManager@@@@0PAVCStateManager@@A ; CSingleton<CStateManager>::ms_singleton
  000ce	8b f8		 mov	 edi, eax
  000d0	6a 00		 push	 0
  000d2	6a 1c		 push	 28			; 0000001cH
  000d4	e8 00 00 00 00	 call	 ?SetRenderState@CStateManager@@QAEXW4_D3DRENDERSTATETYPE@@K@Z ; CStateManager::SetRenderState

; 233  : 
; 234  : 	CCameraManager::instance().SetCurrentCamera(CCameraManager::SHOPDECO_CAMERA);

  000d9	8b 0d 00 00 00
	00		 mov	 ecx, DWORD PTR ?ms_singleton@?$CSingleton@VCCameraManager@@@@0PAVCCameraManager@@A ; CSingleton<CCameraManager>::ms_singleton
  000df	6a 03		 push	 3
  000e1	e8 00 00 00 00	 call	 ?SetCurrentCamera@CCameraManager@@QAEXE@Z ; CCameraManager::SetCurrentCamera

; 235  : 	CCamera* pCam = CCameraManager::instance().GetCurrentCamera();

  000e6	8b 0d 00 00 00
	00		 mov	 ecx, DWORD PTR ?ms_singleton@?$CSingleton@VCCameraManager@@@@0PAVCCameraManager@@A ; CSingleton<CCameraManager>::ms_singleton
  000ec	e8 00 00 00 00	 call	 ?GetCurrentCamera@CCameraManager@@QAEPAVCCamera@@XZ ; CCameraManager::GetCurrentCamera

; 236  : 
; 237  : 	CPythonGraphic::instance().SetViewport(0.0f, 0.0f, fWidth, fHeight);

  000f1	f3 0f 10 45 cc	 movss	 xmm0, DWORD PTR _fHeight$1$[ebp]
  000f6	83 ec 10	 sub	 esp, 16			; 00000010H
  000f9	8b 0d 00 00 00
	00		 mov	 ecx, DWORD PTR ?ms_singleton@?$CSingleton@VCPythonGraphic@@@@0PAVCPythonGraphic@@A ; CSingleton<CPythonGraphic>::ms_singleton
  000ff	8b f0		 mov	 esi, eax
  00101	f3 0f 11 44 24
	0c		 movss	 DWORD PTR [esp+12], xmm0
  00107	f3 0f 10 45 d0	 movss	 xmm0, DWORD PTR _fWidth$1$[ebp]
  0010c	f3 0f 11 44 24
	08		 movss	 DWORD PTR [esp+8], xmm0
  00112	c7 44 24 04 00
	00 00 00	 mov	 DWORD PTR [esp+4], 0
  0011a	c7 04 24 00 00
	00 00		 mov	 DWORD PTR [esp], 0
  00121	e8 00 00 00 00	 call	 ?SetViewport@CPythonGraphic@@QAEXMMMM@Z ; CPythonGraphic::SetViewport

; 238  : 	CPythonGraphic::Instance().PushState();

  00126	8b 0d 00 00 00
	00		 mov	 ecx, DWORD PTR ?ms_singleton@?$CSingleton@VCPythonGraphic@@@@0PAVCPythonGraphic@@A ; CSingleton<CPythonGraphic>::ms_singleton
  0012c	e8 00 00 00 00	 call	 ?PushState@CPythonGraphic@@QAEXXZ ; CPythonGraphic::PushState

; 239  : 
; 240  : 	// YMD.2021.01.12.Owsap - Model Height
; 241  : 	// NOTE : Actor's Height / 2 ( ~ mid camera position)
; 242  : 	CActorInstance& rkActor = m_pModelInstance->GetGraphicThingInstanceRef();

  00131	8b 4d d4	 mov	 ecx, DWORD PTR _this$GSCopy$1$[ebp]
  00134	8b 09		 mov	 ecx, DWORD PTR [ecx]
  00136	e8 00 00 00 00	 call	 ?GetGraphicThingInstanceRef@CInstanceBase@@QAEAAVCActorInstance@@XZ ; CInstanceBase::GetGraphicThingInstanceRef

; 243  : 	float fActorHeight = rkActor.GetHeight();

  0013b	8b c8		 mov	 ecx, eax
  0013d	e8 00 00 00 00	 call	 ?GetHeight@CActorInstance@@QAEMXZ ; CActorInstance::GetHeight

; 245  : 	D3DXVECTOR3 v3Eye(0.0f, -(m_fEyeY * 8.9f + m_fZoomY), 0.0f); // x, y z

  00142	8b 45 d4	 mov	 eax, DWORD PTR _this$GSCopy$1$[ebp]

; 248  : 	pCam->SetViewParams(v3Eye, v3Target, v3Up);

  00145	8b ce		 mov	 ecx, esi
  00147	d9 5d c8	 fstp	 DWORD PTR _fActorHeight$[ebp]
; File C:\Users\ALEXANDER\Desktop\Cliente\COPY_FISH_WON_NEW\Binario\extern\include\d3dx8math.inl

; 180  :     x = fx;

  0014a	c7 45 d8 00 00
	00 00		 mov	 DWORD PTR _v3Eye$[ebp], 0

; 182  :     z = fz;

  00151	c7 45 e0 00 00
	00 00		 mov	 DWORD PTR _v3Eye$[ebp+8], 0
; File C:\Users\ALEXANDER\Desktop\Cliente\COPY_FISH_WON_NEW\Binario\Client\EterLib\RenderTarget.cpp

; 245  : 	D3DXVECTOR3 v3Eye(0.0f, -(m_fEyeY * 8.9f + m_fZoomY), 0.0f); // x, y z

  00158	f3 0f 10 40 10	 movss	 xmm0, DWORD PTR [eax+16]
  0015d	f3 0f 59 05 00
	00 00 00	 mulss	 xmm0, DWORD PTR __real@410e6666
; File C:\Users\ALEXANDER\Desktop\Cliente\COPY_FISH_WON_NEW\Binario\extern\include\d3dx8math.inl

; 180  :     x = fx;

  00165	c7 45 e4 00 00
	00 00		 mov	 DWORD PTR _v3Target$[ebp], 0
  0016c	c7 45 f0 00 00
	00 00		 mov	 DWORD PTR _v3Up$[ebp], 0

; 181  :     y = fy;

  00173	c7 45 f4 00 00
	00 00		 mov	 DWORD PTR _v3Up$[ebp+4], 0
; File C:\Users\ALEXANDER\Desktop\Cliente\COPY_FISH_WON_NEW\Binario\Client\EterLib\RenderTarget.cpp

; 245  : 	D3DXVECTOR3 v3Eye(0.0f, -(m_fEyeY * 8.9f + m_fZoomY), 0.0f); // x, y z

  0017a	f3 0f 58 40 1c	 addss	 xmm0, DWORD PTR [eax+28]
; File C:\Users\ALEXANDER\Desktop\Cliente\COPY_FISH_WON_NEW\Binario\extern\include\d3dx8math.inl

; 182  :     z = fz;

  0017f	c7 45 f8 00 00
	80 3f		 mov	 DWORD PTR _v3Up$[ebp+8], 1065353216 ; 3f800000H
; File C:\Users\ALEXANDER\Desktop\Cliente\COPY_FISH_WON_NEW\Binario\Client\EterLib\RenderTarget.cpp

; 245  : 	D3DXVECTOR3 v3Eye(0.0f, -(m_fEyeY * 8.9f + m_fZoomY), 0.0f); // x, y z

  00186	0f 57 05 00 00
	00 00		 xorps	 xmm0, DWORD PTR __xmm@80000000800000008000000080000000
; File C:\Users\ALEXANDER\Desktop\Cliente\COPY_FISH_WON_NEW\Binario\extern\include\d3dx8math.inl

; 181  :     y = fy;

  0018d	f3 0f 11 45 dc	 movss	 DWORD PTR _v3Eye$[ebp+4], xmm0
  00192	f3 0f 10 40 14	 movss	 xmm0, DWORD PTR [eax+20]
; File C:\Users\ALEXANDER\Desktop\Cliente\COPY_FISH_WON_NEW\Binario\Client\EterLib\RenderTarget.cpp

; 248  : 	pCam->SetViewParams(v3Eye, v3Target, v3Up);

  00197	8d 45 f0	 lea	 eax, DWORD PTR _v3Up$[ebp]
; File C:\Users\ALEXANDER\Desktop\Cliente\COPY_FISH_WON_NEW\Binario\extern\include\d3dx8math.inl

; 181  :     y = fy;

  0019a	f3 0f 11 45 e8	 movss	 DWORD PTR _v3Target$[ebp+4], xmm0
; File C:\Users\ALEXANDER\Desktop\Cliente\COPY_FISH_WON_NEW\Binario\Client\EterLib\RenderTarget.cpp

; 246  : 	D3DXVECTOR3 v3Target(0.0f, m_fTargetY, fActorHeight / 2); // x, y, z

  0019f	f3 0f 10 45 c8	 movss	 xmm0, DWORD PTR _fActorHeight$[ebp]
  001a4	f3 0f 59 05 00
	00 00 00	 mulss	 xmm0, DWORD PTR __real@3f000000

; 248  : 	pCam->SetViewParams(v3Eye, v3Target, v3Up);

  001ac	50		 push	 eax
  001ad	8d 45 e4	 lea	 eax, DWORD PTR _v3Target$[ebp]
  001b0	50		 push	 eax
  001b1	8d 45 d8	 lea	 eax, DWORD PTR _v3Eye$[ebp]
; File C:\Users\ALEXANDER\Desktop\Cliente\COPY_FISH_WON_NEW\Binario\extern\include\d3dx8math.inl

; 182  :     z = fz;

  001b4	f3 0f 11 45 ec	 movss	 DWORD PTR _v3Target$[ebp+8], xmm0
; File C:\Users\ALEXANDER\Desktop\Cliente\COPY_FISH_WON_NEW\Binario\Client\EterLib\RenderTarget.cpp

; 248  : 	pCam->SetViewParams(v3Eye, v3Target, v3Up);

  001b9	50		 push	 eax
  001ba	e8 00 00 00 00	 call	 ?SetViewParams@CCamera@@QAEXABUD3DXVECTOR3@@00@Z ; CCamera::SetViewParams

; 249  : 
; 250  : 	CPythonGraphic::instance().UpdateViewMatrix();

  001bf	8b 0d 00 00 00
	00		 mov	 ecx, DWORD PTR ?ms_singleton@?$CSingleton@VCPythonGraphic@@@@0PAVCPythonGraphic@@A ; CSingleton<CPythonGraphic>::ms_singleton
  001c5	e8 00 00 00 00	 call	 ?UpdateViewMatrix@CGraphicBase@@QAEXXZ ; CGraphicBase::UpdateViewMatrix

; 251  : 
; 252  : 	CPythonGraphic::Instance().SetPerspective(10.0f, fWidth / fHeight, 100.0f, 15000.0f);

  001ca	f3 0f 10 45 d0	 movss	 xmm0, DWORD PTR _fWidth$1$[ebp]
  001cf	83 ec 10	 sub	 esp, 16			; 00000010H
  001d2	f3 0f 5e 45 cc	 divss	 xmm0, DWORD PTR _fHeight$1$[ebp]
  001d7	8b 0d 00 00 00
	00		 mov	 ecx, DWORD PTR ?ms_singleton@?$CSingleton@VCPythonGraphic@@@@0PAVCPythonGraphic@@A ; CSingleton<CPythonGraphic>::ms_singleton
  001dd	c7 44 24 0c 00
	60 6a 46	 mov	 DWORD PTR [esp+12], 1181376512 ; 466a6000H
  001e5	c7 44 24 08 00
	00 c8 42	 mov	 DWORD PTR [esp+8], 1120403456 ; 42c80000H
  001ed	f3 0f 11 44 24
	04		 movss	 DWORD PTR [esp+4], xmm0
  001f3	c7 04 24 00 00
	20 41		 mov	 DWORD PTR [esp], 1092616192 ; 41200000H
  001fa	e8 00 00 00 00	 call	 ?SetPerspective@CGraphicBase@@QAEXMMMM@Z ; CGraphicBase::SetPerspective

; 253  : 
; 254  : 	m_pModelInstance->Render();

  001ff	8b 75 d4	 mov	 esi, DWORD PTR _this$GSCopy$1$[ebp]
  00202	8b 0e		 mov	 ecx, DWORD PTR [esi]
  00204	e8 00 00 00 00	 call	 ?Render@CInstanceBase@@QAEXXZ ; CInstanceBase::Render

; 255  : 
; 256  : 	CCameraManager::instance().ResetToPreviousCamera();

  00209	8b 0d 00 00 00
	00		 mov	 ecx, DWORD PTR ?ms_singleton@?$CSingleton@VCCameraManager@@@@0PAVCCameraManager@@A ; CSingleton<CCameraManager>::ms_singleton
  0020f	e8 00 00 00 00	 call	 ?ResetToPreviousCamera@CCameraManager@@QAEXXZ ; CCameraManager::ResetToPreviousCamera

; 257  : 	CPythonGraphic::instance().RestoreViewport();

  00214	8b 0d 00 00 00
	00		 mov	 ecx, DWORD PTR ?ms_singleton@?$CSingleton@VCPythonGraphic@@@@0PAVCPythonGraphic@@A ; CSingleton<CPythonGraphic>::ms_singleton
  0021a	e8 00 00 00 00	 call	 ?RestoreViewport@CPythonGraphic@@QAEXXZ ; CPythonGraphic::RestoreViewport

; 258  : 	CPythonGraphic::Instance().PopState();

  0021f	8b 0d 00 00 00
	00		 mov	 ecx, DWORD PTR ?ms_singleton@?$CSingleton@VCPythonGraphic@@@@0PAVCPythonGraphic@@A ; CSingleton<CPythonGraphic>::ms_singleton
  00225	e8 00 00 00 00	 call	 ?PopState@CPythonGraphic@@QAEXXZ ; CPythonGraphic::PopState

; 259  : 	CPythonGraphic::Instance().SetPerspective(fFov, fAspect, fNearY, fFarY);

  0022a	f3 0f 10 45 c4	 movss	 xmm0, DWORD PTR _fFarY$[ebp]
  0022f	83 ec 10	 sub	 esp, 16			; 00000010H
  00232	8b 0d 00 00 00
	00		 mov	 ecx, DWORD PTR ?ms_singleton@?$CSingleton@VCPythonGraphic@@@@0PAVCPythonGraphic@@A ; CSingleton<CPythonGraphic>::ms_singleton
  00238	f3 0f 11 44 24
	0c		 movss	 DWORD PTR [esp+12], xmm0
  0023e	f3 0f 10 45 c0	 movss	 xmm0, DWORD PTR _fNearY$[ebp]
  00243	f3 0f 11 44 24
	08		 movss	 DWORD PTR [esp+8], xmm0
  00249	f3 0f 10 45 bc	 movss	 xmm0, DWORD PTR _fAspect$[ebp]
  0024e	f3 0f 11 44 24
	04		 movss	 DWORD PTR [esp+4], xmm0
  00254	f3 0f 10 45 b8	 movss	 xmm0, DWORD PTR _fFov$[ebp]
  00259	f3 0f 11 04 24	 movss	 DWORD PTR [esp], xmm0
  0025e	e8 00 00 00 00	 call	 ?SetPerspective@CGraphicBase@@QAEXMMMM@Z ; CGraphicBase::SetPerspective

; 260  : 	m_pRenderTargetTexture->ResetRenderTarget();

  00263	8b 4e 08	 mov	 ecx, DWORD PTR [esi+8]
  00266	e8 00 00 00 00	 call	 ?ResetRenderTarget@CGraphicRenderTargetTexture@@QAEXXZ ; CGraphicRenderTargetTexture::ResetRenderTarget

; 261  : 	STATEMANAGER.SetRenderState(D3DRS_FOGENABLE, bIsFog);

  0026b	8b 0d 00 00 00
	00		 mov	 ecx, DWORD PTR ?ms_singleton@?$CSingleton@VCStateManager@@@@0PAVCStateManager@@A ; CSingleton<CStateManager>::ms_singleton
  00271	57		 push	 edi
  00272	6a 1c		 push	 28			; 0000001cH
  00274	e8 00 00 00 00	 call	 ?SetRenderState@CStateManager@@QAEXW4_D3DRENDERSTATETYPE@@K@Z ; CStateManager::SetRenderState
$LN16@RenderMode:
  00279	5f		 pop	 edi
$LN1@RenderMode:

; 262  : }

  0027a	8b 4d fc	 mov	 ecx, DWORD PTR __$ArrayPad$[ebp]
  0027d	33 cd		 xor	 ecx, ebp
  0027f	5e		 pop	 esi
  00280	e8 00 00 00 00	 call	 @__security_check_cookie@4
  00285	8b e5		 mov	 esp, ebp
  00287	5d		 pop	 ebp
  00288	c3		 ret	 0
?RenderModel@CRenderTarget@@QBEXXZ ENDP			; CRenderTarget::RenderModel
_TEXT	ENDS
; Function compile flags: /Ogtp
; File C:\Users\ALEXANDER\Desktop\Cliente\COPY_FISH_WON_NEW\Binario\Client\EterLib\RenderTarget.cpp
; File D:\visual studio 2019\visual studio 2019\VC\Tools\MSVC\14.29.30133\include\memory
; File C:\Users\ALEXANDER\Desktop\Cliente\COPY_FISH_WON_NEW\Binario\Client\EterLib\RenderTarget.cpp
;	COMDAT ?DeformModel@CRenderTarget@@QBEXXZ
_TEXT	SEGMENT
?DeformModel@CRenderTarget@@QBEXXZ PROC			; CRenderTarget::DeformModel, COMDAT
; _this$ = ecx

; 197  : 	if (!m_bShow)

  00000	80 79 20 00	 cmp	 BYTE PTR [ecx+32], 0
  00004	74 0a		 je	 SHORT $LN3@DeformMode
; File D:\visual studio 2019\visual studio 2019\VC\Tools\MSVC\14.29.30133\include\memory

; 3223 :         return static_cast<bool>(_Mypair._Myval2);

  00006	8b 09		 mov	 ecx, DWORD PTR [ecx]
  00008	85 c9		 test	 ecx, ecx
; File C:\Users\ALEXANDER\Desktop\Cliente\COPY_FISH_WON_NEW\Binario\Client\EterLib\RenderTarget.cpp

; 200  : 	if (m_pModelInstance)

  0000a	0f 85 00 00 00
	00		 jne	 ?Deform@CInstanceBase@@QAEXXZ ; CInstanceBase::Deform
$LN3@DeformMode:

; 201  : 		m_pModelInstance->Deform();
; 202  : }

  00010	c3		 ret	 0
?DeformModel@CRenderTarget@@QBEXXZ ENDP			; CRenderTarget::DeformModel
_TEXT	ENDS
; Function compile flags: /Ogtp
; File C:\Users\ALEXANDER\Desktop\Cliente\COPY_FISH_WON_NEW\Binario\Client\EterLib\RenderTarget.cpp
; File D:\visual studio 2019\visual studio 2019\VC\Tools\MSVC\14.29.30133\include\memory
; File C:\Users\ALEXANDER\Desktop\Cliente\COPY_FISH_WON_NEW\Binario\Client\EterLib\RenderTarget.cpp
;	COMDAT ?UpdateModel@CRenderTarget@@QAEXXZ
_TEXT	SEGMENT
?UpdateModel@CRenderTarget@@QAEXXZ PROC			; CRenderTarget::UpdateModel, COMDAT
; _this$ = ecx

; 180  : {

  00000	56		 push	 esi
  00001	8b f1		 mov	 esi, ecx

; 181  : 	if (!m_bShow || !m_pModelInstance)

  00003	80 7e 20 00	 cmp	 BYTE PTR [esi+32], 0
  00007	74 50		 je	 SHORT $LN3@UpdateMode
; File D:\visual studio 2019\visual studio 2019\VC\Tools\MSVC\14.29.30133\include\memory

; 3223 :         return static_cast<bool>(_Mypair._Myval2);

  00009	8b 0e		 mov	 ecx, DWORD PTR [esi]
  0000b	85 c9		 test	 ecx, ecx
; File C:\Users\ALEXANDER\Desktop\Cliente\COPY_FISH_WON_NEW\Binario\Client\EterLib\RenderTarget.cpp

; 181  : 	if (!m_bShow || !m_pModelInstance)

  0000d	74 4a		 je	 SHORT $LN3@UpdateMode

; 182  : 		return;
; 183  : 
; 184  : 	if (m_fModelRotation < 360.0f)

  0000f	f3 0f 10 4e 0c	 movss	 xmm1, DWORD PTR [esi+12]
  00014	f3 0f 10 05 00
	00 00 00	 movss	 xmm0, DWORD PTR __real@43b40000
  0001c	0f 2f c1	 comiss	 xmm0, xmm1
  0001f	76 0a		 jbe	 SHORT $LN4@UpdateMode

; 185  : 		m_fModelRotation += 1.0f;

  00021	f3 0f 58 0d 00
	00 00 00	 addss	 xmm1, DWORD PTR __real@3f800000
  00029	eb 03		 jmp	 SHORT $LN5@UpdateMode
$LN4@UpdateMode:
  0002b	0f 57 c9	 xorps	 xmm1, xmm1
$LN5@UpdateMode:

; 186  : 	else
; 187  : 		m_fModelRotation = 0.0f;
; 188  : 
; 189  : 	m_pModelInstance->Transform();

  0002e	f3 0f 11 4e 0c	 movss	 DWORD PTR [esi+12], xmm1
  00033	e8 00 00 00 00	 call	 ?Transform@CInstanceBase@@QAEXXZ ; CInstanceBase::Transform

; 190  : 	m_pModelInstance->SetRotation(m_fModelRotation);

  00038	f3 0f 10 46 0c	 movss	 xmm0, DWORD PTR [esi+12]
  0003d	51		 push	 ecx
  0003e	8b 0e		 mov	 ecx, DWORD PTR [esi]
  00040	f3 0f 11 04 24	 movss	 DWORD PTR [esp], xmm0
  00045	e8 00 00 00 00	 call	 ?SetRotation@CInstanceBase@@QAEXM@Z ; CInstanceBase::SetRotation

; 191  : 	CActorInstance& rkModelActor = m_pModelInstance->GetGraphicThingInstanceRef();

  0004a	8b 0e		 mov	 ecx, DWORD PTR [esi]
  0004c	e8 00 00 00 00	 call	 ?GetGraphicThingInstanceRef@CInstanceBase@@QAEAAVCActorInstance@@XZ ; CInstanceBase::GetGraphicThingInstanceRef

; 192  : 	rkModelActor.RotationProcess();

  00051	8b c8		 mov	 ecx, eax
  00053	5e		 pop	 esi
  00054	e9 00 00 00 00	 jmp	 ?RotationProcess@CActorInstance@@QAEXXZ ; CActorInstance::RotationProcess
$LN3@UpdateMode:
  00059	5e		 pop	 esi

; 193  : }

  0005a	c3		 ret	 0
?UpdateModel@CRenderTarget@@QAEXXZ ENDP			; CRenderTarget::UpdateModel
_TEXT	ENDS
; Function compile flags: /Ogtp
; File C:\Users\ALEXANDER\Desktop\Cliente\COPY_FISH_WON_NEW\Binario\Client\EterLib\RenderTarget.cpp
; File D:\visual studio 2019\visual studio 2019\VC\Tools\MSVC\14.29.30133\include\memory
; File C:\Users\ALEXANDER\Desktop\Cliente\COPY_FISH_WON_NEW\Binario\Client\EterLib\RenderTarget.cpp
;	COMDAT ?RenderBackground@CRenderTarget@@QBEXXZ
_TEXT	SEGMENT
?RenderBackground@CRenderTarget@@QBEXXZ PROC		; CRenderTarget::RenderBackground, COMDAT
; _this$ = ecx

; 163  : {

  00000	56		 push	 esi
  00001	8b f1		 mov	 esi, ecx

; 164  : 	if (!m_bShow)

  00003	80 7e 20 00	 cmp	 BYTE PTR [esi+32], 0
  00007	74 2f		 je	 SHORT $LN1@RenderBack
; File D:\visual studio 2019\visual studio 2019\VC\Tools\MSVC\14.29.30133\include\memory

; 3223 :         return static_cast<bool>(_Mypair._Myval2);

  00009	83 7e 04 00	 cmp	 DWORD PTR [esi+4], 0
; File C:\Users\ALEXANDER\Desktop\Cliente\COPY_FISH_WON_NEW\Binario\Client\EterLib\RenderTarget.cpp

; 167  : 	if (!m_pBackgroundImage)

  0000d	74 29		 je	 SHORT $LN1@RenderBack

; 168  : 		return;
; 169  : 
; 170  : 	m_pRenderTargetTexture->SetRenderTarget();

  0000f	8b 4e 08	 mov	 ecx, DWORD PTR [esi+8]
  00012	e8 00 00 00 00	 call	 ?SetRenderTarget@CGraphicRenderTargetTexture@@QAEXXZ ; CGraphicRenderTargetTexture::SetRenderTarget

; 171  : 
; 172  : 	CGraphicRenderTargetTexture::Clear();

  00017	e8 00 00 00 00	 call	 ?Clear@CGraphicRenderTargetTexture@@SAXXZ ; CGraphicRenderTargetTexture::Clear

; 173  : 	CPythonGraphic::Instance().SetInterfaceRenderState();

  0001c	8b 0d 00 00 00
	00		 mov	 ecx, DWORD PTR ?ms_singleton@?$CSingleton@VCPythonGraphic@@@@0PAVCPythonGraphic@@A ; CSingleton<CPythonGraphic>::ms_singleton
  00022	e8 00 00 00 00	 call	 ?SetInterfaceRenderState@CPythonGraphic@@QAEXXZ ; CPythonGraphic::SetInterfaceRenderState

; 174  : 
; 175  : 	m_pBackgroundImage->Render();

  00027	8b 4e 04	 mov	 ecx, DWORD PTR [esi+4]
  0002a	e8 00 00 00 00	 call	 ?Render@CGraphicImageInstance@@QAEXXZ ; CGraphicImageInstance::Render

; 176  : 	m_pRenderTargetTexture->ResetRenderTarget();

  0002f	8b 4e 08	 mov	 ecx, DWORD PTR [esi+8]
  00032	5e		 pop	 esi
  00033	e9 00 00 00 00	 jmp	 ?ResetRenderTarget@CGraphicRenderTargetTexture@@QAEXXZ ; CGraphicRenderTargetTexture::ResetRenderTarget
$LN1@RenderBack:
  00038	5e		 pop	 esi

; 177  : }

  00039	c3		 ret	 0
?RenderBackground@CRenderTarget@@QBEXXZ ENDP		; CRenderTarget::RenderBackground
_TEXT	ENDS
; Function compile flags: /Ogtp
; File C:\Users\ALEXANDER\Desktop\Cliente\COPY_FISH_WON_NEW\Binario\Client\EterLib\RenderTarget.cpp
; File D:\visual studio 2019\visual studio 2019\VC\Tools\MSVC\14.29.30133\include\memory
; File C:\Users\ALEXANDER\Desktop\Cliente\COPY_FISH_WON_NEW\Binario\Client\EterLib\RenderTarget.cpp
; File D:\visual studio 2019\visual studio 2019\VC\Tools\MSVC\14.29.30133\include\memory
; File C:\Users\ALEXANDER\Desktop\Cliente\COPY_FISH_WON_NEW\Binario\Client\EterLib\RenderTarget.cpp
; File D:\visual studio 2019\visual studio 2019\VC\Tools\MSVC\14.29.30133\include\memory
; File D:\visual studio 2019\visual studio 2019\VC\Tools\MSVC\14.29.30133\include\utility
; File D:\visual studio 2019\visual studio 2019\VC\Tools\MSVC\14.29.30133\include\memory
; File C:\Users\ALEXANDER\Desktop\Cliente\COPY_FISH_WON_NEW\Binario\Client\EterLib\RenderTarget.cpp
; File D:\visual studio 2019\visual studio 2019\VC\Tools\MSVC\14.29.30133\include\utility
; File D:\visual studio 2019\visual studio 2019\VC\Tools\MSVC\14.29.30133\include\memory
; File C:\Users\ALEXANDER\Desktop\Cliente\COPY_FISH_WON_NEW\Binario\Client\EterLib\RenderTarget.cpp
;	COMDAT ?CreateBackground@CRenderTarget@@QAE_NPBDKK@Z
_TEXT	SEGMENT
$T1 = -4						; size = 4
tv298 = 8						; size = 4
tv292 = 8						; size = 4
_c_szImgPath$ = 8					; size = 4
_dwWidth$ = 12						; size = 4
_dwHeight$ = 16						; size = 4
?CreateBackground@CRenderTarget@@QAE_NPBDKK@Z PROC	; CRenderTarget::CreateBackground, COMDAT
; _this$ = ecx

; 144  : {

  00000	55		 push	 ebp
  00001	8b ec		 mov	 ebp, esp
  00003	51		 push	 ecx
; File D:\visual studio 2019\visual studio 2019\VC\Tools\MSVC\14.29.30133\include\memory

; 3223 :         return static_cast<bool>(_Mypair._Myval2);

  00004	83 79 04 00	 cmp	 DWORD PTR [ecx+4], 0
; File C:\Users\ALEXANDER\Desktop\Cliente\COPY_FISH_WON_NEW\Binario\Client\EterLib\RenderTarget.cpp

; 144  : {

  00008	56		 push	 esi
; File D:\visual studio 2019\visual studio 2019\VC\Tools\MSVC\14.29.30133\include\memory

; 3223 :         return static_cast<bool>(_Mypair._Myval2);

  00009	8d 71 04	 lea	 esi, DWORD PTR [ecx+4]
; File C:\Users\ALEXANDER\Desktop\Cliente\COPY_FISH_WON_NEW\Binario\Client\EterLib\RenderTarget.cpp

; 144  : {

  0000c	57		 push	 edi

; 145  : 	if (m_pBackgroundImage)

  0000d	75 6c		 jne	 SHORT $LN38@CreateBack

; 146  : 		return false;
; 147  : 
; 148  : 	m_pBackgroundImage = std::make_unique<CGraphicImageInstance>();

  0000f	8d 45 fc	 lea	 eax, DWORD PTR $T1[ebp]
  00012	50		 push	 eax
  00013	e8 00 00 00 00	 call	 ??$make_unique@VCGraphicImageInstance@@$$V$0A@@std@@YA?AV?$unique_ptr@VCGraphicImageInstance@@U?$default_delete@VCGraphicImageInstance@@@std@@@0@XZ ; std::make_unique<CGraphicImageInstance,0>
  00018	83 c4 04	 add	 esp, 4
; File D:\visual studio 2019\visual studio 2019\VC\Tools\MSVC\14.29.30133\include\memory

; 3184 :         if (this != _STD addressof(_Right)) {

  0001b	3b f0		 cmp	 esi, eax
  0001d	74 16		 je	 SHORT $LN22@CreateBack
; File D:\visual studio 2019\visual studio 2019\VC\Tools\MSVC\14.29.30133\include\utility

; 602  :     _Ty _Old_val = static_cast<_Ty&&>(_Val);

  0001f	8b 10		 mov	 edx, DWORD PTR [eax]

; 603  :     _Val         = static_cast<_Other&&>(_New_val);

  00021	c7 00 00 00 00
	00		 mov	 DWORD PTR [eax], 0

; 602  :     _Ty _Old_val = static_cast<_Ty&&>(_Val);

  00027	8b 0e		 mov	 ecx, DWORD PTR [esi]

; 603  :     _Val         = static_cast<_Other&&>(_New_val);

  00029	89 16		 mov	 DWORD PTR [esi], edx
; File D:\visual studio 2019\visual studio 2019\VC\Tools\MSVC\14.29.30133\include\memory

; 3232 :         if (_Old) {

  0002b	85 c9		 test	 ecx, ecx
  0002d	74 06		 je	 SHORT $LN22@CreateBack

; 3090 :         delete _Ptr;

  0002f	8b 01		 mov	 eax, DWORD PTR [ecx]
  00031	6a 01		 push	 1
  00033	ff 10		 call	 DWORD PTR [eax]
$LN22@CreateBack:

; 3197 :         if (_Mypair._Myval2) {

  00035	8b 4d fc	 mov	 ecx, DWORD PTR $T1[ebp]
  00038	85 c9		 test	 ecx, ecx
  0003a	74 06		 je	 SHORT $LN29@CreateBack

; 3090 :         delete _Ptr;

  0003c	8b 01		 mov	 eax, DWORD PTR [ecx]
  0003e	6a 01		 push	 1
  00040	ff 10		 call	 DWORD PTR [eax]
$LN29@CreateBack:
; File C:\Users\ALEXANDER\Desktop\Cliente\COPY_FISH_WON_NEW\Binario\Client\EterLib\RenderTarget.cpp

; 150  : 	const auto pResource = dynamic_cast<CGraphicImage*>(CResourceManager::instance().GetResourcePointer(c_szImgPath));

  00042	8b 0d 00 00 00
	00		 mov	 ecx, DWORD PTR ?ms_singleton@?$CSingleton@VCResourceManager@@@@0PAVCResourceManager@@A ; CSingleton<CResourceManager>::ms_singleton
  00048	6a 00		 push	 0
  0004a	68 00 00 00 00	 push	 OFFSET ??_R0?AVCGraphicImage@@@8
  0004f	68 00 00 00 00	 push	 OFFSET ??_R0?AVCResource@@@8
  00054	6a 00		 push	 0
  00056	ff 75 08	 push	 DWORD PTR _c_szImgPath$[ebp]
  00059	e8 00 00 00 00	 call	 ?GetResourcePointer@CResourceManager@@QAEPAVCResource@@PBD@Z ; CResourceManager::GetResourcePointer
  0005e	50		 push	 eax
  0005f	e8 00 00 00 00	 call	 ___RTDynamicCast

; 151  : 	if (!pResource)

  00064	8b 0e		 mov	 ecx, DWORD PTR [esi]
  00066	8b f8		 mov	 edi, eax
  00068	83 c4 14	 add	 esp, 20			; 00000014H
  0006b	85 ff		 test	 edi, edi
  0006d	75 16		 jne	 SHORT $LN3@CreateBack
; File D:\visual studio 2019\visual studio 2019\VC\Tools\MSVC\14.29.30133\include\utility

; 603  :     _Val         = static_cast<_Other&&>(_New_val);

  0006f	89 06		 mov	 DWORD PTR [esi], eax
; File D:\visual studio 2019\visual studio 2019\VC\Tools\MSVC\14.29.30133\include\memory

; 3232 :         if (_Old) {

  00071	85 c9		 test	 ecx, ecx
  00073	74 06		 je	 SHORT $LN38@CreateBack

; 3090 :         delete _Ptr;

  00075	8b 01		 mov	 eax, DWORD PTR [ecx]
  00077	6a 01		 push	 1
  00079	ff 10		 call	 DWORD PTR [eax]
$LN38@CreateBack:
  0007b	5f		 pop	 edi
; File C:\Users\ALEXANDER\Desktop\Cliente\COPY_FISH_WON_NEW\Binario\Client\EterLib\RenderTarget.cpp

; 154  : 		return false;

  0007c	32 c0		 xor	 al, al

; 160  : }

  0007e	5e		 pop	 esi
  0007f	8b e5		 mov	 esp, ebp
  00081	5d		 pop	 ebp
  00082	c2 0c 00	 ret	 12			; 0000000cH
$LN3@CreateBack:

; 155  : 	}
; 156  : 
; 157  : 	m_pBackgroundImage->SetImagePointer(pResource);

  00085	57		 push	 edi
  00086	e8 00 00 00 00	 call	 ?SetImagePointer@CGraphicImageInstance@@QAEXPAVCGraphicImage@@@Z ; CGraphicImageInstance::SetImagePointer

; 158  : 	m_pBackgroundImage->SetScale(static_cast<float>(dwWidth) / pResource->GetWidth(), static_cast<float>(dwHeight) / pResource->GetHeight());

  0008b	8b 45 10	 mov	 eax, DWORD PTR _dwHeight$[ebp]
  0008e	8b cf		 mov	 ecx, edi
  00090	66 0f 6e c0	 movd	 xmm0, eax
  00094	f3 0f e6 c0	 cvtdq2pd xmm0, xmm0
  00098	c1 e8 1f	 shr	 eax, 31			; 0000001fH
  0009b	f2 0f 58 04 c5
	00 00 00 00	 addsd	 xmm0, QWORD PTR __xmm@41f00000000000000000000000000000[eax*8]
  000a4	66 0f 5a c0	 cvtpd2ps xmm0, xmm0
  000a8	f3 0f 11 45 08	 movss	 DWORD PTR tv292[ebp], xmm0
  000ad	e8 00 00 00 00	 call	 ?GetHeight@CGraphicImage@@QBEHXZ ; CGraphicImage::GetHeight
  000b2	f3 0f 10 4d 08	 movss	 xmm1, DWORD PTR tv292[ebp]
  000b7	51		 push	 ecx
  000b8	8b cf		 mov	 ecx, edi
  000ba	66 0f 6e c0	 movd	 xmm0, eax
  000be	0f 5b c0	 cvtdq2ps xmm0, xmm0
  000c1	8b 45 0c	 mov	 eax, DWORD PTR _dwWidth$[ebp]
  000c4	f3 0f 5e c8	 divss	 xmm1, xmm0
  000c8	66 0f 6e c0	 movd	 xmm0, eax
  000cc	f3 0f e6 c0	 cvtdq2pd xmm0, xmm0
  000d0	c1 e8 1f	 shr	 eax, 31			; 0000001fH
  000d3	f3 0f 11 0c 24	 movss	 DWORD PTR [esp], xmm1
  000d8	f2 0f 58 04 c5
	00 00 00 00	 addsd	 xmm0, QWORD PTR __xmm@41f00000000000000000000000000000[eax*8]
  000e1	66 0f 5a c0	 cvtpd2ps xmm0, xmm0
  000e5	f3 0f 11 45 08	 movss	 DWORD PTR tv298[ebp], xmm0
  000ea	e8 00 00 00 00	 call	 ?GetWidth@CGraphicImage@@QBEHXZ ; CGraphicImage::GetWidth
  000ef	f3 0f 10 4d 08	 movss	 xmm1, DWORD PTR tv298[ebp]
  000f4	51		 push	 ecx
  000f5	8b 0e		 mov	 ecx, DWORD PTR [esi]
  000f7	66 0f 6e c0	 movd	 xmm0, eax
  000fb	0f 5b c0	 cvtdq2ps xmm0, xmm0
  000fe	f3 0f 5e c8	 divss	 xmm1, xmm0
  00102	f3 0f 11 0c 24	 movss	 DWORD PTR [esp], xmm1
  00107	e8 00 00 00 00	 call	 ?SetScale@CGraphicImageInstance@@QAEXMM@Z ; CGraphicImageInstance::SetScale
  0010c	5f		 pop	 edi

; 159  : 	return true;

  0010d	b0 01		 mov	 al, 1

; 160  : }

  0010f	5e		 pop	 esi
  00110	8b e5		 mov	 esp, ebp
  00112	5d		 pop	 ebp
  00113	c2 0c 00	 ret	 12			; 0000000cH
?CreateBackground@CRenderTarget@@QAE_NPBDKK@Z ENDP	; CRenderTarget::CreateBackground
_TEXT	ENDS
; Function compile flags: /Ogtp
; File C:\Users\ALEXANDER\Desktop\Cliente\COPY_FISH_WON_NEW\Binario\Client\EterLib\RenderTarget.cpp
; File D:\visual studio 2019\visual studio 2019\VC\Tools\MSVC\14.29.30133\include\utility
; File D:\visual studio 2019\visual studio 2019\VC\Tools\MSVC\14.29.30133\include\memory
; File C:\Users\ALEXANDER\Desktop\Cliente\COPY_FISH_WON_NEW\Binario\Client\EterLib\RenderTarget.cpp
; File D:\visual studio 2019\visual studio 2019\VC\Tools\MSVC\14.29.30133\include\xstring
; File C:\Users\ALEXANDER\Desktop\Cliente\COPY_FISH_WON_NEW\Binario\Client\EterLib\RenderTarget.cpp
; File D:\visual studio 2019\visual studio 2019\VC\Tools\MSVC\14.29.30133\include\utility
; File D:\visual studio 2019\visual studio 2019\VC\Tools\MSVC\14.29.30133\include\xmemory
; File D:\visual studio 2019\visual studio 2019\VC\Tools\MSVC\14.29.30133\include\utility
; File D:\visual studio 2019\visual studio 2019\VC\Tools\MSVC\14.29.30133\include\xmemory
; File D:\visual studio 2019\visual studio 2019\VC\Tools\MSVC\14.29.30133\include\memory
; File C:\Users\ALEXANDER\Desktop\Cliente\COPY_FISH_WON_NEW\Binario\Client\EterLib\RenderTarget.cpp
; File D:\visual studio 2019\visual studio 2019\VC\Tools\MSVC\14.29.30133\include\memory
; File C:\Users\ALEXANDER\Desktop\Cliente\COPY_FISH_WON_NEW\Binario\Client\EterLib\RenderTarget.cpp
; File D:\visual studio 2019\visual studio 2019\VC\Tools\MSVC\14.29.30133\include\memory
; File C:\Users\ALEXANDER\Desktop\Cliente\COPY_FISH_WON_NEW\Binario\Client\EterLib\RenderTarget.cpp
; File D:\visual studio 2019\visual studio 2019\VC\Tools\MSVC\14.29.30133\include\utility
; File D:\visual studio 2019\visual studio 2019\VC\Tools\MSVC\14.29.30133\include\memory
; File D:\visual studio 2019\visual studio 2019\VC\Tools\MSVC\14.29.30133\include\utility
; File D:\visual studio 2019\visual studio 2019\VC\Tools\MSVC\14.29.30133\include\memory
; File C:\Users\ALEXANDER\Desktop\Cliente\COPY_FISH_WON_NEW\Binario\Client\EterLib\RenderTarget.cpp
; File C:\Users\ALEXANDER\Desktop\Cliente\COPY_FISH_WON_NEW\Binario\extern\include\d3dx8math.inl
; File C:\Users\ALEXANDER\Desktop\Cliente\COPY_FISH_WON_NEW\Binario\Client\EterLib\RenderTarget.cpp
; File D:\visual studio 2019\visual studio 2019\VC\Tools\MSVC\14.29.30133\include\memory
; File D:\visual studio 2019\visual studio 2019\VC\Tools\MSVC\14.29.30133\include\xstring
; File D:\visual studio 2019\visual studio 2019\VC\Tools\MSVC\14.29.30133\include\xmemory
; File D:\visual studio 2019\visual studio 2019\VC\Tools\MSVC\14.29.30133\include\xstring
; File D:\visual studio 2019\visual studio 2019\VC\Tools\MSVC\14.29.30133\include\xmemory
; File D:\visual studio 2019\visual studio 2019\VC\Tools\MSVC\14.29.30133\include\xstring
; File C:\Users\ALEXANDER\Desktop\Cliente\COPY_FISH_WON_NEW\Binario\Client\EterLib\RenderTarget.cpp
; File D:\visual studio 2019\visual studio 2019\VC\Tools\MSVC\14.29.30133\include\xmemory
; File C:\Users\ALEXANDER\Desktop\Cliente\COPY_FISH_WON_NEW\Binario\Client\EterLib\RenderTarget.cpp
;	COMDAT ?SelectModel@CRenderTarget@@QAEXK@Z
_TEXT	SEGMENT
tv186 = -400						; size = 4
$T2 = -396						; size = 4
_model$ = -392						; size = 4
_kCreateData$ = -388					; size = 360
$T3 = -28						; size = 12
__$ArrayPad$ = -16					; size = 4
__$EHRec$ = -12						; size = 12
_dwIndex$ = 8						; size = 4
?SelectModel@CRenderTarget@@QAEXK@Z PROC		; CRenderTarget::SelectModel, COMDAT
; _this$ = ecx

; 78   : {

  00000	55		 push	 ebp
  00001	8b ec		 mov	 ebp, esp
  00003	6a ff		 push	 -1
  00005	68 00 00 00 00	 push	 __ehhandler$?SelectModel@CRenderTarget@@QAEXK@Z
  0000a	64 a1 00 00 00
	00		 mov	 eax, DWORD PTR fs:0
  00010	50		 push	 eax
  00011	81 ec 84 01 00
	00		 sub	 esp, 388		; 00000184H
  00017	a1 00 00 00 00	 mov	 eax, DWORD PTR ___security_cookie
  0001c	33 c5		 xor	 eax, ebp
  0001e	89 45 f0	 mov	 DWORD PTR __$ArrayPad$[ebp], eax
  00021	53		 push	 ebx
  00022	56		 push	 esi
  00023	57		 push	 edi
  00024	50		 push	 eax
  00025	8d 45 f4	 lea	 eax, DWORD PTR __$EHRec$[ebp]
  00028	64 a3 00 00 00
	00		 mov	 DWORD PTR fs:0, eax
  0002e	8b f9		 mov	 edi, ecx

; 79   : 	if (dwIndex == 0)

  00030	8b 75 08	 mov	 esi, DWORD PTR _dwIndex$[ebp]
  00033	85 f6		 test	 esi, esi
  00035	75 17		 jne	 SHORT $LN2@SelectMode
; File D:\visual studio 2019\visual studio 2019\VC\Tools\MSVC\14.29.30133\include\utility

; 602  :     _Ty _Old_val = static_cast<_Ty&&>(_Val);

  00037	8b 0f		 mov	 ecx, DWORD PTR [edi]

; 603  :     _Val         = static_cast<_Other&&>(_New_val);

  00039	89 37		 mov	 DWORD PTR [edi], esi
; File D:\visual studio 2019\visual studio 2019\VC\Tools\MSVC\14.29.30133\include\memory

; 3232 :         if (_Old) {

  0003b	85 c9		 test	 ecx, ecx
  0003d	0f 84 14 02 00
	00		 je	 $LN93@SelectMode

; 3090 :         delete _Ptr;

  00043	8b 01		 mov	 eax, DWORD PTR [ecx]
  00045	6a 01		 push	 1
  00047	ff 10		 call	 DWORD PTR [eax]
; File C:\Users\ALEXANDER\Desktop\Cliente\COPY_FISH_WON_NEW\Binario\Client\EterLib\RenderTarget.cpp

; 83   : 		return;

  00049	e9 09 02 00 00	 jmp	 $LN93@SelectMode
$LN2@SelectMode:

; 84   : 	}
; 85   : 
; 86   : 	CInstanceBase::SCreateData kCreateData{};

  0004e	68 41 01 00 00	 push	 321			; 00000141H
  00053	8d 85 7c fe ff
	ff		 lea	 eax, DWORD PTR _kCreateData$[ebp]
  00059	6a 00		 push	 0
  0005b	50		 push	 eax
  0005c	e8 00 00 00 00	 call	 _memset
  00061	83 c4 0c	 add	 esp, 12			; 0000000cH
  00064	8d 4d bd	 lea	 ecx, DWORD PTR _kCreateData$[ebp+321]
  00067	e8 00 00 00 00	 call	 ??0CAffectFlagContainer@@QAE@XZ ; CAffectFlagContainer::CAffectFlagContainer
; File D:\visual studio 2019\visual studio 2019\VC\Tools\MSVC\14.29.30133\include\xstring

; 2313 :         _CONSTEXPR20_CONTAINER _Bxty() noexcept : _Ptr() {} // user-provided, for fancy pointers

  0006c	c7 45 c8 00 00
	00 00		 mov	 DWORD PTR _kCreateData$[ebp+332], 0

; 4562 :         _My_data._Mysize = 0;

  00073	c7 45 d8 00 00
	00 00		 mov	 DWORD PTR _kCreateData$[ebp+348], 0

; 4563 : 
; 4564 : #ifdef __cpp_lib_constexpr_string
; 4565 :         if (_STD is_constant_evaluated()) {
; 4566 :             _My_data._Myres        = _BUF_SIZE; // SSO disabled in constexpr context
; 4567 :             auto& _Al              = _Getal();
; 4568 :             const pointer _New_ptr = _Al.allocate(_BUF_SIZE + 1); // throws
; 4569 :             _My_data._Bx._Ptr      = _New_ptr;
; 4570 : 
; 4571 :             _Elem* const _Raw_new = _Unfancy(_New_ptr);
; 4572 :             _Traits::assign(_Raw_new, _BUF_SIZE + 1, _Elem());
; 4573 :         } else
; 4574 : #endif // __cpp_lib_constexpr_string
; 4575 :         {
; 4576 :             _My_data._Myres = _BUF_SIZE - 1;

  0007a	c7 45 dc 0f 00
	00 00		 mov	 DWORD PTR _kCreateData$[ebp+352], 15 ; 0000000fH

; 4577 :             // the _Traits::assign is last so the codegen doesn't think the char write can alias this
; 4578 :             _Traits::assign(_My_data._Bx._Buf[0], _Elem());

  00081	c6 45 c8 00	 mov	 BYTE PTR _kCreateData$[ebp+332], 0
; File C:\Users\ALEXANDER\Desktop\Cliente\COPY_FISH_WON_NEW\Binario\Client\EterLib\RenderTarget.cpp

; 91   : 	auto model = std::make_unique<CInstanceBase>();

  00085	8d 85 74 fe ff
	ff		 lea	 eax, DWORD PTR $T2[ebp]
  0008b	c7 45 fc 00 00
	00 00		 mov	 DWORD PTR __$EHRec$[ebp+8], 0
  00092	50		 push	 eax
  00093	c7 45 e0 00 00
	00 00		 mov	 DWORD PTR _kCreateData$[ebp+356], 0
  0009a	c6 85 7c fe ff
	ff 01		 mov	 BYTE PTR _kCreateData$[ebp], 1
  000a1	89 b5 94 fe ff
	ff		 mov	 DWORD PTR _kCreateData$[ebp+24], esi
  000a7	e8 00 00 00 00	 call	 ??$make_unique@VCInstanceBase@@$$V$0A@@std@@YA?AV?$unique_ptr@VCInstanceBase@@U?$default_delete@VCInstanceBase@@@std@@@0@XZ ; std::make_unique<CInstanceBase,0>
  000ac	83 c4 04	 add	 esp, 4
; File D:\visual studio 2019\visual studio 2019\VC\Tools\MSVC\14.29.30133\include\utility

; 602  :     _Ty _Old_val = static_cast<_Ty&&>(_Val);

  000af	8b 18		 mov	 ebx, DWORD PTR [eax]
; File D:\visual studio 2019\visual studio 2019\VC\Tools\MSVC\14.29.30133\include\xmemory

; 1336 :         : _Ty1(_STD forward<_Other1>(_Val1)), _Myval2(_STD forward<_Other2>(_Val2)...) {}

  000b1	8b f3		 mov	 esi, ebx
; File D:\visual studio 2019\visual studio 2019\VC\Tools\MSVC\14.29.30133\include\utility

; 603  :     _Val         = static_cast<_Other&&>(_New_val);

  000b3	c7 00 00 00 00
	00		 mov	 DWORD PTR [eax], 0
; File D:\visual studio 2019\visual studio 2019\VC\Tools\MSVC\14.29.30133\include\xmemory

; 1336 :         : _Ty1(_STD forward<_Other1>(_Val1)), _Myval2(_STD forward<_Other2>(_Val2)...) {}

  000b9	89 b5 78 fe ff
	ff		 mov	 DWORD PTR _model$[ebp], esi
; File D:\visual studio 2019\visual studio 2019\VC\Tools\MSVC\14.29.30133\include\memory

; 3197 :         if (_Mypair._Myval2) {

  000bf	8b 8d 74 fe ff
	ff		 mov	 ecx, DWORD PTR $T2[ebp]
; File C:\Users\ALEXANDER\Desktop\Cliente\COPY_FISH_WON_NEW\Binario\Client\EterLib\RenderTarget.cpp

; 91   : 	auto model = std::make_unique<CInstanceBase>();

  000c5	c6 45 fc 01	 mov	 BYTE PTR __$EHRec$[ebp+8], 1
; File D:\visual studio 2019\visual studio 2019\VC\Tools\MSVC\14.29.30133\include\memory

; 3197 :         if (_Mypair._Myval2) {

  000c9	85 c9		 test	 ecx, ecx
  000cb	74 06		 je	 SHORT $LN47@SelectMode

; 3090 :         delete _Ptr;

  000cd	8b 01		 mov	 eax, DWORD PTR [ecx]
  000cf	6a 01		 push	 1
  000d1	ff 10		 call	 DWORD PTR [eax]
$LN47@SelectMode:
; File C:\Users\ALEXANDER\Desktop\Cliente\COPY_FISH_WON_NEW\Binario\Client\EterLib\RenderTarget.cpp

; 92   : 	if (!model->Create(kCreateData))

  000d3	8d 85 7c fe ff
	ff		 lea	 eax, DWORD PTR _kCreateData$[ebp]
  000d9	8b cb		 mov	 ecx, ebx
  000db	50		 push	 eax
  000dc	e8 00 00 00 00	 call	 ?Create@CInstanceBase@@QAE_NABUSCreateData@1@@Z ; CInstanceBase::Create
  000e1	84 c0		 test	 al, al
  000e3	75 1b		 jne	 SHORT $LN3@SelectMode
; File D:\visual studio 2019\visual studio 2019\VC\Tools\MSVC\14.29.30133\include\memory

; 3223 :         return static_cast<bool>(_Mypair._Myval2);

  000e5	8b 0f		 mov	 ecx, DWORD PTR [edi]
  000e7	85 c9		 test	 ecx, ecx
; File C:\Users\ALEXANDER\Desktop\Cliente\COPY_FISH_WON_NEW\Binario\Client\EterLib\RenderTarget.cpp

; 94   : 		if (m_pModelInstance)

  000e9	0f 84 12 01 00
	00		 je	 $LN11@SelectMode
; File D:\visual studio 2019\visual studio 2019\VC\Tools\MSVC\14.29.30133\include\utility

; 603  :     _Val         = static_cast<_Other&&>(_New_val);

  000ef	c7 07 00 00 00
	00		 mov	 DWORD PTR [edi], 0
; File D:\visual studio 2019\visual studio 2019\VC\Tools\MSVC\14.29.30133\include\memory

; 3090 :         delete _Ptr;

  000f5	8b 01		 mov	 eax, DWORD PTR [ecx]
  000f7	6a 01		 push	 1
  000f9	ff 10		 call	 DWORD PTR [eax]
  000fb	e9 01 01 00 00	 jmp	 $LN11@SelectMode
$LN3@SelectMode:

; 3184 :         if (this != _STD addressof(_Right)) {

  00100	8d 85 78 fe ff
	ff		 lea	 eax, DWORD PTR _model$[ebp]
  00106	3b f8		 cmp	 edi, eax
  00108	74 18		 je	 SHORT $LN81@SelectMode
; File D:\visual studio 2019\visual studio 2019\VC\Tools\MSVC\14.29.30133\include\utility

; 602  :     _Ty _Old_val = static_cast<_Ty&&>(_Val);

  0010a	8b 0f		 mov	 ecx, DWORD PTR [edi]

; 603  :     _Val         = static_cast<_Other&&>(_New_val);

  0010c	33 f6		 xor	 esi, esi
  0010e	89 1f		 mov	 DWORD PTR [edi], ebx
  00110	33 db		 xor	 ebx, ebx
  00112	89 b5 78 fe ff
	ff		 mov	 DWORD PTR _model$[ebp], esi
; File D:\visual studio 2019\visual studio 2019\VC\Tools\MSVC\14.29.30133\include\memory

; 3232 :         if (_Old) {

  00118	85 c9		 test	 ecx, ecx
  0011a	74 06		 je	 SHORT $LN81@SelectMode

; 3090 :         delete _Ptr;

  0011c	8b 01		 mov	 eax, DWORD PTR [ecx]
  0011e	6a 01		 push	 1
  00120	ff 10		 call	 DWORD PTR [eax]
$LN81@SelectMode:
; File C:\Users\ALEXANDER\Desktop\Cliente\COPY_FISH_WON_NEW\Binario\Client\EterLib\RenderTarget.cpp

; 103  : 	m_pModelInstance->Refresh(CRaceMotionData::NAME_WAIT, true);

  00122	8b 0f		 mov	 ecx, DWORD PTR [edi]
  00124	6a 01		 push	 1
  00126	6a 01		 push	 1
  00128	e8 00 00 00 00	 call	 ?Refresh@CInstanceBase@@QAEXK_N@Z ; CInstanceBase::Refresh

; 104  : 	m_pModelInstance->SetLoopMotion(CRaceMotionData::NAME_WAIT);

  0012d	8b 0f		 mov	 ecx, DWORD PTR [edi]
  0012f	83 ec 08	 sub	 esp, 8
  00132	c7 44 24 04 00
	00 80 3f	 mov	 DWORD PTR [esp+4], 1065353216 ; 3f800000H
  0013a	c7 04 24 cd cc
	cc 3d		 mov	 DWORD PTR [esp], 1036831949 ; 3dcccccdH
  00141	6a 01		 push	 1
  00143	e8 00 00 00 00	 call	 ?SetLoopMotion@CInstanceBase@@QAEXGMM@Z ; CInstanceBase::SetLoopMotion

; 105  : 	m_pModelInstance->SetAlwaysRender(true);

  00148	8b 0f		 mov	 ecx, DWORD PTR [edi]
  0014a	6a 01		 push	 1
  0014c	e8 00 00 00 00	 call	 ?SetAlwaysRender@CInstanceBase@@QAEX_N@Z ; CInstanceBase::SetAlwaysRender

; 106  : 	m_pModelInstance->SetRotation(0.0f);

  00151	51		 push	 ecx
  00152	8b 0f		 mov	 ecx, DWORD PTR [edi]
  00154	c7 04 24 00 00
	00 00		 mov	 DWORD PTR [esp], 0
  0015b	e8 00 00 00 00	 call	 ?SetRotation@CInstanceBase@@QAEXM@Z ; CInstanceBase::SetRotation

; 107  : 	m_pModelInstance->NEW_SetPixelPosition(TPixelPosition(0.0f, 0.0f, 0.0f));

  00160	8b 0f		 mov	 ecx, DWORD PTR [edi]
  00162	8d 45 e4	 lea	 eax, DWORD PTR $T3[ebp]
  00165	50		 push	 eax
; File C:\Users\ALEXANDER\Desktop\Cliente\COPY_FISH_WON_NEW\Binario\extern\include\d3dx8math.inl

; 180  :     x = fx;

  00166	c7 45 e4 00 00
	00 00		 mov	 DWORD PTR $T3[ebp], 0

; 181  :     y = fy;

  0016d	c7 45 e8 00 00
	00 00		 mov	 DWORD PTR $T3[ebp+4], 0

; 182  :     z = fz;

  00174	c7 45 ec 00 00
	00 00		 mov	 DWORD PTR $T3[ebp+8], 0
; File C:\Users\ALEXANDER\Desktop\Cliente\COPY_FISH_WON_NEW\Binario\Client\EterLib\RenderTarget.cpp

; 107  : 	m_pModelInstance->NEW_SetPixelPosition(TPixelPosition(0.0f, 0.0f, 0.0f));

  0017b	e8 00 00 00 00	 call	 ?NEW_SetPixelPosition@CInstanceBase@@QAEXABUD3DXVECTOR3@@@Z ; CInstanceBase::NEW_SetPixelPosition

; 108  : 
; 109  : 	CActorInstance& rkActor = m_pModelInstance->GetGraphicThingInstanceRef();

  00180	8b 0f		 mov	 ecx, DWORD PTR [edi]
  00182	e8 00 00 00 00	 call	 ?GetGraphicThingInstanceRef@CInstanceBase@@QAEAAVCActorInstance@@XZ ; CInstanceBase::GetGraphicThingInstanceRef

; 110  : 	float fHeight = rkActor.GetHeight();

  00187	8b c8		 mov	 ecx, eax
  00189	e8 00 00 00 00	 call	 ?GetHeight@CActorInstance@@QAEMXZ ; CActorInstance::GetHeight
  0018e	d9 9d 70 fe ff
	ff		 fstp	 DWORD PTR tv186[ebp]

; 111  : 	m_fEyeY = fHeight;

  00194	f3 0f 10 85 70
	fe ff ff	 movss	 xmm0, DWORD PTR tv186[ebp]
  0019c	f3 0f 11 47 10	 movss	 DWORD PTR [edi+16], xmm0

; 112  : 	m_fZoomY = 0.0f;
; 113  : 	m_fTargetY = 0.0f;
; 114  : 	m_fTargetHeight = m_fEyeY * 8.9f / 140.0f;

  001a1	f3 0f 59 05 00
	00 00 00	 mulss	 xmm0, DWORD PTR __real@410e6666
  001a9	c7 47 1c 00 00
	00 00		 mov	 DWORD PTR [edi+28], 0
  001b0	c7 47 14 00 00
	00 00		 mov	 DWORD PTR [edi+20], 0

; 115  : 
; 116  : 	CCameraManager::instance().SetCurrentCamera(CCameraManager::SHOPDECO_CAMERA);

  001b7	6a 03		 push	 3
  001b9	f3 0f 5e 05 00
	00 00 00	 divss	 xmm0, DWORD PTR __real@430c0000
  001c1	f3 0f 11 47 18	 movss	 DWORD PTR [edi+24], xmm0
  001c6	8b 0d 00 00 00
	00		 mov	 ecx, DWORD PTR ?ms_singleton@?$CSingleton@VCCameraManager@@@@0PAVCCameraManager@@A ; CSingleton<CCameraManager>::ms_singleton
  001cc	e8 00 00 00 00	 call	 ?SetCurrentCamera@CCameraManager@@QAEXE@Z ; CCameraManager::SetCurrentCamera

; 117  : 	CCamera* pCam = CCameraManager::instance().GetCurrentCamera();

  001d1	8b 0d 00 00 00
	00		 mov	 ecx, DWORD PTR ?ms_singleton@?$CSingleton@VCCameraManager@@@@0PAVCCameraManager@@A ; CSingleton<CCameraManager>::ms_singleton
  001d7	e8 00 00 00 00	 call	 ?GetCurrentCamera@CCameraManager@@QAEPAVCCamera@@XZ ; CCameraManager::GetCurrentCamera

; 118  : 	pCam->SetTargetHeight(m_fEyeY / 2.0f);

  001dc	f3 0f 10 47 10	 movss	 xmm0, DWORD PTR [edi+16]
  001e1	f3 0f 59 05 00
	00 00 00	 mulss	 xmm0, DWORD PTR __real@3f000000
  001e9	51		 push	 ecx
  001ea	8b c8		 mov	 ecx, eax
  001ec	f3 0f 11 04 24	 movss	 DWORD PTR [esp], xmm0
  001f1	e8 00 00 00 00	 call	 ?SetTargetHeight@CCamera@@QAEXM@Z ; CCamera::SetTargetHeight

; 119  : 	CCameraManager::instance().ResetToPreviousCamera();

  001f6	8b 0d 00 00 00
	00		 mov	 ecx, DWORD PTR ?ms_singleton@?$CSingleton@VCCameraManager@@@@0PAVCCameraManager@@A ; CSingleton<CCameraManager>::ms_singleton
  001fc	e8 00 00 00 00	 call	 ?ResetToPreviousCamera@CCameraManager@@QAEXXZ ; CCameraManager::ResetToPreviousCamera
$LN11@SelectMode:
; File D:\visual studio 2019\visual studio 2019\VC\Tools\MSVC\14.29.30133\include\memory

; 3197 :         if (_Mypair._Myval2) {

  00201	85 db		 test	 ebx, ebx
  00203	74 08		 je	 SHORT $LN90@SelectMode

; 3090 :         delete _Ptr;

  00205	8b 06		 mov	 eax, DWORD PTR [esi]
  00207	8b ce		 mov	 ecx, esi
  00209	6a 01		 push	 1
  0020b	ff 10		 call	 DWORD PTR [eax]
$LN90@SelectMode:
; File D:\visual studio 2019\visual studio 2019\VC\Tools\MSVC\14.29.30133\include\xstring

; 2286 :         return _BUF_SIZE <= _Myres;

  0020d	8b 55 dc	 mov	 edx, DWORD PTR _kCreateData$[ebp+352]
  00210	83 fa 10	 cmp	 edx, 16			; 00000010H

; 4584 :         if (_Mypair._Myval2._Large_string_engaged()) {

  00213	72 28		 jb	 SHORT $LN107@SelectMode
; File D:\visual studio 2019\visual studio 2019\VC\Tools\MSVC\14.29.30133\include\xmemory

; 797  :         _Deallocate<_New_alignof<_Ty>>(_Ptr, sizeof(_Ty) * _Count);

  00215	8b 4d c8	 mov	 ecx, DWORD PTR _kCreateData$[ebp+332]
; File D:\visual studio 2019\visual studio 2019\VC\Tools\MSVC\14.29.30133\include\xstring

; 4588 :             _Al.deallocate(_Ptr, _Mypair._Myval2._Myres + 1);

  00218	42		 inc	 edx
; File D:\visual studio 2019\visual studio 2019\VC\Tools\MSVC\14.29.30133\include\xmemory

; 797  :         _Deallocate<_New_alignof<_Ty>>(_Ptr, sizeof(_Ty) * _Count);

  00219	8b c1		 mov	 eax, ecx

; 251  :         if (_Bytes >= _Big_allocation_threshold) { // boost the alignment of big allocations to help autovectorization

  0021b	81 fa 00 10 00
	00		 cmp	 edx, 4096		; 00001000H
  00221	72 10		 jb	 SHORT $LN117@SelectMode

; 150  :     const uintptr_t _Ptr_container   = _Ptr_user[-1];

  00223	8b 49 fc	 mov	 ecx, DWORD PTR [ecx-4]
  00226	83 c2 23	 add	 edx, 35			; 00000023H
  00229	2b c1		 sub	 eax, ecx

; 164  :     _STL_VERIFY(_Back_shift >= _Min_back_shift && _Back_shift <= _Non_user_size, "invalid argument");

  0022b	83 c0 fc	 add	 eax, -4			; fffffffcH
  0022e	83 f8 1f	 cmp	 eax, 31			; 0000001fH
  00231	77 42		 ja	 SHORT $LN127@SelectMode
$LN117@SelectMode:

; 255  :         ::operator delete(_Ptr, _Bytes);

  00233	52		 push	 edx
  00234	51		 push	 ecx
  00235	e8 00 00 00 00	 call	 ??3@YAXPAXI@Z		; operator delete
  0023a	83 c4 08	 add	 esp, 8
$LN107@SelectMode:
  0023d	8d 4d bd	 lea	 ecx, DWORD PTR _kCreateData$[ebp+321]
; File D:\visual studio 2019\visual studio 2019\VC\Tools\MSVC\14.29.30133\include\xstring

; 4599 :             _Mypair._Myval2._Mysize = 0;

  00240	c7 45 d8 00 00
	00 00		 mov	 DWORD PTR _kCreateData$[ebp+348], 0

; 4600 :             _Mypair._Myval2._Myres  = _BUF_SIZE - 1;

  00247	c7 45 dc 0f 00
	00 00		 mov	 DWORD PTR _kCreateData$[ebp+352], 15 ; 0000000fH

; 4601 :             // the _Traits::assign is last so the codegen doesn't think the char write can alias this
; 4602 :             _Traits::assign(_Mypair._Myval2._Bx._Buf[0], _Elem());

  0024e	c6 45 c8 00	 mov	 BYTE PTR _kCreateData$[ebp+332], 0
  00252	e8 00 00 00 00	 call	 ??1CAffectFlagContainer@@QAE@XZ ; CAffectFlagContainer::~CAffectFlagContainer
$LN93@SelectMode:
; File C:\Users\ALEXANDER\Desktop\Cliente\COPY_FISH_WON_NEW\Binario\Client\EterLib\RenderTarget.cpp

; 120  : }

  00257	8b 4d f4	 mov	 ecx, DWORD PTR __$EHRec$[ebp]
  0025a	64 89 0d 00 00
	00 00		 mov	 DWORD PTR fs:0, ecx
  00261	59		 pop	 ecx
  00262	5f		 pop	 edi
  00263	5e		 pop	 esi
  00264	5b		 pop	 ebx
  00265	8b 4d f0	 mov	 ecx, DWORD PTR __$ArrayPad$[ebp]
  00268	33 cd		 xor	 ecx, ebp
  0026a	e8 00 00 00 00	 call	 @__security_check_cookie@4
  0026f	8b e5		 mov	 esp, ebp
  00271	5d		 pop	 ebp
  00272	c2 04 00	 ret	 4
$LN127@SelectMode:
; File D:\visual studio 2019\visual studio 2019\VC\Tools\MSVC\14.29.30133\include\xmemory

; 164  :     _STL_VERIFY(_Back_shift >= _Min_back_shift && _Back_shift <= _Non_user_size, "invalid argument");

  00275	e8 00 00 00 00	 call	 __invalid_parameter_noinfo_noreturn
$LN125@SelectMode:
  0027a	cc		 int	 3
_TEXT	ENDS
;	COMDAT text$x
text$x	SEGMENT
__unwindfunclet$?SelectModel@CRenderTarget@@QAEXK@Z$2:
  00000	8d 8d 7c fe ff
	ff		 lea	 ecx, DWORD PTR _kCreateData$[ebp]
  00006	e9 00 00 00 00	 jmp	 ??1SCreateData@CInstanceBase@@QAE@XZ
__unwindfunclet$?SelectModel@CRenderTarget@@QAEXK@Z$4:
  0000b	8d 8d 78 fe ff
	ff		 lea	 ecx, DWORD PTR _model$[ebp]
  00011	e9 00 00 00 00	 jmp	 ??1?$unique_ptr@VCInstanceBase@@U?$default_delete@VCInstanceBase@@@std@@@std@@QAE@XZ ; std::unique_ptr<CInstanceBase,std::default_delete<CInstanceBase> >::~unique_ptr<CInstanceBase,std::default_delete<CInstanceBase> >
  00016	cc		 int	 3
  00017	cc		 int	 3
  00018	cc		 int	 3
  00019	cc		 int	 3
  0001a	cc		 int	 3
__ehhandler$?SelectModel@CRenderTarget@@QAEXK@Z:
  0001b	90		 npad	 1
  0001c	90		 npad	 1
  0001d	8b 54 24 08	 mov	 edx, DWORD PTR [esp+8]
  00021	8d 42 0c	 lea	 eax, DWORD PTR [edx+12]
  00024	8b 8a 6c fe ff
	ff		 mov	 ecx, DWORD PTR [edx-404]
  0002a	33 c8		 xor	 ecx, eax
  0002c	e8 00 00 00 00	 call	 @__security_check_cookie@4
  00031	8b 4a fc	 mov	 ecx, DWORD PTR [edx-4]
  00034	33 c8		 xor	 ecx, eax
  00036	e8 00 00 00 00	 call	 @__security_check_cookie@4
  0003b	b8 00 00 00 00	 mov	 eax, OFFSET __ehfuncinfo$?SelectModel@CRenderTarget@@QAEXK@Z
  00040	e9 00 00 00 00	 jmp	 ___CxxFrameHandler3
text$x	ENDS
?SelectModel@CRenderTarget@@QAEXK@Z ENDP		; CRenderTarget::SelectModel
; Function compile flags: /Ogtp
; File C:\Users\ALEXANDER\Desktop\Cliente\COPY_FISH_WON_NEW\Binario\Client\EterLib\RenderTarget.cpp
;	COMDAT ?SetRenderingRect@CRenderTarget@@QBEXPAUtagRECT@@@Z
_TEXT	SEGMENT
_pRect$ = 8						; size = 4
?SetRenderingRect@CRenderTarget@@QBEXPAUtagRECT@@@Z PROC ; CRenderTarget::SetRenderingRect, COMDAT
; _this$ = ecx

; 63   : {

  00000	55		 push	 ebp
  00001	8b ec		 mov	 ebp, esp

; 64   : 	m_pRenderTargetTexture->SetRenderingRect(pRect);

  00003	8b 49 08	 mov	 ecx, DWORD PTR [ecx+8]

; 65   : }

  00006	5d		 pop	 ebp

; 64   : 	m_pRenderTargetTexture->SetRenderingRect(pRect);

  00007	e9 00 00 00 00	 jmp	 ?SetRenderingRect@CGraphicRenderTargetTexture@@QAEXPAUtagRECT@@@Z ; CGraphicRenderTargetTexture::SetRenderingRect
?SetRenderingRect@CRenderTarget@@QBEXPAUtagRECT@@@Z ENDP ; CRenderTarget::SetRenderingRect
_TEXT	ENDS
; Function compile flags: /Ogtp
; File C:\Users\ALEXANDER\Desktop\Cliente\COPY_FISH_WON_NEW\Binario\Client\EterLib\RenderTarget.cpp
;	COMDAT ?RenderTexture@CRenderTarget@@QBEXXZ
_TEXT	SEGMENT
?RenderTexture@CRenderTarget@@QBEXXZ PROC		; CRenderTarget::RenderTexture, COMDAT
; _this$ = ecx

; 59   : 	m_pRenderTargetTexture->Render();

  00000	8b 49 08	 mov	 ecx, DWORD PTR [ecx+8]
  00003	e9 00 00 00 00	 jmp	 ?Render@CGraphicRenderTargetTexture@@QBEXXZ ; CGraphicRenderTargetTexture::Render
?RenderTexture@CRenderTarget@@QBEXXZ ENDP		; CRenderTarget::RenderTexture
_TEXT	ENDS
; Function compile flags: /Ogtp
; File C:\Users\ALEXANDER\Desktop\Cliente\COPY_FISH_WON_NEW\Binario\Client\EterLib\RenderTarget.cpp
;	COMDAT ?SetVisibility@CRenderTarget@@QAEX_N@Z
_TEXT	SEGMENT
_bShow$ = 8						; size = 1
?SetVisibility@CRenderTarget@@QAEX_N@Z PROC		; CRenderTarget::SetVisibility, COMDAT
; _this$ = ecx

; 53   : {

  00000	55		 push	 ebp
  00001	8b ec		 mov	 ebp, esp

; 54   : 	m_bShow = bShow;

  00003	8a 45 08	 mov	 al, BYTE PTR _bShow$[ebp]
  00006	88 41 20	 mov	 BYTE PTR [ecx+32], al

; 55   : }

  00009	5d		 pop	 ebp
  0000a	c2 04 00	 ret	 4
?SetVisibility@CRenderTarget@@QAEX_N@Z ENDP		; CRenderTarget::SetVisibility
_TEXT	ENDS
; Function compile flags: /Ogtp
; File C:\Users\ALEXANDER\Desktop\Cliente\COPY_FISH_WON_NEW\Binario\Client\EterLib\RenderTarget.cpp
; File D:\visual studio 2019\visual studio 2019\VC\Tools\MSVC\14.29.30133\include\utility
; File D:\visual studio 2019\visual studio 2019\VC\Tools\MSVC\14.29.30133\include\memory
; File D:\visual studio 2019\visual studio 2019\VC\Tools\MSVC\14.29.30133\include\utility
; File D:\visual studio 2019\visual studio 2019\VC\Tools\MSVC\14.29.30133\include\memory
; File C:\Users\ALEXANDER\Desktop\Cliente\COPY_FISH_WON_NEW\Binario\Client\EterLib\RenderTarget.cpp
; File D:\visual studio 2019\visual studio 2019\VC\Tools\MSVC\14.29.30133\include\memory
; File C:\Users\ALEXANDER\Desktop\Cliente\COPY_FISH_WON_NEW\Binario\Client\EterLib\RenderTarget.cpp
;	COMDAT ??1CRenderTarget@@QAE@XZ
_TEXT	SEGMENT
??1CRenderTarget@@QAE@XZ PROC				; CRenderTarget::~CRenderTarget, COMDAT
; _this$ = ecx

; 41   : {

  00000	56		 push	 esi
  00001	8b f1		 mov	 esi, ecx
; File D:\visual studio 2019\visual studio 2019\VC\Tools\MSVC\14.29.30133\include\utility

; 602  :     _Ty _Old_val = static_cast<_Ty&&>(_Val);

  00003	8b 0e		 mov	 ecx, DWORD PTR [esi]

; 603  :     _Val         = static_cast<_Other&&>(_New_val);

  00005	c7 06 00 00 00
	00		 mov	 DWORD PTR [esi], 0
; File D:\visual studio 2019\visual studio 2019\VC\Tools\MSVC\14.29.30133\include\memory

; 3232 :         if (_Old) {

  0000b	85 c9		 test	 ecx, ecx
  0000d	74 06		 je	 SHORT $LN12@CRenderTar

; 3090 :         delete _Ptr;

  0000f	8b 01		 mov	 eax, DWORD PTR [ecx]
  00011	6a 01		 push	 1
  00013	ff 10		 call	 DWORD PTR [eax]
$LN12@CRenderTar:
; File D:\visual studio 2019\visual studio 2019\VC\Tools\MSVC\14.29.30133\include\utility

; 602  :     _Ty _Old_val = static_cast<_Ty&&>(_Val);

  00015	8b 4e 04	 mov	 ecx, DWORD PTR [esi+4]

; 603  :     _Val         = static_cast<_Other&&>(_New_val);

  00018	c7 46 04 00 00
	00 00		 mov	 DWORD PTR [esi+4], 0
; File D:\visual studio 2019\visual studio 2019\VC\Tools\MSVC\14.29.30133\include\memory

; 3232 :         if (_Old) {

  0001f	85 c9		 test	 ecx, ecx
  00021	74 06		 je	 SHORT $LN23@CRenderTar

; 3090 :         delete _Ptr;

  00023	8b 01		 mov	 eax, DWORD PTR [ecx]
  00025	6a 01		 push	 1
  00027	ff 10		 call	 DWORD PTR [eax]
$LN23@CRenderTar:
; File C:\Users\ALEXANDER\Desktop\Cliente\COPY_FISH_WON_NEW\Binario\Client\EterLib\RenderTarget.cpp

; 44   : 	m_fModelRotation = NULL;

  00029	c7 46 0c 00 00
	00 00		 mov	 DWORD PTR [esi+12], 0

; 45   : 	m_fEyeY = 0.0f;

  00030	c7 46 10 00 00
	00 00		 mov	 DWORD PTR [esi+16], 0

; 46   : 	m_fZoomY = 0.0f;

  00037	c7 46 1c 00 00
	00 00		 mov	 DWORD PTR [esi+28], 0

; 47   : 	m_fTargetHeight = 0.0f;

  0003e	c7 46 18 00 00
	00 00		 mov	 DWORD PTR [esi+24], 0

; 48   : 	m_fTargetY = 0.0f;

  00045	c7 46 14 00 00
	00 00		 mov	 DWORD PTR [esi+20], 0

; 49   : 	m_bShow = false;

  0004c	c6 46 20 00	 mov	 BYTE PTR [esi+32], 0
; File D:\visual studio 2019\visual studio 2019\VC\Tools\MSVC\14.29.30133\include\memory

; 3197 :         if (_Mypair._Myval2) {

  00050	8b 4e 08	 mov	 ecx, DWORD PTR [esi+8]
  00053	85 c9		 test	 ecx, ecx
  00055	74 06		 je	 SHORT $LN30@CRenderTar

; 3090 :         delete _Ptr;

  00057	8b 01		 mov	 eax, DWORD PTR [ecx]
  00059	6a 01		 push	 1
  0005b	ff 10		 call	 DWORD PTR [eax]
$LN30@CRenderTar:

; 3197 :         if (_Mypair._Myval2) {

  0005d	8b 4e 04	 mov	 ecx, DWORD PTR [esi+4]
  00060	85 c9		 test	 ecx, ecx
  00062	74 06		 je	 SHORT $LN37@CRenderTar

; 3090 :         delete _Ptr;

  00064	8b 01		 mov	 eax, DWORD PTR [ecx]
  00066	6a 01		 push	 1
  00068	ff 10		 call	 DWORD PTR [eax]
$LN37@CRenderTar:

; 3197 :         if (_Mypair._Myval2) {

  0006a	8b 0e		 mov	 ecx, DWORD PTR [esi]
  0006c	5e		 pop	 esi
  0006d	85 c9		 test	 ecx, ecx
  0006f	74 06		 je	 SHORT $LN44@CRenderTar

; 3090 :         delete _Ptr;

  00071	8b 01		 mov	 eax, DWORD PTR [ecx]
  00073	6a 01		 push	 1
  00075	ff 10		 call	 DWORD PTR [eax]
$LN44@CRenderTar:
; File C:\Users\ALEXANDER\Desktop\Cliente\COPY_FISH_WON_NEW\Binario\Client\EterLib\RenderTarget.cpp

; 50   : }

  00077	c3		 ret	 0
??1CRenderTarget@@QAE@XZ ENDP				; CRenderTarget::~CRenderTarget
_TEXT	ENDS
; Function compile flags: /Ogtp
; File C:\Users\ALEXANDER\Desktop\Cliente\COPY_FISH_WON_NEW\Binario\Client\EterLib\RenderTarget.cpp
; File D:\visual studio 2019\visual studio 2019\VC\Tools\MSVC\14.29.30133\include\xmemory
; File C:\Users\ALEXANDER\Desktop\Cliente\COPY_FISH_WON_NEW\Binario\Client\EterLib\RenderTarget.cpp
; File D:\visual studio 2019\visual studio 2019\VC\Tools\MSVC\14.29.30133\include\xmemory
; File C:\Users\ALEXANDER\Desktop\Cliente\COPY_FISH_WON_NEW\Binario\Client\EterLib\RenderTarget.cpp
; File D:\visual studio 2019\visual studio 2019\VC\Tools\MSVC\14.29.30133\include\xmemory
; File C:\Users\ALEXANDER\Desktop\Cliente\COPY_FISH_WON_NEW\Binario\Client\EterLib\RenderTarget.cpp
; File D:\visual studio 2019\visual studio 2019\VC\Tools\MSVC\14.29.30133\include\memory
; File D:\visual studio 2019\visual studio 2019\VC\Tools\MSVC\14.29.30133\include\utility
; File D:\visual studio 2019\visual studio 2019\VC\Tools\MSVC\14.29.30133\include\memory
; File C:\Users\ALEXANDER\Desktop\Cliente\COPY_FISH_WON_NEW\Binario\Client\EterLib\RenderTarget.cpp
;	COMDAT ??0CRenderTarget@@QAE@KK@Z
_TEXT	SEGMENT
$T2 = -32						; size = 12
$T3 = -20						; size = 4
_this$ = -16						; size = 4
__$EHRec$ = -12						; size = 12
_dwWidth$ = 8						; size = 4
$T4 = 12						; size = 4
_dwHeight$ = 12						; size = 4
??0CRenderTarget@@QAE@KK@Z PROC				; CRenderTarget::CRenderTarget, COMDAT
; _this$ = ecx

; 28   : {

  00000	55		 push	 ebp
  00001	8b ec		 mov	 ebp, esp
  00003	6a ff		 push	 -1
  00005	68 00 00 00 00	 push	 __ehhandler$??0CRenderTarget@@QAE@KK@Z
  0000a	64 a1 00 00 00
	00		 mov	 eax, DWORD PTR fs:0
  00010	50		 push	 eax
  00011	83 ec 14	 sub	 esp, 20			; 00000014H
  00014	53		 push	 ebx
  00015	56		 push	 esi
  00016	57		 push	 edi
  00017	a1 00 00 00 00	 mov	 eax, DWORD PTR ___security_cookie
  0001c	33 c5		 xor	 eax, ebp
  0001e	50		 push	 eax
  0001f	8d 45 f4	 lea	 eax, DWORD PTR __$EHRec$[ebp]
  00022	64 a3 00 00 00
	00		 mov	 DWORD PTR fs:0, eax
  00028	8b f9		 mov	 edi, ecx
  0002a	89 7d f0	 mov	 DWORD PTR _this$[ebp], edi
; File D:\visual studio 2019\visual studio 2019\VC\Tools\MSVC\14.29.30133\include\xmemory

; 1331 :         : _Ty1(), _Myval2(_STD forward<_Other2>(_Val2)...) {}

  0002d	c7 07 00 00 00
	00		 mov	 DWORD PTR [edi], 0
; File C:\Users\ALEXANDER\Desktop\Cliente\COPY_FISH_WON_NEW\Binario\Client\EterLib\RenderTarget.cpp

; 20   : 	m_pModelInstance(nullptr),

  00033	c7 45 fc 00 00
	00 00		 mov	 DWORD PTR __$EHRec$[ebp+8], 0
; File D:\visual studio 2019\visual studio 2019\VC\Tools\MSVC\14.29.30133\include\xmemory

; 1331 :         : _Ty1(), _Myval2(_STD forward<_Other2>(_Val2)...) {}

  0003a	c7 47 04 00 00
	00 00		 mov	 DWORD PTR [edi+4], 0
; File C:\Users\ALEXANDER\Desktop\Cliente\COPY_FISH_WON_NEW\Binario\Client\EterLib\RenderTarget.cpp

; 28   : {

  00041	8d 5f 08	 lea	 ebx, DWORD PTR [edi+8]
; File D:\visual studio 2019\visual studio 2019\VC\Tools\MSVC\14.29.30133\include\xmemory

; 1331 :         : _Ty1(), _Myval2(_STD forward<_Other2>(_Val2)...) {}

  00044	c7 03 00 00 00
	00		 mov	 DWORD PTR [ebx], 0
; File C:\Users\ALEXANDER\Desktop\Cliente\COPY_FISH_WON_NEW\Binario\Client\EterLib\RenderTarget.cpp

; 29   : 	auto pTex = new CGraphicRenderTargetTexture;

  0004a	6a 40		 push	 64			; 00000040H
  0004c	c6 45 fc 02	 mov	 BYTE PTR __$EHRec$[ebp+8], 2
  00050	c7 47 0c 00 00
	00 00		 mov	 DWORD PTR [edi+12], 0
  00057	c7 47 10 00 00
	00 00		 mov	 DWORD PTR [edi+16], 0
  0005e	c7 47 14 00 00
	00 00		 mov	 DWORD PTR [edi+20], 0
  00065	c7 47 18 00 00
	00 00		 mov	 DWORD PTR [edi+24], 0
  0006c	c7 47 1c 00 00
	00 00		 mov	 DWORD PTR [edi+28], 0
  00073	c6 47 20 00	 mov	 BYTE PTR [edi+32], 0
  00077	e8 00 00 00 00	 call	 ??2@YAPAXI@Z		; operator new
  0007c	83 c4 04	 add	 esp, 4
  0007f	89 45 ec	 mov	 DWORD PTR $T3[ebp], eax
  00082	c6 45 fc 03	 mov	 BYTE PTR __$EHRec$[ebp+8], 3
  00086	85 c0		 test	 eax, eax
  00088	74 0b		 je	 SHORT $LN4@CRenderTar
  0008a	8b c8		 mov	 ecx, eax
  0008c	e8 00 00 00 00	 call	 ??0CGraphicRenderTargetTexture@@QAE@XZ ; CGraphicRenderTargetTexture::CGraphicRenderTargetTexture
  00091	8b f0		 mov	 esi, eax
  00093	eb 02		 jmp	 SHORT $LN5@CRenderTar
$LN4@CRenderTar:
  00095	33 f6		 xor	 esi, esi
$LN5@CRenderTar:

; 30   : 	if (!pTex->Create(dwWidth, dwHeight, D3DFMT_X8R8G8B8, D3DFMT_D16))

  00097	6a 50		 push	 80			; 00000050H
  00099	6a 16		 push	 22			; 00000016H
  0009b	ff 75 0c	 push	 DWORD PTR _dwHeight$[ebp]
  0009e	8b ce		 mov	 ecx, esi
  000a0	c6 45 fc 02	 mov	 BYTE PTR __$EHRec$[ebp+8], 2
  000a4	ff 75 08	 push	 DWORD PTR _dwWidth$[ebp]
  000a7	e8 00 00 00 00	 call	 ?Create@CGraphicRenderTargetTexture@@QAE_NHHW4_D3DFORMAT@@0@Z ; CGraphicRenderTargetTexture::Create
  000ac	84 c0		 test	 al, al
  000ae	74 35		 je	 SHORT $LN56@CRenderTar
; File D:\visual studio 2019\visual studio 2019\VC\Tools\MSVC\14.29.30133\include\memory

; 3184 :         if (this != _STD addressof(_Right)) {

  000b0	8d 45 0c	 lea	 eax, DWORD PTR $T4[ebp]
  000b3	3b d8		 cmp	 ebx, eax
  000b5	74 0c		 je	 SHORT $LN43@CRenderTar
; File D:\visual studio 2019\visual studio 2019\VC\Tools\MSVC\14.29.30133\include\utility

; 602  :     _Ty _Old_val = static_cast<_Ty&&>(_Val);

  000b7	8b 0b		 mov	 ecx, DWORD PTR [ebx]

; 603  :     _Val         = static_cast<_Other&&>(_New_val);

  000b9	89 33		 mov	 DWORD PTR [ebx], esi
; File D:\visual studio 2019\visual studio 2019\VC\Tools\MSVC\14.29.30133\include\memory

; 3232 :         if (_Old) {

  000bb	85 c9		 test	 ecx, ecx
  000bd	74 10		 je	 SHORT $LN50@CRenderTar

; 3090 :         delete _Ptr;

  000bf	8b 01		 mov	 eax, DWORD PTR [ecx]

; 3197 :         if (_Mypair._Myval2) {

  000c1	eb 08		 jmp	 SHORT $LN54@CRenderTar
$LN43@CRenderTar:
  000c3	85 f6		 test	 esi, esi
  000c5	74 08		 je	 SHORT $LN50@CRenderTar

; 3090 :         delete _Ptr;

  000c7	8b 06		 mov	 eax, DWORD PTR [esi]
  000c9	8b ce		 mov	 ecx, esi
$LN54@CRenderTar:
; File C:\Users\ALEXANDER\Desktop\Cliente\COPY_FISH_WON_NEW\Binario\Client\EterLib\RenderTarget.cpp

; 38   : }

  000cb	6a 01		 push	 1
  000cd	ff 10		 call	 DWORD PTR [eax]
$LN50@CRenderTar:
  000cf	8b c7		 mov	 eax, edi
  000d1	8b 4d f4	 mov	 ecx, DWORD PTR __$EHRec$[ebp]
  000d4	64 89 0d 00 00
	00 00		 mov	 DWORD PTR fs:0, ecx
  000db	59		 pop	 ecx
  000dc	5f		 pop	 edi
  000dd	5e		 pop	 esi
  000de	5b		 pop	 ebx
  000df	8b e5		 mov	 esp, ebp
  000e1	5d		 pop	 ebp
  000e2	c2 08 00	 ret	 8
$LN56@CRenderTar:

; 31   : 	{
; 32   : 		delete pTex;

  000e5	85 f6		 test	 esi, esi
  000e7	74 08		 je	 SHORT $LN6@CRenderTar
  000e9	8b 06		 mov	 eax, DWORD PTR [esi]
  000eb	8b ce		 mov	 ecx, esi
  000ed	6a 01		 push	 1
  000ef	ff 10		 call	 DWORD PTR [eax]
$LN6@CRenderTar:

; 33   : 		TraceError("CRenderTarget::CRenderTarget: Could not create CGraphicRenderTargetTexture %dx%d", dwWidth, dwHeight);

  000f1	ff 75 0c	 push	 DWORD PTR _dwHeight$[ebp]
  000f4	ff 75 08	 push	 DWORD PTR _dwWidth$[ebp]
  000f7	68 00 00 00 00	 push	 OFFSET ??_C@_0FB@JFPMNOBI@CRenderTarget?3?3CRenderTarget?3?5C@
  000fc	e8 00 00 00 00	 call	 ?TraceError@@YAXPBDZZ	; TraceError
  00101	83 c4 0c	 add	 esp, 12			; 0000000cH

; 34   : 		throw std::runtime_error("CRenderTarget::CRenderTarget: Could not create CGraphicRenderTargetTexture");

  00104	8d 4d e0	 lea	 ecx, DWORD PTR $T2[ebp]
  00107	68 00 00 00 00	 push	 OFFSET ??_C@_0EL@IABPBIKF@CRenderTarget?3?3CRenderTarget?3?5C@
  0010c	e8 00 00 00 00	 call	 ??0runtime_error@std@@QAE@PBD@Z ; std::runtime_error::runtime_error
  00111	68 00 00 00 00	 push	 OFFSET __TI2?AVruntime_error@std@@
  00116	8d 45 e0	 lea	 eax, DWORD PTR $T2[ebp]
  00119	50		 push	 eax
  0011a	e8 00 00 00 00	 call	 __CxxThrowException@8
$LN53@CRenderTar:
  0011f	cc		 int	 3
_TEXT	ENDS
;	COMDAT text$x
text$x	SEGMENT
__unwindfunclet$??0CRenderTarget@@QAE@KK@Z$0:
  00000	8b 4d f0	 mov	 ecx, DWORD PTR _this$[ebp]
  00003	e9 00 00 00 00	 jmp	 ??1?$unique_ptr@VCInstanceBase@@U?$default_delete@VCInstanceBase@@@std@@@std@@QAE@XZ ; std::unique_ptr<CInstanceBase,std::default_delete<CInstanceBase> >::~unique_ptr<CInstanceBase,std::default_delete<CInstanceBase> >
__unwindfunclet$??0CRenderTarget@@QAE@KK@Z$1:
  00008	8b 4d f0	 mov	 ecx, DWORD PTR _this$[ebp]
  0000b	83 c1 04	 add	 ecx, 4
  0000e	e9 00 00 00 00	 jmp	 ??1?$unique_ptr@VCGraphicImageInstance@@U?$default_delete@VCGraphicImageInstance@@@std@@@std@@QAE@XZ ; std::unique_ptr<CGraphicImageInstance,std::default_delete<CGraphicImageInstance> >::~unique_ptr<CGraphicImageInstance,std::default_delete<CGraphicImageInstance> >
__unwindfunclet$??0CRenderTarget@@QAE@KK@Z$2:
  00013	8b 4d f0	 mov	 ecx, DWORD PTR _this$[ebp]
  00016	83 c1 08	 add	 ecx, 8
  00019	e9 00 00 00 00	 jmp	 ??1?$unique_ptr@VCGraphicRenderTargetTexture@@U?$default_delete@VCGraphicRenderTargetTexture@@@std@@@std@@QAE@XZ ; std::unique_ptr<CGraphicRenderTargetTexture,std::default_delete<CGraphicRenderTargetTexture> >::~unique_ptr<CGraphicRenderTargetTexture,std::default_delete<CGraphicRenderTargetTexture> >
__unwindfunclet$??0CRenderTarget@@QAE@KK@Z$3:
  0001e	6a 40		 push	 64			; 00000040H
  00020	8b 45 ec	 mov	 eax, DWORD PTR $T3[ebp]
  00023	50		 push	 eax
  00024	e8 00 00 00 00	 call	 ??3@YAXPAXI@Z		; operator delete
  00029	83 c4 08	 add	 esp, 8
  0002c	c3		 ret	 0
  0002d	cc		 int	 3
  0002e	cc		 int	 3
  0002f	cc		 int	 3
  00030	cc		 int	 3
  00031	cc		 int	 3
__ehhandler$??0CRenderTarget@@QAE@KK@Z:
  00032	90		 npad	 1
  00033	90		 npad	 1
  00034	8b 54 24 08	 mov	 edx, DWORD PTR [esp+8]
  00038	8d 42 0c	 lea	 eax, DWORD PTR [edx+12]
  0003b	8b 4a dc	 mov	 ecx, DWORD PTR [edx-36]
  0003e	33 c8		 xor	 ecx, eax
  00040	e8 00 00 00 00	 call	 @__security_check_cookie@4
  00045	b8 00 00 00 00	 mov	 eax, OFFSET __ehfuncinfo$??0CRenderTarget@@QAE@KK@Z
  0004a	e9 00 00 00 00	 jmp	 ___CxxFrameHandler3
text$x	ENDS
??0CRenderTarget@@QAE@KK@Z ENDP				; CRenderTarget::CRenderTarget
; Function compile flags: /Ogtp
; File D:\visual studio 2019\visual studio 2019\VC\Tools\MSVC\14.29.30133\include\vcruntime_exception.h
;	COMDAT ??_Gexception@std@@UAEPAXI@Z
_TEXT	SEGMENT
___flags$ = 8						; size = 4
??_Gexception@std@@UAEPAXI@Z PROC			; std::exception::`scalar deleting destructor', COMDAT
; _this$ = ecx
  00000	55		 push	 ebp
  00001	8b ec		 mov	 ebp, esp

; 89   :     {

  00003	56		 push	 esi
  00004	8b f1		 mov	 esi, ecx

; 90   :         __std_exception_destroy(&_Data);

  00006	8d 46 04	 lea	 eax, DWORD PTR [esi+4]
  00009	c7 06 00 00 00
	00		 mov	 DWORD PTR [esi], OFFSET ??_7exception@std@@6B@
  0000f	50		 push	 eax
  00010	e8 00 00 00 00	 call	 ___std_exception_destroy
  00015	83 c4 04	 add	 esp, 4
  00018	f6 45 08 01	 test	 BYTE PTR ___flags$[ebp], 1
  0001c	74 0b		 je	 SHORT $LN6@scalar
  0001e	6a 0c		 push	 12			; 0000000cH
  00020	56		 push	 esi
  00021	e8 00 00 00 00	 call	 ??3@YAXPAXI@Z		; operator delete
  00026	83 c4 08	 add	 esp, 8
$LN6@scalar:
  00029	8b c6		 mov	 eax, esi
  0002b	5e		 pop	 esi
  0002c	5d		 pop	 ebp
  0002d	c2 04 00	 ret	 4
??_Gexception@std@@UAEPAXI@Z ENDP			; std::exception::`scalar deleting destructor'
_TEXT	ENDS
; Function compile flags: /Ogtp
; File D:\visual studio 2019\visual studio 2019\VC\Tools\MSVC\14.29.30133\include\vcruntime_exception.h
;	COMDAT ?what@exception@std@@UBEPBDXZ
_TEXT	SEGMENT
?what@exception@std@@UBEPBDXZ PROC			; std::exception::what, COMDAT
; _this$ = ecx

; 95   :         return _Data._What ? _Data._What : "Unknown exception";

  00000	8b 49 04	 mov	 ecx, DWORD PTR [ecx+4]
  00003	b8 00 00 00 00	 mov	 eax, OFFSET ??_C@_0BC@EOODALEL@Unknown?5exception@
  00008	85 c9		 test	 ecx, ecx
  0000a	0f 45 c1	 cmovne	 eax, ecx

; 96   :     }

  0000d	c3		 ret	 0
?what@exception@std@@UBEPBDXZ ENDP			; std::exception::what
_TEXT	ENDS
; Function compile flags: /Ogtp
; File D:\visual studio 2019\visual studio 2019\VC\Tools\MSVC\14.29.30133\include\vcruntime_exception.h
;	COMDAT ??1exception@std@@UAE@XZ
_TEXT	SEGMENT
??1exception@std@@UAE@XZ PROC				; std::exception::~exception, COMDAT
; _this$ = ecx

; 90   :         __std_exception_destroy(&_Data);

  00000	8d 41 04	 lea	 eax, DWORD PTR [ecx+4]
  00003	c7 01 00 00 00
	00		 mov	 DWORD PTR [ecx], OFFSET ??_7exception@std@@6B@
  00009	50		 push	 eax
  0000a	e8 00 00 00 00	 call	 ___std_exception_destroy
  0000f	59		 pop	 ecx

; 91   :     }

  00010	c3		 ret	 0
??1exception@std@@UAE@XZ ENDP				; std::exception::~exception
_TEXT	ENDS
; Function compile flags: /Ogtp
; File D:\visual studio 2019\visual studio 2019\VC\Tools\MSVC\14.29.30133\include\vcruntime_exception.h
;	COMDAT ??0exception@std@@QAE@ABV01@@Z
_TEXT	SEGMENT
__Other$ = 8						; size = 4
??0exception@std@@QAE@ABV01@@Z PROC			; std::exception::exception, COMDAT
; _this$ = ecx

; 72   :     {

  00000	55		 push	 ebp
  00001	8b ec		 mov	 ebp, esp
  00003	56		 push	 esi
  00004	8b f1		 mov	 esi, ecx
  00006	0f 57 c0	 xorps	 xmm0, xmm0
  00009	8d 46 04	 lea	 eax, DWORD PTR [esi+4]

; 73   :         __std_exception_copy(&_Other._Data, &_Data);

  0000c	50		 push	 eax
  0000d	c7 06 00 00 00
	00		 mov	 DWORD PTR [esi], OFFSET ??_7exception@std@@6B@
  00013	66 0f d6 00	 movq	 QWORD PTR [eax], xmm0
  00017	8b 45 08	 mov	 eax, DWORD PTR __Other$[ebp]
  0001a	83 c0 04	 add	 eax, 4
  0001d	50		 push	 eax
  0001e	e8 00 00 00 00	 call	 ___std_exception_copy
  00023	83 c4 08	 add	 esp, 8

; 74   :     }

  00026	8b c6		 mov	 eax, esi
  00028	5e		 pop	 esi
  00029	5d		 pop	 ebp
  0002a	c2 04 00	 ret	 4
??0exception@std@@QAE@ABV01@@Z ENDP			; std::exception::exception
_TEXT	ENDS
; Function compile flags: /Ogtp
; File C:\Users\ALEXANDER\Desktop\Cliente\COPY_FISH_WON_NEW\Binario\Client\EterLib\RenderTarget.cpp
;	COMDAT ?__empty_global_delete@@YAXPAXI@Z
_TEXT	SEGMENT
___formal$ = 8						; size = 4
___formal$ = 12						; size = 4
?__empty_global_delete@@YAXPAXI@Z PROC			; __empty_global_delete, COMDAT

  00000	c2 00 00	 ret	 0
?__empty_global_delete@@YAXPAXI@Z ENDP			; __empty_global_delete
_TEXT	ENDS
; Function compile flags: /Ogtp
; File C:\Users\ALEXANDER\Desktop\Cliente\COPY_FISH_WON_NEW\Binario\Client\EterLib\RenderTarget.cpp
;	COMDAT ?__empty_global_delete@@YAXPAX@Z
_TEXT	SEGMENT
___formal$ = 8						; size = 4
?__empty_global_delete@@YAXPAX@Z PROC			; __empty_global_delete, COMDAT

  00000	c2 00 00	 ret	 0
?__empty_global_delete@@YAXPAX@Z ENDP			; __empty_global_delete
_TEXT	ENDS
; Function compile flags: /Ogtp
;	COMDAT ??_H@YGXPAXIIP6EPAX0@Z@Z
_TEXT	SEGMENT
___t$ = 8						; size = 4
___s$ = 12						; size = 4
___n$ = 16						; size = 4
___f$ = 20						; size = 4
??_H@YGXPAXIIP6EPAX0@Z@Z PROC				; `vector constructor iterator', COMDAT
  00000	55		 push	 ebp
  00001	8b ec		 mov	 ebp, esp
  00003	56		 push	 esi
  00004	8b 75 10	 mov	 esi, DWORD PTR ___n$[ebp]
  00007	85 f6		 test	 esi, esi
  00009	74 16		 je	 SHORT $LN6@vector
  0000b	53		 push	 ebx
  0000c	8b 5d 14	 mov	 ebx, DWORD PTR ___f$[ebp]
  0000f	57		 push	 edi
  00010	8b 7d 08	 mov	 edi, DWORD PTR ___t$[ebp]
$LL2@vector:
  00013	8b cf		 mov	 ecx, edi
  00015	ff d3		 call	 ebx
  00017	03 7d 0c	 add	 edi, DWORD PTR ___s$[ebp]
  0001a	83 ee 01	 sub	 esi, 1
  0001d	75 f4		 jne	 SHORT $LL2@vector
  0001f	5f		 pop	 edi
  00020	5b		 pop	 ebx
$LN6@vector:
  00021	5e		 pop	 esi
  00022	5d		 pop	 ebp
  00023	c2 10 00	 ret	 16			; 00000010H
??_H@YGXPAXIIP6EPAX0@Z@Z ENDP				; `vector constructor iterator'
_TEXT	ENDS
END
