; Listing generated by Microsoft (R) Optimizing Compiler Version 19.29.30151.0 

	TITLE	C:\Users\ALEXANDER\Desktop\Cliente\COPY_FISH_WON_NEW\Binario\Client\EffectLib\Distribute\EffectInstance.obj
	.686P
	.XMM
	include listing.inc
	.model	flat

INCLUDELIB LIBCMT
INCLUDELIB OLDNAMES

PUBLIC	??_7?$CDynamicPool@VCEffectInstance@@@@6B@	; CDynamicPool<CEffectInstance>::`vftable'
PUBLIC	??_G?$CDynamicPool@VCEffectInstance@@@@UAEPAXI@Z ; CDynamicPool<CEffectInstance>::`scalar deleting destructor'
PUBLIC	??_7?$CDynamicPoolEx@VCRotationDecorator@NEffectUpdateDecorator@@@@6B@ ; CDynamicPoolEx<NEffectUpdateDecorator::CRotationDecorator>::`vftable'
PUBLIC	??_G?$CDynamicPoolEx@VCRotationDecorator@NEffectUpdateDecorator@@@@UAEPAXI@Z ; CDynamicPoolEx<NEffectUpdateDecorator::CRotationDecorator>::`scalar deleting destructor'
PUBLIC	??_7?$CDynamicPoolEx@VCGravityDecorator@NEffectUpdateDecorator@@@@6B@ ; CDynamicPoolEx<NEffectUpdateDecorator::CGravityDecorator>::`vftable'
PUBLIC	??_G?$CDynamicPoolEx@VCGravityDecorator@NEffectUpdateDecorator@@@@UAEPAXI@Z ; CDynamicPoolEx<NEffectUpdateDecorator::CGravityDecorator>::`scalar deleting destructor'
PUBLIC	??_7?$CDynamicPoolEx@VCAirResistanceDecorator@NEffectUpdateDecorator@@@@6B@ ; CDynamicPoolEx<NEffectUpdateDecorator::CAirResistanceDecorator>::`vftable'
PUBLIC	??_G?$CDynamicPoolEx@VCAirResistanceDecorator@NEffectUpdateDecorator@@@@UAEPAXI@Z ; CDynamicPoolEx<NEffectUpdateDecorator::CAirResistanceDecorator>::`scalar deleting destructor'
PUBLIC	??_7?$CDynamicPoolEx@VCTextureAnimationRandomDecorator@NEffectUpdateDecorator@@@@6B@ ; CDynamicPoolEx<NEffectUpdateDecorator::CTextureAnimationRandomDecorator>::`vftable'
PUBLIC	??_G?$CDynamicPoolEx@VCTextureAnimationRandomDecorator@NEffectUpdateDecorator@@@@UAEPAXI@Z ; CDynamicPoolEx<NEffectUpdateDecorator::CTextureAnimationRandomDecorator>::`scalar deleting destructor'
PUBLIC	??_7?$CDynamicPoolEx@VCTextureAnimationCCWDecorator@NEffectUpdateDecorator@@@@6B@ ; CDynamicPoolEx<NEffectUpdateDecorator::CTextureAnimationCCWDecorator>::`vftable'
PUBLIC	??_G?$CDynamicPoolEx@VCTextureAnimationCCWDecorator@NEffectUpdateDecorator@@@@UAEPAXI@Z ; CDynamicPoolEx<NEffectUpdateDecorator::CTextureAnimationCCWDecorator>::`scalar deleting destructor'
PUBLIC	??_7?$CDynamicPoolEx@VCTextureAnimationCWDecorator@NEffectUpdateDecorator@@@@6B@ ; CDynamicPoolEx<NEffectUpdateDecorator::CTextureAnimationCWDecorator>::`vftable'
PUBLIC	??_G?$CDynamicPoolEx@VCTextureAnimationCWDecorator@NEffectUpdateDecorator@@@@UAEPAXI@Z ; CDynamicPoolEx<NEffectUpdateDecorator::CTextureAnimationCWDecorator>::`scalar deleting destructor'
PUBLIC	??_7?$CDynamicPoolEx@VCNullDecorator@NEffectUpdateDecorator@@@@6B@ ; CDynamicPoolEx<NEffectUpdateDecorator::CNullDecorator>::`vftable'
PUBLIC	??_G?$CDynamicPoolEx@VCNullDecorator@NEffectUpdateDecorator@@@@UAEPAXI@Z ; CDynamicPoolEx<NEffectUpdateDecorator::CNullDecorator>::`scalar deleting destructor'
PUBLIC	??_R4?$CDynamicPoolEx@VCHeaderDecorator@NEffectUpdateDecorator@@@@6B@ ; CDynamicPoolEx<NEffectUpdateDecorator::CHeaderDecorator>::`RTTI Complete Object Locator'
PUBLIC	??_R0?AV?$CDynamicPoolEx@VCHeaderDecorator@NEffectUpdateDecorator@@@@@8 ; CDynamicPoolEx<NEffectUpdateDecorator::CHeaderDecorator> `RTTI Type Descriptor'
PUBLIC	??_R3?$CDynamicPoolEx@VCHeaderDecorator@NEffectUpdateDecorator@@@@8 ; CDynamicPoolEx<NEffectUpdateDecorator::CHeaderDecorator>::`RTTI Class Hierarchy Descriptor'
PUBLIC	??_R2?$CDynamicPoolEx@VCHeaderDecorator@NEffectUpdateDecorator@@@@8 ; CDynamicPoolEx<NEffectUpdateDecorator::CHeaderDecorator>::`RTTI Base Class Array'
PUBLIC	??_R1A@?0A@EA@?$CDynamicPoolEx@VCHeaderDecorator@NEffectUpdateDecorator@@@@8 ; CDynamicPoolEx<NEffectUpdateDecorator::CHeaderDecorator>::`RTTI Base Class Descriptor at (0,-1,0,64)'
PUBLIC	??_R4?$CDynamicPoolEx@VCNullDecorator@NEffectUpdateDecorator@@@@6B@ ; CDynamicPoolEx<NEffectUpdateDecorator::CNullDecorator>::`RTTI Complete Object Locator'
PUBLIC	??_R0?AV?$CDynamicPoolEx@VCNullDecorator@NEffectUpdateDecorator@@@@@8 ; CDynamicPoolEx<NEffectUpdateDecorator::CNullDecorator> `RTTI Type Descriptor'
PUBLIC	??_R3?$CDynamicPoolEx@VCNullDecorator@NEffectUpdateDecorator@@@@8 ; CDynamicPoolEx<NEffectUpdateDecorator::CNullDecorator>::`RTTI Class Hierarchy Descriptor'
PUBLIC	??_R2?$CDynamicPoolEx@VCNullDecorator@NEffectUpdateDecorator@@@@8 ; CDynamicPoolEx<NEffectUpdateDecorator::CNullDecorator>::`RTTI Base Class Array'
PUBLIC	??_R1A@?0A@EA@?$CDynamicPoolEx@VCNullDecorator@NEffectUpdateDecorator@@@@8 ; CDynamicPoolEx<NEffectUpdateDecorator::CNullDecorator>::`RTTI Base Class Descriptor at (0,-1,0,64)'
PUBLIC	??_R4?$CDynamicPoolEx@VCTextureAnimationCWDecorator@NEffectUpdateDecorator@@@@6B@ ; CDynamicPoolEx<NEffectUpdateDecorator::CTextureAnimationCWDecorator>::`RTTI Complete Object Locator'
PUBLIC	??_R0?AV?$CDynamicPoolEx@VCTextureAnimationCWDecorator@NEffectUpdateDecorator@@@@@8 ; CDynamicPoolEx<NEffectUpdateDecorator::CTextureAnimationCWDecorator> `RTTI Type Descriptor'
PUBLIC	??_R3?$CDynamicPoolEx@VCTextureAnimationCWDecorator@NEffectUpdateDecorator@@@@8 ; CDynamicPoolEx<NEffectUpdateDecorator::CTextureAnimationCWDecorator>::`RTTI Class Hierarchy Descriptor'
PUBLIC	??_R2?$CDynamicPoolEx@VCTextureAnimationCWDecorator@NEffectUpdateDecorator@@@@8 ; CDynamicPoolEx<NEffectUpdateDecorator::CTextureAnimationCWDecorator>::`RTTI Base Class Array'
PUBLIC	??_R1A@?0A@EA@?$CDynamicPoolEx@VCTextureAnimationCWDecorator@NEffectUpdateDecorator@@@@8 ; CDynamicPoolEx<NEffectUpdateDecorator::CTextureAnimationCWDecorator>::`RTTI Base Class Descriptor at (0,-1,0,64)'
PUBLIC	??_R4?$CDynamicPoolEx@VCTextureAnimationCCWDecorator@NEffectUpdateDecorator@@@@6B@ ; CDynamicPoolEx<NEffectUpdateDecorator::CTextureAnimationCCWDecorator>::`RTTI Complete Object Locator'
PUBLIC	??_R0?AV?$CDynamicPoolEx@VCTextureAnimationCCWDecorator@NEffectUpdateDecorator@@@@@8 ; CDynamicPoolEx<NEffectUpdateDecorator::CTextureAnimationCCWDecorator> `RTTI Type Descriptor'
PUBLIC	??_R3?$CDynamicPoolEx@VCTextureAnimationCCWDecorator@NEffectUpdateDecorator@@@@8 ; CDynamicPoolEx<NEffectUpdateDecorator::CTextureAnimationCCWDecorator>::`RTTI Class Hierarchy Descriptor'
PUBLIC	??_R2?$CDynamicPoolEx@VCTextureAnimationCCWDecorator@NEffectUpdateDecorator@@@@8 ; CDynamicPoolEx<NEffectUpdateDecorator::CTextureAnimationCCWDecorator>::`RTTI Base Class Array'
PUBLIC	??_R1A@?0A@EA@?$CDynamicPoolEx@VCTextureAnimationCCWDecorator@NEffectUpdateDecorator@@@@8 ; CDynamicPoolEx<NEffectUpdateDecorator::CTextureAnimationCCWDecorator>::`RTTI Base Class Descriptor at (0,-1,0,64)'
PUBLIC	??_R4?$CDynamicPoolEx@VCTextureAnimationRandomDecorator@NEffectUpdateDecorator@@@@6B@ ; CDynamicPoolEx<NEffectUpdateDecorator::CTextureAnimationRandomDecorator>::`RTTI Complete Object Locator'
PUBLIC	??_R0?AV?$CDynamicPoolEx@VCTextureAnimationRandomDecorator@NEffectUpdateDecorator@@@@@8 ; CDynamicPoolEx<NEffectUpdateDecorator::CTextureAnimationRandomDecorator> `RTTI Type Descriptor'
PUBLIC	??_R3?$CDynamicPoolEx@VCTextureAnimationRandomDecorator@NEffectUpdateDecorator@@@@8 ; CDynamicPoolEx<NEffectUpdateDecorator::CTextureAnimationRandomDecorator>::`RTTI Class Hierarchy Descriptor'
PUBLIC	??_R2?$CDynamicPoolEx@VCTextureAnimationRandomDecorator@NEffectUpdateDecorator@@@@8 ; CDynamicPoolEx<NEffectUpdateDecorator::CTextureAnimationRandomDecorator>::`RTTI Base Class Array'
PUBLIC	??_R1A@?0A@EA@?$CDynamicPoolEx@VCTextureAnimationRandomDecorator@NEffectUpdateDecorator@@@@8 ; CDynamicPoolEx<NEffectUpdateDecorator::CTextureAnimationRandomDecorator>::`RTTI Base Class Descriptor at (0,-1,0,64)'
PUBLIC	??_R4?$CDynamicPoolEx@VCAirResistanceDecorator@NEffectUpdateDecorator@@@@6B@ ; CDynamicPoolEx<NEffectUpdateDecorator::CAirResistanceDecorator>::`RTTI Complete Object Locator'
PUBLIC	??_R0?AV?$CDynamicPoolEx@VCAirResistanceDecorator@NEffectUpdateDecorator@@@@@8 ; CDynamicPoolEx<NEffectUpdateDecorator::CAirResistanceDecorator> `RTTI Type Descriptor'
PUBLIC	??_R3?$CDynamicPoolEx@VCAirResistanceDecorator@NEffectUpdateDecorator@@@@8 ; CDynamicPoolEx<NEffectUpdateDecorator::CAirResistanceDecorator>::`RTTI Class Hierarchy Descriptor'
PUBLIC	??_R2?$CDynamicPoolEx@VCAirResistanceDecorator@NEffectUpdateDecorator@@@@8 ; CDynamicPoolEx<NEffectUpdateDecorator::CAirResistanceDecorator>::`RTTI Base Class Array'
PUBLIC	??_R1A@?0A@EA@?$CDynamicPoolEx@VCAirResistanceDecorator@NEffectUpdateDecorator@@@@8 ; CDynamicPoolEx<NEffectUpdateDecorator::CAirResistanceDecorator>::`RTTI Base Class Descriptor at (0,-1,0,64)'
PUBLIC	??_R4?$CDynamicPoolEx@VCGravityDecorator@NEffectUpdateDecorator@@@@6B@ ; CDynamicPoolEx<NEffectUpdateDecorator::CGravityDecorator>::`RTTI Complete Object Locator'
PUBLIC	??_R0?AV?$CDynamicPoolEx@VCGravityDecorator@NEffectUpdateDecorator@@@@@8 ; CDynamicPoolEx<NEffectUpdateDecorator::CGravityDecorator> `RTTI Type Descriptor'
PUBLIC	??_R3?$CDynamicPoolEx@VCGravityDecorator@NEffectUpdateDecorator@@@@8 ; CDynamicPoolEx<NEffectUpdateDecorator::CGravityDecorator>::`RTTI Class Hierarchy Descriptor'
PUBLIC	??_R2?$CDynamicPoolEx@VCGravityDecorator@NEffectUpdateDecorator@@@@8 ; CDynamicPoolEx<NEffectUpdateDecorator::CGravityDecorator>::`RTTI Base Class Array'
PUBLIC	??_R1A@?0A@EA@?$CDynamicPoolEx@VCGravityDecorator@NEffectUpdateDecorator@@@@8 ; CDynamicPoolEx<NEffectUpdateDecorator::CGravityDecorator>::`RTTI Base Class Descriptor at (0,-1,0,64)'
PUBLIC	??_R4?$CDynamicPoolEx@VCRotationDecorator@NEffectUpdateDecorator@@@@6B@ ; CDynamicPoolEx<NEffectUpdateDecorator::CRotationDecorator>::`RTTI Complete Object Locator'
PUBLIC	??_R0?AV?$CDynamicPoolEx@VCRotationDecorator@NEffectUpdateDecorator@@@@@8 ; CDynamicPoolEx<NEffectUpdateDecorator::CRotationDecorator> `RTTI Type Descriptor'
PUBLIC	??_R3?$CDynamicPoolEx@VCRotationDecorator@NEffectUpdateDecorator@@@@8 ; CDynamicPoolEx<NEffectUpdateDecorator::CRotationDecorator>::`RTTI Class Hierarchy Descriptor'
PUBLIC	??_R2?$CDynamicPoolEx@VCRotationDecorator@NEffectUpdateDecorator@@@@8 ; CDynamicPoolEx<NEffectUpdateDecorator::CRotationDecorator>::`RTTI Base Class Array'
PUBLIC	??_R1A@?0A@EA@?$CDynamicPoolEx@VCRotationDecorator@NEffectUpdateDecorator@@@@8 ; CDynamicPoolEx<NEffectUpdateDecorator::CRotationDecorator>::`RTTI Base Class Descriptor at (0,-1,0,64)'
PUBLIC	??_R4?$CDynamicPool@VCEffectInstance@@@@6B@	; CDynamicPool<CEffectInstance>::`RTTI Complete Object Locator'
PUBLIC	??_R0?AV?$CDynamicPool@VCEffectInstance@@@@@8	; CDynamicPool<CEffectInstance> `RTTI Type Descriptor'
PUBLIC	??_R3?$CDynamicPool@VCEffectInstance@@@@8	; CDynamicPool<CEffectInstance>::`RTTI Class Hierarchy Descriptor'
PUBLIC	??_R2?$CDynamicPool@VCEffectInstance@@@@8	; CDynamicPool<CEffectInstance>::`RTTI Base Class Array'
PUBLIC	??_R1A@?0A@EA@?$CDynamicPool@VCEffectInstance@@@@8 ; CDynamicPool<CEffectInstance>::`RTTI Base Class Descriptor at (0,-1,0,64)'
PUBLIC	?ms_iRenderingEffectCount@CEffectInstance@@2HA	; CEffectInstance::ms_iRenderingEffectCount
PUBLIC	??_7?$CDynamicPoolEx@VCHeaderDecorator@NEffectUpdateDecorator@@@@6B@ ; CDynamicPoolEx<NEffectUpdateDecorator::CHeaderDecorator>::`vftable'
PUBLIC	??_G?$CDynamicPoolEx@VCHeaderDecorator@NEffectUpdateDecorator@@@@UAEPAXI@Z ; CDynamicPoolEx<NEffectUpdateDecorator::CHeaderDecorator>::`scalar deleting destructor'
EXTRN	??_E?$CDynamicPool@VCEffectInstance@@@@UAEPAXI@Z:PROC ; CDynamicPool<CEffectInstance>::`vector deleting destructor'
EXTRN	??_7type_info@@6B@:QWORD			; type_info::`vftable'
EXTRN	??_E?$CDynamicPoolEx@VCRotationDecorator@NEffectUpdateDecorator@@@@UAEPAXI@Z:PROC ; CDynamicPoolEx<NEffectUpdateDecorator::CRotationDecorator>::`vector deleting destructor'
EXTRN	??_E?$CDynamicPoolEx@VCGravityDecorator@NEffectUpdateDecorator@@@@UAEPAXI@Z:PROC ; CDynamicPoolEx<NEffectUpdateDecorator::CGravityDecorator>::`vector deleting destructor'
EXTRN	??_E?$CDynamicPoolEx@VCAirResistanceDecorator@NEffectUpdateDecorator@@@@UAEPAXI@Z:PROC ; CDynamicPoolEx<NEffectUpdateDecorator::CAirResistanceDecorator>::`vector deleting destructor'
EXTRN	??_E?$CDynamicPoolEx@VCTextureAnimationRandomDecorator@NEffectUpdateDecorator@@@@UAEPAXI@Z:PROC ; CDynamicPoolEx<NEffectUpdateDecorator::CTextureAnimationRandomDecorator>::`vector deleting destructor'
EXTRN	??_E?$CDynamicPoolEx@VCTextureAnimationCCWDecorator@NEffectUpdateDecorator@@@@UAEPAXI@Z:PROC ; CDynamicPoolEx<NEffectUpdateDecorator::CTextureAnimationCCWDecorator>::`vector deleting destructor'
EXTRN	??_E?$CDynamicPoolEx@VCTextureAnimationCWDecorator@NEffectUpdateDecorator@@@@UAEPAXI@Z:PROC ; CDynamicPoolEx<NEffectUpdateDecorator::CTextureAnimationCWDecorator>::`vector deleting destructor'
EXTRN	??_E?$CDynamicPoolEx@VCNullDecorator@NEffectUpdateDecorator@@@@UAEPAXI@Z:PROC ; CDynamicPoolEx<NEffectUpdateDecorator::CNullDecorator>::`vector deleting destructor'
EXTRN	??_E?$CDynamicPoolEx@VCHeaderDecorator@NEffectUpdateDecorator@@@@UAEPAXI@Z:PROC ; CDynamicPoolEx<NEffectUpdateDecorator::CHeaderDecorator>::`vector deleting destructor'
_BSS	SEGMENT
?ms_iRenderingEffectCount@CEffectInstance@@2HA DD 01H DUP (?) ; CEffectInstance::ms_iRenderingEffectCount
_BSS	ENDS
;	COMDAT ??_7?$CDynamicPoolEx@VCHeaderDecorator@NEffectUpdateDecorator@@@@6B@
CONST	SEGMENT
??_7?$CDynamicPoolEx@VCHeaderDecorator@NEffectUpdateDecorator@@@@6B@ DD FLAT:??_R4?$CDynamicPoolEx@VCHeaderDecorator@NEffectUpdateDecorator@@@@6B@ ; CDynamicPoolEx<NEffectUpdateDecorator::CHeaderDecorator>::`vftable'
	DD	FLAT:??_E?$CDynamicPoolEx@VCHeaderDecorator@NEffectUpdateDecorator@@@@UAEPAXI@Z
CONST	ENDS
;	COMDAT ??_R1A@?0A@EA@?$CDynamicPool@VCEffectInstance@@@@8
rdata$r	SEGMENT
??_R1A@?0A@EA@?$CDynamicPool@VCEffectInstance@@@@8 DD FLAT:??_R0?AV?$CDynamicPool@VCEffectInstance@@@@@8 ; CDynamicPool<CEffectInstance>::`RTTI Base Class Descriptor at (0,-1,0,64)'
	DD	00H
	DD	00H
	DD	0ffffffffH
	DD	00H
	DD	040H
	DD	FLAT:??_R3?$CDynamicPool@VCEffectInstance@@@@8
rdata$r	ENDS
;	COMDAT ??_R2?$CDynamicPool@VCEffectInstance@@@@8
rdata$r	SEGMENT
??_R2?$CDynamicPool@VCEffectInstance@@@@8 DD FLAT:??_R1A@?0A@EA@?$CDynamicPool@VCEffectInstance@@@@8 ; CDynamicPool<CEffectInstance>::`RTTI Base Class Array'
rdata$r	ENDS
;	COMDAT ??_R3?$CDynamicPool@VCEffectInstance@@@@8
rdata$r	SEGMENT
??_R3?$CDynamicPool@VCEffectInstance@@@@8 DD 00H	; CDynamicPool<CEffectInstance>::`RTTI Class Hierarchy Descriptor'
	DD	00H
	DD	01H
	DD	FLAT:??_R2?$CDynamicPool@VCEffectInstance@@@@8
rdata$r	ENDS
;	COMDAT ??_R0?AV?$CDynamicPool@VCEffectInstance@@@@@8
data$rs	SEGMENT
??_R0?AV?$CDynamicPool@VCEffectInstance@@@@@8 DD FLAT:??_7type_info@@6B@ ; CDynamicPool<CEffectInstance> `RTTI Type Descriptor'
	DD	00H
	DB	'.?AV?$CDynamicPool@VCEffectInstance@@@@', 00H
data$rs	ENDS
;	COMDAT ??_R4?$CDynamicPool@VCEffectInstance@@@@6B@
rdata$r	SEGMENT
??_R4?$CDynamicPool@VCEffectInstance@@@@6B@ DD 00H	; CDynamicPool<CEffectInstance>::`RTTI Complete Object Locator'
	DD	00H
	DD	00H
	DD	FLAT:??_R0?AV?$CDynamicPool@VCEffectInstance@@@@@8
	DD	FLAT:??_R3?$CDynamicPool@VCEffectInstance@@@@8
rdata$r	ENDS
;	COMDAT ??_R1A@?0A@EA@?$CDynamicPoolEx@VCRotationDecorator@NEffectUpdateDecorator@@@@8
rdata$r	SEGMENT
??_R1A@?0A@EA@?$CDynamicPoolEx@VCRotationDecorator@NEffectUpdateDecorator@@@@8 DD FLAT:??_R0?AV?$CDynamicPoolEx@VCRotationDecorator@NEffectUpdateDecorator@@@@@8 ; CDynamicPoolEx<NEffectUpdateDecorator::CRotationDecorator>::`RTTI Base Class Descriptor at (0,-1,0,64)'
	DD	00H
	DD	00H
	DD	0ffffffffH
	DD	00H
	DD	040H
	DD	FLAT:??_R3?$CDynamicPoolEx@VCRotationDecorator@NEffectUpdateDecorator@@@@8
rdata$r	ENDS
;	COMDAT ??_R2?$CDynamicPoolEx@VCRotationDecorator@NEffectUpdateDecorator@@@@8
rdata$r	SEGMENT
??_R2?$CDynamicPoolEx@VCRotationDecorator@NEffectUpdateDecorator@@@@8 DD FLAT:??_R1A@?0A@EA@?$CDynamicPoolEx@VCRotationDecorator@NEffectUpdateDecorator@@@@8 ; CDynamicPoolEx<NEffectUpdateDecorator::CRotationDecorator>::`RTTI Base Class Array'
rdata$r	ENDS
;	COMDAT ??_R3?$CDynamicPoolEx@VCRotationDecorator@NEffectUpdateDecorator@@@@8
rdata$r	SEGMENT
??_R3?$CDynamicPoolEx@VCRotationDecorator@NEffectUpdateDecorator@@@@8 DD 00H ; CDynamicPoolEx<NEffectUpdateDecorator::CRotationDecorator>::`RTTI Class Hierarchy Descriptor'
	DD	00H
	DD	01H
	DD	FLAT:??_R2?$CDynamicPoolEx@VCRotationDecorator@NEffectUpdateDecorator@@@@8
rdata$r	ENDS
;	COMDAT ??_R0?AV?$CDynamicPoolEx@VCRotationDecorator@NEffectUpdateDecorator@@@@@8
data$rs	SEGMENT
??_R0?AV?$CDynamicPoolEx@VCRotationDecorator@NEffectUpdateDecorator@@@@@8 DD FLAT:??_7type_info@@6B@ ; CDynamicPoolEx<NEffectUpdateDecorator::CRotationDecorator> `RTTI Type Descriptor'
	DD	00H
	DB	'.?AV?$CDynamicPoolEx@VCRotationDecorator@NEffectUpdateDe'
	DB	'corator@@@@', 00H
data$rs	ENDS
;	COMDAT ??_R4?$CDynamicPoolEx@VCRotationDecorator@NEffectUpdateDecorator@@@@6B@
rdata$r	SEGMENT
??_R4?$CDynamicPoolEx@VCRotationDecorator@NEffectUpdateDecorator@@@@6B@ DD 00H ; CDynamicPoolEx<NEffectUpdateDecorator::CRotationDecorator>::`RTTI Complete Object Locator'
	DD	00H
	DD	00H
	DD	FLAT:??_R0?AV?$CDynamicPoolEx@VCRotationDecorator@NEffectUpdateDecorator@@@@@8
	DD	FLAT:??_R3?$CDynamicPoolEx@VCRotationDecorator@NEffectUpdateDecorator@@@@8
rdata$r	ENDS
;	COMDAT ??_R1A@?0A@EA@?$CDynamicPoolEx@VCGravityDecorator@NEffectUpdateDecorator@@@@8
rdata$r	SEGMENT
??_R1A@?0A@EA@?$CDynamicPoolEx@VCGravityDecorator@NEffectUpdateDecorator@@@@8 DD FLAT:??_R0?AV?$CDynamicPoolEx@VCGravityDecorator@NEffectUpdateDecorator@@@@@8 ; CDynamicPoolEx<NEffectUpdateDecorator::CGravityDecorator>::`RTTI Base Class Descriptor at (0,-1,0,64)'
	DD	00H
	DD	00H
	DD	0ffffffffH
	DD	00H
	DD	040H
	DD	FLAT:??_R3?$CDynamicPoolEx@VCGravityDecorator@NEffectUpdateDecorator@@@@8
rdata$r	ENDS
;	COMDAT ??_R2?$CDynamicPoolEx@VCGravityDecorator@NEffectUpdateDecorator@@@@8
rdata$r	SEGMENT
??_R2?$CDynamicPoolEx@VCGravityDecorator@NEffectUpdateDecorator@@@@8 DD FLAT:??_R1A@?0A@EA@?$CDynamicPoolEx@VCGravityDecorator@NEffectUpdateDecorator@@@@8 ; CDynamicPoolEx<NEffectUpdateDecorator::CGravityDecorator>::`RTTI Base Class Array'
rdata$r	ENDS
;	COMDAT ??_R3?$CDynamicPoolEx@VCGravityDecorator@NEffectUpdateDecorator@@@@8
rdata$r	SEGMENT
??_R3?$CDynamicPoolEx@VCGravityDecorator@NEffectUpdateDecorator@@@@8 DD 00H ; CDynamicPoolEx<NEffectUpdateDecorator::CGravityDecorator>::`RTTI Class Hierarchy Descriptor'
	DD	00H
	DD	01H
	DD	FLAT:??_R2?$CDynamicPoolEx@VCGravityDecorator@NEffectUpdateDecorator@@@@8
rdata$r	ENDS
;	COMDAT ??_R0?AV?$CDynamicPoolEx@VCGravityDecorator@NEffectUpdateDecorator@@@@@8
data$rs	SEGMENT
??_R0?AV?$CDynamicPoolEx@VCGravityDecorator@NEffectUpdateDecorator@@@@@8 DD FLAT:??_7type_info@@6B@ ; CDynamicPoolEx<NEffectUpdateDecorator::CGravityDecorator> `RTTI Type Descriptor'
	DD	00H
	DB	'.?AV?$CDynamicPoolEx@VCGravityDecorator@NEffectUpdateDec'
	DB	'orator@@@@', 00H
data$rs	ENDS
;	COMDAT ??_R4?$CDynamicPoolEx@VCGravityDecorator@NEffectUpdateDecorator@@@@6B@
rdata$r	SEGMENT
??_R4?$CDynamicPoolEx@VCGravityDecorator@NEffectUpdateDecorator@@@@6B@ DD 00H ; CDynamicPoolEx<NEffectUpdateDecorator::CGravityDecorator>::`RTTI Complete Object Locator'
	DD	00H
	DD	00H
	DD	FLAT:??_R0?AV?$CDynamicPoolEx@VCGravityDecorator@NEffectUpdateDecorator@@@@@8
	DD	FLAT:??_R3?$CDynamicPoolEx@VCGravityDecorator@NEffectUpdateDecorator@@@@8
rdata$r	ENDS
;	COMDAT ??_R1A@?0A@EA@?$CDynamicPoolEx@VCAirResistanceDecorator@NEffectUpdateDecorator@@@@8
rdata$r	SEGMENT
??_R1A@?0A@EA@?$CDynamicPoolEx@VCAirResistanceDecorator@NEffectUpdateDecorator@@@@8 DD FLAT:??_R0?AV?$CDynamicPoolEx@VCAirResistanceDecorator@NEffectUpdateDecorator@@@@@8 ; CDynamicPoolEx<NEffectUpdateDecorator::CAirResistanceDecorator>::`RTTI Base Class Descriptor at (0,-1,0,64)'
	DD	00H
	DD	00H
	DD	0ffffffffH
	DD	00H
	DD	040H
	DD	FLAT:??_R3?$CDynamicPoolEx@VCAirResistanceDecorator@NEffectUpdateDecorator@@@@8
rdata$r	ENDS
;	COMDAT ??_R2?$CDynamicPoolEx@VCAirResistanceDecorator@NEffectUpdateDecorator@@@@8
rdata$r	SEGMENT
??_R2?$CDynamicPoolEx@VCAirResistanceDecorator@NEffectUpdateDecorator@@@@8 DD FLAT:??_R1A@?0A@EA@?$CDynamicPoolEx@VCAirResistanceDecorator@NEffectUpdateDecorator@@@@8 ; CDynamicPoolEx<NEffectUpdateDecorator::CAirResistanceDecorator>::`RTTI Base Class Array'
rdata$r	ENDS
;	COMDAT ??_R3?$CDynamicPoolEx@VCAirResistanceDecorator@NEffectUpdateDecorator@@@@8
rdata$r	SEGMENT
??_R3?$CDynamicPoolEx@VCAirResistanceDecorator@NEffectUpdateDecorator@@@@8 DD 00H ; CDynamicPoolEx<NEffectUpdateDecorator::CAirResistanceDecorator>::`RTTI Class Hierarchy Descriptor'
	DD	00H
	DD	01H
	DD	FLAT:??_R2?$CDynamicPoolEx@VCAirResistanceDecorator@NEffectUpdateDecorator@@@@8
rdata$r	ENDS
;	COMDAT ??_R0?AV?$CDynamicPoolEx@VCAirResistanceDecorator@NEffectUpdateDecorator@@@@@8
data$rs	SEGMENT
??_R0?AV?$CDynamicPoolEx@VCAirResistanceDecorator@NEffectUpdateDecorator@@@@@8 DD FLAT:??_7type_info@@6B@ ; CDynamicPoolEx<NEffectUpdateDecorator::CAirResistanceDecorator> `RTTI Type Descriptor'
	DD	00H
	DB	'.?AV?$CDynamicPoolEx@VCAirResistanceDecorator@NEffectUpd'
	DB	'ateDecorator@@@@', 00H
data$rs	ENDS
;	COMDAT ??_R4?$CDynamicPoolEx@VCAirResistanceDecorator@NEffectUpdateDecorator@@@@6B@
rdata$r	SEGMENT
??_R4?$CDynamicPoolEx@VCAirResistanceDecorator@NEffectUpdateDecorator@@@@6B@ DD 00H ; CDynamicPoolEx<NEffectUpdateDecorator::CAirResistanceDecorator>::`RTTI Complete Object Locator'
	DD	00H
	DD	00H
	DD	FLAT:??_R0?AV?$CDynamicPoolEx@VCAirResistanceDecorator@NEffectUpdateDecorator@@@@@8
	DD	FLAT:??_R3?$CDynamicPoolEx@VCAirResistanceDecorator@NEffectUpdateDecorator@@@@8
rdata$r	ENDS
;	COMDAT ??_R1A@?0A@EA@?$CDynamicPoolEx@VCTextureAnimationRandomDecorator@NEffectUpdateDecorator@@@@8
rdata$r	SEGMENT
??_R1A@?0A@EA@?$CDynamicPoolEx@VCTextureAnimationRandomDecorator@NEffectUpdateDecorator@@@@8 DD FLAT:??_R0?AV?$CDynamicPoolEx@VCTextureAnimationRandomDecorator@NEffectUpdateDecorator@@@@@8 ; CDynamicPoolEx<NEffectUpdateDecorator::CTextureAnimationRandomDecorator>::`RTTI Base Class Descriptor at (0,-1,0,64)'
	DD	00H
	DD	00H
	DD	0ffffffffH
	DD	00H
	DD	040H
	DD	FLAT:??_R3?$CDynamicPoolEx@VCTextureAnimationRandomDecorator@NEffectUpdateDecorator@@@@8
rdata$r	ENDS
;	COMDAT ??_R2?$CDynamicPoolEx@VCTextureAnimationRandomDecorator@NEffectUpdateDecorator@@@@8
rdata$r	SEGMENT
??_R2?$CDynamicPoolEx@VCTextureAnimationRandomDecorator@NEffectUpdateDecorator@@@@8 DD FLAT:??_R1A@?0A@EA@?$CDynamicPoolEx@VCTextureAnimationRandomDecorator@NEffectUpdateDecorator@@@@8 ; CDynamicPoolEx<NEffectUpdateDecorator::CTextureAnimationRandomDecorator>::`RTTI Base Class Array'
rdata$r	ENDS
;	COMDAT ??_R3?$CDynamicPoolEx@VCTextureAnimationRandomDecorator@NEffectUpdateDecorator@@@@8
rdata$r	SEGMENT
??_R3?$CDynamicPoolEx@VCTextureAnimationRandomDecorator@NEffectUpdateDecorator@@@@8 DD 00H ; CDynamicPoolEx<NEffectUpdateDecorator::CTextureAnimationRandomDecorator>::`RTTI Class Hierarchy Descriptor'
	DD	00H
	DD	01H
	DD	FLAT:??_R2?$CDynamicPoolEx@VCTextureAnimationRandomDecorator@NEffectUpdateDecorator@@@@8
rdata$r	ENDS
;	COMDAT ??_R0?AV?$CDynamicPoolEx@VCTextureAnimationRandomDecorator@NEffectUpdateDecorator@@@@@8
data$rs	SEGMENT
??_R0?AV?$CDynamicPoolEx@VCTextureAnimationRandomDecorator@NEffectUpdateDecorator@@@@@8 DD FLAT:??_7type_info@@6B@ ; CDynamicPoolEx<NEffectUpdateDecorator::CTextureAnimationRandomDecorator> `RTTI Type Descriptor'
	DD	00H
	DB	'.?AV?$CDynamicPoolEx@VCTextureAnimationRandomDecorator@N'
	DB	'EffectUpdateDecorator@@@@', 00H
data$rs	ENDS
;	COMDAT ??_R4?$CDynamicPoolEx@VCTextureAnimationRandomDecorator@NEffectUpdateDecorator@@@@6B@
rdata$r	SEGMENT
??_R4?$CDynamicPoolEx@VCTextureAnimationRandomDecorator@NEffectUpdateDecorator@@@@6B@ DD 00H ; CDynamicPoolEx<NEffectUpdateDecorator::CTextureAnimationRandomDecorator>::`RTTI Complete Object Locator'
	DD	00H
	DD	00H
	DD	FLAT:??_R0?AV?$CDynamicPoolEx@VCTextureAnimationRandomDecorator@NEffectUpdateDecorator@@@@@8
	DD	FLAT:??_R3?$CDynamicPoolEx@VCTextureAnimationRandomDecorator@NEffectUpdateDecorator@@@@8
rdata$r	ENDS
;	COMDAT ??_R1A@?0A@EA@?$CDynamicPoolEx@VCTextureAnimationCCWDecorator@NEffectUpdateDecorator@@@@8
rdata$r	SEGMENT
??_R1A@?0A@EA@?$CDynamicPoolEx@VCTextureAnimationCCWDecorator@NEffectUpdateDecorator@@@@8 DD FLAT:??_R0?AV?$CDynamicPoolEx@VCTextureAnimationCCWDecorator@NEffectUpdateDecorator@@@@@8 ; CDynamicPoolEx<NEffectUpdateDecorator::CTextureAnimationCCWDecorator>::`RTTI Base Class Descriptor at (0,-1,0,64)'
	DD	00H
	DD	00H
	DD	0ffffffffH
	DD	00H
	DD	040H
	DD	FLAT:??_R3?$CDynamicPoolEx@VCTextureAnimationCCWDecorator@NEffectUpdateDecorator@@@@8
rdata$r	ENDS
;	COMDAT ??_R2?$CDynamicPoolEx@VCTextureAnimationCCWDecorator@NEffectUpdateDecorator@@@@8
rdata$r	SEGMENT
??_R2?$CDynamicPoolEx@VCTextureAnimationCCWDecorator@NEffectUpdateDecorator@@@@8 DD FLAT:??_R1A@?0A@EA@?$CDynamicPoolEx@VCTextureAnimationCCWDecorator@NEffectUpdateDecorator@@@@8 ; CDynamicPoolEx<NEffectUpdateDecorator::CTextureAnimationCCWDecorator>::`RTTI Base Class Array'
rdata$r	ENDS
;	COMDAT ??_R3?$CDynamicPoolEx@VCTextureAnimationCCWDecorator@NEffectUpdateDecorator@@@@8
rdata$r	SEGMENT
??_R3?$CDynamicPoolEx@VCTextureAnimationCCWDecorator@NEffectUpdateDecorator@@@@8 DD 00H ; CDynamicPoolEx<NEffectUpdateDecorator::CTextureAnimationCCWDecorator>::`RTTI Class Hierarchy Descriptor'
	DD	00H
	DD	01H
	DD	FLAT:??_R2?$CDynamicPoolEx@VCTextureAnimationCCWDecorator@NEffectUpdateDecorator@@@@8
rdata$r	ENDS
;	COMDAT ??_R0?AV?$CDynamicPoolEx@VCTextureAnimationCCWDecorator@NEffectUpdateDecorator@@@@@8
data$rs	SEGMENT
??_R0?AV?$CDynamicPoolEx@VCTextureAnimationCCWDecorator@NEffectUpdateDecorator@@@@@8 DD FLAT:??_7type_info@@6B@ ; CDynamicPoolEx<NEffectUpdateDecorator::CTextureAnimationCCWDecorator> `RTTI Type Descriptor'
	DD	00H
	DB	'.?AV?$CDynamicPoolEx@VCTextureAnimationCCWDecorator@NEff'
	DB	'ectUpdateDecorator@@@@', 00H
data$rs	ENDS
;	COMDAT ??_R4?$CDynamicPoolEx@VCTextureAnimationCCWDecorator@NEffectUpdateDecorator@@@@6B@
rdata$r	SEGMENT
??_R4?$CDynamicPoolEx@VCTextureAnimationCCWDecorator@NEffectUpdateDecorator@@@@6B@ DD 00H ; CDynamicPoolEx<NEffectUpdateDecorator::CTextureAnimationCCWDecorator>::`RTTI Complete Object Locator'
	DD	00H
	DD	00H
	DD	FLAT:??_R0?AV?$CDynamicPoolEx@VCTextureAnimationCCWDecorator@NEffectUpdateDecorator@@@@@8
	DD	FLAT:??_R3?$CDynamicPoolEx@VCTextureAnimationCCWDecorator@NEffectUpdateDecorator@@@@8
rdata$r	ENDS
;	COMDAT ??_R1A@?0A@EA@?$CDynamicPoolEx@VCTextureAnimationCWDecorator@NEffectUpdateDecorator@@@@8
rdata$r	SEGMENT
??_R1A@?0A@EA@?$CDynamicPoolEx@VCTextureAnimationCWDecorator@NEffectUpdateDecorator@@@@8 DD FLAT:??_R0?AV?$CDynamicPoolEx@VCTextureAnimationCWDecorator@NEffectUpdateDecorator@@@@@8 ; CDynamicPoolEx<NEffectUpdateDecorator::CTextureAnimationCWDecorator>::`RTTI Base Class Descriptor at (0,-1,0,64)'
	DD	00H
	DD	00H
	DD	0ffffffffH
	DD	00H
	DD	040H
	DD	FLAT:??_R3?$CDynamicPoolEx@VCTextureAnimationCWDecorator@NEffectUpdateDecorator@@@@8
rdata$r	ENDS
;	COMDAT ??_R2?$CDynamicPoolEx@VCTextureAnimationCWDecorator@NEffectUpdateDecorator@@@@8
rdata$r	SEGMENT
??_R2?$CDynamicPoolEx@VCTextureAnimationCWDecorator@NEffectUpdateDecorator@@@@8 DD FLAT:??_R1A@?0A@EA@?$CDynamicPoolEx@VCTextureAnimationCWDecorator@NEffectUpdateDecorator@@@@8 ; CDynamicPoolEx<NEffectUpdateDecorator::CTextureAnimationCWDecorator>::`RTTI Base Class Array'
rdata$r	ENDS
;	COMDAT ??_R3?$CDynamicPoolEx@VCTextureAnimationCWDecorator@NEffectUpdateDecorator@@@@8
rdata$r	SEGMENT
??_R3?$CDynamicPoolEx@VCTextureAnimationCWDecorator@NEffectUpdateDecorator@@@@8 DD 00H ; CDynamicPoolEx<NEffectUpdateDecorator::CTextureAnimationCWDecorator>::`RTTI Class Hierarchy Descriptor'
	DD	00H
	DD	01H
	DD	FLAT:??_R2?$CDynamicPoolEx@VCTextureAnimationCWDecorator@NEffectUpdateDecorator@@@@8
rdata$r	ENDS
;	COMDAT ??_R0?AV?$CDynamicPoolEx@VCTextureAnimationCWDecorator@NEffectUpdateDecorator@@@@@8
data$rs	SEGMENT
??_R0?AV?$CDynamicPoolEx@VCTextureAnimationCWDecorator@NEffectUpdateDecorator@@@@@8 DD FLAT:??_7type_info@@6B@ ; CDynamicPoolEx<NEffectUpdateDecorator::CTextureAnimationCWDecorator> `RTTI Type Descriptor'
	DD	00H
	DB	'.?AV?$CDynamicPoolEx@VCTextureAnimationCWDecorator@NEffe'
	DB	'ctUpdateDecorator@@@@', 00H
data$rs	ENDS
;	COMDAT ??_R4?$CDynamicPoolEx@VCTextureAnimationCWDecorator@NEffectUpdateDecorator@@@@6B@
rdata$r	SEGMENT
??_R4?$CDynamicPoolEx@VCTextureAnimationCWDecorator@NEffectUpdateDecorator@@@@6B@ DD 00H ; CDynamicPoolEx<NEffectUpdateDecorator::CTextureAnimationCWDecorator>::`RTTI Complete Object Locator'
	DD	00H
	DD	00H
	DD	FLAT:??_R0?AV?$CDynamicPoolEx@VCTextureAnimationCWDecorator@NEffectUpdateDecorator@@@@@8
	DD	FLAT:??_R3?$CDynamicPoolEx@VCTextureAnimationCWDecorator@NEffectUpdateDecorator@@@@8
rdata$r	ENDS
;	COMDAT ??_R1A@?0A@EA@?$CDynamicPoolEx@VCNullDecorator@NEffectUpdateDecorator@@@@8
rdata$r	SEGMENT
??_R1A@?0A@EA@?$CDynamicPoolEx@VCNullDecorator@NEffectUpdateDecorator@@@@8 DD FLAT:??_R0?AV?$CDynamicPoolEx@VCNullDecorator@NEffectUpdateDecorator@@@@@8 ; CDynamicPoolEx<NEffectUpdateDecorator::CNullDecorator>::`RTTI Base Class Descriptor at (0,-1,0,64)'
	DD	00H
	DD	00H
	DD	0ffffffffH
	DD	00H
	DD	040H
	DD	FLAT:??_R3?$CDynamicPoolEx@VCNullDecorator@NEffectUpdateDecorator@@@@8
rdata$r	ENDS
;	COMDAT ??_R2?$CDynamicPoolEx@VCNullDecorator@NEffectUpdateDecorator@@@@8
rdata$r	SEGMENT
??_R2?$CDynamicPoolEx@VCNullDecorator@NEffectUpdateDecorator@@@@8 DD FLAT:??_R1A@?0A@EA@?$CDynamicPoolEx@VCNullDecorator@NEffectUpdateDecorator@@@@8 ; CDynamicPoolEx<NEffectUpdateDecorator::CNullDecorator>::`RTTI Base Class Array'
rdata$r	ENDS
;	COMDAT ??_R3?$CDynamicPoolEx@VCNullDecorator@NEffectUpdateDecorator@@@@8
rdata$r	SEGMENT
??_R3?$CDynamicPoolEx@VCNullDecorator@NEffectUpdateDecorator@@@@8 DD 00H ; CDynamicPoolEx<NEffectUpdateDecorator::CNullDecorator>::`RTTI Class Hierarchy Descriptor'
	DD	00H
	DD	01H
	DD	FLAT:??_R2?$CDynamicPoolEx@VCNullDecorator@NEffectUpdateDecorator@@@@8
rdata$r	ENDS
;	COMDAT ??_R0?AV?$CDynamicPoolEx@VCNullDecorator@NEffectUpdateDecorator@@@@@8
data$rs	SEGMENT
??_R0?AV?$CDynamicPoolEx@VCNullDecorator@NEffectUpdateDecorator@@@@@8 DD FLAT:??_7type_info@@6B@ ; CDynamicPoolEx<NEffectUpdateDecorator::CNullDecorator> `RTTI Type Descriptor'
	DD	00H
	DB	'.?AV?$CDynamicPoolEx@VCNullDecorator@NEffectUpdateDecora'
	DB	'tor@@@@', 00H
data$rs	ENDS
;	COMDAT ??_R4?$CDynamicPoolEx@VCNullDecorator@NEffectUpdateDecorator@@@@6B@
rdata$r	SEGMENT
??_R4?$CDynamicPoolEx@VCNullDecorator@NEffectUpdateDecorator@@@@6B@ DD 00H ; CDynamicPoolEx<NEffectUpdateDecorator::CNullDecorator>::`RTTI Complete Object Locator'
	DD	00H
	DD	00H
	DD	FLAT:??_R0?AV?$CDynamicPoolEx@VCNullDecorator@NEffectUpdateDecorator@@@@@8
	DD	FLAT:??_R3?$CDynamicPoolEx@VCNullDecorator@NEffectUpdateDecorator@@@@8
rdata$r	ENDS
;	COMDAT ??_R1A@?0A@EA@?$CDynamicPoolEx@VCHeaderDecorator@NEffectUpdateDecorator@@@@8
rdata$r	SEGMENT
??_R1A@?0A@EA@?$CDynamicPoolEx@VCHeaderDecorator@NEffectUpdateDecorator@@@@8 DD FLAT:??_R0?AV?$CDynamicPoolEx@VCHeaderDecorator@NEffectUpdateDecorator@@@@@8 ; CDynamicPoolEx<NEffectUpdateDecorator::CHeaderDecorator>::`RTTI Base Class Descriptor at (0,-1,0,64)'
	DD	00H
	DD	00H
	DD	0ffffffffH
	DD	00H
	DD	040H
	DD	FLAT:??_R3?$CDynamicPoolEx@VCHeaderDecorator@NEffectUpdateDecorator@@@@8
rdata$r	ENDS
;	COMDAT ??_R2?$CDynamicPoolEx@VCHeaderDecorator@NEffectUpdateDecorator@@@@8
rdata$r	SEGMENT
??_R2?$CDynamicPoolEx@VCHeaderDecorator@NEffectUpdateDecorator@@@@8 DD FLAT:??_R1A@?0A@EA@?$CDynamicPoolEx@VCHeaderDecorator@NEffectUpdateDecorator@@@@8 ; CDynamicPoolEx<NEffectUpdateDecorator::CHeaderDecorator>::`RTTI Base Class Array'
rdata$r	ENDS
;	COMDAT ??_R3?$CDynamicPoolEx@VCHeaderDecorator@NEffectUpdateDecorator@@@@8
rdata$r	SEGMENT
??_R3?$CDynamicPoolEx@VCHeaderDecorator@NEffectUpdateDecorator@@@@8 DD 00H ; CDynamicPoolEx<NEffectUpdateDecorator::CHeaderDecorator>::`RTTI Class Hierarchy Descriptor'
	DD	00H
	DD	01H
	DD	FLAT:??_R2?$CDynamicPoolEx@VCHeaderDecorator@NEffectUpdateDecorator@@@@8
rdata$r	ENDS
;	COMDAT ??_R0?AV?$CDynamicPoolEx@VCHeaderDecorator@NEffectUpdateDecorator@@@@@8
data$rs	SEGMENT
??_R0?AV?$CDynamicPoolEx@VCHeaderDecorator@NEffectUpdateDecorator@@@@@8 DD FLAT:??_7type_info@@6B@ ; CDynamicPoolEx<NEffectUpdateDecorator::CHeaderDecorator> `RTTI Type Descriptor'
	DD	00H
	DB	'.?AV?$CDynamicPoolEx@VCHeaderDecorator@NEffectUpdateDeco'
	DB	'rator@@@@', 00H
data$rs	ENDS
;	COMDAT ??_R4?$CDynamicPoolEx@VCHeaderDecorator@NEffectUpdateDecorator@@@@6B@
rdata$r	SEGMENT
??_R4?$CDynamicPoolEx@VCHeaderDecorator@NEffectUpdateDecorator@@@@6B@ DD 00H ; CDynamicPoolEx<NEffectUpdateDecorator::CHeaderDecorator>::`RTTI Complete Object Locator'
	DD	00H
	DD	00H
	DD	FLAT:??_R0?AV?$CDynamicPoolEx@VCHeaderDecorator@NEffectUpdateDecorator@@@@@8
	DD	FLAT:??_R3?$CDynamicPoolEx@VCHeaderDecorator@NEffectUpdateDecorator@@@@8
rdata$r	ENDS
;	COMDAT ??_7?$CDynamicPoolEx@VCNullDecorator@NEffectUpdateDecorator@@@@6B@
CONST	SEGMENT
??_7?$CDynamicPoolEx@VCNullDecorator@NEffectUpdateDecorator@@@@6B@ DD FLAT:??_R4?$CDynamicPoolEx@VCNullDecorator@NEffectUpdateDecorator@@@@6B@ ; CDynamicPoolEx<NEffectUpdateDecorator::CNullDecorator>::`vftable'
	DD	FLAT:??_E?$CDynamicPoolEx@VCNullDecorator@NEffectUpdateDecorator@@@@UAEPAXI@Z
CONST	ENDS
;	COMDAT ??_7?$CDynamicPoolEx@VCTextureAnimationCWDecorator@NEffectUpdateDecorator@@@@6B@
CONST	SEGMENT
??_7?$CDynamicPoolEx@VCTextureAnimationCWDecorator@NEffectUpdateDecorator@@@@6B@ DD FLAT:??_R4?$CDynamicPoolEx@VCTextureAnimationCWDecorator@NEffectUpdateDecorator@@@@6B@ ; CDynamicPoolEx<NEffectUpdateDecorator::CTextureAnimationCWDecorator>::`vftable'
	DD	FLAT:??_E?$CDynamicPoolEx@VCTextureAnimationCWDecorator@NEffectUpdateDecorator@@@@UAEPAXI@Z
CONST	ENDS
CONST	SEGMENT
?_Fake_alloc@std@@3U_Fake_allocator@1@B	ORG $+1		; std::_Fake_alloc
CONST	ENDS
;	COMDAT ??_7?$CDynamicPoolEx@VCTextureAnimationCCWDecorator@NEffectUpdateDecorator@@@@6B@
CONST	SEGMENT
??_7?$CDynamicPoolEx@VCTextureAnimationCCWDecorator@NEffectUpdateDecorator@@@@6B@ DD FLAT:??_R4?$CDynamicPoolEx@VCTextureAnimationCCWDecorator@NEffectUpdateDecorator@@@@6B@ ; CDynamicPoolEx<NEffectUpdateDecorator::CTextureAnimationCCWDecorator>::`vftable'
	DD	FLAT:??_E?$CDynamicPoolEx@VCTextureAnimationCCWDecorator@NEffectUpdateDecorator@@@@UAEPAXI@Z
CONST	ENDS
;	COMDAT ??_7?$CDynamicPoolEx@VCTextureAnimationRandomDecorator@NEffectUpdateDecorator@@@@6B@
CONST	SEGMENT
??_7?$CDynamicPoolEx@VCTextureAnimationRandomDecorator@NEffectUpdateDecorator@@@@6B@ DD FLAT:??_R4?$CDynamicPoolEx@VCTextureAnimationRandomDecorator@NEffectUpdateDecorator@@@@6B@ ; CDynamicPoolEx<NEffectUpdateDecorator::CTextureAnimationRandomDecorator>::`vftable'
	DD	FLAT:??_E?$CDynamicPoolEx@VCTextureAnimationRandomDecorator@NEffectUpdateDecorator@@@@UAEPAXI@Z
CONST	ENDS
;	COMDAT ??_7?$CDynamicPoolEx@VCAirResistanceDecorator@NEffectUpdateDecorator@@@@6B@
CONST	SEGMENT
??_7?$CDynamicPoolEx@VCAirResistanceDecorator@NEffectUpdateDecorator@@@@6B@ DD FLAT:??_R4?$CDynamicPoolEx@VCAirResistanceDecorator@NEffectUpdateDecorator@@@@6B@ ; CDynamicPoolEx<NEffectUpdateDecorator::CAirResistanceDecorator>::`vftable'
	DD	FLAT:??_E?$CDynamicPoolEx@VCAirResistanceDecorator@NEffectUpdateDecorator@@@@UAEPAXI@Z
CONST	ENDS
;	COMDAT ??_7?$CDynamicPoolEx@VCGravityDecorator@NEffectUpdateDecorator@@@@6B@
CONST	SEGMENT
??_7?$CDynamicPoolEx@VCGravityDecorator@NEffectUpdateDecorator@@@@6B@ DD FLAT:??_R4?$CDynamicPoolEx@VCGravityDecorator@NEffectUpdateDecorator@@@@6B@ ; CDynamicPoolEx<NEffectUpdateDecorator::CGravityDecorator>::`vftable'
	DD	FLAT:??_E?$CDynamicPoolEx@VCGravityDecorator@NEffectUpdateDecorator@@@@UAEPAXI@Z
CONST	ENDS
;	COMDAT ??_7?$CDynamicPoolEx@VCRotationDecorator@NEffectUpdateDecorator@@@@6B@
CONST	SEGMENT
??_7?$CDynamicPoolEx@VCRotationDecorator@NEffectUpdateDecorator@@@@6B@ DD FLAT:??_R4?$CDynamicPoolEx@VCRotationDecorator@NEffectUpdateDecorator@@@@6B@ ; CDynamicPoolEx<NEffectUpdateDecorator::CRotationDecorator>::`vftable'
	DD	FLAT:??_E?$CDynamicPoolEx@VCRotationDecorator@NEffectUpdateDecorator@@@@UAEPAXI@Z
CONST	ENDS
;	COMDAT ??_7?$CDynamicPool@VCEffectInstance@@@@6B@
CONST	SEGMENT
??_7?$CDynamicPool@VCEffectInstance@@@@6B@ DD FLAT:??_R4?$CDynamicPool@VCEffectInstance@@@@6B@ ; CDynamicPool<CEffectInstance>::`vftable'
	DD	FLAT:??_E?$CDynamicPool@VCEffectInstance@@@@UAEPAXI@Z
CONST	ENDS
PUBLIC	??_H@YGXPAXIIP6EPAX0@Z@Z			; `vector constructor iterator'
PUBLIC	?__empty_global_delete@@YAXPAX@Z		; __empty_global_delete
PUBLIC	?__empty_global_delete@@YAXPAXI@Z		; __empty_global_delete
PUBLIC	??0exception@std@@QAE@ABV01@@Z			; std::exception::exception
PUBLIC	??1exception@std@@UAE@XZ			; std::exception::~exception
PUBLIC	?what@exception@std@@UBEPBDXZ			; std::exception::what
PUBLIC	??_Gexception@std@@UAEPAXI@Z			; std::exception::`scalar deleting destructor'
PUBLIC	??0bad_alloc@std@@QAE@ABV01@@Z			; std::bad_alloc::bad_alloc
PUBLIC	??_Gbad_alloc@std@@UAEPAXI@Z			; std::bad_alloc::`scalar deleting destructor'
PUBLIC	??0bad_array_new_length@std@@QAE@XZ		; std::bad_array_new_length::bad_array_new_length
PUBLIC	??1bad_array_new_length@std@@UAE@XZ		; std::bad_array_new_length::~bad_array_new_length
PUBLIC	??0bad_array_new_length@std@@QAE@ABV01@@Z	; std::bad_array_new_length::bad_array_new_length
PUBLIC	??_Gbad_array_new_length@std@@UAEPAXI@Z		; std::bad_array_new_length::`scalar deleting destructor'
PUBLIC	?_Throw_bad_array_new_length@std@@YAXXZ		; std::_Throw_bad_array_new_length
PUBLIC	??0D3DXMATRIX@@QAE@XZ				; D3DXMATRIX::D3DXMATRIX
PUBLIC	??$_Allocate_manually_vector_aligned@U_Default_allocate_traits@std@@@std@@YAPAXI@Z ; std::_Allocate_manually_vector_aligned<std::_Default_allocate_traits>
PUBLIC	?OnClear@CGraphicObjectInstance@@UAEXXZ		; CGraphicObjectInstance::OnClear
PUBLIC	?OnDeform@CGraphicObjectInstance@@UAEXXZ	; CGraphicObjectInstance::OnDeform
PUBLIC	?GetType@CEffectInstance@@UBEHXZ		; CEffectInstance::GetType
PUBLIC	?GetBoundingSphere@CEffectInstance@@UAE_NAAUD3DXVECTOR3@@AAM@Z ; CEffectInstance::GetBoundingSphere
PUBLIC	?DestroySystem@CEffectInstance@@SAXXZ		; CEffectInstance::DestroySystem
PUBLIC	?New@CEffectInstance@@SAPAV1@XZ			; CEffectInstance::New
PUBLIC	?Delete@CEffectInstance@@SAXPAV1@@Z		; CEffectInstance::Delete
PUBLIC	?ResetRenderingEffectCount@CEffectInstance@@SAXXZ ; CEffectInstance::ResetRenderingEffectCount
PUBLIC	?GetRenderingEffectCount@CEffectInstance@@SAHXZ	; CEffectInstance::GetRenderingEffectCount
PUBLIC	??0CEffectInstance@@QAE@XZ			; CEffectInstance::CEffectInstance
PUBLIC	??1CEffectInstance@@UAE@XZ			; CEffectInstance::~CEffectInstance
PUBLIC	?LessRenderOrder@CEffectInstance@@QAE_NPAV1@@Z	; CEffectInstance::LessRenderOrder
PUBLIC	?SetEffectDataPointer@CEffectInstance@@QAEXPAVCEffectData@@PAKK@Z ; CEffectInstance::SetEffectDataPointer
PUBLIC	?Clear@CEffectInstance@@QAEXXZ			; CEffectInstance::Clear
PUBLIC	?isAlive@CEffectInstance@@QAEHXZ		; CEffectInstance::isAlive
PUBLIC	?SetActive@CEffectInstance@@QAEXXZ		; CEffectInstance::SetActive
PUBLIC	?SetDeactive@CEffectInstance@@QAEXXZ		; CEffectInstance::SetDeactive
PUBLIC	?SetGlobalMatrix@CEffectInstance@@QAEXABUD3DXMATRIX@@@Z ; CEffectInstance::SetGlobalMatrix
PUBLIC	?UpdateSound@CEffectInstance@@QAEXXZ		; CEffectInstance::UpdateSound
PUBLIC	?OnUpdate@CEffectInstance@@UAEXXZ		; CEffectInstance::OnUpdate
PUBLIC	?OnRender@CEffectInstance@@UAEXXZ		; CEffectInstance::OnRender
PUBLIC	?OnBlendRender@CEffectInstance@@UAEXXZ		; CEffectInstance::OnBlendRender
PUBLIC	?OnRenderToShadowMap@CEffectInstance@@UAEXXZ	; CEffectInstance::OnRenderToShadowMap
PUBLIC	?OnRenderShadow@CEffectInstance@@UAEXXZ		; CEffectInstance::OnRenderShadow
PUBLIC	?OnRenderPCBlocker@CEffectInstance@@UAEXXZ	; CEffectInstance::OnRenderPCBlocker
PUBLIC	?__Initialize@CEffectInstance@@IAEXXZ		; CEffectInstance::__Initialize
PUBLIC	?__SetParticleData@CEffectInstance@@IAEXPAVCParticleSystemData@@@Z ; CEffectInstance::__SetParticleData
PUBLIC	?__SetMeshData@CEffectInstance@@IAEXPAVCEffectMeshScript@@@Z ; CEffectInstance::__SetMeshData
PUBLIC	?__SetLightData@CEffectInstance@@IAEXPAVCLightData@@@Z ; CEffectInstance::__SetLightData
PUBLIC	?OnUpdateCollisionData@CEffectInstance@@MAEXPBV?$vector@VCStaticCollisionData@@V?$allocator@VCStaticCollisionData@@@std@@@std@@@Z ; CEffectInstance::OnUpdateCollisionData
PUBLIC	?OnUpdateHeighInstance@CEffectInstance@@MAEXPAVCAttributeInstance@@@Z ; CEffectInstance::OnUpdateHeighInstance
PUBLIC	?OnGetObjectHeight@CEffectInstance@@MAE_NMMPAM@Z ; CEffectInstance::OnGetObjectHeight
PUBLIC	?_Xlength@?$vector@PAVCParticleSystemInstance@@V?$allocator@PAVCParticleSystemInstance@@@std@@@std@@CAXXZ ; std::vector<CParticleSystemInstance *,std::allocator<CParticleSystemInstance *> >::_Xlength
PUBLIC	?_Xlength@?$vector@PAVCEffectMeshInstance@@V?$allocator@PAVCEffectMeshInstance@@@std@@@std@@CAXXZ ; std::vector<CEffectMeshInstance *,std::allocator<CEffectMeshInstance *> >::_Xlength
PUBLIC	?_Xlength@?$vector@PAVCLightInstance@@V?$allocator@PAVCLightInstance@@@std@@@std@@CAXXZ ; std::vector<CLightInstance *,std::allocator<CLightInstance *> >::_Xlength
PUBLIC	??_GCEffectInstance@@UAEPAXI@Z			; CEffectInstance::`scalar deleting destructor'
PUBLIC	??1?$CDynamicPool@VCEffectInstance@@@@UAE@XZ	; CDynamicPool<CEffectInstance>::~CDynamicPool<CEffectInstance>
PUBLIC	?Delete@?$CDynamicPool@VCEffectInstance@@@@KAXPAVCEffectInstance@@@Z ; CDynamicPool<CEffectInstance>::Delete
PUBLIC	?_Xlength@?$vector@PAVCEffectInstance@@V?$allocator@PAVCEffectInstance@@@std@@@std@@CAXXZ ; std::vector<CEffectInstance *,std::allocator<CEffectInstance *> >::_Xlength
PUBLIC	??$_Emplace_reallocate@ABQAVCLightInstance@@@?$vector@PAVCLightInstance@@V?$allocator@PAVCLightInstance@@@std@@@std@@QAEPAPAVCLightInstance@@QAPAV2@ABQAV2@@Z ; std::vector<CLightInstance *,std::allocator<CLightInstance *> >::_Emplace_reallocate<CLightInstance * const &>
PUBLIC	??$_Emplace_reallocate@ABQAVCEffectMeshInstance@@@?$vector@PAVCEffectMeshInstance@@V?$allocator@PAVCEffectMeshInstance@@@std@@@std@@QAEPAPAVCEffectMeshInstance@@QAPAV2@ABQAV2@@Z ; std::vector<CEffectMeshInstance *,std::allocator<CEffectMeshInstance *> >::_Emplace_reallocate<CEffectMeshInstance * const &>
PUBLIC	??$_Emplace_reallocate@ABQAVCParticleSystemInstance@@@?$vector@PAVCParticleSystemInstance@@V?$allocator@PAVCParticleSystemInstance@@@std@@@std@@QAEPAPAVCParticleSystemInstance@@QAPAV2@ABQAV2@@Z ; std::vector<CParticleSystemInstance *,std::allocator<CParticleSystemInstance *> >::_Emplace_reallocate<CParticleSystemInstance * const &>
PUBLIC	??1?$CDynamicPoolEx@VCRotationDecorator@NEffectUpdateDecorator@@@@UAE@XZ ; CDynamicPoolEx<NEffectUpdateDecorator::CRotationDecorator>::~CDynamicPoolEx<NEffectUpdateDecorator::CRotationDecorator>
PUBLIC	?Delete@?$CDynamicPoolEx@VCRotationDecorator@NEffectUpdateDecorator@@@@KAXPAVCRotationDecorator@NEffectUpdateDecorator@@@Z ; CDynamicPoolEx<NEffectUpdateDecorator::CRotationDecorator>::Delete
PUBLIC	??1?$CDynamicPoolEx@VCGravityDecorator@NEffectUpdateDecorator@@@@UAE@XZ ; CDynamicPoolEx<NEffectUpdateDecorator::CGravityDecorator>::~CDynamicPoolEx<NEffectUpdateDecorator::CGravityDecorator>
PUBLIC	?Delete@?$CDynamicPoolEx@VCGravityDecorator@NEffectUpdateDecorator@@@@KAXPAVCGravityDecorator@NEffectUpdateDecorator@@@Z ; CDynamicPoolEx<NEffectUpdateDecorator::CGravityDecorator>::Delete
PUBLIC	??1?$CDynamicPoolEx@VCAirResistanceDecorator@NEffectUpdateDecorator@@@@UAE@XZ ; CDynamicPoolEx<NEffectUpdateDecorator::CAirResistanceDecorator>::~CDynamicPoolEx<NEffectUpdateDecorator::CAirResistanceDecorator>
PUBLIC	?Delete@?$CDynamicPoolEx@VCAirResistanceDecorator@NEffectUpdateDecorator@@@@KAXPAVCAirResistanceDecorator@NEffectUpdateDecorator@@@Z ; CDynamicPoolEx<NEffectUpdateDecorator::CAirResistanceDecorator>::Delete
PUBLIC	??1?$CDynamicPoolEx@VCTextureAnimationRandomDecorator@NEffectUpdateDecorator@@@@UAE@XZ ; CDynamicPoolEx<NEffectUpdateDecorator::CTextureAnimationRandomDecorator>::~CDynamicPoolEx<NEffectUpdateDecorator::CTextureAnimationRandomDecorator>
PUBLIC	?Delete@?$CDynamicPoolEx@VCTextureAnimationRandomDecorator@NEffectUpdateDecorator@@@@KAXPAVCTextureAnimationRandomDecorator@NEffectUpdateDecorator@@@Z ; CDynamicPoolEx<NEffectUpdateDecorator::CTextureAnimationRandomDecorator>::Delete
PUBLIC	??1?$CDynamicPoolEx@VCTextureAnimationCCWDecorator@NEffectUpdateDecorator@@@@UAE@XZ ; CDynamicPoolEx<NEffectUpdateDecorator::CTextureAnimationCCWDecorator>::~CDynamicPoolEx<NEffectUpdateDecorator::CTextureAnimationCCWDecorator>
PUBLIC	?Delete@?$CDynamicPoolEx@VCTextureAnimationCCWDecorator@NEffectUpdateDecorator@@@@KAXPAVCTextureAnimationCCWDecorator@NEffectUpdateDecorator@@@Z ; CDynamicPoolEx<NEffectUpdateDecorator::CTextureAnimationCCWDecorator>::Delete
PUBLIC	??1?$CDynamicPoolEx@VCTextureAnimationCWDecorator@NEffectUpdateDecorator@@@@UAE@XZ ; CDynamicPoolEx<NEffectUpdateDecorator::CTextureAnimationCWDecorator>::~CDynamicPoolEx<NEffectUpdateDecorator::CTextureAnimationCWDecorator>
PUBLIC	?Delete@?$CDynamicPoolEx@VCTextureAnimationCWDecorator@NEffectUpdateDecorator@@@@KAXPAVCTextureAnimationCWDecorator@NEffectUpdateDecorator@@@Z ; CDynamicPoolEx<NEffectUpdateDecorator::CTextureAnimationCWDecorator>::Delete
PUBLIC	??1?$CDynamicPoolEx@VCNullDecorator@NEffectUpdateDecorator@@@@UAE@XZ ; CDynamicPoolEx<NEffectUpdateDecorator::CNullDecorator>::~CDynamicPoolEx<NEffectUpdateDecorator::CNullDecorator>
PUBLIC	?Delete@?$CDynamicPoolEx@VCNullDecorator@NEffectUpdateDecorator@@@@KAXPAVCNullDecorator@NEffectUpdateDecorator@@@Z ; CDynamicPoolEx<NEffectUpdateDecorator::CNullDecorator>::Delete
PUBLIC	??1?$CDynamicPoolEx@VCHeaderDecorator@NEffectUpdateDecorator@@@@UAE@XZ ; CDynamicPoolEx<NEffectUpdateDecorator::CHeaderDecorator>::~CDynamicPoolEx<NEffectUpdateDecorator::CHeaderDecorator>
PUBLIC	?Delete@?$CDynamicPoolEx@VCHeaderDecorator@NEffectUpdateDecorator@@@@KAXPAVCHeaderDecorator@NEffectUpdateDecorator@@@Z ; CDynamicPoolEx<NEffectUpdateDecorator::CHeaderDecorator>::Delete
PUBLIC	??$_Emplace_reallocate@ABQAVCEffectInstance@@@?$vector@PAVCEffectInstance@@V?$allocator@PAVCEffectInstance@@@std@@@std@@QAEPAPAVCEffectInstance@@QAPAV2@ABQAV2@@Z ; std::vector<CEffectInstance *,std::allocator<CEffectInstance *> >::_Emplace_reallocate<CEffectInstance * const &>
PUBLIC	??$_Copy_memmove@PAPAVCEffectInstance@@PAPAV1@@std@@YAPAPAVCEffectInstance@@PAPAV1@00@Z ; std::_Copy_memmove<CEffectInstance * *,CEffectInstance * *>
PUBLIC	??$_Copy_memmove@PAPAVCLightInstance@@PAPAV1@@std@@YAPAPAVCLightInstance@@PAPAV1@00@Z ; std::_Copy_memmove<CLightInstance * *,CLightInstance * *>
PUBLIC	??$_Copy_memmove@PAPAVCEffectMeshInstance@@PAPAV1@@std@@YAPAPAVCEffectMeshInstance@@PAPAV1@00@Z ; std::_Copy_memmove<CEffectMeshInstance * *,CEffectMeshInstance * *>
PUBLIC	??$_Copy_memmove@PAPAVCParticleSystemInstance@@PAPAV1@@std@@YAPAPAVCParticleSystemInstance@@PAPAV1@00@Z ; std::_Copy_memmove<CParticleSystemInstance * *,CParticleSystemInstance * *>
PUBLIC	??_7exception@std@@6B@				; std::exception::`vftable'
PUBLIC	??_C@_0BC@EOODALEL@Unknown?5exception@		; `string'
PUBLIC	??_7bad_alloc@std@@6B@				; std::bad_alloc::`vftable'
PUBLIC	??_7bad_array_new_length@std@@6B@		; std::bad_array_new_length::`vftable'
PUBLIC	??_C@_0BF@KINCDENJ@bad?5array?5new?5length@	; `string'
PUBLIC	__TI3?AVbad_array_new_length@std@@
PUBLIC	__CTA3?AVbad_array_new_length@std@@
PUBLIC	??_R0?AVbad_array_new_length@std@@@8		; std::bad_array_new_length `RTTI Type Descriptor'
PUBLIC	__CT??_R0?AVbad_array_new_length@std@@@8??0bad_array_new_length@std@@QAE@ABV01@@Z12
PUBLIC	??_R0?AVbad_alloc@std@@@8			; std::bad_alloc `RTTI Type Descriptor'
PUBLIC	__CT??_R0?AVbad_alloc@std@@@8??0bad_alloc@std@@QAE@ABV01@@Z12
PUBLIC	??_R0?AVexception@std@@@8			; std::exception `RTTI Type Descriptor'
PUBLIC	__CT??_R0?AVexception@std@@@8??0exception@std@@QAE@ABV01@@Z12
PUBLIC	?ms_singleton@?$CSingleton@VCTimer@@@@0PAVCTimer@@A ; CSingleton<CTimer>::ms_singleton
PUBLIC	??_R4exception@std@@6B@				; std::exception::`RTTI Complete Object Locator'
PUBLIC	??_R3exception@std@@8				; std::exception::`RTTI Class Hierarchy Descriptor'
PUBLIC	??_R2exception@std@@8				; std::exception::`RTTI Base Class Array'
PUBLIC	??_R1A@?0A@EA@exception@std@@8			; std::exception::`RTTI Base Class Descriptor at (0,-1,0,64)'
PUBLIC	??_R4bad_alloc@std@@6B@				; std::bad_alloc::`RTTI Complete Object Locator'
PUBLIC	??_R3bad_alloc@std@@8				; std::bad_alloc::`RTTI Class Hierarchy Descriptor'
PUBLIC	??_R2bad_alloc@std@@8				; std::bad_alloc::`RTTI Base Class Array'
PUBLIC	??_R1A@?0A@EA@bad_alloc@std@@8			; std::bad_alloc::`RTTI Base Class Descriptor at (0,-1,0,64)'
PUBLIC	??_R4bad_array_new_length@std@@6B@		; std::bad_array_new_length::`RTTI Complete Object Locator'
PUBLIC	??_R3bad_array_new_length@std@@8		; std::bad_array_new_length::`RTTI Class Hierarchy Descriptor'
PUBLIC	??_R2bad_array_new_length@std@@8		; std::bad_array_new_length::`RTTI Base Class Array'
PUBLIC	??_R1A@?0A@EA@bad_array_new_length@std@@8	; std::bad_array_new_length::`RTTI Base Class Descriptor at (0,-1,0,64)'
PUBLIC	?ms_kPool@?$CPooledObject@VCHeaderDecorator@NEffectUpdateDecorator@@@@1V?$CDynamicPoolEx@VCHeaderDecorator@NEffectUpdateDecorator@@@@A ; CPooledObject<NEffectUpdateDecorator::CHeaderDecorator>::ms_kPool
PUBLIC	?ms_kPool@?$CPooledObject@VCNullDecorator@NEffectUpdateDecorator@@@@1V?$CDynamicPoolEx@VCNullDecorator@NEffectUpdateDecorator@@@@A ; CPooledObject<NEffectUpdateDecorator::CNullDecorator>::ms_kPool
PUBLIC	?ms_kPool@?$CPooledObject@VCTextureAnimationCWDecorator@NEffectUpdateDecorator@@@@1V?$CDynamicPoolEx@VCTextureAnimationCWDecorator@NEffectUpdateDecorator@@@@A ; CPooledObject<NEffectUpdateDecorator::CTextureAnimationCWDecorator>::ms_kPool
PUBLIC	?ms_kPool@?$CPooledObject@VCTextureAnimationCCWDecorator@NEffectUpdateDecorator@@@@1V?$CDynamicPoolEx@VCTextureAnimationCCWDecorator@NEffectUpdateDecorator@@@@A ; CPooledObject<NEffectUpdateDecorator::CTextureAnimationCCWDecorator>::ms_kPool
PUBLIC	?ms_kPool@?$CPooledObject@VCTextureAnimationRandomDecorator@NEffectUpdateDecorator@@@@1V?$CDynamicPoolEx@VCTextureAnimationRandomDecorator@NEffectUpdateDecorator@@@@A ; CPooledObject<NEffectUpdateDecorator::CTextureAnimationRandomDecorator>::ms_kPool
PUBLIC	?ms_kPool@?$CPooledObject@VCAirResistanceDecorator@NEffectUpdateDecorator@@@@1V?$CDynamicPoolEx@VCAirResistanceDecorator@NEffectUpdateDecorator@@@@A ; CPooledObject<NEffectUpdateDecorator::CAirResistanceDecorator>::ms_kPool
PUBLIC	?ms_kPool@?$CPooledObject@VCGravityDecorator@NEffectUpdateDecorator@@@@1V?$CDynamicPoolEx@VCGravityDecorator@NEffectUpdateDecorator@@@@A ; CPooledObject<NEffectUpdateDecorator::CGravityDecorator>::ms_kPool
PUBLIC	?ms_kPool@?$CPooledObject@VCRotationDecorator@NEffectUpdateDecorator@@@@1V?$CDynamicPoolEx@VCRotationDecorator@NEffectUpdateDecorator@@@@A ; CPooledObject<NEffectUpdateDecorator::CRotationDecorator>::ms_kPool
PUBLIC	?ms_singleton@?$CSingleton@VCStateManager@@@@0PAVCStateManager@@A ; CSingleton<CStateManager>::ms_singleton
PUBLIC	?ms_kPool@CEffectInstance@@2V?$CDynamicPool@VCEffectInstance@@@@A ; CEffectInstance::ms_kPool
PUBLIC	??_7CEffectInstance@@6B@			; CEffectInstance::`vftable'
PUBLIC	?ms_singleton@?$CSingleton@VCSoundManager@@@@0PAVCSoundManager@@A ; CSingleton<CSoundManager>::ms_singleton
PUBLIC	??_C@_0BA@FOIKENOD@vector?5too?5long@		; `string'
PUBLIC	??_R4CEffectInstance@@6B@			; CEffectInstance::`RTTI Complete Object Locator'
PUBLIC	??_R0?AVCEffectInstance@@@8			; CEffectInstance `RTTI Type Descriptor'
PUBLIC	??_R3CEffectInstance@@8				; CEffectInstance::`RTTI Class Hierarchy Descriptor'
PUBLIC	??_R2CEffectInstance@@8				; CEffectInstance::`RTTI Base Class Array'
PUBLIC	??_R1A@?0A@EA@CEffectInstance@@8		; CEffectInstance::`RTTI Base Class Descriptor at (0,-1,0,64)'
PUBLIC	??_R1A@?0A@EA@CGraphicObjectInstance@@8		; CGraphicObjectInstance::`RTTI Base Class Descriptor at (0,-1,0,64)'
PUBLIC	??_R0?AVCGraphicObjectInstance@@@8		; CGraphicObjectInstance `RTTI Type Descriptor'
PUBLIC	??_R3CGraphicObjectInstance@@8			; CGraphicObjectInstance::`RTTI Class Hierarchy Descriptor'
PUBLIC	??_R2CGraphicObjectInstance@@8			; CGraphicObjectInstance::`RTTI Base Class Array'
PUBLIC	??_R1A@?0A@EA@CGraphicCollisionObject@@8	; CGraphicCollisionObject::`RTTI Base Class Descriptor at (0,-1,0,64)'
PUBLIC	??_R0?AVCGraphicCollisionObject@@@8		; CGraphicCollisionObject `RTTI Type Descriptor'
PUBLIC	??_R3CGraphicCollisionObject@@8			; CGraphicCollisionObject::`RTTI Class Hierarchy Descriptor'
PUBLIC	??_R2CGraphicCollisionObject@@8			; CGraphicCollisionObject::`RTTI Base Class Array'
PUBLIC	??_R1A@?0A@EA@CGraphicBase@@8			; CGraphicBase::`RTTI Base Class Descriptor at (0,-1,0,64)'
PUBLIC	??_R0?AVCGraphicBase@@@8			; CGraphicBase `RTTI Type Descriptor'
PUBLIC	??_R3CGraphicBase@@8				; CGraphicBase::`RTTI Class Hierarchy Descriptor'
PUBLIC	??_R2CGraphicBase@@8				; CGraphicBase::`RTTI Base Class Array'
PUBLIC	__real@00000000
PUBLIC	__real@3b808081
PUBLIC	__real@3f000000
PUBLIC	__real@3f800000
PUBLIC	__real@437f0000
EXTRN	??2@YAPAXI@Z:PROC				; operator new
EXTRN	??3@YAXPAX@Z:PROC				; operator delete
EXTRN	??3@YAXPAXI@Z:PROC				; operator delete
EXTRN	_atexit:PROC
EXTRN	__invalid_parameter_noinfo_noreturn:PROC
EXTRN	___std_exception_copy:PROC
EXTRN	___std_exception_destroy:PROC
EXTRN	??_Eexception@std@@UAEPAXI@Z:PROC		; std::exception::`vector deleting destructor'
EXTRN	??_Ebad_alloc@std@@UAEPAXI@Z:PROC		; std::bad_alloc::`vector deleting destructor'
EXTRN	??_Ebad_array_new_length@std@@UAEPAXI@Z:PROC	; std::bad_array_new_length::`vector deleting destructor'
EXTRN	?_Xlength_error@std@@YAXPBD@Z:PROC		; std::_Xlength_error
EXTRN	?GetCurrentSecond@CTimer@@QAEMXZ:PROC		; CTimer::GetCurrentSecond
EXTRN	??0CGraphicObjectInstance@@QAE@XZ:PROC		; CGraphicObjectInstance::CGraphicObjectInstance
EXTRN	??1CGraphicObjectInstance@@UAE@XZ:PROC		; CGraphicObjectInstance::~CGraphicObjectInstance
EXTRN	?Transform@CGraphicObjectInstance@@QAEXXZ:PROC	; CGraphicObjectInstance::Transform
EXTRN	?OnInitialize@CGraphicObjectInstance@@UAEXXZ:PROC ; CGraphicObjectInstance::OnInitialize
EXTRN	?RegisterBoundingSphere@CGraphicObjectInstance@@QAEXXZ:PROC ; CGraphicObjectInstance::RegisterBoundingSphere
EXTRN	?SetDataPointer@CEffectElementBaseInstance@@QAEXPAVCEffectElementBase@@@Z:PROC ; CEffectElementBaseInstance::SetDataPointer
EXTRN	?SetLocalMatrixPointer@CEffectElementBaseInstance@@QAEXPBUD3DXMATRIX@@@Z:PROC ; CEffectElementBaseInstance::SetLocalMatrixPointer
EXTRN	?Update@CEffectElementBaseInstance@@QAE_NM@Z:PROC ; CEffectElementBaseInstance::Update
EXTRN	?Render@CEffectElementBaseInstance@@QAEXXZ:PROC	; CEffectElementBaseInstance::Render
EXTRN	?SetActive@CEffectElementBaseInstance@@QAEXXZ:PROC ; CEffectElementBaseInstance::SetActive
EXTRN	?SetDeactive@CEffectElementBaseInstance@@QAEXXZ:PROC ; CEffectElementBaseInstance::SetDeactive
EXTRN	?SetParticleScale@CEffectElementBaseInstance@@QAEXM@Z:PROC ; CEffectElementBaseInstance::SetParticleScale
EXTRN	?SetMeshScale@CEffectElementBaseInstance@@QAEXUD3DXVECTOR3@@@Z:PROC ; CEffectElementBaseInstance::SetMeshScale
EXTRN	?GetParticlePropertyPointer@CParticleSystemData@@QAEPAVCParticleProperty@@XZ:PROC ; CParticleSystemData::GetParticlePropertyPointer
EXTRN	?GetParticlePropertyBackupPointer@CParticleSystemData@@QAEPAVCParticleProperty@@XZ:PROC ; CParticleSystemData::GetParticlePropertyBackupPointer
EXTRN	?GetParticleCount@CEffectData@@QAEKXZ:PROC	; CEffectData::GetParticleCount
EXTRN	?GetParticlePointer@CEffectData@@QAEPAVCParticleSystemData@@K@Z:PROC ; CEffectData::GetParticlePointer
EXTRN	?GetMeshCount@CEffectData@@QAEKXZ:PROC		; CEffectData::GetMeshCount
EXTRN	?GetMeshPointer@CEffectData@@QAEPAVCEffectMeshScript@@K@Z:PROC ; CEffectData::GetMeshPointer
EXTRN	?GetLightCount@CEffectData@@QAEKXZ:PROC		; CEffectData::GetLightCount
EXTRN	?GetLightPointer@CEffectData@@QAEPAVCLightData@@K@Z:PROC ; CEffectData::GetLightPointer
EXTRN	?GetSoundInstanceVector@CEffectData@@QAEPAV?$vector@USSoundInstance@NSound@@V?$allocator@USSoundInstance@NSound@@@std@@@std@@XZ:PROC ; CEffectData::GetSoundInstanceVector
EXTRN	?GetBoundingSphereRadius@CEffectData@@QAEMXZ:PROC ; CEffectData::GetBoundingSphereRadius
EXTRN	?GetBoundingSpherePosition@CEffectData@@QAE?AUD3DXVECTOR3@@XZ:PROC ; CEffectData::GetBoundingSpherePosition
EXTRN	?DestroySystem@CEffectMeshInstance@@SAXXZ:PROC	; CEffectMeshInstance::DestroySystem
EXTRN	?New@CEffectMeshInstance@@SAPAV1@XZ:PROC	; CEffectMeshInstance::New
EXTRN	?Delete@CEffectMeshInstance@@SAXPAV1@@Z:PROC	; CEffectMeshInstance::Delete
EXTRN	?SaveRenderState@CStateManager@@QAEXW4_D3DRENDERSTATETYPE@@K@Z:PROC ; CStateManager::SaveRenderState
EXTRN	?RestoreRenderState@CStateManager@@QAEXW4_D3DRENDERSTATETYPE@@@Z:PROC ; CStateManager::RestoreRenderState
EXTRN	?SaveTextureStageState@CStateManager@@QAEXKW4_D3DTEXTURESTAGESTATETYPE@@K@Z:PROC ; CStateManager::SaveTextureStageState
EXTRN	?RestoreTextureStageState@CStateManager@@QAEXKW4_D3DTEXTURESTAGESTATETYPE@@@Z:PROC ; CStateManager::RestoreTextureStageState
EXTRN	?SetTextureStageState@CStateManager@@QAEXKW4_D3DTEXTURESTAGESTATETYPE@@K@Z:PROC ; CStateManager::SetTextureStageState
EXTRN	?SetVertexShader@CStateManager@@QAEXK@Z:PROC	; CStateManager::SetVertexShader
EXTRN	?DestroySystem@CParticleSystemInstance@@SAXXZ:PROC ; CParticleSystemInstance::DestroySystem
EXTRN	?New@CParticleSystemInstance@@SAPAV1@XZ:PROC	; CParticleSystemInstance::New
EXTRN	?Delete@CParticleSystemInstance@@SAXPAV1@@Z:PROC ; CParticleSystemInstance::Delete
EXTRN	?DestroySystem@CLightInstance@@SAXXZ:PROC	; CLightInstance::DestroySystem
EXTRN	?New@CLightInstance@@SAPAV1@XZ:PROC		; CLightInstance::New
EXTRN	?Delete@CLightInstance@@SAXPAV1@@Z:PROC		; CLightInstance::Delete
EXTRN	??_ECEffectInstance@@UAEPAXI@Z:PROC		; CEffectInstance::`vector deleting destructor'
EXTRN	?UpdateSoundInstance@CSoundManager@@QAEXMMMKPBV?$vector@USSoundInstance@NSound@@V?$allocator@USSoundInstance@NSound@@@std@@@std@@H@Z:PROC ; CSoundManager::UpdateSoundInstance
EXTRN	@__security_check_cookie@4:PROC
EXTRN	__CxxThrowException@8:PROC
EXTRN	___CxxFrameHandler3:PROC
EXTRN	__ftoui3:PROC
EXTRN	_memmove:PROC
EXTRN	___security_cookie:DWORD
EXTRN	__fltused:DWORD
;	COMDAT ?ms_singleton@?$CSingleton@VCTimer@@@@0PAVCTimer@@A
_BSS	SEGMENT
?ms_singleton@?$CSingleton@VCTimer@@@@0PAVCTimer@@A DD 01H DUP (?) ; CSingleton<CTimer>::ms_singleton
_BSS	ENDS
;	COMDAT ?ms_singleton@?$CSingleton@VCStateManager@@@@0PAVCStateManager@@A
_BSS	SEGMENT
?ms_singleton@?$CSingleton@VCStateManager@@@@0PAVCStateManager@@A DD 01H DUP (?) ; CSingleton<CStateManager>::ms_singleton
_BSS	ENDS
;	COMDAT ?ms_singleton@?$CSingleton@VCSoundManager@@@@0PAVCSoundManager@@A
_BSS	SEGMENT
?ms_singleton@?$CSingleton@VCSoundManager@@@@0PAVCSoundManager@@A DD 01H DUP (?) ; CSingleton<CSoundManager>::ms_singleton
_BSS	ENDS
CRT$XCU	SEGMENT
??ms_kPool$initializer$@CEffectInstance@@2P6AXXZA@@3P6AXXZA DD FLAT:??__E?ms_kPool@CEffectInstance@@2V?$CDynamicPool@VCEffectInstance@@@@A@@YAXXZ ; ??ms_kPool$initializer$@CEffectInstance@@2P6AXXZA@@3P6AXXZA
CRT$XCU	ENDS
;	COMDAT __real@437f0000
CONST	SEGMENT
__real@437f0000 DD 0437f0000r			; 255
CONST	ENDS
;	COMDAT __real@3f800000
CONST	SEGMENT
__real@3f800000 DD 03f800000r			; 1
CONST	ENDS
;	COMDAT __real@3f000000
CONST	SEGMENT
__real@3f000000 DD 03f000000r			; 0.5
CONST	ENDS
;	COMDAT __real@3b808081
CONST	SEGMENT
__real@3b808081 DD 03b808081r			; 0.00392157
CONST	ENDS
;	COMDAT __real@00000000
CONST	SEGMENT
__real@00000000 DD 000000000r			; 0
CONST	ENDS
;	COMDAT ??_R2CGraphicBase@@8
rdata$r	SEGMENT
??_R2CGraphicBase@@8 DD FLAT:??_R1A@?0A@EA@CGraphicBase@@8 ; CGraphicBase::`RTTI Base Class Array'
rdata$r	ENDS
;	COMDAT ??_R3CGraphicBase@@8
rdata$r	SEGMENT
??_R3CGraphicBase@@8 DD 00H				; CGraphicBase::`RTTI Class Hierarchy Descriptor'
	DD	00H
	DD	01H
	DD	FLAT:??_R2CGraphicBase@@8
rdata$r	ENDS
;	COMDAT ??_R0?AVCGraphicBase@@@8
data$rs	SEGMENT
??_R0?AVCGraphicBase@@@8 DD FLAT:??_7type_info@@6B@	; CGraphicBase `RTTI Type Descriptor'
	DD	00H
	DB	'.?AVCGraphicBase@@', 00H
data$rs	ENDS
;	COMDAT ??_R1A@?0A@EA@CGraphicBase@@8
rdata$r	SEGMENT
??_R1A@?0A@EA@CGraphicBase@@8 DD FLAT:??_R0?AVCGraphicBase@@@8 ; CGraphicBase::`RTTI Base Class Descriptor at (0,-1,0,64)'
	DD	00H
	DD	00H
	DD	0ffffffffH
	DD	00H
	DD	040H
	DD	FLAT:??_R3CGraphicBase@@8
rdata$r	ENDS
;	COMDAT ??_R2CGraphicCollisionObject@@8
rdata$r	SEGMENT
??_R2CGraphicCollisionObject@@8 DD FLAT:??_R1A@?0A@EA@CGraphicCollisionObject@@8 ; CGraphicCollisionObject::`RTTI Base Class Array'
	DD	FLAT:??_R1A@?0A@EA@CGraphicBase@@8
rdata$r	ENDS
;	COMDAT ??_R3CGraphicCollisionObject@@8
rdata$r	SEGMENT
??_R3CGraphicCollisionObject@@8 DD 00H			; CGraphicCollisionObject::`RTTI Class Hierarchy Descriptor'
	DD	00H
	DD	02H
	DD	FLAT:??_R2CGraphicCollisionObject@@8
rdata$r	ENDS
;	COMDAT ??_R0?AVCGraphicCollisionObject@@@8
data$rs	SEGMENT
??_R0?AVCGraphicCollisionObject@@@8 DD FLAT:??_7type_info@@6B@ ; CGraphicCollisionObject `RTTI Type Descriptor'
	DD	00H
	DB	'.?AVCGraphicCollisionObject@@', 00H
data$rs	ENDS
;	COMDAT ??_R1A@?0A@EA@CGraphicCollisionObject@@8
rdata$r	SEGMENT
??_R1A@?0A@EA@CGraphicCollisionObject@@8 DD FLAT:??_R0?AVCGraphicCollisionObject@@@8 ; CGraphicCollisionObject::`RTTI Base Class Descriptor at (0,-1,0,64)'
	DD	01H
	DD	00H
	DD	0ffffffffH
	DD	00H
	DD	040H
	DD	FLAT:??_R3CGraphicCollisionObject@@8
rdata$r	ENDS
;	COMDAT ??_R2CGraphicObjectInstance@@8
rdata$r	SEGMENT
??_R2CGraphicObjectInstance@@8 DD FLAT:??_R1A@?0A@EA@CGraphicObjectInstance@@8 ; CGraphicObjectInstance::`RTTI Base Class Array'
	DD	FLAT:??_R1A@?0A@EA@CGraphicCollisionObject@@8
	DD	FLAT:??_R1A@?0A@EA@CGraphicBase@@8
rdata$r	ENDS
;	COMDAT ??_R3CGraphicObjectInstance@@8
rdata$r	SEGMENT
??_R3CGraphicObjectInstance@@8 DD 00H			; CGraphicObjectInstance::`RTTI Class Hierarchy Descriptor'
	DD	00H
	DD	03H
	DD	FLAT:??_R2CGraphicObjectInstance@@8
rdata$r	ENDS
;	COMDAT ??_R0?AVCGraphicObjectInstance@@@8
data$rs	SEGMENT
??_R0?AVCGraphicObjectInstance@@@8 DD FLAT:??_7type_info@@6B@ ; CGraphicObjectInstance `RTTI Type Descriptor'
	DD	00H
	DB	'.?AVCGraphicObjectInstance@@', 00H
data$rs	ENDS
;	COMDAT ??_R1A@?0A@EA@CGraphicObjectInstance@@8
rdata$r	SEGMENT
??_R1A@?0A@EA@CGraphicObjectInstance@@8 DD FLAT:??_R0?AVCGraphicObjectInstance@@@8 ; CGraphicObjectInstance::`RTTI Base Class Descriptor at (0,-1,0,64)'
	DD	02H
	DD	00H
	DD	0ffffffffH
	DD	00H
	DD	040H
	DD	FLAT:??_R3CGraphicObjectInstance@@8
rdata$r	ENDS
;	COMDAT ??_R1A@?0A@EA@CEffectInstance@@8
rdata$r	SEGMENT
??_R1A@?0A@EA@CEffectInstance@@8 DD FLAT:??_R0?AVCEffectInstance@@@8 ; CEffectInstance::`RTTI Base Class Descriptor at (0,-1,0,64)'
	DD	03H
	DD	00H
	DD	0ffffffffH
	DD	00H
	DD	040H
	DD	FLAT:??_R3CEffectInstance@@8
rdata$r	ENDS
;	COMDAT ??_R2CEffectInstance@@8
rdata$r	SEGMENT
??_R2CEffectInstance@@8 DD FLAT:??_R1A@?0A@EA@CEffectInstance@@8 ; CEffectInstance::`RTTI Base Class Array'
	DD	FLAT:??_R1A@?0A@EA@CGraphicObjectInstance@@8
	DD	FLAT:??_R1A@?0A@EA@CGraphicCollisionObject@@8
	DD	FLAT:??_R1A@?0A@EA@CGraphicBase@@8
rdata$r	ENDS
;	COMDAT ??_R3CEffectInstance@@8
rdata$r	SEGMENT
??_R3CEffectInstance@@8 DD 00H				; CEffectInstance::`RTTI Class Hierarchy Descriptor'
	DD	00H
	DD	04H
	DD	FLAT:??_R2CEffectInstance@@8
rdata$r	ENDS
;	COMDAT ??_R0?AVCEffectInstance@@@8
data$rs	SEGMENT
??_R0?AVCEffectInstance@@@8 DD FLAT:??_7type_info@@6B@	; CEffectInstance `RTTI Type Descriptor'
	DD	00H
	DB	'.?AVCEffectInstance@@', 00H
data$rs	ENDS
;	COMDAT ??_R4CEffectInstance@@6B@
rdata$r	SEGMENT
??_R4CEffectInstance@@6B@ DD 00H			; CEffectInstance::`RTTI Complete Object Locator'
	DD	00H
	DD	00H
	DD	FLAT:??_R0?AVCEffectInstance@@@8
	DD	FLAT:??_R3CEffectInstance@@8
rdata$r	ENDS
;	COMDAT ??_C@_0BA@FOIKENOD@vector?5too?5long@
CONST	SEGMENT
??_C@_0BA@FOIKENOD@vector?5too?5long@ DB 'vector too long', 00H ; `string'
CONST	ENDS
;	COMDAT ??_7CEffectInstance@@6B@
CONST	SEGMENT
??_7CEffectInstance@@6B@ DD FLAT:??_R4CEffectInstance@@6B@ ; CEffectInstance::`vftable'
	DD	FLAT:??_ECEffectInstance@@UAEPAXI@Z
	DD	FLAT:?GetType@CEffectInstance@@UBEHXZ
	DD	FLAT:?OnInitialize@CGraphicObjectInstance@@UAEXXZ
	DD	FLAT:?GetBoundingSphere@CEffectInstance@@UAE_NAAUD3DXVECTOR3@@AAM@Z
	DD	FLAT:?OnRender@CEffectInstance@@UAEXXZ
	DD	FLAT:?OnBlendRender@CEffectInstance@@UAEXXZ
	DD	FLAT:?OnRenderToShadowMap@CEffectInstance@@UAEXXZ
	DD	FLAT:?OnRenderShadow@CEffectInstance@@UAEXXZ
	DD	FLAT:?OnRenderPCBlocker@CEffectInstance@@UAEXXZ
	DD	FLAT:?OnClear@CGraphicObjectInstance@@UAEXXZ
	DD	FLAT:?OnUpdate@CEffectInstance@@UAEXXZ
	DD	FLAT:?OnDeform@CGraphicObjectInstance@@UAEXXZ
	DD	FLAT:?OnUpdateCollisionData@CEffectInstance@@MAEXPBV?$vector@VCStaticCollisionData@@V?$allocator@VCStaticCollisionData@@@std@@@std@@@Z
	DD	FLAT:?OnUpdateHeighInstance@CEffectInstance@@MAEXPAVCAttributeInstance@@@Z
	DD	FLAT:?OnGetObjectHeight@CEffectInstance@@MAE_NMMPAM@Z
CONST	ENDS
_DATA	SEGMENT
?ms_kPool@CEffectInstance@@2V?$CDynamicPool@VCEffectInstance@@@@A DD FLAT:??_7?$CDynamicPool@VCEffectInstance@@@@6B@ ; CEffectInstance::ms_kPool
	DD	00H
	DD	00H
	DD	00H
	DD	00H
	DD	00H
	DD	00H
	DD	00H
	DD	00H
_DATA	ENDS
;	COMDAT ?ms_kPool@?$CPooledObject@VCRotationDecorator@NEffectUpdateDecorator@@@@1V?$CDynamicPoolEx@VCRotationDecorator@NEffectUpdateDecorator@@@@A
_DATA	SEGMENT
?ms_kPool@?$CPooledObject@VCRotationDecorator@NEffectUpdateDecorator@@@@1V?$CDynamicPoolEx@VCRotationDecorator@NEffectUpdateDecorator@@@@A DD FLAT:??_7?$CDynamicPoolEx@VCRotationDecorator@NEffectUpdateDecorator@@@@6B@ ; CPooledObject<NEffectUpdateDecorator::CRotationDecorator>::ms_kPool
	DD	00H
	DD	00H
	DD	00H
	DD	00H
	DD	00H
	DD	00H
	DD	00H
	DD	00H
_DATA	ENDS
;	COMDAT ?ms_kPool@?$CPooledObject@VCGravityDecorator@NEffectUpdateDecorator@@@@1V?$CDynamicPoolEx@VCGravityDecorator@NEffectUpdateDecorator@@@@A
_DATA	SEGMENT
?ms_kPool@?$CPooledObject@VCGravityDecorator@NEffectUpdateDecorator@@@@1V?$CDynamicPoolEx@VCGravityDecorator@NEffectUpdateDecorator@@@@A DD FLAT:??_7?$CDynamicPoolEx@VCGravityDecorator@NEffectUpdateDecorator@@@@6B@ ; CPooledObject<NEffectUpdateDecorator::CGravityDecorator>::ms_kPool
	DD	00H
	DD	00H
	DD	00H
	DD	00H
	DD	00H
	DD	00H
	DD	00H
	DD	00H
_DATA	ENDS
;	COMDAT ?ms_kPool@?$CPooledObject@VCAirResistanceDecorator@NEffectUpdateDecorator@@@@1V?$CDynamicPoolEx@VCAirResistanceDecorator@NEffectUpdateDecorator@@@@A
_DATA	SEGMENT
?ms_kPool@?$CPooledObject@VCAirResistanceDecorator@NEffectUpdateDecorator@@@@1V?$CDynamicPoolEx@VCAirResistanceDecorator@NEffectUpdateDecorator@@@@A DD FLAT:??_7?$CDynamicPoolEx@VCAirResistanceDecorator@NEffectUpdateDecorator@@@@6B@ ; CPooledObject<NEffectUpdateDecorator::CAirResistanceDecorator>::ms_kPool
	DD	00H
	DD	00H
	DD	00H
	DD	00H
	DD	00H
	DD	00H
	DD	00H
	DD	00H
_DATA	ENDS
;	COMDAT ?ms_kPool@?$CPooledObject@VCTextureAnimationRandomDecorator@NEffectUpdateDecorator@@@@1V?$CDynamicPoolEx@VCTextureAnimationRandomDecorator@NEffectUpdateDecorator@@@@A
_DATA	SEGMENT
?ms_kPool@?$CPooledObject@VCTextureAnimationRandomDecorator@NEffectUpdateDecorator@@@@1V?$CDynamicPoolEx@VCTextureAnimationRandomDecorator@NEffectUpdateDecorator@@@@A DD FLAT:??_7?$CDynamicPoolEx@VCTextureAnimationRandomDecorator@NEffectUpdateDecorator@@@@6B@ ; CPooledObject<NEffectUpdateDecorator::CTextureAnimationRandomDecorator>::ms_kPool
	DD	00H
	DD	00H
	DD	00H
	DD	00H
	DD	00H
	DD	00H
	DD	00H
	DD	00H
_DATA	ENDS
;	COMDAT ?ms_kPool@?$CPooledObject@VCTextureAnimationCCWDecorator@NEffectUpdateDecorator@@@@1V?$CDynamicPoolEx@VCTextureAnimationCCWDecorator@NEffectUpdateDecorator@@@@A
_DATA	SEGMENT
?ms_kPool@?$CPooledObject@VCTextureAnimationCCWDecorator@NEffectUpdateDecorator@@@@1V?$CDynamicPoolEx@VCTextureAnimationCCWDecorator@NEffectUpdateDecorator@@@@A DD FLAT:??_7?$CDynamicPoolEx@VCTextureAnimationCCWDecorator@NEffectUpdateDecorator@@@@6B@ ; CPooledObject<NEffectUpdateDecorator::CTextureAnimationCCWDecorator>::ms_kPool
	DD	00H
	DD	00H
	DD	00H
	DD	00H
	DD	00H
	DD	00H
	DD	00H
	DD	00H
_DATA	ENDS
;	COMDAT ?ms_kPool@?$CPooledObject@VCTextureAnimationCWDecorator@NEffectUpdateDecorator@@@@1V?$CDynamicPoolEx@VCTextureAnimationCWDecorator@NEffectUpdateDecorator@@@@A
_DATA	SEGMENT
?ms_kPool@?$CPooledObject@VCTextureAnimationCWDecorator@NEffectUpdateDecorator@@@@1V?$CDynamicPoolEx@VCTextureAnimationCWDecorator@NEffectUpdateDecorator@@@@A DD FLAT:??_7?$CDynamicPoolEx@VCTextureAnimationCWDecorator@NEffectUpdateDecorator@@@@6B@ ; CPooledObject<NEffectUpdateDecorator::CTextureAnimationCWDecorator>::ms_kPool
	DD	00H
	DD	00H
	DD	00H
	DD	00H
	DD	00H
	DD	00H
	DD	00H
	DD	00H
_DATA	ENDS
;	COMDAT ?ms_kPool@?$CPooledObject@VCNullDecorator@NEffectUpdateDecorator@@@@1V?$CDynamicPoolEx@VCNullDecorator@NEffectUpdateDecorator@@@@A
_DATA	SEGMENT
?ms_kPool@?$CPooledObject@VCNullDecorator@NEffectUpdateDecorator@@@@1V?$CDynamicPoolEx@VCNullDecorator@NEffectUpdateDecorator@@@@A DD FLAT:??_7?$CDynamicPoolEx@VCNullDecorator@NEffectUpdateDecorator@@@@6B@ ; CPooledObject<NEffectUpdateDecorator::CNullDecorator>::ms_kPool
	DD	00H
	DD	00H
	DD	00H
	DD	00H
	DD	00H
	DD	00H
	DD	00H
	DD	00H
_DATA	ENDS
;	COMDAT ?ms_kPool@?$CPooledObject@VCHeaderDecorator@NEffectUpdateDecorator@@@@1V?$CDynamicPoolEx@VCHeaderDecorator@NEffectUpdateDecorator@@@@A
_DATA	SEGMENT
?ms_kPool@?$CPooledObject@VCHeaderDecorator@NEffectUpdateDecorator@@@@1V?$CDynamicPoolEx@VCHeaderDecorator@NEffectUpdateDecorator@@@@A DD FLAT:??_7?$CDynamicPoolEx@VCHeaderDecorator@NEffectUpdateDecorator@@@@6B@ ; CPooledObject<NEffectUpdateDecorator::CHeaderDecorator>::ms_kPool
	DD	00H
	DD	00H
	DD	00H
	DD	00H
	DD	00H
	DD	00H
	DD	00H
	DD	00H
_DATA	ENDS
;	COMDAT ??_R1A@?0A@EA@bad_array_new_length@std@@8
rdata$r	SEGMENT
??_R1A@?0A@EA@bad_array_new_length@std@@8 DD FLAT:??_R0?AVbad_array_new_length@std@@@8 ; std::bad_array_new_length::`RTTI Base Class Descriptor at (0,-1,0,64)'
	DD	02H
	DD	00H
	DD	0ffffffffH
	DD	00H
	DD	040H
	DD	FLAT:??_R3bad_array_new_length@std@@8
rdata$r	ENDS
;	COMDAT ??_R2bad_array_new_length@std@@8
rdata$r	SEGMENT
??_R2bad_array_new_length@std@@8 DD FLAT:??_R1A@?0A@EA@bad_array_new_length@std@@8 ; std::bad_array_new_length::`RTTI Base Class Array'
	DD	FLAT:??_R1A@?0A@EA@bad_alloc@std@@8
	DD	FLAT:??_R1A@?0A@EA@exception@std@@8
rdata$r	ENDS
;	COMDAT ??_R3bad_array_new_length@std@@8
rdata$r	SEGMENT
??_R3bad_array_new_length@std@@8 DD 00H			; std::bad_array_new_length::`RTTI Class Hierarchy Descriptor'
	DD	00H
	DD	03H
	DD	FLAT:??_R2bad_array_new_length@std@@8
rdata$r	ENDS
;	COMDAT ??_R4bad_array_new_length@std@@6B@
rdata$r	SEGMENT
??_R4bad_array_new_length@std@@6B@ DD 00H		; std::bad_array_new_length::`RTTI Complete Object Locator'
	DD	00H
	DD	00H
	DD	FLAT:??_R0?AVbad_array_new_length@std@@@8
	DD	FLAT:??_R3bad_array_new_length@std@@8
rdata$r	ENDS
;	COMDAT ??_R1A@?0A@EA@bad_alloc@std@@8
rdata$r	SEGMENT
??_R1A@?0A@EA@bad_alloc@std@@8 DD FLAT:??_R0?AVbad_alloc@std@@@8 ; std::bad_alloc::`RTTI Base Class Descriptor at (0,-1,0,64)'
	DD	01H
	DD	00H
	DD	0ffffffffH
	DD	00H
	DD	040H
	DD	FLAT:??_R3bad_alloc@std@@8
rdata$r	ENDS
;	COMDAT ??_R2bad_alloc@std@@8
rdata$r	SEGMENT
??_R2bad_alloc@std@@8 DD FLAT:??_R1A@?0A@EA@bad_alloc@std@@8 ; std::bad_alloc::`RTTI Base Class Array'
	DD	FLAT:??_R1A@?0A@EA@exception@std@@8
rdata$r	ENDS
;	COMDAT ??_R3bad_alloc@std@@8
rdata$r	SEGMENT
??_R3bad_alloc@std@@8 DD 00H				; std::bad_alloc::`RTTI Class Hierarchy Descriptor'
	DD	00H
	DD	02H
	DD	FLAT:??_R2bad_alloc@std@@8
rdata$r	ENDS
;	COMDAT ??_R4bad_alloc@std@@6B@
rdata$r	SEGMENT
??_R4bad_alloc@std@@6B@ DD 00H				; std::bad_alloc::`RTTI Complete Object Locator'
	DD	00H
	DD	00H
	DD	FLAT:??_R0?AVbad_alloc@std@@@8
	DD	FLAT:??_R3bad_alloc@std@@8
rdata$r	ENDS
;	COMDAT ??_R1A@?0A@EA@exception@std@@8
rdata$r	SEGMENT
??_R1A@?0A@EA@exception@std@@8 DD FLAT:??_R0?AVexception@std@@@8 ; std::exception::`RTTI Base Class Descriptor at (0,-1,0,64)'
	DD	00H
	DD	00H
	DD	0ffffffffH
	DD	00H
	DD	040H
	DD	FLAT:??_R3exception@std@@8
rdata$r	ENDS
;	COMDAT ??_R2exception@std@@8
rdata$r	SEGMENT
??_R2exception@std@@8 DD FLAT:??_R1A@?0A@EA@exception@std@@8 ; std::exception::`RTTI Base Class Array'
rdata$r	ENDS
;	COMDAT ??_R3exception@std@@8
rdata$r	SEGMENT
??_R3exception@std@@8 DD 00H				; std::exception::`RTTI Class Hierarchy Descriptor'
	DD	00H
	DD	01H
	DD	FLAT:??_R2exception@std@@8
rdata$r	ENDS
;	COMDAT ??_R4exception@std@@6B@
rdata$r	SEGMENT
??_R4exception@std@@6B@ DD 00H				; std::exception::`RTTI Complete Object Locator'
	DD	00H
	DD	00H
	DD	FLAT:??_R0?AVexception@std@@@8
	DD	FLAT:??_R3exception@std@@8
rdata$r	ENDS
;	COMDAT __CT??_R0?AVexception@std@@@8??0exception@std@@QAE@ABV01@@Z12
xdata$x	SEGMENT
__CT??_R0?AVexception@std@@@8??0exception@std@@QAE@ABV01@@Z12 DD 00H
	DD	FLAT:??_R0?AVexception@std@@@8
	DD	00H
	DD	0ffffffffH
	ORG $+4
	DD	0cH
	DD	FLAT:??0exception@std@@QAE@ABV01@@Z
xdata$x	ENDS
;	COMDAT ??_R0?AVexception@std@@@8
data$r	SEGMENT
??_R0?AVexception@std@@@8 DD FLAT:??_7type_info@@6B@	; std::exception `RTTI Type Descriptor'
	DD	00H
	DB	'.?AVexception@std@@', 00H
data$r	ENDS
;	COMDAT __CT??_R0?AVbad_alloc@std@@@8??0bad_alloc@std@@QAE@ABV01@@Z12
xdata$x	SEGMENT
__CT??_R0?AVbad_alloc@std@@@8??0bad_alloc@std@@QAE@ABV01@@Z12 DD 010H
	DD	FLAT:??_R0?AVbad_alloc@std@@@8
	DD	00H
	DD	0ffffffffH
	ORG $+4
	DD	0cH
	DD	FLAT:??0bad_alloc@std@@QAE@ABV01@@Z
xdata$x	ENDS
;	COMDAT ??_R0?AVbad_alloc@std@@@8
data$r	SEGMENT
??_R0?AVbad_alloc@std@@@8 DD FLAT:??_7type_info@@6B@	; std::bad_alloc `RTTI Type Descriptor'
	DD	00H
	DB	'.?AVbad_alloc@std@@', 00H
data$r	ENDS
;	COMDAT __CT??_R0?AVbad_array_new_length@std@@@8??0bad_array_new_length@std@@QAE@ABV01@@Z12
xdata$x	SEGMENT
__CT??_R0?AVbad_array_new_length@std@@@8??0bad_array_new_length@std@@QAE@ABV01@@Z12 DD 00H
	DD	FLAT:??_R0?AVbad_array_new_length@std@@@8
	DD	00H
	DD	0ffffffffH
	ORG $+4
	DD	0cH
	DD	FLAT:??0bad_array_new_length@std@@QAE@ABV01@@Z
xdata$x	ENDS
;	COMDAT ??_R0?AVbad_array_new_length@std@@@8
data$r	SEGMENT
??_R0?AVbad_array_new_length@std@@@8 DD FLAT:??_7type_info@@6B@ ; std::bad_array_new_length `RTTI Type Descriptor'
	DD	00H
	DB	'.?AVbad_array_new_length@std@@', 00H
data$r	ENDS
;	COMDAT __CTA3?AVbad_array_new_length@std@@
xdata$x	SEGMENT
__CTA3?AVbad_array_new_length@std@@ DD 03H
	DD	FLAT:__CT??_R0?AVbad_array_new_length@std@@@8??0bad_array_new_length@std@@QAE@ABV01@@Z12
	DD	FLAT:__CT??_R0?AVbad_alloc@std@@@8??0bad_alloc@std@@QAE@ABV01@@Z12
	DD	FLAT:__CT??_R0?AVexception@std@@@8??0exception@std@@QAE@ABV01@@Z12
xdata$x	ENDS
;	COMDAT __TI3?AVbad_array_new_length@std@@
xdata$x	SEGMENT
__TI3?AVbad_array_new_length@std@@ DD 00H
	DD	FLAT:??1bad_array_new_length@std@@UAE@XZ
	DD	00H
	DD	FLAT:__CTA3?AVbad_array_new_length@std@@
xdata$x	ENDS
;	COMDAT ??_C@_0BF@KINCDENJ@bad?5array?5new?5length@
CONST	SEGMENT
??_C@_0BF@KINCDENJ@bad?5array?5new?5length@ DB 'bad array new length', 00H ; `string'
CONST	ENDS
;	COMDAT ??_7bad_array_new_length@std@@6B@
CONST	SEGMENT
??_7bad_array_new_length@std@@6B@ DD FLAT:??_R4bad_array_new_length@std@@6B@ ; std::bad_array_new_length::`vftable'
	DD	FLAT:??_Ebad_array_new_length@std@@UAEPAXI@Z
	DD	FLAT:?what@exception@std@@UBEPBDXZ
CONST	ENDS
;	COMDAT ??_7bad_alloc@std@@6B@
CONST	SEGMENT
??_7bad_alloc@std@@6B@ DD FLAT:??_R4bad_alloc@std@@6B@	; std::bad_alloc::`vftable'
	DD	FLAT:??_Ebad_alloc@std@@UAEPAXI@Z
	DD	FLAT:?what@exception@std@@UBEPBDXZ
CONST	ENDS
;	COMDAT ??_C@_0BC@EOODALEL@Unknown?5exception@
CONST	SEGMENT
??_C@_0BC@EOODALEL@Unknown?5exception@ DB 'Unknown exception', 00H ; `string'
CONST	ENDS
;	COMDAT ??_7exception@std@@6B@
CONST	SEGMENT
??_7exception@std@@6B@ DD FLAT:??_R4exception@std@@6B@	; std::exception::`vftable'
	DD	FLAT:??_Eexception@std@@UAEPAXI@Z
	DD	FLAT:?what@exception@std@@UBEPBDXZ
CONST	ENDS
;	COMDAT xdata$x
xdata$x	SEGMENT
__unwindtable$?Alloc@?$CDynamicPool@VCEffectInstance@@@@QAEPAVCEffectInstance@@XZ DD 0ffffffffH
	DD	FLAT:__unwindfunclet$?Alloc@?$CDynamicPool@VCEffectInstance@@@@QAEPAVCEffectInstance@@XZ$0
__ehfuncinfo$?Alloc@?$CDynamicPool@VCEffectInstance@@@@QAEPAVCEffectInstance@@XZ DD 019930522H
	DD	01H
	DD	FLAT:__unwindtable$?Alloc@?$CDynamicPool@VCEffectInstance@@@@QAEPAVCEffectInstance@@XZ
	DD	2 DUP(00H)
	DD	2 DUP(00H)
	DD	00H
	DD	01H
xdata$x	ENDS
;	COMDAT xdata$x
xdata$x	SEGMENT
__unwindtable$?New@CEffectInstance@@SAPAV1@XZ DD 0ffffffffH
	DD	FLAT:__unwindfunclet$?New@CEffectInstance@@SAPAV1@XZ$0
__ehfuncinfo$?New@CEffectInstance@@SAPAV1@XZ DD 019930522H
	DD	01H
	DD	FLAT:__unwindtable$?New@CEffectInstance@@SAPAV1@XZ
	DD	2 DUP(00H)
	DD	2 DUP(00H)
	DD	00H
	DD	01H
xdata$x	ENDS
;	COMDAT CRT$XCU
CRT$XCU	SEGMENT
??ms_kPool$initializer$@?$CPooledObject@VCHeaderDecorator@NEffectUpdateDecorator@@@@1P6AXXZA@@3P6AXXZA DD FLAT:??__E?ms_kPool@?$CPooledObject@VCHeaderDecorator@NEffectUpdateDecorator@@@@1V?$CDynamicPoolEx@VCHeaderDecorator@NEffectUpdateDecorator@@@@A@@YAXXZ ; ??ms_kPool$initializer$@?$CPooledObject@VCHeaderDecorator@NEffectUpdateDecorator@@@@1P6AXXZA@@3P6AXXZA
CRT$XCU	ENDS
;	COMDAT CRT$XCU
CRT$XCU	SEGMENT
??ms_kPool$initializer$@?$CPooledObject@VCNullDecorator@NEffectUpdateDecorator@@@@1P6AXXZA@@3P6AXXZA DD FLAT:??__E?ms_kPool@?$CPooledObject@VCNullDecorator@NEffectUpdateDecorator@@@@1V?$CDynamicPoolEx@VCNullDecorator@NEffectUpdateDecorator@@@@A@@YAXXZ ; ??ms_kPool$initializer$@?$CPooledObject@VCNullDecorator@NEffectUpdateDecorator@@@@1P6AXXZA@@3P6AXXZA
CRT$XCU	ENDS
;	COMDAT CRT$XCU
CRT$XCU	SEGMENT
??ms_kPool$initializer$@?$CPooledObject@VCTextureAnimationCWDecorator@NEffectUpdateDecorator@@@@1P6AXXZA@@3P6AXXZA DD FLAT:??__E?ms_kPool@?$CPooledObject@VCTextureAnimationCWDecorator@NEffectUpdateDecorator@@@@1V?$CDynamicPoolEx@VCTextureAnimationCWDecorator@NEffectUpdateDecorator@@@@A@@YAXXZ ; ??ms_kPool$initializer$@?$CPooledObject@VCTextureAnimationCWDecorator@NEffectUpdateDecorator@@@@1P6AXXZA@@3P6AXXZA
CRT$XCU	ENDS
;	COMDAT CRT$XCU
CRT$XCU	SEGMENT
??ms_kPool$initializer$@?$CPooledObject@VCTextureAnimationCCWDecorator@NEffectUpdateDecorator@@@@1P6AXXZA@@3P6AXXZA DD FLAT:??__E?ms_kPool@?$CPooledObject@VCTextureAnimationCCWDecorator@NEffectUpdateDecorator@@@@1V?$CDynamicPoolEx@VCTextureAnimationCCWDecorator@NEffectUpdateDecorator@@@@A@@YAXXZ ; ??ms_kPool$initializer$@?$CPooledObject@VCTextureAnimationCCWDecorator@NEffectUpdateDecorator@@@@1P6AXXZA@@3P6AXXZA
CRT$XCU	ENDS
;	COMDAT CRT$XCU
CRT$XCU	SEGMENT
??ms_kPool$initializer$@?$CPooledObject@VCTextureAnimationRandomDecorator@NEffectUpdateDecorator@@@@1P6AXXZA@@3P6AXXZA DD FLAT:??__E?ms_kPool@?$CPooledObject@VCTextureAnimationRandomDecorator@NEffectUpdateDecorator@@@@1V?$CDynamicPoolEx@VCTextureAnimationRandomDecorator@NEffectUpdateDecorator@@@@A@@YAXXZ ; ??ms_kPool$initializer$@?$CPooledObject@VCTextureAnimationRandomDecorator@NEffectUpdateDecorator@@@@1P6AXXZA@@3P6AXXZA
CRT$XCU	ENDS
;	COMDAT CRT$XCU
CRT$XCU	SEGMENT
??ms_kPool$initializer$@?$CPooledObject@VCAirResistanceDecorator@NEffectUpdateDecorator@@@@1P6AXXZA@@3P6AXXZA DD FLAT:??__E?ms_kPool@?$CPooledObject@VCAirResistanceDecorator@NEffectUpdateDecorator@@@@1V?$CDynamicPoolEx@VCAirResistanceDecorator@NEffectUpdateDecorator@@@@A@@YAXXZ ; ??ms_kPool$initializer$@?$CPooledObject@VCAirResistanceDecorator@NEffectUpdateDecorator@@@@1P6AXXZA@@3P6AXXZA
CRT$XCU	ENDS
;	COMDAT CRT$XCU
CRT$XCU	SEGMENT
??ms_kPool$initializer$@?$CPooledObject@VCGravityDecorator@NEffectUpdateDecorator@@@@1P6AXXZA@@3P6AXXZA DD FLAT:??__E?ms_kPool@?$CPooledObject@VCGravityDecorator@NEffectUpdateDecorator@@@@1V?$CDynamicPoolEx@VCGravityDecorator@NEffectUpdateDecorator@@@@A@@YAXXZ ; ??ms_kPool$initializer$@?$CPooledObject@VCGravityDecorator@NEffectUpdateDecorator@@@@1P6AXXZA@@3P6AXXZA
CRT$XCU	ENDS
;	COMDAT CRT$XCU
CRT$XCU	SEGMENT
??ms_kPool$initializer$@?$CPooledObject@VCRotationDecorator@NEffectUpdateDecorator@@@@1P6AXXZA@@3P6AXXZA DD FLAT:??__E?ms_kPool@?$CPooledObject@VCRotationDecorator@NEffectUpdateDecorator@@@@1V?$CDynamicPoolEx@VCRotationDecorator@NEffectUpdateDecorator@@@@A@@YAXXZ ; ??ms_kPool$initializer$@?$CPooledObject@VCRotationDecorator@NEffectUpdateDecorator@@@@1P6AXXZA@@3P6AXXZA
CRT$XCU	ENDS
; Function compile flags: /Ogtp
; File D:\visual studio 2019\visual studio 2019\VC\Tools\MSVC\14.29.30133\include\xutility
;	COMDAT ??$_Copy_memmove@PAPAVCParticleSystemInstance@@PAPAV1@@std@@YAPAPAVCParticleSystemInstance@@PAPAV1@00@Z
_TEXT	SEGMENT
__First$ = 8						; size = 4
__Last$ = 12						; size = 4
__Dest$ = 16						; size = 4
??$_Copy_memmove@PAPAVCParticleSystemInstance@@PAPAV1@@std@@YAPAPAVCParticleSystemInstance@@PAPAV1@00@Z PROC ; std::_Copy_memmove<CParticleSystemInstance * *,CParticleSystemInstance * *>, COMDAT

; 4058 : _OutCtgIt _Copy_memmove(_CtgIt _First, _CtgIt _Last, _OutCtgIt _Dest) {

  00000	55		 push	 ebp
  00001	8b ec		 mov	 ebp, esp

; 4059 :     auto _FirstPtr              = _To_address(_First);
; 4060 :     auto _LastPtr               = _To_address(_Last);
; 4061 :     auto _DestPtr               = _To_address(_Dest);
; 4062 :     const char* const _First_ch = const_cast<const char*>(reinterpret_cast<const volatile char*>(_FirstPtr));
; 4063 :     const char* const _Last_ch  = const_cast<const char*>(reinterpret_cast<const volatile char*>(_LastPtr));
; 4064 :     char* const _Dest_ch        = const_cast<char*>(reinterpret_cast<const volatile char*>(_DestPtr));
; 4065 :     const auto _Count           = static_cast<size_t>(_Last_ch - _First_ch);

  00003	8b 45 08	 mov	 eax, DWORD PTR __First$[ebp]
  00006	56		 push	 esi

; 4066 :     _CSTD memmove(_Dest_ch, _First_ch, _Count);

  00007	8b 75 10	 mov	 esi, DWORD PTR __Dest$[ebp]
  0000a	57		 push	 edi
  0000b	8b 7d 0c	 mov	 edi, DWORD PTR __Last$[ebp]
  0000e	2b f8		 sub	 edi, eax
  00010	57		 push	 edi
  00011	50		 push	 eax
  00012	56		 push	 esi
  00013	e8 00 00 00 00	 call	 _memmove
  00018	83 c4 0c	 add	 esp, 12			; 0000000cH

; 4067 :     if constexpr (is_pointer_v<_OutCtgIt>) {
; 4068 :         return reinterpret_cast<_OutCtgIt>(_Dest_ch + _Count);

  0001b	8d 04 37	 lea	 eax, DWORD PTR [edi+esi]
  0001e	5f		 pop	 edi
  0001f	5e		 pop	 esi

; 4069 :     } else {
; 4070 :         return _Dest + (_LastPtr - _FirstPtr);
; 4071 :     }
; 4072 : }

  00020	5d		 pop	 ebp
  00021	c3		 ret	 0
??$_Copy_memmove@PAPAVCParticleSystemInstance@@PAPAV1@@std@@YAPAPAVCParticleSystemInstance@@PAPAV1@00@Z ENDP ; std::_Copy_memmove<CParticleSystemInstance * *,CParticleSystemInstance * *>
_TEXT	ENDS
; Function compile flags: /Ogtp
; File D:\visual studio 2019\visual studio 2019\VC\Tools\MSVC\14.29.30133\include\xutility
;	COMDAT ??$_Copy_memmove@PAPAVCEffectMeshInstance@@PAPAV1@@std@@YAPAPAVCEffectMeshInstance@@PAPAV1@00@Z
_TEXT	SEGMENT
__First$ = 8						; size = 4
__Last$ = 12						; size = 4
__Dest$ = 16						; size = 4
??$_Copy_memmove@PAPAVCEffectMeshInstance@@PAPAV1@@std@@YAPAPAVCEffectMeshInstance@@PAPAV1@00@Z PROC ; std::_Copy_memmove<CEffectMeshInstance * *,CEffectMeshInstance * *>, COMDAT

; 4058 : _OutCtgIt _Copy_memmove(_CtgIt _First, _CtgIt _Last, _OutCtgIt _Dest) {

  00000	55		 push	 ebp
  00001	8b ec		 mov	 ebp, esp

; 4059 :     auto _FirstPtr              = _To_address(_First);
; 4060 :     auto _LastPtr               = _To_address(_Last);
; 4061 :     auto _DestPtr               = _To_address(_Dest);
; 4062 :     const char* const _First_ch = const_cast<const char*>(reinterpret_cast<const volatile char*>(_FirstPtr));
; 4063 :     const char* const _Last_ch  = const_cast<const char*>(reinterpret_cast<const volatile char*>(_LastPtr));
; 4064 :     char* const _Dest_ch        = const_cast<char*>(reinterpret_cast<const volatile char*>(_DestPtr));
; 4065 :     const auto _Count           = static_cast<size_t>(_Last_ch - _First_ch);

  00003	8b 45 08	 mov	 eax, DWORD PTR __First$[ebp]
  00006	56		 push	 esi

; 4066 :     _CSTD memmove(_Dest_ch, _First_ch, _Count);

  00007	8b 75 10	 mov	 esi, DWORD PTR __Dest$[ebp]
  0000a	57		 push	 edi
  0000b	8b 7d 0c	 mov	 edi, DWORD PTR __Last$[ebp]
  0000e	2b f8		 sub	 edi, eax
  00010	57		 push	 edi
  00011	50		 push	 eax
  00012	56		 push	 esi
  00013	e8 00 00 00 00	 call	 _memmove
  00018	83 c4 0c	 add	 esp, 12			; 0000000cH

; 4067 :     if constexpr (is_pointer_v<_OutCtgIt>) {
; 4068 :         return reinterpret_cast<_OutCtgIt>(_Dest_ch + _Count);

  0001b	8d 04 37	 lea	 eax, DWORD PTR [edi+esi]
  0001e	5f		 pop	 edi
  0001f	5e		 pop	 esi

; 4069 :     } else {
; 4070 :         return _Dest + (_LastPtr - _FirstPtr);
; 4071 :     }
; 4072 : }

  00020	5d		 pop	 ebp
  00021	c3		 ret	 0
??$_Copy_memmove@PAPAVCEffectMeshInstance@@PAPAV1@@std@@YAPAPAVCEffectMeshInstance@@PAPAV1@00@Z ENDP ; std::_Copy_memmove<CEffectMeshInstance * *,CEffectMeshInstance * *>
_TEXT	ENDS
; Function compile flags: /Ogtp
; File D:\visual studio 2019\visual studio 2019\VC\Tools\MSVC\14.29.30133\include\xutility
;	COMDAT ??$_Copy_memmove@PAPAVCLightInstance@@PAPAV1@@std@@YAPAPAVCLightInstance@@PAPAV1@00@Z
_TEXT	SEGMENT
__First$ = 8						; size = 4
__Last$ = 12						; size = 4
__Dest$ = 16						; size = 4
??$_Copy_memmove@PAPAVCLightInstance@@PAPAV1@@std@@YAPAPAVCLightInstance@@PAPAV1@00@Z PROC ; std::_Copy_memmove<CLightInstance * *,CLightInstance * *>, COMDAT

; 4058 : _OutCtgIt _Copy_memmove(_CtgIt _First, _CtgIt _Last, _OutCtgIt _Dest) {

  00000	55		 push	 ebp
  00001	8b ec		 mov	 ebp, esp

; 4059 :     auto _FirstPtr              = _To_address(_First);
; 4060 :     auto _LastPtr               = _To_address(_Last);
; 4061 :     auto _DestPtr               = _To_address(_Dest);
; 4062 :     const char* const _First_ch = const_cast<const char*>(reinterpret_cast<const volatile char*>(_FirstPtr));
; 4063 :     const char* const _Last_ch  = const_cast<const char*>(reinterpret_cast<const volatile char*>(_LastPtr));
; 4064 :     char* const _Dest_ch        = const_cast<char*>(reinterpret_cast<const volatile char*>(_DestPtr));
; 4065 :     const auto _Count           = static_cast<size_t>(_Last_ch - _First_ch);

  00003	8b 45 08	 mov	 eax, DWORD PTR __First$[ebp]
  00006	56		 push	 esi

; 4066 :     _CSTD memmove(_Dest_ch, _First_ch, _Count);

  00007	8b 75 10	 mov	 esi, DWORD PTR __Dest$[ebp]
  0000a	57		 push	 edi
  0000b	8b 7d 0c	 mov	 edi, DWORD PTR __Last$[ebp]
  0000e	2b f8		 sub	 edi, eax
  00010	57		 push	 edi
  00011	50		 push	 eax
  00012	56		 push	 esi
  00013	e8 00 00 00 00	 call	 _memmove
  00018	83 c4 0c	 add	 esp, 12			; 0000000cH

; 4067 :     if constexpr (is_pointer_v<_OutCtgIt>) {
; 4068 :         return reinterpret_cast<_OutCtgIt>(_Dest_ch + _Count);

  0001b	8d 04 37	 lea	 eax, DWORD PTR [edi+esi]
  0001e	5f		 pop	 edi
  0001f	5e		 pop	 esi

; 4069 :     } else {
; 4070 :         return _Dest + (_LastPtr - _FirstPtr);
; 4071 :     }
; 4072 : }

  00020	5d		 pop	 ebp
  00021	c3		 ret	 0
??$_Copy_memmove@PAPAVCLightInstance@@PAPAV1@@std@@YAPAPAVCLightInstance@@PAPAV1@00@Z ENDP ; std::_Copy_memmove<CLightInstance * *,CLightInstance * *>
_TEXT	ENDS
; Function compile flags: /Ogtp
; File D:\visual studio 2019\visual studio 2019\VC\Tools\MSVC\14.29.30133\include\xutility
;	COMDAT ??$_Copy_memmove@PAPAVCEffectInstance@@PAPAV1@@std@@YAPAPAVCEffectInstance@@PAPAV1@00@Z
_TEXT	SEGMENT
__First$ = 8						; size = 4
__Last$ = 12						; size = 4
__Dest$ = 16						; size = 4
??$_Copy_memmove@PAPAVCEffectInstance@@PAPAV1@@std@@YAPAPAVCEffectInstance@@PAPAV1@00@Z PROC ; std::_Copy_memmove<CEffectInstance * *,CEffectInstance * *>, COMDAT

; 4058 : _OutCtgIt _Copy_memmove(_CtgIt _First, _CtgIt _Last, _OutCtgIt _Dest) {

  00000	55		 push	 ebp
  00001	8b ec		 mov	 ebp, esp

; 4059 :     auto _FirstPtr              = _To_address(_First);
; 4060 :     auto _LastPtr               = _To_address(_Last);
; 4061 :     auto _DestPtr               = _To_address(_Dest);
; 4062 :     const char* const _First_ch = const_cast<const char*>(reinterpret_cast<const volatile char*>(_FirstPtr));
; 4063 :     const char* const _Last_ch  = const_cast<const char*>(reinterpret_cast<const volatile char*>(_LastPtr));
; 4064 :     char* const _Dest_ch        = const_cast<char*>(reinterpret_cast<const volatile char*>(_DestPtr));
; 4065 :     const auto _Count           = static_cast<size_t>(_Last_ch - _First_ch);

  00003	8b 45 08	 mov	 eax, DWORD PTR __First$[ebp]
  00006	56		 push	 esi

; 4066 :     _CSTD memmove(_Dest_ch, _First_ch, _Count);

  00007	8b 75 10	 mov	 esi, DWORD PTR __Dest$[ebp]
  0000a	57		 push	 edi
  0000b	8b 7d 0c	 mov	 edi, DWORD PTR __Last$[ebp]
  0000e	2b f8		 sub	 edi, eax
  00010	57		 push	 edi
  00011	50		 push	 eax
  00012	56		 push	 esi
  00013	e8 00 00 00 00	 call	 _memmove
  00018	83 c4 0c	 add	 esp, 12			; 0000000cH

; 4067 :     if constexpr (is_pointer_v<_OutCtgIt>) {
; 4068 :         return reinterpret_cast<_OutCtgIt>(_Dest_ch + _Count);

  0001b	8d 04 37	 lea	 eax, DWORD PTR [edi+esi]
  0001e	5f		 pop	 edi
  0001f	5e		 pop	 esi

; 4069 :     } else {
; 4070 :         return _Dest + (_LastPtr - _FirstPtr);
; 4071 :     }
; 4072 : }

  00020	5d		 pop	 ebp
  00021	c3		 ret	 0
??$_Copy_memmove@PAPAVCEffectInstance@@PAPAV1@@std@@YAPAPAVCEffectInstance@@PAPAV1@00@Z ENDP ; std::_Copy_memmove<CEffectInstance * *,CEffectInstance * *>
_TEXT	ENDS
; Function compile flags: /Ogtp
;	COMDAT ??__F?ms_kPool@?$CPooledObject@VCRotationDecorator@NEffectUpdateDecorator@@@@1V?$CDynamicPoolEx@VCRotationDecorator@NEffectUpdateDecorator@@@@A@@YAXXZ
text$yd	SEGMENT
??__F?ms_kPool@?$CPooledObject@VCRotationDecorator@NEffectUpdateDecorator@@@@1V?$CDynamicPoolEx@VCRotationDecorator@NEffectUpdateDecorator@@@@A@@YAXXZ PROC ; `dynamic atexit destructor for 'CPooledObject<NEffectUpdateDecorator::CRotationDecorator>::ms_kPool'', COMDAT
  00000	b9 00 00 00 00	 mov	 ecx, OFFSET ?ms_kPool@?$CPooledObject@VCRotationDecorator@NEffectUpdateDecorator@@@@1V?$CDynamicPoolEx@VCRotationDecorator@NEffectUpdateDecorator@@@@A ; CPooledObject<NEffectUpdateDecorator::CRotationDecorator>::ms_kPool
  00005	e9 00 00 00 00	 jmp	 ??1?$CDynamicPoolEx@VCRotationDecorator@NEffectUpdateDecorator@@@@UAE@XZ ; CDynamicPoolEx<NEffectUpdateDecorator::CRotationDecorator>::~CDynamicPoolEx<NEffectUpdateDecorator::CRotationDecorator>
??__F?ms_kPool@?$CPooledObject@VCRotationDecorator@NEffectUpdateDecorator@@@@1V?$CDynamicPoolEx@VCRotationDecorator@NEffectUpdateDecorator@@@@A@@YAXXZ ENDP ; `dynamic atexit destructor for 'CPooledObject<NEffectUpdateDecorator::CRotationDecorator>::ms_kPool''
text$yd	ENDS
; Function compile flags: /Ogtp
; File C:\Users\ALEXANDER\Desktop\Cliente\COPY_FISH_WON_NEW\Binario\Client\eterLib\Pool.h
;	COMDAT ??__E?ms_kPool@?$CPooledObject@VCRotationDecorator@NEffectUpdateDecorator@@@@1V?$CDynamicPoolEx@VCRotationDecorator@NEffectUpdateDecorator@@@@A@@YAXXZ
text$di	SEGMENT
??__E?ms_kPool@?$CPooledObject@VCRotationDecorator@NEffectUpdateDecorator@@@@1V?$CDynamicPoolEx@VCRotationDecorator@NEffectUpdateDecorator@@@@A@@YAXXZ PROC ; `dynamic initializer for 'CPooledObject<NEffectUpdateDecorator::CRotationDecorator>::ms_kPool'', COMDAT

; 272  : template <class T> CDynamicPoolEx<T> CPooledObject<T>::ms_kPool;

  00000	68 00 00 00 00	 push	 OFFSET ??__F?ms_kPool@?$CPooledObject@VCRotationDecorator@NEffectUpdateDecorator@@@@1V?$CDynamicPoolEx@VCRotationDecorator@NEffectUpdateDecorator@@@@A@@YAXXZ ; `dynamic atexit destructor for 'CPooledObject<NEffectUpdateDecorator::CRotationDecorator>::ms_kPool''
  00005	e8 00 00 00 00	 call	 _atexit
  0000a	59		 pop	 ecx
  0000b	c3		 ret	 0
??__E?ms_kPool@?$CPooledObject@VCRotationDecorator@NEffectUpdateDecorator@@@@1V?$CDynamicPoolEx@VCRotationDecorator@NEffectUpdateDecorator@@@@A@@YAXXZ ENDP ; `dynamic initializer for 'CPooledObject<NEffectUpdateDecorator::CRotationDecorator>::ms_kPool''
text$di	ENDS
; Function compile flags: /Ogtp
;	COMDAT ??__F?ms_kPool@?$CPooledObject@VCGravityDecorator@NEffectUpdateDecorator@@@@1V?$CDynamicPoolEx@VCGravityDecorator@NEffectUpdateDecorator@@@@A@@YAXXZ
text$yd	SEGMENT
??__F?ms_kPool@?$CPooledObject@VCGravityDecorator@NEffectUpdateDecorator@@@@1V?$CDynamicPoolEx@VCGravityDecorator@NEffectUpdateDecorator@@@@A@@YAXXZ PROC ; `dynamic atexit destructor for 'CPooledObject<NEffectUpdateDecorator::CGravityDecorator>::ms_kPool'', COMDAT
  00000	b9 00 00 00 00	 mov	 ecx, OFFSET ?ms_kPool@?$CPooledObject@VCGravityDecorator@NEffectUpdateDecorator@@@@1V?$CDynamicPoolEx@VCGravityDecorator@NEffectUpdateDecorator@@@@A ; CPooledObject<NEffectUpdateDecorator::CGravityDecorator>::ms_kPool
  00005	e9 00 00 00 00	 jmp	 ??1?$CDynamicPoolEx@VCGravityDecorator@NEffectUpdateDecorator@@@@UAE@XZ ; CDynamicPoolEx<NEffectUpdateDecorator::CGravityDecorator>::~CDynamicPoolEx<NEffectUpdateDecorator::CGravityDecorator>
??__F?ms_kPool@?$CPooledObject@VCGravityDecorator@NEffectUpdateDecorator@@@@1V?$CDynamicPoolEx@VCGravityDecorator@NEffectUpdateDecorator@@@@A@@YAXXZ ENDP ; `dynamic atexit destructor for 'CPooledObject<NEffectUpdateDecorator::CGravityDecorator>::ms_kPool''
text$yd	ENDS
; Function compile flags: /Ogtp
; File C:\Users\ALEXANDER\Desktop\Cliente\COPY_FISH_WON_NEW\Binario\Client\eterLib\Pool.h
;	COMDAT ??__E?ms_kPool@?$CPooledObject@VCGravityDecorator@NEffectUpdateDecorator@@@@1V?$CDynamicPoolEx@VCGravityDecorator@NEffectUpdateDecorator@@@@A@@YAXXZ
text$di	SEGMENT
??__E?ms_kPool@?$CPooledObject@VCGravityDecorator@NEffectUpdateDecorator@@@@1V?$CDynamicPoolEx@VCGravityDecorator@NEffectUpdateDecorator@@@@A@@YAXXZ PROC ; `dynamic initializer for 'CPooledObject<NEffectUpdateDecorator::CGravityDecorator>::ms_kPool'', COMDAT

; 272  : template <class T> CDynamicPoolEx<T> CPooledObject<T>::ms_kPool;

  00000	68 00 00 00 00	 push	 OFFSET ??__F?ms_kPool@?$CPooledObject@VCGravityDecorator@NEffectUpdateDecorator@@@@1V?$CDynamicPoolEx@VCGravityDecorator@NEffectUpdateDecorator@@@@A@@YAXXZ ; `dynamic atexit destructor for 'CPooledObject<NEffectUpdateDecorator::CGravityDecorator>::ms_kPool''
  00005	e8 00 00 00 00	 call	 _atexit
  0000a	59		 pop	 ecx
  0000b	c3		 ret	 0
??__E?ms_kPool@?$CPooledObject@VCGravityDecorator@NEffectUpdateDecorator@@@@1V?$CDynamicPoolEx@VCGravityDecorator@NEffectUpdateDecorator@@@@A@@YAXXZ ENDP ; `dynamic initializer for 'CPooledObject<NEffectUpdateDecorator::CGravityDecorator>::ms_kPool''
text$di	ENDS
; Function compile flags: /Ogtp
;	COMDAT ??__F?ms_kPool@?$CPooledObject@VCAirResistanceDecorator@NEffectUpdateDecorator@@@@1V?$CDynamicPoolEx@VCAirResistanceDecorator@NEffectUpdateDecorator@@@@A@@YAXXZ
text$yd	SEGMENT
??__F?ms_kPool@?$CPooledObject@VCAirResistanceDecorator@NEffectUpdateDecorator@@@@1V?$CDynamicPoolEx@VCAirResistanceDecorator@NEffectUpdateDecorator@@@@A@@YAXXZ PROC ; `dynamic atexit destructor for 'CPooledObject<NEffectUpdateDecorator::CAirResistanceDecorator>::ms_kPool'', COMDAT
  00000	b9 00 00 00 00	 mov	 ecx, OFFSET ?ms_kPool@?$CPooledObject@VCAirResistanceDecorator@NEffectUpdateDecorator@@@@1V?$CDynamicPoolEx@VCAirResistanceDecorator@NEffectUpdateDecorator@@@@A ; CPooledObject<NEffectUpdateDecorator::CAirResistanceDecorator>::ms_kPool
  00005	e9 00 00 00 00	 jmp	 ??1?$CDynamicPoolEx@VCAirResistanceDecorator@NEffectUpdateDecorator@@@@UAE@XZ ; CDynamicPoolEx<NEffectUpdateDecorator::CAirResistanceDecorator>::~CDynamicPoolEx<NEffectUpdateDecorator::CAirResistanceDecorator>
??__F?ms_kPool@?$CPooledObject@VCAirResistanceDecorator@NEffectUpdateDecorator@@@@1V?$CDynamicPoolEx@VCAirResistanceDecorator@NEffectUpdateDecorator@@@@A@@YAXXZ ENDP ; `dynamic atexit destructor for 'CPooledObject<NEffectUpdateDecorator::CAirResistanceDecorator>::ms_kPool''
text$yd	ENDS
; Function compile flags: /Ogtp
; File C:\Users\ALEXANDER\Desktop\Cliente\COPY_FISH_WON_NEW\Binario\Client\eterLib\Pool.h
;	COMDAT ??__E?ms_kPool@?$CPooledObject@VCAirResistanceDecorator@NEffectUpdateDecorator@@@@1V?$CDynamicPoolEx@VCAirResistanceDecorator@NEffectUpdateDecorator@@@@A@@YAXXZ
text$di	SEGMENT
??__E?ms_kPool@?$CPooledObject@VCAirResistanceDecorator@NEffectUpdateDecorator@@@@1V?$CDynamicPoolEx@VCAirResistanceDecorator@NEffectUpdateDecorator@@@@A@@YAXXZ PROC ; `dynamic initializer for 'CPooledObject<NEffectUpdateDecorator::CAirResistanceDecorator>::ms_kPool'', COMDAT

; 272  : template <class T> CDynamicPoolEx<T> CPooledObject<T>::ms_kPool;

  00000	68 00 00 00 00	 push	 OFFSET ??__F?ms_kPool@?$CPooledObject@VCAirResistanceDecorator@NEffectUpdateDecorator@@@@1V?$CDynamicPoolEx@VCAirResistanceDecorator@NEffectUpdateDecorator@@@@A@@YAXXZ ; `dynamic atexit destructor for 'CPooledObject<NEffectUpdateDecorator::CAirResistanceDecorator>::ms_kPool''
  00005	e8 00 00 00 00	 call	 _atexit
  0000a	59		 pop	 ecx
  0000b	c3		 ret	 0
??__E?ms_kPool@?$CPooledObject@VCAirResistanceDecorator@NEffectUpdateDecorator@@@@1V?$CDynamicPoolEx@VCAirResistanceDecorator@NEffectUpdateDecorator@@@@A@@YAXXZ ENDP ; `dynamic initializer for 'CPooledObject<NEffectUpdateDecorator::CAirResistanceDecorator>::ms_kPool''
text$di	ENDS
; Function compile flags: /Ogtp
;	COMDAT ??__F?ms_kPool@?$CPooledObject@VCTextureAnimationRandomDecorator@NEffectUpdateDecorator@@@@1V?$CDynamicPoolEx@VCTextureAnimationRandomDecorator@NEffectUpdateDecorator@@@@A@@YAXXZ
text$yd	SEGMENT
??__F?ms_kPool@?$CPooledObject@VCTextureAnimationRandomDecorator@NEffectUpdateDecorator@@@@1V?$CDynamicPoolEx@VCTextureAnimationRandomDecorator@NEffectUpdateDecorator@@@@A@@YAXXZ PROC ; `dynamic atexit destructor for 'CPooledObject<NEffectUpdateDecorator::CTextureAnimationRandomDecorator>::ms_kPool'', COMDAT
  00000	b9 00 00 00 00	 mov	 ecx, OFFSET ?ms_kPool@?$CPooledObject@VCTextureAnimationRandomDecorator@NEffectUpdateDecorator@@@@1V?$CDynamicPoolEx@VCTextureAnimationRandomDecorator@NEffectUpdateDecorator@@@@A ; CPooledObject<NEffectUpdateDecorator::CTextureAnimationRandomDecorator>::ms_kPool
  00005	e9 00 00 00 00	 jmp	 ??1?$CDynamicPoolEx@VCTextureAnimationRandomDecorator@NEffectUpdateDecorator@@@@UAE@XZ ; CDynamicPoolEx<NEffectUpdateDecorator::CTextureAnimationRandomDecorator>::~CDynamicPoolEx<NEffectUpdateDecorator::CTextureAnimationRandomDecorator>
??__F?ms_kPool@?$CPooledObject@VCTextureAnimationRandomDecorator@NEffectUpdateDecorator@@@@1V?$CDynamicPoolEx@VCTextureAnimationRandomDecorator@NEffectUpdateDecorator@@@@A@@YAXXZ ENDP ; `dynamic atexit destructor for 'CPooledObject<NEffectUpdateDecorator::CTextureAnimationRandomDecorator>::ms_kPool''
text$yd	ENDS
; Function compile flags: /Ogtp
; File C:\Users\ALEXANDER\Desktop\Cliente\COPY_FISH_WON_NEW\Binario\Client\eterLib\Pool.h
;	COMDAT ??__E?ms_kPool@?$CPooledObject@VCTextureAnimationRandomDecorator@NEffectUpdateDecorator@@@@1V?$CDynamicPoolEx@VCTextureAnimationRandomDecorator@NEffectUpdateDecorator@@@@A@@YAXXZ
text$di	SEGMENT
??__E?ms_kPool@?$CPooledObject@VCTextureAnimationRandomDecorator@NEffectUpdateDecorator@@@@1V?$CDynamicPoolEx@VCTextureAnimationRandomDecorator@NEffectUpdateDecorator@@@@A@@YAXXZ PROC ; `dynamic initializer for 'CPooledObject<NEffectUpdateDecorator::CTextureAnimationRandomDecorator>::ms_kPool'', COMDAT

; 272  : template <class T> CDynamicPoolEx<T> CPooledObject<T>::ms_kPool;

  00000	68 00 00 00 00	 push	 OFFSET ??__F?ms_kPool@?$CPooledObject@VCTextureAnimationRandomDecorator@NEffectUpdateDecorator@@@@1V?$CDynamicPoolEx@VCTextureAnimationRandomDecorator@NEffectUpdateDecorator@@@@A@@YAXXZ ; `dynamic atexit destructor for 'CPooledObject<NEffectUpdateDecorator::CTextureAnimationRandomDecorator>::ms_kPool''
  00005	e8 00 00 00 00	 call	 _atexit
  0000a	59		 pop	 ecx
  0000b	c3		 ret	 0
??__E?ms_kPool@?$CPooledObject@VCTextureAnimationRandomDecorator@NEffectUpdateDecorator@@@@1V?$CDynamicPoolEx@VCTextureAnimationRandomDecorator@NEffectUpdateDecorator@@@@A@@YAXXZ ENDP ; `dynamic initializer for 'CPooledObject<NEffectUpdateDecorator::CTextureAnimationRandomDecorator>::ms_kPool''
text$di	ENDS
; Function compile flags: /Ogtp
;	COMDAT ??__F?ms_kPool@?$CPooledObject@VCTextureAnimationCCWDecorator@NEffectUpdateDecorator@@@@1V?$CDynamicPoolEx@VCTextureAnimationCCWDecorator@NEffectUpdateDecorator@@@@A@@YAXXZ
text$yd	SEGMENT
??__F?ms_kPool@?$CPooledObject@VCTextureAnimationCCWDecorator@NEffectUpdateDecorator@@@@1V?$CDynamicPoolEx@VCTextureAnimationCCWDecorator@NEffectUpdateDecorator@@@@A@@YAXXZ PROC ; `dynamic atexit destructor for 'CPooledObject<NEffectUpdateDecorator::CTextureAnimationCCWDecorator>::ms_kPool'', COMDAT
  00000	b9 00 00 00 00	 mov	 ecx, OFFSET ?ms_kPool@?$CPooledObject@VCTextureAnimationCCWDecorator@NEffectUpdateDecorator@@@@1V?$CDynamicPoolEx@VCTextureAnimationCCWDecorator@NEffectUpdateDecorator@@@@A ; CPooledObject<NEffectUpdateDecorator::CTextureAnimationCCWDecorator>::ms_kPool
  00005	e9 00 00 00 00	 jmp	 ??1?$CDynamicPoolEx@VCTextureAnimationCCWDecorator@NEffectUpdateDecorator@@@@UAE@XZ ; CDynamicPoolEx<NEffectUpdateDecorator::CTextureAnimationCCWDecorator>::~CDynamicPoolEx<NEffectUpdateDecorator::CTextureAnimationCCWDecorator>
??__F?ms_kPool@?$CPooledObject@VCTextureAnimationCCWDecorator@NEffectUpdateDecorator@@@@1V?$CDynamicPoolEx@VCTextureAnimationCCWDecorator@NEffectUpdateDecorator@@@@A@@YAXXZ ENDP ; `dynamic atexit destructor for 'CPooledObject<NEffectUpdateDecorator::CTextureAnimationCCWDecorator>::ms_kPool''
text$yd	ENDS
; Function compile flags: /Ogtp
; File C:\Users\ALEXANDER\Desktop\Cliente\COPY_FISH_WON_NEW\Binario\Client\eterLib\Pool.h
;	COMDAT ??__E?ms_kPool@?$CPooledObject@VCTextureAnimationCCWDecorator@NEffectUpdateDecorator@@@@1V?$CDynamicPoolEx@VCTextureAnimationCCWDecorator@NEffectUpdateDecorator@@@@A@@YAXXZ
text$di	SEGMENT
??__E?ms_kPool@?$CPooledObject@VCTextureAnimationCCWDecorator@NEffectUpdateDecorator@@@@1V?$CDynamicPoolEx@VCTextureAnimationCCWDecorator@NEffectUpdateDecorator@@@@A@@YAXXZ PROC ; `dynamic initializer for 'CPooledObject<NEffectUpdateDecorator::CTextureAnimationCCWDecorator>::ms_kPool'', COMDAT

; 272  : template <class T> CDynamicPoolEx<T> CPooledObject<T>::ms_kPool;

  00000	68 00 00 00 00	 push	 OFFSET ??__F?ms_kPool@?$CPooledObject@VCTextureAnimationCCWDecorator@NEffectUpdateDecorator@@@@1V?$CDynamicPoolEx@VCTextureAnimationCCWDecorator@NEffectUpdateDecorator@@@@A@@YAXXZ ; `dynamic atexit destructor for 'CPooledObject<NEffectUpdateDecorator::CTextureAnimationCCWDecorator>::ms_kPool''
  00005	e8 00 00 00 00	 call	 _atexit
  0000a	59		 pop	 ecx
  0000b	c3		 ret	 0
??__E?ms_kPool@?$CPooledObject@VCTextureAnimationCCWDecorator@NEffectUpdateDecorator@@@@1V?$CDynamicPoolEx@VCTextureAnimationCCWDecorator@NEffectUpdateDecorator@@@@A@@YAXXZ ENDP ; `dynamic initializer for 'CPooledObject<NEffectUpdateDecorator::CTextureAnimationCCWDecorator>::ms_kPool''
text$di	ENDS
; Function compile flags: /Ogtp
;	COMDAT ??__F?ms_kPool@?$CPooledObject@VCTextureAnimationCWDecorator@NEffectUpdateDecorator@@@@1V?$CDynamicPoolEx@VCTextureAnimationCWDecorator@NEffectUpdateDecorator@@@@A@@YAXXZ
text$yd	SEGMENT
??__F?ms_kPool@?$CPooledObject@VCTextureAnimationCWDecorator@NEffectUpdateDecorator@@@@1V?$CDynamicPoolEx@VCTextureAnimationCWDecorator@NEffectUpdateDecorator@@@@A@@YAXXZ PROC ; `dynamic atexit destructor for 'CPooledObject<NEffectUpdateDecorator::CTextureAnimationCWDecorator>::ms_kPool'', COMDAT
  00000	b9 00 00 00 00	 mov	 ecx, OFFSET ?ms_kPool@?$CPooledObject@VCTextureAnimationCWDecorator@NEffectUpdateDecorator@@@@1V?$CDynamicPoolEx@VCTextureAnimationCWDecorator@NEffectUpdateDecorator@@@@A ; CPooledObject<NEffectUpdateDecorator::CTextureAnimationCWDecorator>::ms_kPool
  00005	e9 00 00 00 00	 jmp	 ??1?$CDynamicPoolEx@VCTextureAnimationCWDecorator@NEffectUpdateDecorator@@@@UAE@XZ ; CDynamicPoolEx<NEffectUpdateDecorator::CTextureAnimationCWDecorator>::~CDynamicPoolEx<NEffectUpdateDecorator::CTextureAnimationCWDecorator>
??__F?ms_kPool@?$CPooledObject@VCTextureAnimationCWDecorator@NEffectUpdateDecorator@@@@1V?$CDynamicPoolEx@VCTextureAnimationCWDecorator@NEffectUpdateDecorator@@@@A@@YAXXZ ENDP ; `dynamic atexit destructor for 'CPooledObject<NEffectUpdateDecorator::CTextureAnimationCWDecorator>::ms_kPool''
text$yd	ENDS
; Function compile flags: /Ogtp
; File C:\Users\ALEXANDER\Desktop\Cliente\COPY_FISH_WON_NEW\Binario\Client\eterLib\Pool.h
;	COMDAT ??__E?ms_kPool@?$CPooledObject@VCTextureAnimationCWDecorator@NEffectUpdateDecorator@@@@1V?$CDynamicPoolEx@VCTextureAnimationCWDecorator@NEffectUpdateDecorator@@@@A@@YAXXZ
text$di	SEGMENT
??__E?ms_kPool@?$CPooledObject@VCTextureAnimationCWDecorator@NEffectUpdateDecorator@@@@1V?$CDynamicPoolEx@VCTextureAnimationCWDecorator@NEffectUpdateDecorator@@@@A@@YAXXZ PROC ; `dynamic initializer for 'CPooledObject<NEffectUpdateDecorator::CTextureAnimationCWDecorator>::ms_kPool'', COMDAT

; 272  : template <class T> CDynamicPoolEx<T> CPooledObject<T>::ms_kPool;

  00000	68 00 00 00 00	 push	 OFFSET ??__F?ms_kPool@?$CPooledObject@VCTextureAnimationCWDecorator@NEffectUpdateDecorator@@@@1V?$CDynamicPoolEx@VCTextureAnimationCWDecorator@NEffectUpdateDecorator@@@@A@@YAXXZ ; `dynamic atexit destructor for 'CPooledObject<NEffectUpdateDecorator::CTextureAnimationCWDecorator>::ms_kPool''
  00005	e8 00 00 00 00	 call	 _atexit
  0000a	59		 pop	 ecx
  0000b	c3		 ret	 0
??__E?ms_kPool@?$CPooledObject@VCTextureAnimationCWDecorator@NEffectUpdateDecorator@@@@1V?$CDynamicPoolEx@VCTextureAnimationCWDecorator@NEffectUpdateDecorator@@@@A@@YAXXZ ENDP ; `dynamic initializer for 'CPooledObject<NEffectUpdateDecorator::CTextureAnimationCWDecorator>::ms_kPool''
text$di	ENDS
; Function compile flags: /Ogtp
;	COMDAT ??__F?ms_kPool@?$CPooledObject@VCNullDecorator@NEffectUpdateDecorator@@@@1V?$CDynamicPoolEx@VCNullDecorator@NEffectUpdateDecorator@@@@A@@YAXXZ
text$yd	SEGMENT
??__F?ms_kPool@?$CPooledObject@VCNullDecorator@NEffectUpdateDecorator@@@@1V?$CDynamicPoolEx@VCNullDecorator@NEffectUpdateDecorator@@@@A@@YAXXZ PROC ; `dynamic atexit destructor for 'CPooledObject<NEffectUpdateDecorator::CNullDecorator>::ms_kPool'', COMDAT
  00000	b9 00 00 00 00	 mov	 ecx, OFFSET ?ms_kPool@?$CPooledObject@VCNullDecorator@NEffectUpdateDecorator@@@@1V?$CDynamicPoolEx@VCNullDecorator@NEffectUpdateDecorator@@@@A ; CPooledObject<NEffectUpdateDecorator::CNullDecorator>::ms_kPool
  00005	e9 00 00 00 00	 jmp	 ??1?$CDynamicPoolEx@VCNullDecorator@NEffectUpdateDecorator@@@@UAE@XZ ; CDynamicPoolEx<NEffectUpdateDecorator::CNullDecorator>::~CDynamicPoolEx<NEffectUpdateDecorator::CNullDecorator>
??__F?ms_kPool@?$CPooledObject@VCNullDecorator@NEffectUpdateDecorator@@@@1V?$CDynamicPoolEx@VCNullDecorator@NEffectUpdateDecorator@@@@A@@YAXXZ ENDP ; `dynamic atexit destructor for 'CPooledObject<NEffectUpdateDecorator::CNullDecorator>::ms_kPool''
text$yd	ENDS
; Function compile flags: /Ogtp
; File C:\Users\ALEXANDER\Desktop\Cliente\COPY_FISH_WON_NEW\Binario\Client\eterLib\Pool.h
;	COMDAT ??__E?ms_kPool@?$CPooledObject@VCNullDecorator@NEffectUpdateDecorator@@@@1V?$CDynamicPoolEx@VCNullDecorator@NEffectUpdateDecorator@@@@A@@YAXXZ
text$di	SEGMENT
??__E?ms_kPool@?$CPooledObject@VCNullDecorator@NEffectUpdateDecorator@@@@1V?$CDynamicPoolEx@VCNullDecorator@NEffectUpdateDecorator@@@@A@@YAXXZ PROC ; `dynamic initializer for 'CPooledObject<NEffectUpdateDecorator::CNullDecorator>::ms_kPool'', COMDAT

; 272  : template <class T> CDynamicPoolEx<T> CPooledObject<T>::ms_kPool;

  00000	68 00 00 00 00	 push	 OFFSET ??__F?ms_kPool@?$CPooledObject@VCNullDecorator@NEffectUpdateDecorator@@@@1V?$CDynamicPoolEx@VCNullDecorator@NEffectUpdateDecorator@@@@A@@YAXXZ ; `dynamic atexit destructor for 'CPooledObject<NEffectUpdateDecorator::CNullDecorator>::ms_kPool''
  00005	e8 00 00 00 00	 call	 _atexit
  0000a	59		 pop	 ecx
  0000b	c3		 ret	 0
??__E?ms_kPool@?$CPooledObject@VCNullDecorator@NEffectUpdateDecorator@@@@1V?$CDynamicPoolEx@VCNullDecorator@NEffectUpdateDecorator@@@@A@@YAXXZ ENDP ; `dynamic initializer for 'CPooledObject<NEffectUpdateDecorator::CNullDecorator>::ms_kPool''
text$di	ENDS
; Function compile flags: /Ogtp
;	COMDAT ??__F?ms_kPool@?$CPooledObject@VCHeaderDecorator@NEffectUpdateDecorator@@@@1V?$CDynamicPoolEx@VCHeaderDecorator@NEffectUpdateDecorator@@@@A@@YAXXZ
text$yd	SEGMENT
??__F?ms_kPool@?$CPooledObject@VCHeaderDecorator@NEffectUpdateDecorator@@@@1V?$CDynamicPoolEx@VCHeaderDecorator@NEffectUpdateDecorator@@@@A@@YAXXZ PROC ; `dynamic atexit destructor for 'CPooledObject<NEffectUpdateDecorator::CHeaderDecorator>::ms_kPool'', COMDAT
  00000	b9 00 00 00 00	 mov	 ecx, OFFSET ?ms_kPool@?$CPooledObject@VCHeaderDecorator@NEffectUpdateDecorator@@@@1V?$CDynamicPoolEx@VCHeaderDecorator@NEffectUpdateDecorator@@@@A ; CPooledObject<NEffectUpdateDecorator::CHeaderDecorator>::ms_kPool
  00005	e9 00 00 00 00	 jmp	 ??1?$CDynamicPoolEx@VCHeaderDecorator@NEffectUpdateDecorator@@@@UAE@XZ ; CDynamicPoolEx<NEffectUpdateDecorator::CHeaderDecorator>::~CDynamicPoolEx<NEffectUpdateDecorator::CHeaderDecorator>
??__F?ms_kPool@?$CPooledObject@VCHeaderDecorator@NEffectUpdateDecorator@@@@1V?$CDynamicPoolEx@VCHeaderDecorator@NEffectUpdateDecorator@@@@A@@YAXXZ ENDP ; `dynamic atexit destructor for 'CPooledObject<NEffectUpdateDecorator::CHeaderDecorator>::ms_kPool''
text$yd	ENDS
; Function compile flags: /Ogtp
; File C:\Users\ALEXANDER\Desktop\Cliente\COPY_FISH_WON_NEW\Binario\Client\eterLib\Pool.h
;	COMDAT ??__E?ms_kPool@?$CPooledObject@VCHeaderDecorator@NEffectUpdateDecorator@@@@1V?$CDynamicPoolEx@VCHeaderDecorator@NEffectUpdateDecorator@@@@A@@YAXXZ
text$di	SEGMENT
??__E?ms_kPool@?$CPooledObject@VCHeaderDecorator@NEffectUpdateDecorator@@@@1V?$CDynamicPoolEx@VCHeaderDecorator@NEffectUpdateDecorator@@@@A@@YAXXZ PROC ; `dynamic initializer for 'CPooledObject<NEffectUpdateDecorator::CHeaderDecorator>::ms_kPool'', COMDAT

; 272  : template <class T> CDynamicPoolEx<T> CPooledObject<T>::ms_kPool;

  00000	68 00 00 00 00	 push	 OFFSET ??__F?ms_kPool@?$CPooledObject@VCHeaderDecorator@NEffectUpdateDecorator@@@@1V?$CDynamicPoolEx@VCHeaderDecorator@NEffectUpdateDecorator@@@@A@@YAXXZ ; `dynamic atexit destructor for 'CPooledObject<NEffectUpdateDecorator::CHeaderDecorator>::ms_kPool''
  00005	e8 00 00 00 00	 call	 _atexit
  0000a	59		 pop	 ecx
  0000b	c3		 ret	 0
??__E?ms_kPool@?$CPooledObject@VCHeaderDecorator@NEffectUpdateDecorator@@@@1V?$CDynamicPoolEx@VCHeaderDecorator@NEffectUpdateDecorator@@@@A@@YAXXZ ENDP ; `dynamic initializer for 'CPooledObject<NEffectUpdateDecorator::CHeaderDecorator>::ms_kPool''
text$di	ENDS
; Function compile flags: /Ogtp
; File D:\visual studio 2019\visual studio 2019\VC\Tools\MSVC\14.29.30133\include\vector
; File D:\visual studio 2019\visual studio 2019\VC\Tools\MSVC\14.29.30133\include\xmemory
; File D:\visual studio 2019\visual studio 2019\VC\Tools\MSVC\14.29.30133\include\vector
; File D:\visual studio 2019\visual studio 2019\VC\Tools\MSVC\14.29.30133\include\xmemory
; File D:\visual studio 2019\visual studio 2019\VC\Tools\MSVC\14.29.30133\include\vector
; File D:\visual studio 2019\visual studio 2019\VC\Tools\MSVC\14.29.30133\include\xmemory
; File D:\visual studio 2019\visual studio 2019\VC\Tools\MSVC\14.29.30133\include\vector
; File D:\visual studio 2019\visual studio 2019\VC\Tools\MSVC\14.29.30133\include\xmemory
; File D:\visual studio 2019\visual studio 2019\VC\Tools\MSVC\14.29.30133\include\vector
; File D:\visual studio 2019\visual studio 2019\VC\Tools\MSVC\14.29.30133\include\xmemory
; File D:\visual studio 2019\visual studio 2019\VC\Tools\MSVC\14.29.30133\include\vector
; File D:\visual studio 2019\visual studio 2019\VC\Tools\MSVC\14.29.30133\include\xmemory
; File D:\visual studio 2019\visual studio 2019\VC\Tools\MSVC\14.29.30133\include\vector
; File D:\visual studio 2019\visual studio 2019\VC\Tools\MSVC\14.29.30133\include\xmemory
; File D:\visual studio 2019\visual studio 2019\VC\Tools\MSVC\14.29.30133\include\vector
; File D:\visual studio 2019\visual studio 2019\VC\Tools\MSVC\14.29.30133\include\xmemory
; File D:\visual studio 2019\visual studio 2019\VC\Tools\MSVC\14.29.30133\include\vector
; File D:\visual studio 2019\visual studio 2019\VC\Tools\MSVC\14.29.30133\include\xmemory
; File D:\visual studio 2019\visual studio 2019\VC\Tools\MSVC\14.29.30133\include\vector
;	COMDAT ??$_Emplace_reallocate@ABQAVCEffectInstance@@@?$vector@PAVCEffectInstance@@V?$allocator@PAVCEffectInstance@@@std@@@std@@QAEPAPAVCEffectInstance@@QAPAV2@ABQAV2@@Z
_TEXT	SEGMENT
__Newsize$1$ = -8					; size = 4
tv641 = -4						; size = 4
__Whereoff$1$ = -4					; size = 4
__Whereptr$ = 8						; size = 4
_<_Val_0>$ = 12						; size = 4
??$_Emplace_reallocate@ABQAVCEffectInstance@@@?$vector@PAVCEffectInstance@@V?$allocator@PAVCEffectInstance@@@std@@@std@@QAEPAPAVCEffectInstance@@QAPAV2@ABQAV2@@Z PROC ; std::vector<CEffectInstance *,std::allocator<CEffectInstance *> >::_Emplace_reallocate<CEffectInstance * const &>, COMDAT
; _this$ = ecx

; 752  :     _CONSTEXPR20_CONTAINER pointer _Emplace_reallocate(const pointer _Whereptr, _Valty&&... _Val) {

  00000	55		 push	 ebp
  00001	8b ec		 mov	 ebp, esp
  00003	83 ec 08	 sub	 esp, 8

; 753  :         // reallocate and insert by perfectly forwarding _Val at _Whereptr
; 754  :         _Alty& _Al        = _Getal();
; 755  :         auto& _My_data    = _Mypair._Myval2;
; 756  :         pointer& _Myfirst = _My_data._Myfirst;
; 757  :         pointer& _Mylast  = _My_data._Mylast;
; 758  : 
; 759  :         _STL_INTERNAL_CHECK(_Mylast == _My_data._Myend); // check that we have no unused capacity
; 760  : 
; 761  :         const auto _Whereoff = static_cast<size_type>(_Whereptr - _Myfirst);

  00006	8b 45 08	 mov	 eax, DWORD PTR __Whereptr$[ebp]
  00009	53		 push	 ebx
  0000a	56		 push	 esi
  0000b	8b f1		 mov	 esi, ecx
  0000d	57		 push	 edi
  0000e	8b 0e		 mov	 ecx, DWORD PTR [esi]
  00010	2b c1		 sub	 eax, ecx
  00012	c1 f8 02	 sar	 eax, 2
  00015	89 45 fc	 mov	 DWORD PTR __Whereoff$1$[ebp], eax

; 762  :         const auto _Oldsize  = static_cast<size_type>(_Mylast - _Myfirst);

  00018	8b 46 04	 mov	 eax, DWORD PTR [esi+4]
  0001b	2b c1		 sub	 eax, ecx
  0001d	c1 f8 02	 sar	 eax, 2

; 763  : 
; 764  :         if (_Oldsize == max_size()) {

  00020	3d ff ff ff 3f	 cmp	 eax, 1073741823		; 3fffffffH
  00025	0f 84 06 01 00
	00		 je	 $LN96@Emplace_re

; 1546 :         return static_cast<size_type>(_My_data._Myend - _My_data._Myfirst);

  0002b	8b 56 08	 mov	 edx, DWORD PTR [esi+8]

; 766  :         }
; 767  : 
; 768  :         const size_type _Newsize     = _Oldsize + 1;

  0002e	8d 78 01	 lea	 edi, DWORD PTR [eax+1]

; 1546 :         return static_cast<size_type>(_My_data._Myend - _My_data._Myfirst);

  00031	2b d1		 sub	 edx, ecx

; 766  :         }
; 767  : 
; 768  :         const size_type _Newsize     = _Oldsize + 1;

  00033	89 7d f8	 mov	 DWORD PTR __Newsize$1$[ebp], edi

; 1546 :         return static_cast<size_type>(_My_data._Myend - _My_data._Myfirst);

  00036	c1 fa 02	 sar	 edx, 2

; 1675 :         if (_Oldcapacity > _Max - _Oldcapacity / 2) {

  00039	b8 ff ff ff 3f	 mov	 eax, 1073741823		; 3fffffffH
  0003e	8b ca		 mov	 ecx, edx
  00040	d1 e9		 shr	 ecx, 1
  00042	2b c1		 sub	 eax, ecx
  00044	3b d0		 cmp	 edx, eax
  00046	76 12		 jbe	 SHORT $LN12@Emplace_re

; 1676 :             return _Max; // geometric growth would overflow

  00048	bb fc ff ff ff	 mov	 ebx, -4			; fffffffcH
; File D:\visual studio 2019\visual studio 2019\VC\Tools\MSVC\14.29.30133\include\xmemory

; 229  :             return _Allocate_manually_vector_aligned<_Traits>(_Bytes);

  0004d	53		 push	 ebx
  0004e	e8 00 00 00 00	 call	 ??$_Allocate_manually_vector_aligned@U_Default_allocate_traits@std@@@std@@YAPAXI@Z ; std::_Allocate_manually_vector_aligned<std::_Default_allocate_traits>
  00053	83 c4 04	 add	 esp, 4
  00056	8b f8		 mov	 edi, eax
  00058	eb 41		 jmp	 SHORT $LN23@Emplace_re
$LN12@Emplace_re:
; File D:\visual studio 2019\visual studio 2019\VC\Tools\MSVC\14.29.30133\include\vector

; 1679 :         const size_type _Geometric = _Oldcapacity + _Oldcapacity / 2;

  0005a	8d 04 11	 lea	 eax, DWORD PTR [ecx+edx]
; File D:\visual studio 2019\visual studio 2019\VC\Tools\MSVC\14.29.30133\include\xmemory

; 60   :         if (_Count > _Max_possible) {

  0005d	8b df		 mov	 ebx, edi
  0005f	3b c7		 cmp	 eax, edi
  00061	0f 43 d8	 cmovae	 ebx, eax
  00064	81 fb ff ff ff
	3f		 cmp	 ebx, 1073741823		; 3fffffffH
  0006a	0f 87 c6 00 00
	00		 ja	 $LN97@Emplace_re

; 62   :         }
; 63   :     }
; 64   : 
; 65   :     return _Count * _Ty_size;

  00070	c1 e3 02	 shl	 ebx, 2

; 228  :         if (_Bytes >= _Big_allocation_threshold) { // boost the alignment of big allocations to help autovectorization

  00073	81 fb 00 10 00
	00		 cmp	 ebx, 4096		; 00001000H
  00079	72 0d		 jb	 SHORT $LN24@Emplace_re

; 229  :             return _Allocate_manually_vector_aligned<_Traits>(_Bytes);

  0007b	53		 push	 ebx
  0007c	e8 00 00 00 00	 call	 ??$_Allocate_manually_vector_aligned@U_Default_allocate_traits@std@@@std@@YAPAXI@Z ; std::_Allocate_manually_vector_aligned<std::_Default_allocate_traits>
  00081	83 c4 04	 add	 esp, 4
  00084	8b f8		 mov	 edi, eax
  00086	eb 13		 jmp	 SHORT $LN23@Emplace_re
$LN24@Emplace_re:

; 230  :         }
; 231  :     }
; 232  : #endif // defined(_M_IX86) || defined(_M_X64)
; 233  : 
; 234  :     if (_Bytes != 0) {

  00088	85 db		 test	 ebx, ebx
  0008a	74 0d		 je	 SHORT $LN25@Emplace_re

; 79   :         return ::operator new(_Bytes);

  0008c	53		 push	 ebx
  0008d	e8 00 00 00 00	 call	 ??2@YAPAXI@Z		; operator new
  00092	83 c4 04	 add	 esp, 4

; 235  :         return _Traits::_Allocate(_Bytes);

  00095	8b f8		 mov	 edi, eax
  00097	eb 02		 jmp	 SHORT $LN23@Emplace_re
$LN25@Emplace_re:

; 236  :     }
; 237  : 
; 238  :     return nullptr;

  00099	33 ff		 xor	 edi, edi
$LN23@Emplace_re:
; File D:\visual studio 2019\visual studio 2019\VC\Tools\MSVC\14.29.30133\include\vector

; 776  :         _Alty_traits::construct(_Al, _Unfancy(_Newvec + _Whereoff), _STD forward<_Valty>(_Val)...);

  0009b	8b 45 fc	 mov	 eax, DWORD PTR __Whereoff$1$[ebp]
  0009e	8d 0c 87	 lea	 ecx, DWORD PTR [edi+eax*4]
  000a1	8b 45 0c	 mov	 eax, DWORD PTR _<_Val_0>$[ebp]
  000a4	89 4d fc	 mov	 DWORD PTR tv641[ebp], ecx
  000a7	8b 00		 mov	 eax, DWORD PTR [eax]
  000a9	89 01		 mov	 DWORD PTR [ecx], eax

; 777  :         _Constructed_first = _Newvec + _Whereoff;
; 778  : 
; 779  :         if (_Whereptr == _Mylast) { // at back, provide strong guarantee

  000ab	8b 4e 04	 mov	 ecx, DWORD PTR [esi+4]
  000ae	8b 45 08	 mov	 eax, DWORD PTR __Whereptr$[ebp]
  000b1	8b 16		 mov	 edx, DWORD PTR [esi]
  000b3	3b c1		 cmp	 eax, ecx
  000b5	75 04		 jne	 SHORT $LN4@Emplace_re
; File D:\visual studio 2019\visual studio 2019\VC\Tools\MSVC\14.29.30133\include\xmemory

; 1711 :             _Copy_memmove(_UFirst, _ULast, _Unfancy(_Dest));

  000b7	8b c7		 mov	 eax, edi
; File D:\visual studio 2019\visual studio 2019\VC\Tools\MSVC\14.29.30133\include\vector

; 781  :         } else { // provide basic guarantee

  000b9	eb 17		 jmp	 SHORT $LN60@Emplace_re
$LN4@Emplace_re:
; File D:\visual studio 2019\visual studio 2019\VC\Tools\MSVC\14.29.30133\include\xmemory

; 1711 :             _Copy_memmove(_UFirst, _ULast, _Unfancy(_Dest));

  000bb	57		 push	 edi
  000bc	50		 push	 eax
  000bd	52		 push	 edx
  000be	e8 00 00 00 00	 call	 ??$_Copy_memmove@PAPAVCEffectInstance@@PAPAV1@@std@@YAPAPAVCEffectInstance@@PAPAV1@00@Z ; std::_Copy_memmove<CEffectInstance * *,CEffectInstance * *>
; File D:\visual studio 2019\visual studio 2019\VC\Tools\MSVC\14.29.30133\include\vector

; 784  :             _Umove(_Whereptr, _Mylast, _Newvec + _Whereoff + 1);

  000c3	8b 45 fc	 mov	 eax, DWORD PTR tv641[ebp]
; File D:\visual studio 2019\visual studio 2019\VC\Tools\MSVC\14.29.30133\include\xmemory

; 1711 :             _Copy_memmove(_UFirst, _ULast, _Unfancy(_Dest));

  000c6	83 c4 0c	 add	 esp, 12			; 0000000cH
  000c9	8b 55 08	 mov	 edx, DWORD PTR __Whereptr$[ebp]
; File D:\visual studio 2019\visual studio 2019\VC\Tools\MSVC\14.29.30133\include\vector

; 784  :             _Umove(_Whereptr, _Mylast, _Newvec + _Whereoff + 1);

  000cc	83 c0 04	 add	 eax, 4
; File D:\visual studio 2019\visual studio 2019\VC\Tools\MSVC\14.29.30133\include\xmemory

; 1711 :             _Copy_memmove(_UFirst, _ULast, _Unfancy(_Dest));

  000cf	8b 4e 04	 mov	 ecx, DWORD PTR [esi+4]
$LN60@Emplace_re:
; File D:\visual studio 2019\visual studio 2019\VC\Tools\MSVC\14.29.30133\include\vector

; 784  :             _Umove(_Whereptr, _Mylast, _Newvec + _Whereoff + 1);

  000d2	50		 push	 eax
  000d3	51		 push	 ecx
  000d4	52		 push	 edx
  000d5	e8 00 00 00 00	 call	 ??$_Copy_memmove@PAPAVCEffectInstance@@PAPAV1@@std@@YAPAPAVCEffectInstance@@PAPAV1@00@Z ; std::_Copy_memmove<CEffectInstance * *,CEffectInstance * *>

; 1732 :         if (_Myfirst) { // destroy and deallocate old array

  000da	8b 06		 mov	 eax, DWORD PTR [esi]

; 784  :             _Umove(_Whereptr, _Mylast, _Newvec + _Whereoff + 1);

  000dc	83 c4 0c	 add	 esp, 12			; 0000000cH

; 1732 :         if (_Myfirst) { // destroy and deallocate old array

  000df	85 c0		 test	 eax, eax
  000e1	74 2c		 je	 SHORT $LN78@Emplace_re

; 1733 :             _Destroy(_Myfirst, _Mylast);
; 1734 :             _Getal().deallocate(_Myfirst, static_cast<size_type>(_Myend - _Myfirst));

  000e3	8b 4e 08	 mov	 ecx, DWORD PTR [esi+8]
  000e6	2b c8		 sub	 ecx, eax
; File D:\visual studio 2019\visual studio 2019\VC\Tools\MSVC\14.29.30133\include\xmemory

; 797  :         _Deallocate<_New_alignof<_Ty>>(_Ptr, sizeof(_Ty) * _Count);

  000e8	83 e1 fc	 and	 ecx, -4			; fffffffcH

; 251  :         if (_Bytes >= _Big_allocation_threshold) { // boost the alignment of big allocations to help autovectorization

  000eb	81 f9 00 10 00
	00		 cmp	 ecx, 4096		; 00001000H
  000f1	72 12		 jb	 SHORT $LN88@Emplace_re

; 150  :     const uintptr_t _Ptr_container   = _Ptr_user[-1];

  000f3	8b 50 fc	 mov	 edx, DWORD PTR [eax-4]
  000f6	83 c1 23	 add	 ecx, 35			; 00000023H

; 151  : 
; 152  :     // If the following asserts, it likely means that we are performing
; 153  :     // an aligned delete on memory coming from an unaligned allocation.
; 154  :     _STL_ASSERT(_Ptr_user[-2] == _Big_allocation_sentinel, "invalid argument");
; 155  : 
; 156  :     // Extra paranoia on aligned allocation/deallocation; ensure _Ptr_container is
; 157  :     // in range [_Min_back_shift, _Non_user_size]
; 158  : #ifdef _DEBUG
; 159  :     constexpr uintptr_t _Min_back_shift = 2 * sizeof(void*);
; 160  : #else // ^^^ _DEBUG ^^^ // vvv !_DEBUG vvv
; 161  :     constexpr uintptr_t _Min_back_shift = sizeof(void*);
; 162  : #endif // _DEBUG
; 163  :     const uintptr_t _Back_shift = reinterpret_cast<uintptr_t>(_Ptr) - _Ptr_container;

  000f9	2b c2		 sub	 eax, edx

; 164  :     _STL_VERIFY(_Back_shift >= _Min_back_shift && _Back_shift <= _Non_user_size, "invalid argument");

  000fb	83 c0 fc	 add	 eax, -4			; fffffffcH
  000fe	83 f8 1f	 cmp	 eax, 31			; 0000001fH
  00101	77 29		 ja	 SHORT $LN85@Emplace_re

; 165  :     _Ptr = reinterpret_cast<void*>(_Ptr_container);

  00103	8b c2		 mov	 eax, edx
$LN88@Emplace_re:

; 255  :         ::operator delete(_Ptr, _Bytes);

  00105	51		 push	 ecx
  00106	50		 push	 eax
  00107	e8 00 00 00 00	 call	 ??3@YAXPAXI@Z		; operator delete
  0010c	83 c4 08	 add	 esp, 8
$LN78@Emplace_re:
; File D:\visual studio 2019\visual studio 2019\VC\Tools\MSVC\14.29.30133\include\vector

; 1738 :         _Mylast  = _Newvec + _Newsize;

  0010f	8b 45 f8	 mov	 eax, DWORD PTR __Newsize$1$[ebp]
  00112	89 3e		 mov	 DWORD PTR [esi], edi
  00114	8d 0c 87	 lea	 ecx, DWORD PTR [edi+eax*4]

; 785  :         }
; 786  :         _CATCH_ALL
; 787  :         _Destroy(_Constructed_first, _Constructed_last);
; 788  :         _Al.deallocate(_Newvec, _Newcapacity);
; 789  :         _RERAISE;
; 790  :         _CATCH_END
; 791  : 
; 792  :         _Change_array(_Newvec, _Newsize, _Newcapacity);
; 793  :         return _Newvec + _Whereoff;

  00117	8b 45 fc	 mov	 eax, DWORD PTR tv641[ebp]

; 1738 :         _Mylast  = _Newvec + _Newsize;

  0011a	89 4e 04	 mov	 DWORD PTR [esi+4], ecx

; 1739 :         _Myend   = _Newvec + _Newcapacity;

  0011d	8d 0c 3b	 lea	 ecx, DWORD PTR [ebx+edi]

; 785  :         }
; 786  :         _CATCH_ALL
; 787  :         _Destroy(_Constructed_first, _Constructed_last);
; 788  :         _Al.deallocate(_Newvec, _Newcapacity);
; 789  :         _RERAISE;
; 790  :         _CATCH_END
; 791  : 
; 792  :         _Change_array(_Newvec, _Newsize, _Newcapacity);
; 793  :         return _Newvec + _Whereoff;

  00120	5f		 pop	 edi

; 1739 :         _Myend   = _Newvec + _Newcapacity;

  00121	89 4e 08	 mov	 DWORD PTR [esi+8], ecx

; 785  :         }
; 786  :         _CATCH_ALL
; 787  :         _Destroy(_Constructed_first, _Constructed_last);
; 788  :         _Al.deallocate(_Newvec, _Newcapacity);
; 789  :         _RERAISE;
; 790  :         _CATCH_END
; 791  : 
; 792  :         _Change_array(_Newvec, _Newsize, _Newcapacity);
; 793  :         return _Newvec + _Whereoff;

  00124	5e		 pop	 esi
  00125	5b		 pop	 ebx

; 794  :     }

  00126	8b e5		 mov	 esp, ebp
  00128	5d		 pop	 ebp
  00129	c2 08 00	 ret	 8
$LN85@Emplace_re:
; File D:\visual studio 2019\visual studio 2019\VC\Tools\MSVC\14.29.30133\include\xmemory

; 164  :     _STL_VERIFY(_Back_shift >= _Min_back_shift && _Back_shift <= _Non_user_size, "invalid argument");

  0012c	e8 00 00 00 00	 call	 __invalid_parameter_noinfo_noreturn
$LN96@Emplace_re:
; File D:\visual studio 2019\visual studio 2019\VC\Tools\MSVC\14.29.30133\include\vector

; 765  :             _Xlength();

  00131	e8 00 00 00 00	 call	 ?_Xlength@?$vector@PAVCEffectInstance@@V?$allocator@PAVCEffectInstance@@@std@@@std@@CAXXZ ; std::vector<CEffectInstance *,std::allocator<CEffectInstance *> >::_Xlength
$LN97@Emplace_re:
; File D:\visual studio 2019\visual studio 2019\VC\Tools\MSVC\14.29.30133\include\xmemory

; 61   :             _Throw_bad_array_new_length(); // multiply overflow

  00136	e8 00 00 00 00	 call	 ?_Throw_bad_array_new_length@std@@YAXXZ ; std::_Throw_bad_array_new_length
$LN94@Emplace_re:
  0013b	cc		 int	 3
??$_Emplace_reallocate@ABQAVCEffectInstance@@@?$vector@PAVCEffectInstance@@V?$allocator@PAVCEffectInstance@@@std@@@std@@QAEPAPAVCEffectInstance@@QAPAV2@ABQAV2@@Z ENDP ; std::vector<CEffectInstance *,std::allocator<CEffectInstance *> >::_Emplace_reallocate<CEffectInstance * const &>
_TEXT	ENDS
; Function compile flags: /Ogtp
;	COMDAT ??_G?$CDynamicPoolEx@VCHeaderDecorator@NEffectUpdateDecorator@@@@UAEPAXI@Z
_TEXT	SEGMENT
___flags$ = 8						; size = 4
??_G?$CDynamicPoolEx@VCHeaderDecorator@NEffectUpdateDecorator@@@@UAEPAXI@Z PROC ; CDynamicPoolEx<NEffectUpdateDecorator::CHeaderDecorator>::`scalar deleting destructor', COMDAT
; _this$ = ecx
  00000	55		 push	 ebp
  00001	8b ec		 mov	 ebp, esp
  00003	56		 push	 esi
  00004	8b f1		 mov	 esi, ecx
  00006	e8 00 00 00 00	 call	 ??1?$CDynamicPoolEx@VCHeaderDecorator@NEffectUpdateDecorator@@@@UAE@XZ ; CDynamicPoolEx<NEffectUpdateDecorator::CHeaderDecorator>::~CDynamicPoolEx<NEffectUpdateDecorator::CHeaderDecorator>
  0000b	f6 45 08 01	 test	 BYTE PTR ___flags$[ebp], 1
  0000f	74 0b		 je	 SHORT $LN4@scalar
  00011	6a 24		 push	 36			; 00000024H
  00013	56		 push	 esi
  00014	e8 00 00 00 00	 call	 ??3@YAXPAXI@Z		; operator delete
  00019	83 c4 08	 add	 esp, 8
$LN4@scalar:
  0001c	8b c6		 mov	 eax, esi
  0001e	5e		 pop	 esi
  0001f	5d		 pop	 ebp
  00020	c2 04 00	 ret	 4
??_G?$CDynamicPoolEx@VCHeaderDecorator@NEffectUpdateDecorator@@@@UAEPAXI@Z ENDP ; CDynamicPoolEx<NEffectUpdateDecorator::CHeaderDecorator>::`scalar deleting destructor'
_TEXT	ENDS
; Function compile flags: /Ogtp
; File C:\Users\ALEXANDER\Desktop\Cliente\COPY_FISH_WON_NEW\Binario\Client\eterLib\Pool.h
;	COMDAT ?Delete@?$CDynamicPoolEx@VCHeaderDecorator@NEffectUpdateDecorator@@@@KAXPAVCHeaderDecorator@NEffectUpdateDecorator@@@Z
_TEXT	SEGMENT
_pkData$ = 8						; size = 4
?Delete@?$CDynamicPoolEx@VCHeaderDecorator@NEffectUpdateDecorator@@@@KAXPAVCHeaderDecorator@NEffectUpdateDecorator@@@Z PROC ; CDynamicPoolEx<NEffectUpdateDecorator::CHeaderDecorator>::Delete, COMDAT

; 224  : 			::operator delete(pkData);

  00000	e9 00 00 00 00	 jmp	 ??3@YAXPAX@Z		; operator delete
?Delete@?$CDynamicPoolEx@VCHeaderDecorator@NEffectUpdateDecorator@@@@KAXPAVCHeaderDecorator@NEffectUpdateDecorator@@@Z ENDP ; CDynamicPoolEx<NEffectUpdateDecorator::CHeaderDecorator>::Delete
_TEXT	ENDS
; Function compile flags: /Ogtp
; File C:\Users\ALEXANDER\Desktop\Cliente\COPY_FISH_WON_NEW\Binario\Client\eterLib\Pool.h
; File D:\visual studio 2019\visual studio 2019\VC\Tools\MSVC\14.29.30133\include\vector
; File D:\visual studio 2019\visual studio 2019\VC\Tools\MSVC\14.29.30133\include\algorithm
; File C:\Users\ALEXANDER\Desktop\Cliente\COPY_FISH_WON_NEW\Binario\Client\eterLib\Pool.h
; File D:\visual studio 2019\visual studio 2019\VC\Tools\MSVC\14.29.30133\include\algorithm
; File C:\Users\ALEXANDER\Desktop\Cliente\COPY_FISH_WON_NEW\Binario\Client\eterLib\Pool.h
; File D:\visual studio 2019\visual studio 2019\VC\Tools\MSVC\14.29.30133\include\algorithm
; File C:\Users\ALEXANDER\Desktop\Cliente\COPY_FISH_WON_NEW\Binario\Client\eterLib\Pool.h
; File D:\visual studio 2019\visual studio 2019\VC\Tools\MSVC\14.29.30133\include\vector
; File D:\visual studio 2019\visual studio 2019\VC\Tools\MSVC\14.29.30133\include\xmemory
; File D:\visual studio 2019\visual studio 2019\VC\Tools\MSVC\14.29.30133\include\vector
; File D:\visual studio 2019\visual studio 2019\VC\Tools\MSVC\14.29.30133\include\xmemory
; File D:\visual studio 2019\visual studio 2019\VC\Tools\MSVC\14.29.30133\include\vector
; File D:\visual studio 2019\visual studio 2019\VC\Tools\MSVC\14.29.30133\include\xmemory
; File D:\visual studio 2019\visual studio 2019\VC\Tools\MSVC\14.29.30133\include\vector
; File D:\visual studio 2019\visual studio 2019\VC\Tools\MSVC\14.29.30133\include\xmemory
; File D:\visual studio 2019\visual studio 2019\VC\Tools\MSVC\14.29.30133\include\vector
; File C:\Users\ALEXANDER\Desktop\Cliente\COPY_FISH_WON_NEW\Binario\Client\eterLib\Pool.h
; File D:\visual studio 2019\visual studio 2019\VC\Tools\MSVC\14.29.30133\include\xmemory
; File C:\Users\ALEXANDER\Desktop\Cliente\COPY_FISH_WON_NEW\Binario\Client\eterLib\Pool.h
;	COMDAT ??1?$CDynamicPoolEx@VCHeaderDecorator@NEffectUpdateDecorator@@@@UAE@XZ
_TEXT	SEGMENT
??1?$CDynamicPoolEx@VCHeaderDecorator@NEffectUpdateDecorator@@@@UAE@XZ PROC ; CDynamicPoolEx<NEffectUpdateDecorator::CHeaderDecorator>::~CDynamicPoolEx<NEffectUpdateDecorator::CHeaderDecorator>, COMDAT
; _this$ = ecx

; 132  : 		{

  00000	53		 push	 ebx
  00001	56		 push	 esi
  00002	57		 push	 edi
  00003	8b f9		 mov	 edi, ecx
  00005	c7 07 00 00 00
	00		 mov	 DWORD PTR [edi], OFFSET ??_7?$CDynamicPoolEx@VCHeaderDecorator@NEffectUpdateDecorator@@@@6B@
; File D:\visual studio 2019\visual studio 2019\VC\Tools\MSVC\14.29.30133\include\vector

; 41   :     _CONSTEXPR20_CONTAINER _Vector_const_iterator(_Tptr _Parg, const _Container_base* _Pvector) noexcept : _Ptr(_Parg) {

  0000b	8b 5f 08	 mov	 ebx, DWORD PTR [edi+8]
  0000e	8b 77 04	 mov	 esi, DWORD PTR [edi+4]
; File D:\visual studio 2019\visual studio 2019\VC\Tools\MSVC\14.29.30133\include\algorithm

; 232  :     for (; _UFirst != _ULast; ++_UFirst) {

  00011	3b f3		 cmp	 esi, ebx
  00013	74 14		 je	 SHORT $LN19@CDynamicPo
$LL20@CDynamicPo:
; File C:\Users\ALEXANDER\Desktop\Cliente\COPY_FISH_WON_NEW\Binario\Client\eterLib\Pool.h

; 224  : 			::operator delete(pkData);

  00015	ff 36		 push	 DWORD PTR [esi]
  00017	e8 00 00 00 00	 call	 ??3@YAXPAX@Z		; operator delete
; File D:\visual studio 2019\visual studio 2019\VC\Tools\MSVC\14.29.30133\include\algorithm

; 232  :     for (; _UFirst != _ULast; ++_UFirst) {

  0001c	83 c6 04	 add	 esi, 4
; File C:\Users\ALEXANDER\Desktop\Cliente\COPY_FISH_WON_NEW\Binario\Client\eterLib\Pool.h

; 224  : 			::operator delete(pkData);

  0001f	83 c4 04	 add	 esp, 4
; File D:\visual studio 2019\visual studio 2019\VC\Tools\MSVC\14.29.30133\include\algorithm

; 232  :     for (; _UFirst != _ULast; ++_UFirst) {

  00022	3b f3		 cmp	 esi, ebx
  00024	75 ef		 jne	 SHORT $LL20@CDynamicPo
  00026	8b 77 04	 mov	 esi, DWORD PTR [edi+4]
$LN19@CDynamicPo:
; File C:\Users\ALEXANDER\Desktop\Cliente\COPY_FISH_WON_NEW\Binario\Client\eterLib\Pool.h

; 162  : 			m_kVct_pkFree.clear();

  00029	8b 47 10	 mov	 eax, DWORD PTR [edi+16]
  0002c	89 77 08	 mov	 DWORD PTR [edi+8], esi
  0002f	89 47 14	 mov	 DWORD PTR [edi+20], eax
; File D:\visual studio 2019\visual studio 2019\VC\Tools\MSVC\14.29.30133\include\vector

; 1750 :         if (_Myfirst) { // destroy and deallocate old array

  00032	85 c0		 test	 eax, eax
  00034	74 41		 je	 SHORT $LN27@CDynamicPo

; 1751 :             _Destroy(_Myfirst, _Mylast);
; 1752 :             _Getal().deallocate(_Myfirst, static_cast<size_type>(_Myend - _Myfirst));

  00036	8b 4f 18	 mov	 ecx, DWORD PTR [edi+24]
  00039	2b c8		 sub	 ecx, eax
; File D:\visual studio 2019\visual studio 2019\VC\Tools\MSVC\14.29.30133\include\xmemory

; 797  :         _Deallocate<_New_alignof<_Ty>>(_Ptr, sizeof(_Ty) * _Count);

  0003b	83 e1 fc	 and	 ecx, -4			; fffffffcH

; 251  :         if (_Bytes >= _Big_allocation_threshold) { // boost the alignment of big allocations to help autovectorization

  0003e	81 f9 00 10 00
	00		 cmp	 ecx, 4096		; 00001000H
  00044	72 12		 jb	 SHORT $LN43@CDynamicPo

; 150  :     const uintptr_t _Ptr_container   = _Ptr_user[-1];

  00046	8b 50 fc	 mov	 edx, DWORD PTR [eax-4]
  00049	83 c1 23	 add	 ecx, 35			; 00000023H

; 151  : 
; 152  :     // If the following asserts, it likely means that we are performing
; 153  :     // an aligned delete on memory coming from an unaligned allocation.
; 154  :     _STL_ASSERT(_Ptr_user[-2] == _Big_allocation_sentinel, "invalid argument");
; 155  : 
; 156  :     // Extra paranoia on aligned allocation/deallocation; ensure _Ptr_container is
; 157  :     // in range [_Min_back_shift, _Non_user_size]
; 158  : #ifdef _DEBUG
; 159  :     constexpr uintptr_t _Min_back_shift = 2 * sizeof(void*);
; 160  : #else // ^^^ _DEBUG ^^^ // vvv !_DEBUG vvv
; 161  :     constexpr uintptr_t _Min_back_shift = sizeof(void*);
; 162  : #endif // _DEBUG
; 163  :     const uintptr_t _Back_shift = reinterpret_cast<uintptr_t>(_Ptr) - _Ptr_container;

  0004c	2b c2		 sub	 eax, edx

; 164  :     _STL_VERIFY(_Back_shift >= _Min_back_shift && _Back_shift <= _Non_user_size, "invalid argument");

  0004e	83 c0 fc	 add	 eax, -4			; fffffffcH
  00051	83 f8 1f	 cmp	 eax, 31			; 0000001fH
  00054	77 6d		 ja	 SHORT $LN65@CDynamicPo

; 165  :     _Ptr = reinterpret_cast<void*>(_Ptr_container);

  00056	8b c2		 mov	 eax, edx
$LN43@CDynamicPo:

; 255  :         ::operator delete(_Ptr, _Bytes);

  00058	51		 push	 ecx
  00059	50		 push	 eax
  0005a	e8 00 00 00 00	 call	 ??3@YAXPAXI@Z		; operator delete
; File D:\visual studio 2019\visual studio 2019\VC\Tools\MSVC\14.29.30133\include\vector

; 1754 :             _Myfirst = nullptr;

  0005f	c7 47 10 00 00
	00 00		 mov	 DWORD PTR [edi+16], 0
; File D:\visual studio 2019\visual studio 2019\VC\Tools\MSVC\14.29.30133\include\xmemory

; 255  :         ::operator delete(_Ptr, _Bytes);

  00066	83 c4 08	 add	 esp, 8
; File D:\visual studio 2019\visual studio 2019\VC\Tools\MSVC\14.29.30133\include\vector

; 1755 :             _Mylast  = nullptr;

  00069	c7 47 14 00 00
	00 00		 mov	 DWORD PTR [edi+20], 0

; 1756 :             _Myend   = nullptr;

  00070	c7 47 18 00 00
	00 00		 mov	 DWORD PTR [edi+24], 0
$LN27@CDynamicPo:

; 1750 :         if (_Myfirst) { // destroy and deallocate old array

  00077	8b 47 04	 mov	 eax, DWORD PTR [edi+4]
  0007a	85 c0		 test	 eax, eax
  0007c	74 41		 je	 SHORT $LN52@CDynamicPo

; 1751 :             _Destroy(_Myfirst, _Mylast);
; 1752 :             _Getal().deallocate(_Myfirst, static_cast<size_type>(_Myend - _Myfirst));

  0007e	8b 4f 0c	 mov	 ecx, DWORD PTR [edi+12]
  00081	2b c8		 sub	 ecx, eax
; File D:\visual studio 2019\visual studio 2019\VC\Tools\MSVC\14.29.30133\include\xmemory

; 797  :         _Deallocate<_New_alignof<_Ty>>(_Ptr, sizeof(_Ty) * _Count);

  00083	83 e1 fc	 and	 ecx, -4			; fffffffcH

; 251  :         if (_Bytes >= _Big_allocation_threshold) { // boost the alignment of big allocations to help autovectorization

  00086	81 f9 00 10 00
	00		 cmp	 ecx, 4096		; 00001000H
  0008c	72 12		 jb	 SHORT $LN68@CDynamicPo

; 150  :     const uintptr_t _Ptr_container   = _Ptr_user[-1];

  0008e	8b 50 fc	 mov	 edx, DWORD PTR [eax-4]
  00091	83 c1 23	 add	 ecx, 35			; 00000023H

; 151  : 
; 152  :     // If the following asserts, it likely means that we are performing
; 153  :     // an aligned delete on memory coming from an unaligned allocation.
; 154  :     _STL_ASSERT(_Ptr_user[-2] == _Big_allocation_sentinel, "invalid argument");
; 155  : 
; 156  :     // Extra paranoia on aligned allocation/deallocation; ensure _Ptr_container is
; 157  :     // in range [_Min_back_shift, _Non_user_size]
; 158  : #ifdef _DEBUG
; 159  :     constexpr uintptr_t _Min_back_shift = 2 * sizeof(void*);
; 160  : #else // ^^^ _DEBUG ^^^ // vvv !_DEBUG vvv
; 161  :     constexpr uintptr_t _Min_back_shift = sizeof(void*);
; 162  : #endif // _DEBUG
; 163  :     const uintptr_t _Back_shift = reinterpret_cast<uintptr_t>(_Ptr) - _Ptr_container;

  00094	2b c2		 sub	 eax, edx

; 164  :     _STL_VERIFY(_Back_shift >= _Min_back_shift && _Back_shift <= _Non_user_size, "invalid argument");

  00096	83 c0 fc	 add	 eax, -4			; fffffffcH
  00099	83 f8 1f	 cmp	 eax, 31			; 0000001fH
  0009c	77 25		 ja	 SHORT $LN65@CDynamicPo

; 165  :     _Ptr = reinterpret_cast<void*>(_Ptr_container);

  0009e	8b c2		 mov	 eax, edx
$LN68@CDynamicPo:

; 255  :         ::operator delete(_Ptr, _Bytes);

  000a0	51		 push	 ecx
  000a1	50		 push	 eax
  000a2	e8 00 00 00 00	 call	 ??3@YAXPAXI@Z		; operator delete
; File D:\visual studio 2019\visual studio 2019\VC\Tools\MSVC\14.29.30133\include\vector

; 1754 :             _Myfirst = nullptr;

  000a7	c7 47 04 00 00
	00 00		 mov	 DWORD PTR [edi+4], 0
; File D:\visual studio 2019\visual studio 2019\VC\Tools\MSVC\14.29.30133\include\xmemory

; 255  :         ::operator delete(_Ptr, _Bytes);

  000ae	83 c4 08	 add	 esp, 8
; File D:\visual studio 2019\visual studio 2019\VC\Tools\MSVC\14.29.30133\include\vector

; 1755 :             _Mylast  = nullptr;

  000b1	c7 47 08 00 00
	00 00		 mov	 DWORD PTR [edi+8], 0

; 1756 :             _Myend   = nullptr;

  000b8	c7 47 0c 00 00
	00 00		 mov	 DWORD PTR [edi+12], 0
$LN52@CDynamicPo:
  000bf	5f		 pop	 edi
; File C:\Users\ALEXANDER\Desktop\Cliente\COPY_FISH_WON_NEW\Binario\Client\eterLib\Pool.h

; 142  : 		}

  000c0	5e		 pop	 esi
  000c1	5b		 pop	 ebx
  000c2	c3		 ret	 0
$LN65@CDynamicPo:
; File D:\visual studio 2019\visual studio 2019\VC\Tools\MSVC\14.29.30133\include\xmemory

; 164  :     _STL_VERIFY(_Back_shift >= _Min_back_shift && _Back_shift <= _Non_user_size, "invalid argument");

  000c3	e8 00 00 00 00	 call	 __invalid_parameter_noinfo_noreturn
$LN77@CDynamicPo:
  000c8	cc		 int	 3
??1?$CDynamicPoolEx@VCHeaderDecorator@NEffectUpdateDecorator@@@@UAE@XZ ENDP ; CDynamicPoolEx<NEffectUpdateDecorator::CHeaderDecorator>::~CDynamicPoolEx<NEffectUpdateDecorator::CHeaderDecorator>
_TEXT	ENDS
; Function compile flags: /Ogtp
;	COMDAT ??_G?$CDynamicPoolEx@VCNullDecorator@NEffectUpdateDecorator@@@@UAEPAXI@Z
_TEXT	SEGMENT
___flags$ = 8						; size = 4
??_G?$CDynamicPoolEx@VCNullDecorator@NEffectUpdateDecorator@@@@UAEPAXI@Z PROC ; CDynamicPoolEx<NEffectUpdateDecorator::CNullDecorator>::`scalar deleting destructor', COMDAT
; _this$ = ecx
  00000	55		 push	 ebp
  00001	8b ec		 mov	 ebp, esp
  00003	56		 push	 esi
  00004	8b f1		 mov	 esi, ecx
  00006	e8 00 00 00 00	 call	 ??1?$CDynamicPoolEx@VCNullDecorator@NEffectUpdateDecorator@@@@UAE@XZ ; CDynamicPoolEx<NEffectUpdateDecorator::CNullDecorator>::~CDynamicPoolEx<NEffectUpdateDecorator::CNullDecorator>
  0000b	f6 45 08 01	 test	 BYTE PTR ___flags$[ebp], 1
  0000f	74 0b		 je	 SHORT $LN4@scalar
  00011	6a 24		 push	 36			; 00000024H
  00013	56		 push	 esi
  00014	e8 00 00 00 00	 call	 ??3@YAXPAXI@Z		; operator delete
  00019	83 c4 08	 add	 esp, 8
$LN4@scalar:
  0001c	8b c6		 mov	 eax, esi
  0001e	5e		 pop	 esi
  0001f	5d		 pop	 ebp
  00020	c2 04 00	 ret	 4
??_G?$CDynamicPoolEx@VCNullDecorator@NEffectUpdateDecorator@@@@UAEPAXI@Z ENDP ; CDynamicPoolEx<NEffectUpdateDecorator::CNullDecorator>::`scalar deleting destructor'
_TEXT	ENDS
; Function compile flags: /Ogtp
; File C:\Users\ALEXANDER\Desktop\Cliente\COPY_FISH_WON_NEW\Binario\Client\eterLib\Pool.h
;	COMDAT ?Delete@?$CDynamicPoolEx@VCNullDecorator@NEffectUpdateDecorator@@@@KAXPAVCNullDecorator@NEffectUpdateDecorator@@@Z
_TEXT	SEGMENT
_pkData$ = 8						; size = 4
?Delete@?$CDynamicPoolEx@VCNullDecorator@NEffectUpdateDecorator@@@@KAXPAVCNullDecorator@NEffectUpdateDecorator@@@Z PROC ; CDynamicPoolEx<NEffectUpdateDecorator::CNullDecorator>::Delete, COMDAT

; 224  : 			::operator delete(pkData);

  00000	e9 00 00 00 00	 jmp	 ??3@YAXPAX@Z		; operator delete
?Delete@?$CDynamicPoolEx@VCNullDecorator@NEffectUpdateDecorator@@@@KAXPAVCNullDecorator@NEffectUpdateDecorator@@@Z ENDP ; CDynamicPoolEx<NEffectUpdateDecorator::CNullDecorator>::Delete
_TEXT	ENDS
; Function compile flags: /Ogtp
; File C:\Users\ALEXANDER\Desktop\Cliente\COPY_FISH_WON_NEW\Binario\Client\eterLib\Pool.h
; File D:\visual studio 2019\visual studio 2019\VC\Tools\MSVC\14.29.30133\include\vector
; File D:\visual studio 2019\visual studio 2019\VC\Tools\MSVC\14.29.30133\include\algorithm
; File C:\Users\ALEXANDER\Desktop\Cliente\COPY_FISH_WON_NEW\Binario\Client\eterLib\Pool.h
; File D:\visual studio 2019\visual studio 2019\VC\Tools\MSVC\14.29.30133\include\algorithm
; File C:\Users\ALEXANDER\Desktop\Cliente\COPY_FISH_WON_NEW\Binario\Client\eterLib\Pool.h
; File D:\visual studio 2019\visual studio 2019\VC\Tools\MSVC\14.29.30133\include\algorithm
; File C:\Users\ALEXANDER\Desktop\Cliente\COPY_FISH_WON_NEW\Binario\Client\eterLib\Pool.h
; File D:\visual studio 2019\visual studio 2019\VC\Tools\MSVC\14.29.30133\include\vector
; File D:\visual studio 2019\visual studio 2019\VC\Tools\MSVC\14.29.30133\include\xmemory
; File D:\visual studio 2019\visual studio 2019\VC\Tools\MSVC\14.29.30133\include\vector
; File D:\visual studio 2019\visual studio 2019\VC\Tools\MSVC\14.29.30133\include\xmemory
; File D:\visual studio 2019\visual studio 2019\VC\Tools\MSVC\14.29.30133\include\vector
; File D:\visual studio 2019\visual studio 2019\VC\Tools\MSVC\14.29.30133\include\xmemory
; File D:\visual studio 2019\visual studio 2019\VC\Tools\MSVC\14.29.30133\include\vector
; File D:\visual studio 2019\visual studio 2019\VC\Tools\MSVC\14.29.30133\include\xmemory
; File D:\visual studio 2019\visual studio 2019\VC\Tools\MSVC\14.29.30133\include\vector
; File C:\Users\ALEXANDER\Desktop\Cliente\COPY_FISH_WON_NEW\Binario\Client\eterLib\Pool.h
; File D:\visual studio 2019\visual studio 2019\VC\Tools\MSVC\14.29.30133\include\xmemory
; File C:\Users\ALEXANDER\Desktop\Cliente\COPY_FISH_WON_NEW\Binario\Client\eterLib\Pool.h
;	COMDAT ??1?$CDynamicPoolEx@VCNullDecorator@NEffectUpdateDecorator@@@@UAE@XZ
_TEXT	SEGMENT
??1?$CDynamicPoolEx@VCNullDecorator@NEffectUpdateDecorator@@@@UAE@XZ PROC ; CDynamicPoolEx<NEffectUpdateDecorator::CNullDecorator>::~CDynamicPoolEx<NEffectUpdateDecorator::CNullDecorator>, COMDAT
; _this$ = ecx

; 132  : 		{

  00000	53		 push	 ebx
  00001	56		 push	 esi
  00002	57		 push	 edi
  00003	8b f9		 mov	 edi, ecx
  00005	c7 07 00 00 00
	00		 mov	 DWORD PTR [edi], OFFSET ??_7?$CDynamicPoolEx@VCNullDecorator@NEffectUpdateDecorator@@@@6B@
; File D:\visual studio 2019\visual studio 2019\VC\Tools\MSVC\14.29.30133\include\vector

; 41   :     _CONSTEXPR20_CONTAINER _Vector_const_iterator(_Tptr _Parg, const _Container_base* _Pvector) noexcept : _Ptr(_Parg) {

  0000b	8b 5f 08	 mov	 ebx, DWORD PTR [edi+8]
  0000e	8b 77 04	 mov	 esi, DWORD PTR [edi+4]
; File D:\visual studio 2019\visual studio 2019\VC\Tools\MSVC\14.29.30133\include\algorithm

; 232  :     for (; _UFirst != _ULast; ++_UFirst) {

  00011	3b f3		 cmp	 esi, ebx
  00013	74 14		 je	 SHORT $LN19@CDynamicPo
$LL20@CDynamicPo:
; File C:\Users\ALEXANDER\Desktop\Cliente\COPY_FISH_WON_NEW\Binario\Client\eterLib\Pool.h

; 224  : 			::operator delete(pkData);

  00015	ff 36		 push	 DWORD PTR [esi]
  00017	e8 00 00 00 00	 call	 ??3@YAXPAX@Z		; operator delete
; File D:\visual studio 2019\visual studio 2019\VC\Tools\MSVC\14.29.30133\include\algorithm

; 232  :     for (; _UFirst != _ULast; ++_UFirst) {

  0001c	83 c6 04	 add	 esi, 4
; File C:\Users\ALEXANDER\Desktop\Cliente\COPY_FISH_WON_NEW\Binario\Client\eterLib\Pool.h

; 224  : 			::operator delete(pkData);

  0001f	83 c4 04	 add	 esp, 4
; File D:\visual studio 2019\visual studio 2019\VC\Tools\MSVC\14.29.30133\include\algorithm

; 232  :     for (; _UFirst != _ULast; ++_UFirst) {

  00022	3b f3		 cmp	 esi, ebx
  00024	75 ef		 jne	 SHORT $LL20@CDynamicPo
  00026	8b 77 04	 mov	 esi, DWORD PTR [edi+4]
$LN19@CDynamicPo:
; File C:\Users\ALEXANDER\Desktop\Cliente\COPY_FISH_WON_NEW\Binario\Client\eterLib\Pool.h

; 162  : 			m_kVct_pkFree.clear();

  00029	8b 47 10	 mov	 eax, DWORD PTR [edi+16]
  0002c	89 77 08	 mov	 DWORD PTR [edi+8], esi
  0002f	89 47 14	 mov	 DWORD PTR [edi+20], eax
; File D:\visual studio 2019\visual studio 2019\VC\Tools\MSVC\14.29.30133\include\vector

; 1750 :         if (_Myfirst) { // destroy and deallocate old array

  00032	85 c0		 test	 eax, eax
  00034	74 41		 je	 SHORT $LN27@CDynamicPo

; 1751 :             _Destroy(_Myfirst, _Mylast);
; 1752 :             _Getal().deallocate(_Myfirst, static_cast<size_type>(_Myend - _Myfirst));

  00036	8b 4f 18	 mov	 ecx, DWORD PTR [edi+24]
  00039	2b c8		 sub	 ecx, eax
; File D:\visual studio 2019\visual studio 2019\VC\Tools\MSVC\14.29.30133\include\xmemory

; 797  :         _Deallocate<_New_alignof<_Ty>>(_Ptr, sizeof(_Ty) * _Count);

  0003b	83 e1 fc	 and	 ecx, -4			; fffffffcH

; 251  :         if (_Bytes >= _Big_allocation_threshold) { // boost the alignment of big allocations to help autovectorization

  0003e	81 f9 00 10 00
	00		 cmp	 ecx, 4096		; 00001000H
  00044	72 12		 jb	 SHORT $LN43@CDynamicPo

; 150  :     const uintptr_t _Ptr_container   = _Ptr_user[-1];

  00046	8b 50 fc	 mov	 edx, DWORD PTR [eax-4]
  00049	83 c1 23	 add	 ecx, 35			; 00000023H

; 151  : 
; 152  :     // If the following asserts, it likely means that we are performing
; 153  :     // an aligned delete on memory coming from an unaligned allocation.
; 154  :     _STL_ASSERT(_Ptr_user[-2] == _Big_allocation_sentinel, "invalid argument");
; 155  : 
; 156  :     // Extra paranoia on aligned allocation/deallocation; ensure _Ptr_container is
; 157  :     // in range [_Min_back_shift, _Non_user_size]
; 158  : #ifdef _DEBUG
; 159  :     constexpr uintptr_t _Min_back_shift = 2 * sizeof(void*);
; 160  : #else // ^^^ _DEBUG ^^^ // vvv !_DEBUG vvv
; 161  :     constexpr uintptr_t _Min_back_shift = sizeof(void*);
; 162  : #endif // _DEBUG
; 163  :     const uintptr_t _Back_shift = reinterpret_cast<uintptr_t>(_Ptr) - _Ptr_container;

  0004c	2b c2		 sub	 eax, edx

; 164  :     _STL_VERIFY(_Back_shift >= _Min_back_shift && _Back_shift <= _Non_user_size, "invalid argument");

  0004e	83 c0 fc	 add	 eax, -4			; fffffffcH
  00051	83 f8 1f	 cmp	 eax, 31			; 0000001fH
  00054	77 6d		 ja	 SHORT $LN65@CDynamicPo

; 165  :     _Ptr = reinterpret_cast<void*>(_Ptr_container);

  00056	8b c2		 mov	 eax, edx
$LN43@CDynamicPo:

; 255  :         ::operator delete(_Ptr, _Bytes);

  00058	51		 push	 ecx
  00059	50		 push	 eax
  0005a	e8 00 00 00 00	 call	 ??3@YAXPAXI@Z		; operator delete
; File D:\visual studio 2019\visual studio 2019\VC\Tools\MSVC\14.29.30133\include\vector

; 1754 :             _Myfirst = nullptr;

  0005f	c7 47 10 00 00
	00 00		 mov	 DWORD PTR [edi+16], 0
; File D:\visual studio 2019\visual studio 2019\VC\Tools\MSVC\14.29.30133\include\xmemory

; 255  :         ::operator delete(_Ptr, _Bytes);

  00066	83 c4 08	 add	 esp, 8
; File D:\visual studio 2019\visual studio 2019\VC\Tools\MSVC\14.29.30133\include\vector

; 1755 :             _Mylast  = nullptr;

  00069	c7 47 14 00 00
	00 00		 mov	 DWORD PTR [edi+20], 0

; 1756 :             _Myend   = nullptr;

  00070	c7 47 18 00 00
	00 00		 mov	 DWORD PTR [edi+24], 0
$LN27@CDynamicPo:

; 1750 :         if (_Myfirst) { // destroy and deallocate old array

  00077	8b 47 04	 mov	 eax, DWORD PTR [edi+4]
  0007a	85 c0		 test	 eax, eax
  0007c	74 41		 je	 SHORT $LN52@CDynamicPo

; 1751 :             _Destroy(_Myfirst, _Mylast);
; 1752 :             _Getal().deallocate(_Myfirst, static_cast<size_type>(_Myend - _Myfirst));

  0007e	8b 4f 0c	 mov	 ecx, DWORD PTR [edi+12]
  00081	2b c8		 sub	 ecx, eax
; File D:\visual studio 2019\visual studio 2019\VC\Tools\MSVC\14.29.30133\include\xmemory

; 797  :         _Deallocate<_New_alignof<_Ty>>(_Ptr, sizeof(_Ty) * _Count);

  00083	83 e1 fc	 and	 ecx, -4			; fffffffcH

; 251  :         if (_Bytes >= _Big_allocation_threshold) { // boost the alignment of big allocations to help autovectorization

  00086	81 f9 00 10 00
	00		 cmp	 ecx, 4096		; 00001000H
  0008c	72 12		 jb	 SHORT $LN68@CDynamicPo

; 150  :     const uintptr_t _Ptr_container   = _Ptr_user[-1];

  0008e	8b 50 fc	 mov	 edx, DWORD PTR [eax-4]
  00091	83 c1 23	 add	 ecx, 35			; 00000023H

; 151  : 
; 152  :     // If the following asserts, it likely means that we are performing
; 153  :     // an aligned delete on memory coming from an unaligned allocation.
; 154  :     _STL_ASSERT(_Ptr_user[-2] == _Big_allocation_sentinel, "invalid argument");
; 155  : 
; 156  :     // Extra paranoia on aligned allocation/deallocation; ensure _Ptr_container is
; 157  :     // in range [_Min_back_shift, _Non_user_size]
; 158  : #ifdef _DEBUG
; 159  :     constexpr uintptr_t _Min_back_shift = 2 * sizeof(void*);
; 160  : #else // ^^^ _DEBUG ^^^ // vvv !_DEBUG vvv
; 161  :     constexpr uintptr_t _Min_back_shift = sizeof(void*);
; 162  : #endif // _DEBUG
; 163  :     const uintptr_t _Back_shift = reinterpret_cast<uintptr_t>(_Ptr) - _Ptr_container;

  00094	2b c2		 sub	 eax, edx

; 164  :     _STL_VERIFY(_Back_shift >= _Min_back_shift && _Back_shift <= _Non_user_size, "invalid argument");

  00096	83 c0 fc	 add	 eax, -4			; fffffffcH
  00099	83 f8 1f	 cmp	 eax, 31			; 0000001fH
  0009c	77 25		 ja	 SHORT $LN65@CDynamicPo

; 165  :     _Ptr = reinterpret_cast<void*>(_Ptr_container);

  0009e	8b c2		 mov	 eax, edx
$LN68@CDynamicPo:

; 255  :         ::operator delete(_Ptr, _Bytes);

  000a0	51		 push	 ecx
  000a1	50		 push	 eax
  000a2	e8 00 00 00 00	 call	 ??3@YAXPAXI@Z		; operator delete
; File D:\visual studio 2019\visual studio 2019\VC\Tools\MSVC\14.29.30133\include\vector

; 1754 :             _Myfirst = nullptr;

  000a7	c7 47 04 00 00
	00 00		 mov	 DWORD PTR [edi+4], 0
; File D:\visual studio 2019\visual studio 2019\VC\Tools\MSVC\14.29.30133\include\xmemory

; 255  :         ::operator delete(_Ptr, _Bytes);

  000ae	83 c4 08	 add	 esp, 8
; File D:\visual studio 2019\visual studio 2019\VC\Tools\MSVC\14.29.30133\include\vector

; 1755 :             _Mylast  = nullptr;

  000b1	c7 47 08 00 00
	00 00		 mov	 DWORD PTR [edi+8], 0

; 1756 :             _Myend   = nullptr;

  000b8	c7 47 0c 00 00
	00 00		 mov	 DWORD PTR [edi+12], 0
$LN52@CDynamicPo:
  000bf	5f		 pop	 edi
; File C:\Users\ALEXANDER\Desktop\Cliente\COPY_FISH_WON_NEW\Binario\Client\eterLib\Pool.h

; 142  : 		}

  000c0	5e		 pop	 esi
  000c1	5b		 pop	 ebx
  000c2	c3		 ret	 0
$LN65@CDynamicPo:
; File D:\visual studio 2019\visual studio 2019\VC\Tools\MSVC\14.29.30133\include\xmemory

; 164  :     _STL_VERIFY(_Back_shift >= _Min_back_shift && _Back_shift <= _Non_user_size, "invalid argument");

  000c3	e8 00 00 00 00	 call	 __invalid_parameter_noinfo_noreturn
$LN77@CDynamicPo:
  000c8	cc		 int	 3
??1?$CDynamicPoolEx@VCNullDecorator@NEffectUpdateDecorator@@@@UAE@XZ ENDP ; CDynamicPoolEx<NEffectUpdateDecorator::CNullDecorator>::~CDynamicPoolEx<NEffectUpdateDecorator::CNullDecorator>
_TEXT	ENDS
; Function compile flags: /Ogtp
;	COMDAT ??_G?$CDynamicPoolEx@VCTextureAnimationCWDecorator@NEffectUpdateDecorator@@@@UAEPAXI@Z
_TEXT	SEGMENT
___flags$ = 8						; size = 4
??_G?$CDynamicPoolEx@VCTextureAnimationCWDecorator@NEffectUpdateDecorator@@@@UAEPAXI@Z PROC ; CDynamicPoolEx<NEffectUpdateDecorator::CTextureAnimationCWDecorator>::`scalar deleting destructor', COMDAT
; _this$ = ecx
  00000	55		 push	 ebp
  00001	8b ec		 mov	 ebp, esp
  00003	56		 push	 esi
  00004	8b f1		 mov	 esi, ecx
  00006	e8 00 00 00 00	 call	 ??1?$CDynamicPoolEx@VCTextureAnimationCWDecorator@NEffectUpdateDecorator@@@@UAE@XZ ; CDynamicPoolEx<NEffectUpdateDecorator::CTextureAnimationCWDecorator>::~CDynamicPoolEx<NEffectUpdateDecorator::CTextureAnimationCWDecorator>
  0000b	f6 45 08 01	 test	 BYTE PTR ___flags$[ebp], 1
  0000f	74 0b		 je	 SHORT $LN4@scalar
  00011	6a 24		 push	 36			; 00000024H
  00013	56		 push	 esi
  00014	e8 00 00 00 00	 call	 ??3@YAXPAXI@Z		; operator delete
  00019	83 c4 08	 add	 esp, 8
$LN4@scalar:
  0001c	8b c6		 mov	 eax, esi
  0001e	5e		 pop	 esi
  0001f	5d		 pop	 ebp
  00020	c2 04 00	 ret	 4
??_G?$CDynamicPoolEx@VCTextureAnimationCWDecorator@NEffectUpdateDecorator@@@@UAEPAXI@Z ENDP ; CDynamicPoolEx<NEffectUpdateDecorator::CTextureAnimationCWDecorator>::`scalar deleting destructor'
_TEXT	ENDS
; Function compile flags: /Ogtp
; File C:\Users\ALEXANDER\Desktop\Cliente\COPY_FISH_WON_NEW\Binario\Client\eterLib\Pool.h
;	COMDAT ?Delete@?$CDynamicPoolEx@VCTextureAnimationCWDecorator@NEffectUpdateDecorator@@@@KAXPAVCTextureAnimationCWDecorator@NEffectUpdateDecorator@@@Z
_TEXT	SEGMENT
_pkData$ = 8						; size = 4
?Delete@?$CDynamicPoolEx@VCTextureAnimationCWDecorator@NEffectUpdateDecorator@@@@KAXPAVCTextureAnimationCWDecorator@NEffectUpdateDecorator@@@Z PROC ; CDynamicPoolEx<NEffectUpdateDecorator::CTextureAnimationCWDecorator>::Delete, COMDAT

; 224  : 			::operator delete(pkData);

  00000	e9 00 00 00 00	 jmp	 ??3@YAXPAX@Z		; operator delete
?Delete@?$CDynamicPoolEx@VCTextureAnimationCWDecorator@NEffectUpdateDecorator@@@@KAXPAVCTextureAnimationCWDecorator@NEffectUpdateDecorator@@@Z ENDP ; CDynamicPoolEx<NEffectUpdateDecorator::CTextureAnimationCWDecorator>::Delete
_TEXT	ENDS
; Function compile flags: /Ogtp
; File C:\Users\ALEXANDER\Desktop\Cliente\COPY_FISH_WON_NEW\Binario\Client\eterLib\Pool.h
; File D:\visual studio 2019\visual studio 2019\VC\Tools\MSVC\14.29.30133\include\vector
; File D:\visual studio 2019\visual studio 2019\VC\Tools\MSVC\14.29.30133\include\algorithm
; File C:\Users\ALEXANDER\Desktop\Cliente\COPY_FISH_WON_NEW\Binario\Client\eterLib\Pool.h
; File D:\visual studio 2019\visual studio 2019\VC\Tools\MSVC\14.29.30133\include\algorithm
; File C:\Users\ALEXANDER\Desktop\Cliente\COPY_FISH_WON_NEW\Binario\Client\eterLib\Pool.h
; File D:\visual studio 2019\visual studio 2019\VC\Tools\MSVC\14.29.30133\include\algorithm
; File C:\Users\ALEXANDER\Desktop\Cliente\COPY_FISH_WON_NEW\Binario\Client\eterLib\Pool.h
; File D:\visual studio 2019\visual studio 2019\VC\Tools\MSVC\14.29.30133\include\vector
; File D:\visual studio 2019\visual studio 2019\VC\Tools\MSVC\14.29.30133\include\xmemory
; File D:\visual studio 2019\visual studio 2019\VC\Tools\MSVC\14.29.30133\include\vector
; File D:\visual studio 2019\visual studio 2019\VC\Tools\MSVC\14.29.30133\include\xmemory
; File D:\visual studio 2019\visual studio 2019\VC\Tools\MSVC\14.29.30133\include\vector
; File D:\visual studio 2019\visual studio 2019\VC\Tools\MSVC\14.29.30133\include\xmemory
; File D:\visual studio 2019\visual studio 2019\VC\Tools\MSVC\14.29.30133\include\vector
; File D:\visual studio 2019\visual studio 2019\VC\Tools\MSVC\14.29.30133\include\xmemory
; File D:\visual studio 2019\visual studio 2019\VC\Tools\MSVC\14.29.30133\include\vector
; File C:\Users\ALEXANDER\Desktop\Cliente\COPY_FISH_WON_NEW\Binario\Client\eterLib\Pool.h
; File D:\visual studio 2019\visual studio 2019\VC\Tools\MSVC\14.29.30133\include\xmemory
; File C:\Users\ALEXANDER\Desktop\Cliente\COPY_FISH_WON_NEW\Binario\Client\eterLib\Pool.h
;	COMDAT ??1?$CDynamicPoolEx@VCTextureAnimationCWDecorator@NEffectUpdateDecorator@@@@UAE@XZ
_TEXT	SEGMENT
??1?$CDynamicPoolEx@VCTextureAnimationCWDecorator@NEffectUpdateDecorator@@@@UAE@XZ PROC ; CDynamicPoolEx<NEffectUpdateDecorator::CTextureAnimationCWDecorator>::~CDynamicPoolEx<NEffectUpdateDecorator::CTextureAnimationCWDecorator>, COMDAT
; _this$ = ecx

; 132  : 		{

  00000	53		 push	 ebx
  00001	56		 push	 esi
  00002	57		 push	 edi
  00003	8b f9		 mov	 edi, ecx
  00005	c7 07 00 00 00
	00		 mov	 DWORD PTR [edi], OFFSET ??_7?$CDynamicPoolEx@VCTextureAnimationCWDecorator@NEffectUpdateDecorator@@@@6B@
; File D:\visual studio 2019\visual studio 2019\VC\Tools\MSVC\14.29.30133\include\vector

; 41   :     _CONSTEXPR20_CONTAINER _Vector_const_iterator(_Tptr _Parg, const _Container_base* _Pvector) noexcept : _Ptr(_Parg) {

  0000b	8b 5f 08	 mov	 ebx, DWORD PTR [edi+8]
  0000e	8b 77 04	 mov	 esi, DWORD PTR [edi+4]
; File D:\visual studio 2019\visual studio 2019\VC\Tools\MSVC\14.29.30133\include\algorithm

; 232  :     for (; _UFirst != _ULast; ++_UFirst) {

  00011	3b f3		 cmp	 esi, ebx
  00013	74 14		 je	 SHORT $LN19@CDynamicPo
$LL20@CDynamicPo:
; File C:\Users\ALEXANDER\Desktop\Cliente\COPY_FISH_WON_NEW\Binario\Client\eterLib\Pool.h

; 224  : 			::operator delete(pkData);

  00015	ff 36		 push	 DWORD PTR [esi]
  00017	e8 00 00 00 00	 call	 ??3@YAXPAX@Z		; operator delete
; File D:\visual studio 2019\visual studio 2019\VC\Tools\MSVC\14.29.30133\include\algorithm

; 232  :     for (; _UFirst != _ULast; ++_UFirst) {

  0001c	83 c6 04	 add	 esi, 4
; File C:\Users\ALEXANDER\Desktop\Cliente\COPY_FISH_WON_NEW\Binario\Client\eterLib\Pool.h

; 224  : 			::operator delete(pkData);

  0001f	83 c4 04	 add	 esp, 4
; File D:\visual studio 2019\visual studio 2019\VC\Tools\MSVC\14.29.30133\include\algorithm

; 232  :     for (; _UFirst != _ULast; ++_UFirst) {

  00022	3b f3		 cmp	 esi, ebx
  00024	75 ef		 jne	 SHORT $LL20@CDynamicPo
  00026	8b 77 04	 mov	 esi, DWORD PTR [edi+4]
$LN19@CDynamicPo:
; File C:\Users\ALEXANDER\Desktop\Cliente\COPY_FISH_WON_NEW\Binario\Client\eterLib\Pool.h

; 162  : 			m_kVct_pkFree.clear();

  00029	8b 47 10	 mov	 eax, DWORD PTR [edi+16]
  0002c	89 77 08	 mov	 DWORD PTR [edi+8], esi
  0002f	89 47 14	 mov	 DWORD PTR [edi+20], eax
; File D:\visual studio 2019\visual studio 2019\VC\Tools\MSVC\14.29.30133\include\vector

; 1750 :         if (_Myfirst) { // destroy and deallocate old array

  00032	85 c0		 test	 eax, eax
  00034	74 41		 je	 SHORT $LN27@CDynamicPo

; 1751 :             _Destroy(_Myfirst, _Mylast);
; 1752 :             _Getal().deallocate(_Myfirst, static_cast<size_type>(_Myend - _Myfirst));

  00036	8b 4f 18	 mov	 ecx, DWORD PTR [edi+24]
  00039	2b c8		 sub	 ecx, eax
; File D:\visual studio 2019\visual studio 2019\VC\Tools\MSVC\14.29.30133\include\xmemory

; 797  :         _Deallocate<_New_alignof<_Ty>>(_Ptr, sizeof(_Ty) * _Count);

  0003b	83 e1 fc	 and	 ecx, -4			; fffffffcH

; 251  :         if (_Bytes >= _Big_allocation_threshold) { // boost the alignment of big allocations to help autovectorization

  0003e	81 f9 00 10 00
	00		 cmp	 ecx, 4096		; 00001000H
  00044	72 12		 jb	 SHORT $LN43@CDynamicPo

; 150  :     const uintptr_t _Ptr_container   = _Ptr_user[-1];

  00046	8b 50 fc	 mov	 edx, DWORD PTR [eax-4]
  00049	83 c1 23	 add	 ecx, 35			; 00000023H

; 151  : 
; 152  :     // If the following asserts, it likely means that we are performing
; 153  :     // an aligned delete on memory coming from an unaligned allocation.
; 154  :     _STL_ASSERT(_Ptr_user[-2] == _Big_allocation_sentinel, "invalid argument");
; 155  : 
; 156  :     // Extra paranoia on aligned allocation/deallocation; ensure _Ptr_container is
; 157  :     // in range [_Min_back_shift, _Non_user_size]
; 158  : #ifdef _DEBUG
; 159  :     constexpr uintptr_t _Min_back_shift = 2 * sizeof(void*);
; 160  : #else // ^^^ _DEBUG ^^^ // vvv !_DEBUG vvv
; 161  :     constexpr uintptr_t _Min_back_shift = sizeof(void*);
; 162  : #endif // _DEBUG
; 163  :     const uintptr_t _Back_shift = reinterpret_cast<uintptr_t>(_Ptr) - _Ptr_container;

  0004c	2b c2		 sub	 eax, edx

; 164  :     _STL_VERIFY(_Back_shift >= _Min_back_shift && _Back_shift <= _Non_user_size, "invalid argument");

  0004e	83 c0 fc	 add	 eax, -4			; fffffffcH
  00051	83 f8 1f	 cmp	 eax, 31			; 0000001fH
  00054	77 6d		 ja	 SHORT $LN65@CDynamicPo

; 165  :     _Ptr = reinterpret_cast<void*>(_Ptr_container);

  00056	8b c2		 mov	 eax, edx
$LN43@CDynamicPo:

; 255  :         ::operator delete(_Ptr, _Bytes);

  00058	51		 push	 ecx
  00059	50		 push	 eax
  0005a	e8 00 00 00 00	 call	 ??3@YAXPAXI@Z		; operator delete
; File D:\visual studio 2019\visual studio 2019\VC\Tools\MSVC\14.29.30133\include\vector

; 1754 :             _Myfirst = nullptr;

  0005f	c7 47 10 00 00
	00 00		 mov	 DWORD PTR [edi+16], 0
; File D:\visual studio 2019\visual studio 2019\VC\Tools\MSVC\14.29.30133\include\xmemory

; 255  :         ::operator delete(_Ptr, _Bytes);

  00066	83 c4 08	 add	 esp, 8
; File D:\visual studio 2019\visual studio 2019\VC\Tools\MSVC\14.29.30133\include\vector

; 1755 :             _Mylast  = nullptr;

  00069	c7 47 14 00 00
	00 00		 mov	 DWORD PTR [edi+20], 0

; 1756 :             _Myend   = nullptr;

  00070	c7 47 18 00 00
	00 00		 mov	 DWORD PTR [edi+24], 0
$LN27@CDynamicPo:

; 1750 :         if (_Myfirst) { // destroy and deallocate old array

  00077	8b 47 04	 mov	 eax, DWORD PTR [edi+4]
  0007a	85 c0		 test	 eax, eax
  0007c	74 41		 je	 SHORT $LN52@CDynamicPo

; 1751 :             _Destroy(_Myfirst, _Mylast);
; 1752 :             _Getal().deallocate(_Myfirst, static_cast<size_type>(_Myend - _Myfirst));

  0007e	8b 4f 0c	 mov	 ecx, DWORD PTR [edi+12]
  00081	2b c8		 sub	 ecx, eax
; File D:\visual studio 2019\visual studio 2019\VC\Tools\MSVC\14.29.30133\include\xmemory

; 797  :         _Deallocate<_New_alignof<_Ty>>(_Ptr, sizeof(_Ty) * _Count);

  00083	83 e1 fc	 and	 ecx, -4			; fffffffcH

; 251  :         if (_Bytes >= _Big_allocation_threshold) { // boost the alignment of big allocations to help autovectorization

  00086	81 f9 00 10 00
	00		 cmp	 ecx, 4096		; 00001000H
  0008c	72 12		 jb	 SHORT $LN68@CDynamicPo

; 150  :     const uintptr_t _Ptr_container   = _Ptr_user[-1];

  0008e	8b 50 fc	 mov	 edx, DWORD PTR [eax-4]
  00091	83 c1 23	 add	 ecx, 35			; 00000023H

; 151  : 
; 152  :     // If the following asserts, it likely means that we are performing
; 153  :     // an aligned delete on memory coming from an unaligned allocation.
; 154  :     _STL_ASSERT(_Ptr_user[-2] == _Big_allocation_sentinel, "invalid argument");
; 155  : 
; 156  :     // Extra paranoia on aligned allocation/deallocation; ensure _Ptr_container is
; 157  :     // in range [_Min_back_shift, _Non_user_size]
; 158  : #ifdef _DEBUG
; 159  :     constexpr uintptr_t _Min_back_shift = 2 * sizeof(void*);
; 160  : #else // ^^^ _DEBUG ^^^ // vvv !_DEBUG vvv
; 161  :     constexpr uintptr_t _Min_back_shift = sizeof(void*);
; 162  : #endif // _DEBUG
; 163  :     const uintptr_t _Back_shift = reinterpret_cast<uintptr_t>(_Ptr) - _Ptr_container;

  00094	2b c2		 sub	 eax, edx

; 164  :     _STL_VERIFY(_Back_shift >= _Min_back_shift && _Back_shift <= _Non_user_size, "invalid argument");

  00096	83 c0 fc	 add	 eax, -4			; fffffffcH
  00099	83 f8 1f	 cmp	 eax, 31			; 0000001fH
  0009c	77 25		 ja	 SHORT $LN65@CDynamicPo

; 165  :     _Ptr = reinterpret_cast<void*>(_Ptr_container);

  0009e	8b c2		 mov	 eax, edx
$LN68@CDynamicPo:

; 255  :         ::operator delete(_Ptr, _Bytes);

  000a0	51		 push	 ecx
  000a1	50		 push	 eax
  000a2	e8 00 00 00 00	 call	 ??3@YAXPAXI@Z		; operator delete
; File D:\visual studio 2019\visual studio 2019\VC\Tools\MSVC\14.29.30133\include\vector

; 1754 :             _Myfirst = nullptr;

  000a7	c7 47 04 00 00
	00 00		 mov	 DWORD PTR [edi+4], 0
; File D:\visual studio 2019\visual studio 2019\VC\Tools\MSVC\14.29.30133\include\xmemory

; 255  :         ::operator delete(_Ptr, _Bytes);

  000ae	83 c4 08	 add	 esp, 8
; File D:\visual studio 2019\visual studio 2019\VC\Tools\MSVC\14.29.30133\include\vector

; 1755 :             _Mylast  = nullptr;

  000b1	c7 47 08 00 00
	00 00		 mov	 DWORD PTR [edi+8], 0

; 1756 :             _Myend   = nullptr;

  000b8	c7 47 0c 00 00
	00 00		 mov	 DWORD PTR [edi+12], 0
$LN52@CDynamicPo:
  000bf	5f		 pop	 edi
; File C:\Users\ALEXANDER\Desktop\Cliente\COPY_FISH_WON_NEW\Binario\Client\eterLib\Pool.h

; 142  : 		}

  000c0	5e		 pop	 esi
  000c1	5b		 pop	 ebx
  000c2	c3		 ret	 0
$LN65@CDynamicPo:
; File D:\visual studio 2019\visual studio 2019\VC\Tools\MSVC\14.29.30133\include\xmemory

; 164  :     _STL_VERIFY(_Back_shift >= _Min_back_shift && _Back_shift <= _Non_user_size, "invalid argument");

  000c3	e8 00 00 00 00	 call	 __invalid_parameter_noinfo_noreturn
$LN77@CDynamicPo:
  000c8	cc		 int	 3
??1?$CDynamicPoolEx@VCTextureAnimationCWDecorator@NEffectUpdateDecorator@@@@UAE@XZ ENDP ; CDynamicPoolEx<NEffectUpdateDecorator::CTextureAnimationCWDecorator>::~CDynamicPoolEx<NEffectUpdateDecorator::CTextureAnimationCWDecorator>
_TEXT	ENDS
; Function compile flags: /Ogtp
;	COMDAT ??_G?$CDynamicPoolEx@VCTextureAnimationCCWDecorator@NEffectUpdateDecorator@@@@UAEPAXI@Z
_TEXT	SEGMENT
___flags$ = 8						; size = 4
??_G?$CDynamicPoolEx@VCTextureAnimationCCWDecorator@NEffectUpdateDecorator@@@@UAEPAXI@Z PROC ; CDynamicPoolEx<NEffectUpdateDecorator::CTextureAnimationCCWDecorator>::`scalar deleting destructor', COMDAT
; _this$ = ecx
  00000	55		 push	 ebp
  00001	8b ec		 mov	 ebp, esp
  00003	56		 push	 esi
  00004	8b f1		 mov	 esi, ecx
  00006	e8 00 00 00 00	 call	 ??1?$CDynamicPoolEx@VCTextureAnimationCCWDecorator@NEffectUpdateDecorator@@@@UAE@XZ ; CDynamicPoolEx<NEffectUpdateDecorator::CTextureAnimationCCWDecorator>::~CDynamicPoolEx<NEffectUpdateDecorator::CTextureAnimationCCWDecorator>
  0000b	f6 45 08 01	 test	 BYTE PTR ___flags$[ebp], 1
  0000f	74 0b		 je	 SHORT $LN4@scalar
  00011	6a 24		 push	 36			; 00000024H
  00013	56		 push	 esi
  00014	e8 00 00 00 00	 call	 ??3@YAXPAXI@Z		; operator delete
  00019	83 c4 08	 add	 esp, 8
$LN4@scalar:
  0001c	8b c6		 mov	 eax, esi
  0001e	5e		 pop	 esi
  0001f	5d		 pop	 ebp
  00020	c2 04 00	 ret	 4
??_G?$CDynamicPoolEx@VCTextureAnimationCCWDecorator@NEffectUpdateDecorator@@@@UAEPAXI@Z ENDP ; CDynamicPoolEx<NEffectUpdateDecorator::CTextureAnimationCCWDecorator>::`scalar deleting destructor'
_TEXT	ENDS
; Function compile flags: /Ogtp
; File C:\Users\ALEXANDER\Desktop\Cliente\COPY_FISH_WON_NEW\Binario\Client\eterLib\Pool.h
;	COMDAT ?Delete@?$CDynamicPoolEx@VCTextureAnimationCCWDecorator@NEffectUpdateDecorator@@@@KAXPAVCTextureAnimationCCWDecorator@NEffectUpdateDecorator@@@Z
_TEXT	SEGMENT
_pkData$ = 8						; size = 4
?Delete@?$CDynamicPoolEx@VCTextureAnimationCCWDecorator@NEffectUpdateDecorator@@@@KAXPAVCTextureAnimationCCWDecorator@NEffectUpdateDecorator@@@Z PROC ; CDynamicPoolEx<NEffectUpdateDecorator::CTextureAnimationCCWDecorator>::Delete, COMDAT

; 224  : 			::operator delete(pkData);

  00000	e9 00 00 00 00	 jmp	 ??3@YAXPAX@Z		; operator delete
?Delete@?$CDynamicPoolEx@VCTextureAnimationCCWDecorator@NEffectUpdateDecorator@@@@KAXPAVCTextureAnimationCCWDecorator@NEffectUpdateDecorator@@@Z ENDP ; CDynamicPoolEx<NEffectUpdateDecorator::CTextureAnimationCCWDecorator>::Delete
_TEXT	ENDS
; Function compile flags: /Ogtp
; File C:\Users\ALEXANDER\Desktop\Cliente\COPY_FISH_WON_NEW\Binario\Client\eterLib\Pool.h
; File D:\visual studio 2019\visual studio 2019\VC\Tools\MSVC\14.29.30133\include\vector
; File D:\visual studio 2019\visual studio 2019\VC\Tools\MSVC\14.29.30133\include\algorithm
; File C:\Users\ALEXANDER\Desktop\Cliente\COPY_FISH_WON_NEW\Binario\Client\eterLib\Pool.h
; File D:\visual studio 2019\visual studio 2019\VC\Tools\MSVC\14.29.30133\include\algorithm
; File C:\Users\ALEXANDER\Desktop\Cliente\COPY_FISH_WON_NEW\Binario\Client\eterLib\Pool.h
; File D:\visual studio 2019\visual studio 2019\VC\Tools\MSVC\14.29.30133\include\algorithm
; File C:\Users\ALEXANDER\Desktop\Cliente\COPY_FISH_WON_NEW\Binario\Client\eterLib\Pool.h
; File D:\visual studio 2019\visual studio 2019\VC\Tools\MSVC\14.29.30133\include\vector
; File D:\visual studio 2019\visual studio 2019\VC\Tools\MSVC\14.29.30133\include\xmemory
; File D:\visual studio 2019\visual studio 2019\VC\Tools\MSVC\14.29.30133\include\vector
; File D:\visual studio 2019\visual studio 2019\VC\Tools\MSVC\14.29.30133\include\xmemory
; File D:\visual studio 2019\visual studio 2019\VC\Tools\MSVC\14.29.30133\include\vector
; File D:\visual studio 2019\visual studio 2019\VC\Tools\MSVC\14.29.30133\include\xmemory
; File D:\visual studio 2019\visual studio 2019\VC\Tools\MSVC\14.29.30133\include\vector
; File D:\visual studio 2019\visual studio 2019\VC\Tools\MSVC\14.29.30133\include\xmemory
; File D:\visual studio 2019\visual studio 2019\VC\Tools\MSVC\14.29.30133\include\vector
; File C:\Users\ALEXANDER\Desktop\Cliente\COPY_FISH_WON_NEW\Binario\Client\eterLib\Pool.h
; File D:\visual studio 2019\visual studio 2019\VC\Tools\MSVC\14.29.30133\include\xmemory
; File C:\Users\ALEXANDER\Desktop\Cliente\COPY_FISH_WON_NEW\Binario\Client\eterLib\Pool.h
;	COMDAT ??1?$CDynamicPoolEx@VCTextureAnimationCCWDecorator@NEffectUpdateDecorator@@@@UAE@XZ
_TEXT	SEGMENT
??1?$CDynamicPoolEx@VCTextureAnimationCCWDecorator@NEffectUpdateDecorator@@@@UAE@XZ PROC ; CDynamicPoolEx<NEffectUpdateDecorator::CTextureAnimationCCWDecorator>::~CDynamicPoolEx<NEffectUpdateDecorator::CTextureAnimationCCWDecorator>, COMDAT
; _this$ = ecx

; 132  : 		{

  00000	53		 push	 ebx
  00001	56		 push	 esi
  00002	57		 push	 edi
  00003	8b f9		 mov	 edi, ecx
  00005	c7 07 00 00 00
	00		 mov	 DWORD PTR [edi], OFFSET ??_7?$CDynamicPoolEx@VCTextureAnimationCCWDecorator@NEffectUpdateDecorator@@@@6B@
; File D:\visual studio 2019\visual studio 2019\VC\Tools\MSVC\14.29.30133\include\vector

; 41   :     _CONSTEXPR20_CONTAINER _Vector_const_iterator(_Tptr _Parg, const _Container_base* _Pvector) noexcept : _Ptr(_Parg) {

  0000b	8b 5f 08	 mov	 ebx, DWORD PTR [edi+8]
  0000e	8b 77 04	 mov	 esi, DWORD PTR [edi+4]
; File D:\visual studio 2019\visual studio 2019\VC\Tools\MSVC\14.29.30133\include\algorithm

; 232  :     for (; _UFirst != _ULast; ++_UFirst) {

  00011	3b f3		 cmp	 esi, ebx
  00013	74 14		 je	 SHORT $LN19@CDynamicPo
$LL20@CDynamicPo:
; File C:\Users\ALEXANDER\Desktop\Cliente\COPY_FISH_WON_NEW\Binario\Client\eterLib\Pool.h

; 224  : 			::operator delete(pkData);

  00015	ff 36		 push	 DWORD PTR [esi]
  00017	e8 00 00 00 00	 call	 ??3@YAXPAX@Z		; operator delete
; File D:\visual studio 2019\visual studio 2019\VC\Tools\MSVC\14.29.30133\include\algorithm

; 232  :     for (; _UFirst != _ULast; ++_UFirst) {

  0001c	83 c6 04	 add	 esi, 4
; File C:\Users\ALEXANDER\Desktop\Cliente\COPY_FISH_WON_NEW\Binario\Client\eterLib\Pool.h

; 224  : 			::operator delete(pkData);

  0001f	83 c4 04	 add	 esp, 4
; File D:\visual studio 2019\visual studio 2019\VC\Tools\MSVC\14.29.30133\include\algorithm

; 232  :     for (; _UFirst != _ULast; ++_UFirst) {

  00022	3b f3		 cmp	 esi, ebx
  00024	75 ef		 jne	 SHORT $LL20@CDynamicPo
  00026	8b 77 04	 mov	 esi, DWORD PTR [edi+4]
$LN19@CDynamicPo:
; File C:\Users\ALEXANDER\Desktop\Cliente\COPY_FISH_WON_NEW\Binario\Client\eterLib\Pool.h

; 162  : 			m_kVct_pkFree.clear();

  00029	8b 47 10	 mov	 eax, DWORD PTR [edi+16]
  0002c	89 77 08	 mov	 DWORD PTR [edi+8], esi
  0002f	89 47 14	 mov	 DWORD PTR [edi+20], eax
; File D:\visual studio 2019\visual studio 2019\VC\Tools\MSVC\14.29.30133\include\vector

; 1750 :         if (_Myfirst) { // destroy and deallocate old array

  00032	85 c0		 test	 eax, eax
  00034	74 41		 je	 SHORT $LN27@CDynamicPo

; 1751 :             _Destroy(_Myfirst, _Mylast);
; 1752 :             _Getal().deallocate(_Myfirst, static_cast<size_type>(_Myend - _Myfirst));

  00036	8b 4f 18	 mov	 ecx, DWORD PTR [edi+24]
  00039	2b c8		 sub	 ecx, eax
; File D:\visual studio 2019\visual studio 2019\VC\Tools\MSVC\14.29.30133\include\xmemory

; 797  :         _Deallocate<_New_alignof<_Ty>>(_Ptr, sizeof(_Ty) * _Count);

  0003b	83 e1 fc	 and	 ecx, -4			; fffffffcH

; 251  :         if (_Bytes >= _Big_allocation_threshold) { // boost the alignment of big allocations to help autovectorization

  0003e	81 f9 00 10 00
	00		 cmp	 ecx, 4096		; 00001000H
  00044	72 12		 jb	 SHORT $LN43@CDynamicPo

; 150  :     const uintptr_t _Ptr_container   = _Ptr_user[-1];

  00046	8b 50 fc	 mov	 edx, DWORD PTR [eax-4]
  00049	83 c1 23	 add	 ecx, 35			; 00000023H

; 151  : 
; 152  :     // If the following asserts, it likely means that we are performing
; 153  :     // an aligned delete on memory coming from an unaligned allocation.
; 154  :     _STL_ASSERT(_Ptr_user[-2] == _Big_allocation_sentinel, "invalid argument");
; 155  : 
; 156  :     // Extra paranoia on aligned allocation/deallocation; ensure _Ptr_container is
; 157  :     // in range [_Min_back_shift, _Non_user_size]
; 158  : #ifdef _DEBUG
; 159  :     constexpr uintptr_t _Min_back_shift = 2 * sizeof(void*);
; 160  : #else // ^^^ _DEBUG ^^^ // vvv !_DEBUG vvv
; 161  :     constexpr uintptr_t _Min_back_shift = sizeof(void*);
; 162  : #endif // _DEBUG
; 163  :     const uintptr_t _Back_shift = reinterpret_cast<uintptr_t>(_Ptr) - _Ptr_container;

  0004c	2b c2		 sub	 eax, edx

; 164  :     _STL_VERIFY(_Back_shift >= _Min_back_shift && _Back_shift <= _Non_user_size, "invalid argument");

  0004e	83 c0 fc	 add	 eax, -4			; fffffffcH
  00051	83 f8 1f	 cmp	 eax, 31			; 0000001fH
  00054	77 6d		 ja	 SHORT $LN65@CDynamicPo

; 165  :     _Ptr = reinterpret_cast<void*>(_Ptr_container);

  00056	8b c2		 mov	 eax, edx
$LN43@CDynamicPo:

; 255  :         ::operator delete(_Ptr, _Bytes);

  00058	51		 push	 ecx
  00059	50		 push	 eax
  0005a	e8 00 00 00 00	 call	 ??3@YAXPAXI@Z		; operator delete
; File D:\visual studio 2019\visual studio 2019\VC\Tools\MSVC\14.29.30133\include\vector

; 1754 :             _Myfirst = nullptr;

  0005f	c7 47 10 00 00
	00 00		 mov	 DWORD PTR [edi+16], 0
; File D:\visual studio 2019\visual studio 2019\VC\Tools\MSVC\14.29.30133\include\xmemory

; 255  :         ::operator delete(_Ptr, _Bytes);

  00066	83 c4 08	 add	 esp, 8
; File D:\visual studio 2019\visual studio 2019\VC\Tools\MSVC\14.29.30133\include\vector

; 1755 :             _Mylast  = nullptr;

  00069	c7 47 14 00 00
	00 00		 mov	 DWORD PTR [edi+20], 0

; 1756 :             _Myend   = nullptr;

  00070	c7 47 18 00 00
	00 00		 mov	 DWORD PTR [edi+24], 0
$LN27@CDynamicPo:

; 1750 :         if (_Myfirst) { // destroy and deallocate old array

  00077	8b 47 04	 mov	 eax, DWORD PTR [edi+4]
  0007a	85 c0		 test	 eax, eax
  0007c	74 41		 je	 SHORT $LN52@CDynamicPo

; 1751 :             _Destroy(_Myfirst, _Mylast);
; 1752 :             _Getal().deallocate(_Myfirst, static_cast<size_type>(_Myend - _Myfirst));

  0007e	8b 4f 0c	 mov	 ecx, DWORD PTR [edi+12]
  00081	2b c8		 sub	 ecx, eax
; File D:\visual studio 2019\visual studio 2019\VC\Tools\MSVC\14.29.30133\include\xmemory

; 797  :         _Deallocate<_New_alignof<_Ty>>(_Ptr, sizeof(_Ty) * _Count);

  00083	83 e1 fc	 and	 ecx, -4			; fffffffcH

; 251  :         if (_Bytes >= _Big_allocation_threshold) { // boost the alignment of big allocations to help autovectorization

  00086	81 f9 00 10 00
	00		 cmp	 ecx, 4096		; 00001000H
  0008c	72 12		 jb	 SHORT $LN68@CDynamicPo

; 150  :     const uintptr_t _Ptr_container   = _Ptr_user[-1];

  0008e	8b 50 fc	 mov	 edx, DWORD PTR [eax-4]
  00091	83 c1 23	 add	 ecx, 35			; 00000023H

; 151  : 
; 152  :     // If the following asserts, it likely means that we are performing
; 153  :     // an aligned delete on memory coming from an unaligned allocation.
; 154  :     _STL_ASSERT(_Ptr_user[-2] == _Big_allocation_sentinel, "invalid argument");
; 155  : 
; 156  :     // Extra paranoia on aligned allocation/deallocation; ensure _Ptr_container is
; 157  :     // in range [_Min_back_shift, _Non_user_size]
; 158  : #ifdef _DEBUG
; 159  :     constexpr uintptr_t _Min_back_shift = 2 * sizeof(void*);
; 160  : #else // ^^^ _DEBUG ^^^ // vvv !_DEBUG vvv
; 161  :     constexpr uintptr_t _Min_back_shift = sizeof(void*);
; 162  : #endif // _DEBUG
; 163  :     const uintptr_t _Back_shift = reinterpret_cast<uintptr_t>(_Ptr) - _Ptr_container;

  00094	2b c2		 sub	 eax, edx

; 164  :     _STL_VERIFY(_Back_shift >= _Min_back_shift && _Back_shift <= _Non_user_size, "invalid argument");

  00096	83 c0 fc	 add	 eax, -4			; fffffffcH
  00099	83 f8 1f	 cmp	 eax, 31			; 0000001fH
  0009c	77 25		 ja	 SHORT $LN65@CDynamicPo

; 165  :     _Ptr = reinterpret_cast<void*>(_Ptr_container);

  0009e	8b c2		 mov	 eax, edx
$LN68@CDynamicPo:

; 255  :         ::operator delete(_Ptr, _Bytes);

  000a0	51		 push	 ecx
  000a1	50		 push	 eax
  000a2	e8 00 00 00 00	 call	 ??3@YAXPAXI@Z		; operator delete
; File D:\visual studio 2019\visual studio 2019\VC\Tools\MSVC\14.29.30133\include\vector

; 1754 :             _Myfirst = nullptr;

  000a7	c7 47 04 00 00
	00 00		 mov	 DWORD PTR [edi+4], 0
; File D:\visual studio 2019\visual studio 2019\VC\Tools\MSVC\14.29.30133\include\xmemory

; 255  :         ::operator delete(_Ptr, _Bytes);

  000ae	83 c4 08	 add	 esp, 8
; File D:\visual studio 2019\visual studio 2019\VC\Tools\MSVC\14.29.30133\include\vector

; 1755 :             _Mylast  = nullptr;

  000b1	c7 47 08 00 00
	00 00		 mov	 DWORD PTR [edi+8], 0

; 1756 :             _Myend   = nullptr;

  000b8	c7 47 0c 00 00
	00 00		 mov	 DWORD PTR [edi+12], 0
$LN52@CDynamicPo:
  000bf	5f		 pop	 edi
; File C:\Users\ALEXANDER\Desktop\Cliente\COPY_FISH_WON_NEW\Binario\Client\eterLib\Pool.h

; 142  : 		}

  000c0	5e		 pop	 esi
  000c1	5b		 pop	 ebx
  000c2	c3		 ret	 0
$LN65@CDynamicPo:
; File D:\visual studio 2019\visual studio 2019\VC\Tools\MSVC\14.29.30133\include\xmemory

; 164  :     _STL_VERIFY(_Back_shift >= _Min_back_shift && _Back_shift <= _Non_user_size, "invalid argument");

  000c3	e8 00 00 00 00	 call	 __invalid_parameter_noinfo_noreturn
$LN77@CDynamicPo:
  000c8	cc		 int	 3
??1?$CDynamicPoolEx@VCTextureAnimationCCWDecorator@NEffectUpdateDecorator@@@@UAE@XZ ENDP ; CDynamicPoolEx<NEffectUpdateDecorator::CTextureAnimationCCWDecorator>::~CDynamicPoolEx<NEffectUpdateDecorator::CTextureAnimationCCWDecorator>
_TEXT	ENDS
; Function compile flags: /Ogtp
;	COMDAT ??_G?$CDynamicPoolEx@VCTextureAnimationRandomDecorator@NEffectUpdateDecorator@@@@UAEPAXI@Z
_TEXT	SEGMENT
___flags$ = 8						; size = 4
??_G?$CDynamicPoolEx@VCTextureAnimationRandomDecorator@NEffectUpdateDecorator@@@@UAEPAXI@Z PROC ; CDynamicPoolEx<NEffectUpdateDecorator::CTextureAnimationRandomDecorator>::`scalar deleting destructor', COMDAT
; _this$ = ecx
  00000	55		 push	 ebp
  00001	8b ec		 mov	 ebp, esp
  00003	56		 push	 esi
  00004	8b f1		 mov	 esi, ecx
  00006	e8 00 00 00 00	 call	 ??1?$CDynamicPoolEx@VCTextureAnimationRandomDecorator@NEffectUpdateDecorator@@@@UAE@XZ ; CDynamicPoolEx<NEffectUpdateDecorator::CTextureAnimationRandomDecorator>::~CDynamicPoolEx<NEffectUpdateDecorator::CTextureAnimationRandomDecorator>
  0000b	f6 45 08 01	 test	 BYTE PTR ___flags$[ebp], 1
  0000f	74 0b		 je	 SHORT $LN4@scalar
  00011	6a 24		 push	 36			; 00000024H
  00013	56		 push	 esi
  00014	e8 00 00 00 00	 call	 ??3@YAXPAXI@Z		; operator delete
  00019	83 c4 08	 add	 esp, 8
$LN4@scalar:
  0001c	8b c6		 mov	 eax, esi
  0001e	5e		 pop	 esi
  0001f	5d		 pop	 ebp
  00020	c2 04 00	 ret	 4
??_G?$CDynamicPoolEx@VCTextureAnimationRandomDecorator@NEffectUpdateDecorator@@@@UAEPAXI@Z ENDP ; CDynamicPoolEx<NEffectUpdateDecorator::CTextureAnimationRandomDecorator>::`scalar deleting destructor'
_TEXT	ENDS
; Function compile flags: /Ogtp
; File C:\Users\ALEXANDER\Desktop\Cliente\COPY_FISH_WON_NEW\Binario\Client\eterLib\Pool.h
;	COMDAT ?Delete@?$CDynamicPoolEx@VCTextureAnimationRandomDecorator@NEffectUpdateDecorator@@@@KAXPAVCTextureAnimationRandomDecorator@NEffectUpdateDecorator@@@Z
_TEXT	SEGMENT
_pkData$ = 8						; size = 4
?Delete@?$CDynamicPoolEx@VCTextureAnimationRandomDecorator@NEffectUpdateDecorator@@@@KAXPAVCTextureAnimationRandomDecorator@NEffectUpdateDecorator@@@Z PROC ; CDynamicPoolEx<NEffectUpdateDecorator::CTextureAnimationRandomDecorator>::Delete, COMDAT

; 224  : 			::operator delete(pkData);

  00000	e9 00 00 00 00	 jmp	 ??3@YAXPAX@Z		; operator delete
?Delete@?$CDynamicPoolEx@VCTextureAnimationRandomDecorator@NEffectUpdateDecorator@@@@KAXPAVCTextureAnimationRandomDecorator@NEffectUpdateDecorator@@@Z ENDP ; CDynamicPoolEx<NEffectUpdateDecorator::CTextureAnimationRandomDecorator>::Delete
_TEXT	ENDS
; Function compile flags: /Ogtp
; File C:\Users\ALEXANDER\Desktop\Cliente\COPY_FISH_WON_NEW\Binario\Client\eterLib\Pool.h
; File D:\visual studio 2019\visual studio 2019\VC\Tools\MSVC\14.29.30133\include\vector
; File D:\visual studio 2019\visual studio 2019\VC\Tools\MSVC\14.29.30133\include\algorithm
; File C:\Users\ALEXANDER\Desktop\Cliente\COPY_FISH_WON_NEW\Binario\Client\eterLib\Pool.h
; File D:\visual studio 2019\visual studio 2019\VC\Tools\MSVC\14.29.30133\include\algorithm
; File C:\Users\ALEXANDER\Desktop\Cliente\COPY_FISH_WON_NEW\Binario\Client\eterLib\Pool.h
; File D:\visual studio 2019\visual studio 2019\VC\Tools\MSVC\14.29.30133\include\algorithm
; File C:\Users\ALEXANDER\Desktop\Cliente\COPY_FISH_WON_NEW\Binario\Client\eterLib\Pool.h
; File D:\visual studio 2019\visual studio 2019\VC\Tools\MSVC\14.29.30133\include\vector
; File D:\visual studio 2019\visual studio 2019\VC\Tools\MSVC\14.29.30133\include\xmemory
; File D:\visual studio 2019\visual studio 2019\VC\Tools\MSVC\14.29.30133\include\vector
; File D:\visual studio 2019\visual studio 2019\VC\Tools\MSVC\14.29.30133\include\xmemory
; File D:\visual studio 2019\visual studio 2019\VC\Tools\MSVC\14.29.30133\include\vector
; File D:\visual studio 2019\visual studio 2019\VC\Tools\MSVC\14.29.30133\include\xmemory
; File D:\visual studio 2019\visual studio 2019\VC\Tools\MSVC\14.29.30133\include\vector
; File D:\visual studio 2019\visual studio 2019\VC\Tools\MSVC\14.29.30133\include\xmemory
; File D:\visual studio 2019\visual studio 2019\VC\Tools\MSVC\14.29.30133\include\vector
; File C:\Users\ALEXANDER\Desktop\Cliente\COPY_FISH_WON_NEW\Binario\Client\eterLib\Pool.h
; File D:\visual studio 2019\visual studio 2019\VC\Tools\MSVC\14.29.30133\include\xmemory
; File C:\Users\ALEXANDER\Desktop\Cliente\COPY_FISH_WON_NEW\Binario\Client\eterLib\Pool.h
;	COMDAT ??1?$CDynamicPoolEx@VCTextureAnimationRandomDecorator@NEffectUpdateDecorator@@@@UAE@XZ
_TEXT	SEGMENT
??1?$CDynamicPoolEx@VCTextureAnimationRandomDecorator@NEffectUpdateDecorator@@@@UAE@XZ PROC ; CDynamicPoolEx<NEffectUpdateDecorator::CTextureAnimationRandomDecorator>::~CDynamicPoolEx<NEffectUpdateDecorator::CTextureAnimationRandomDecorator>, COMDAT
; _this$ = ecx

; 132  : 		{

  00000	53		 push	 ebx
  00001	56		 push	 esi
  00002	57		 push	 edi
  00003	8b f9		 mov	 edi, ecx
  00005	c7 07 00 00 00
	00		 mov	 DWORD PTR [edi], OFFSET ??_7?$CDynamicPoolEx@VCTextureAnimationRandomDecorator@NEffectUpdateDecorator@@@@6B@
; File D:\visual studio 2019\visual studio 2019\VC\Tools\MSVC\14.29.30133\include\vector

; 41   :     _CONSTEXPR20_CONTAINER _Vector_const_iterator(_Tptr _Parg, const _Container_base* _Pvector) noexcept : _Ptr(_Parg) {

  0000b	8b 5f 08	 mov	 ebx, DWORD PTR [edi+8]
  0000e	8b 77 04	 mov	 esi, DWORD PTR [edi+4]
; File D:\visual studio 2019\visual studio 2019\VC\Tools\MSVC\14.29.30133\include\algorithm

; 232  :     for (; _UFirst != _ULast; ++_UFirst) {

  00011	3b f3		 cmp	 esi, ebx
  00013	74 14		 je	 SHORT $LN19@CDynamicPo
$LL20@CDynamicPo:
; File C:\Users\ALEXANDER\Desktop\Cliente\COPY_FISH_WON_NEW\Binario\Client\eterLib\Pool.h

; 224  : 			::operator delete(pkData);

  00015	ff 36		 push	 DWORD PTR [esi]
  00017	e8 00 00 00 00	 call	 ??3@YAXPAX@Z		; operator delete
; File D:\visual studio 2019\visual studio 2019\VC\Tools\MSVC\14.29.30133\include\algorithm

; 232  :     for (; _UFirst != _ULast; ++_UFirst) {

  0001c	83 c6 04	 add	 esi, 4
; File C:\Users\ALEXANDER\Desktop\Cliente\COPY_FISH_WON_NEW\Binario\Client\eterLib\Pool.h

; 224  : 			::operator delete(pkData);

  0001f	83 c4 04	 add	 esp, 4
; File D:\visual studio 2019\visual studio 2019\VC\Tools\MSVC\14.29.30133\include\algorithm

; 232  :     for (; _UFirst != _ULast; ++_UFirst) {

  00022	3b f3		 cmp	 esi, ebx
  00024	75 ef		 jne	 SHORT $LL20@CDynamicPo
  00026	8b 77 04	 mov	 esi, DWORD PTR [edi+4]
$LN19@CDynamicPo:
; File C:\Users\ALEXANDER\Desktop\Cliente\COPY_FISH_WON_NEW\Binario\Client\eterLib\Pool.h

; 162  : 			m_kVct_pkFree.clear();

  00029	8b 47 10	 mov	 eax, DWORD PTR [edi+16]
  0002c	89 77 08	 mov	 DWORD PTR [edi+8], esi
  0002f	89 47 14	 mov	 DWORD PTR [edi+20], eax
; File D:\visual studio 2019\visual studio 2019\VC\Tools\MSVC\14.29.30133\include\vector

; 1750 :         if (_Myfirst) { // destroy and deallocate old array

  00032	85 c0		 test	 eax, eax
  00034	74 41		 je	 SHORT $LN27@CDynamicPo

; 1751 :             _Destroy(_Myfirst, _Mylast);
; 1752 :             _Getal().deallocate(_Myfirst, static_cast<size_type>(_Myend - _Myfirst));

  00036	8b 4f 18	 mov	 ecx, DWORD PTR [edi+24]
  00039	2b c8		 sub	 ecx, eax
; File D:\visual studio 2019\visual studio 2019\VC\Tools\MSVC\14.29.30133\include\xmemory

; 797  :         _Deallocate<_New_alignof<_Ty>>(_Ptr, sizeof(_Ty) * _Count);

  0003b	83 e1 fc	 and	 ecx, -4			; fffffffcH

; 251  :         if (_Bytes >= _Big_allocation_threshold) { // boost the alignment of big allocations to help autovectorization

  0003e	81 f9 00 10 00
	00		 cmp	 ecx, 4096		; 00001000H
  00044	72 12		 jb	 SHORT $LN43@CDynamicPo

; 150  :     const uintptr_t _Ptr_container   = _Ptr_user[-1];

  00046	8b 50 fc	 mov	 edx, DWORD PTR [eax-4]
  00049	83 c1 23	 add	 ecx, 35			; 00000023H

; 151  : 
; 152  :     // If the following asserts, it likely means that we are performing
; 153  :     // an aligned delete on memory coming from an unaligned allocation.
; 154  :     _STL_ASSERT(_Ptr_user[-2] == _Big_allocation_sentinel, "invalid argument");
; 155  : 
; 156  :     // Extra paranoia on aligned allocation/deallocation; ensure _Ptr_container is
; 157  :     // in range [_Min_back_shift, _Non_user_size]
; 158  : #ifdef _DEBUG
; 159  :     constexpr uintptr_t _Min_back_shift = 2 * sizeof(void*);
; 160  : #else // ^^^ _DEBUG ^^^ // vvv !_DEBUG vvv
; 161  :     constexpr uintptr_t _Min_back_shift = sizeof(void*);
; 162  : #endif // _DEBUG
; 163  :     const uintptr_t _Back_shift = reinterpret_cast<uintptr_t>(_Ptr) - _Ptr_container;

  0004c	2b c2		 sub	 eax, edx

; 164  :     _STL_VERIFY(_Back_shift >= _Min_back_shift && _Back_shift <= _Non_user_size, "invalid argument");

  0004e	83 c0 fc	 add	 eax, -4			; fffffffcH
  00051	83 f8 1f	 cmp	 eax, 31			; 0000001fH
  00054	77 6d		 ja	 SHORT $LN65@CDynamicPo

; 165  :     _Ptr = reinterpret_cast<void*>(_Ptr_container);

  00056	8b c2		 mov	 eax, edx
$LN43@CDynamicPo:

; 255  :         ::operator delete(_Ptr, _Bytes);

  00058	51		 push	 ecx
  00059	50		 push	 eax
  0005a	e8 00 00 00 00	 call	 ??3@YAXPAXI@Z		; operator delete
; File D:\visual studio 2019\visual studio 2019\VC\Tools\MSVC\14.29.30133\include\vector

; 1754 :             _Myfirst = nullptr;

  0005f	c7 47 10 00 00
	00 00		 mov	 DWORD PTR [edi+16], 0
; File D:\visual studio 2019\visual studio 2019\VC\Tools\MSVC\14.29.30133\include\xmemory

; 255  :         ::operator delete(_Ptr, _Bytes);

  00066	83 c4 08	 add	 esp, 8
; File D:\visual studio 2019\visual studio 2019\VC\Tools\MSVC\14.29.30133\include\vector

; 1755 :             _Mylast  = nullptr;

  00069	c7 47 14 00 00
	00 00		 mov	 DWORD PTR [edi+20], 0

; 1756 :             _Myend   = nullptr;

  00070	c7 47 18 00 00
	00 00		 mov	 DWORD PTR [edi+24], 0
$LN27@CDynamicPo:

; 1750 :         if (_Myfirst) { // destroy and deallocate old array

  00077	8b 47 04	 mov	 eax, DWORD PTR [edi+4]
  0007a	85 c0		 test	 eax, eax
  0007c	74 41		 je	 SHORT $LN52@CDynamicPo

; 1751 :             _Destroy(_Myfirst, _Mylast);
; 1752 :             _Getal().deallocate(_Myfirst, static_cast<size_type>(_Myend - _Myfirst));

  0007e	8b 4f 0c	 mov	 ecx, DWORD PTR [edi+12]
  00081	2b c8		 sub	 ecx, eax
; File D:\visual studio 2019\visual studio 2019\VC\Tools\MSVC\14.29.30133\include\xmemory

; 797  :         _Deallocate<_New_alignof<_Ty>>(_Ptr, sizeof(_Ty) * _Count);

  00083	83 e1 fc	 and	 ecx, -4			; fffffffcH

; 251  :         if (_Bytes >= _Big_allocation_threshold) { // boost the alignment of big allocations to help autovectorization

  00086	81 f9 00 10 00
	00		 cmp	 ecx, 4096		; 00001000H
  0008c	72 12		 jb	 SHORT $LN68@CDynamicPo

; 150  :     const uintptr_t _Ptr_container   = _Ptr_user[-1];

  0008e	8b 50 fc	 mov	 edx, DWORD PTR [eax-4]
  00091	83 c1 23	 add	 ecx, 35			; 00000023H

; 151  : 
; 152  :     // If the following asserts, it likely means that we are performing
; 153  :     // an aligned delete on memory coming from an unaligned allocation.
; 154  :     _STL_ASSERT(_Ptr_user[-2] == _Big_allocation_sentinel, "invalid argument");
; 155  : 
; 156  :     // Extra paranoia on aligned allocation/deallocation; ensure _Ptr_container is
; 157  :     // in range [_Min_back_shift, _Non_user_size]
; 158  : #ifdef _DEBUG
; 159  :     constexpr uintptr_t _Min_back_shift = 2 * sizeof(void*);
; 160  : #else // ^^^ _DEBUG ^^^ // vvv !_DEBUG vvv
; 161  :     constexpr uintptr_t _Min_back_shift = sizeof(void*);
; 162  : #endif // _DEBUG
; 163  :     const uintptr_t _Back_shift = reinterpret_cast<uintptr_t>(_Ptr) - _Ptr_container;

  00094	2b c2		 sub	 eax, edx

; 164  :     _STL_VERIFY(_Back_shift >= _Min_back_shift && _Back_shift <= _Non_user_size, "invalid argument");

  00096	83 c0 fc	 add	 eax, -4			; fffffffcH
  00099	83 f8 1f	 cmp	 eax, 31			; 0000001fH
  0009c	77 25		 ja	 SHORT $LN65@CDynamicPo

; 165  :     _Ptr = reinterpret_cast<void*>(_Ptr_container);

  0009e	8b c2		 mov	 eax, edx
$LN68@CDynamicPo:

; 255  :         ::operator delete(_Ptr, _Bytes);

  000a0	51		 push	 ecx
  000a1	50		 push	 eax
  000a2	e8 00 00 00 00	 call	 ??3@YAXPAXI@Z		; operator delete
; File D:\visual studio 2019\visual studio 2019\VC\Tools\MSVC\14.29.30133\include\vector

; 1754 :             _Myfirst = nullptr;

  000a7	c7 47 04 00 00
	00 00		 mov	 DWORD PTR [edi+4], 0
; File D:\visual studio 2019\visual studio 2019\VC\Tools\MSVC\14.29.30133\include\xmemory

; 255  :         ::operator delete(_Ptr, _Bytes);

  000ae	83 c4 08	 add	 esp, 8
; File D:\visual studio 2019\visual studio 2019\VC\Tools\MSVC\14.29.30133\include\vector

; 1755 :             _Mylast  = nullptr;

  000b1	c7 47 08 00 00
	00 00		 mov	 DWORD PTR [edi+8], 0

; 1756 :             _Myend   = nullptr;

  000b8	c7 47 0c 00 00
	00 00		 mov	 DWORD PTR [edi+12], 0
$LN52@CDynamicPo:
  000bf	5f		 pop	 edi
; File C:\Users\ALEXANDER\Desktop\Cliente\COPY_FISH_WON_NEW\Binario\Client\eterLib\Pool.h

; 142  : 		}

  000c0	5e		 pop	 esi
  000c1	5b		 pop	 ebx
  000c2	c3		 ret	 0
$LN65@CDynamicPo:
; File D:\visual studio 2019\visual studio 2019\VC\Tools\MSVC\14.29.30133\include\xmemory

; 164  :     _STL_VERIFY(_Back_shift >= _Min_back_shift && _Back_shift <= _Non_user_size, "invalid argument");

  000c3	e8 00 00 00 00	 call	 __invalid_parameter_noinfo_noreturn
$LN77@CDynamicPo:
  000c8	cc		 int	 3
??1?$CDynamicPoolEx@VCTextureAnimationRandomDecorator@NEffectUpdateDecorator@@@@UAE@XZ ENDP ; CDynamicPoolEx<NEffectUpdateDecorator::CTextureAnimationRandomDecorator>::~CDynamicPoolEx<NEffectUpdateDecorator::CTextureAnimationRandomDecorator>
_TEXT	ENDS
; Function compile flags: /Ogtp
;	COMDAT ??_G?$CDynamicPoolEx@VCAirResistanceDecorator@NEffectUpdateDecorator@@@@UAEPAXI@Z
_TEXT	SEGMENT
___flags$ = 8						; size = 4
??_G?$CDynamicPoolEx@VCAirResistanceDecorator@NEffectUpdateDecorator@@@@UAEPAXI@Z PROC ; CDynamicPoolEx<NEffectUpdateDecorator::CAirResistanceDecorator>::`scalar deleting destructor', COMDAT
; _this$ = ecx
  00000	55		 push	 ebp
  00001	8b ec		 mov	 ebp, esp
  00003	56		 push	 esi
  00004	8b f1		 mov	 esi, ecx
  00006	e8 00 00 00 00	 call	 ??1?$CDynamicPoolEx@VCAirResistanceDecorator@NEffectUpdateDecorator@@@@UAE@XZ ; CDynamicPoolEx<NEffectUpdateDecorator::CAirResistanceDecorator>::~CDynamicPoolEx<NEffectUpdateDecorator::CAirResistanceDecorator>
  0000b	f6 45 08 01	 test	 BYTE PTR ___flags$[ebp], 1
  0000f	74 0b		 je	 SHORT $LN4@scalar
  00011	6a 24		 push	 36			; 00000024H
  00013	56		 push	 esi
  00014	e8 00 00 00 00	 call	 ??3@YAXPAXI@Z		; operator delete
  00019	83 c4 08	 add	 esp, 8
$LN4@scalar:
  0001c	8b c6		 mov	 eax, esi
  0001e	5e		 pop	 esi
  0001f	5d		 pop	 ebp
  00020	c2 04 00	 ret	 4
??_G?$CDynamicPoolEx@VCAirResistanceDecorator@NEffectUpdateDecorator@@@@UAEPAXI@Z ENDP ; CDynamicPoolEx<NEffectUpdateDecorator::CAirResistanceDecorator>::`scalar deleting destructor'
_TEXT	ENDS
; Function compile flags: /Ogtp
; File C:\Users\ALEXANDER\Desktop\Cliente\COPY_FISH_WON_NEW\Binario\Client\eterLib\Pool.h
;	COMDAT ?Delete@?$CDynamicPoolEx@VCAirResistanceDecorator@NEffectUpdateDecorator@@@@KAXPAVCAirResistanceDecorator@NEffectUpdateDecorator@@@Z
_TEXT	SEGMENT
_pkData$ = 8						; size = 4
?Delete@?$CDynamicPoolEx@VCAirResistanceDecorator@NEffectUpdateDecorator@@@@KAXPAVCAirResistanceDecorator@NEffectUpdateDecorator@@@Z PROC ; CDynamicPoolEx<NEffectUpdateDecorator::CAirResistanceDecorator>::Delete, COMDAT

; 224  : 			::operator delete(pkData);

  00000	e9 00 00 00 00	 jmp	 ??3@YAXPAX@Z		; operator delete
?Delete@?$CDynamicPoolEx@VCAirResistanceDecorator@NEffectUpdateDecorator@@@@KAXPAVCAirResistanceDecorator@NEffectUpdateDecorator@@@Z ENDP ; CDynamicPoolEx<NEffectUpdateDecorator::CAirResistanceDecorator>::Delete
_TEXT	ENDS
; Function compile flags: /Ogtp
; File C:\Users\ALEXANDER\Desktop\Cliente\COPY_FISH_WON_NEW\Binario\Client\eterLib\Pool.h
; File D:\visual studio 2019\visual studio 2019\VC\Tools\MSVC\14.29.30133\include\vector
; File D:\visual studio 2019\visual studio 2019\VC\Tools\MSVC\14.29.30133\include\algorithm
; File C:\Users\ALEXANDER\Desktop\Cliente\COPY_FISH_WON_NEW\Binario\Client\eterLib\Pool.h
; File D:\visual studio 2019\visual studio 2019\VC\Tools\MSVC\14.29.30133\include\algorithm
; File C:\Users\ALEXANDER\Desktop\Cliente\COPY_FISH_WON_NEW\Binario\Client\eterLib\Pool.h
; File D:\visual studio 2019\visual studio 2019\VC\Tools\MSVC\14.29.30133\include\algorithm
; File C:\Users\ALEXANDER\Desktop\Cliente\COPY_FISH_WON_NEW\Binario\Client\eterLib\Pool.h
; File D:\visual studio 2019\visual studio 2019\VC\Tools\MSVC\14.29.30133\include\vector
; File D:\visual studio 2019\visual studio 2019\VC\Tools\MSVC\14.29.30133\include\xmemory
; File D:\visual studio 2019\visual studio 2019\VC\Tools\MSVC\14.29.30133\include\vector
; File D:\visual studio 2019\visual studio 2019\VC\Tools\MSVC\14.29.30133\include\xmemory
; File D:\visual studio 2019\visual studio 2019\VC\Tools\MSVC\14.29.30133\include\vector
; File D:\visual studio 2019\visual studio 2019\VC\Tools\MSVC\14.29.30133\include\xmemory
; File D:\visual studio 2019\visual studio 2019\VC\Tools\MSVC\14.29.30133\include\vector
; File D:\visual studio 2019\visual studio 2019\VC\Tools\MSVC\14.29.30133\include\xmemory
; File D:\visual studio 2019\visual studio 2019\VC\Tools\MSVC\14.29.30133\include\vector
; File C:\Users\ALEXANDER\Desktop\Cliente\COPY_FISH_WON_NEW\Binario\Client\eterLib\Pool.h
; File D:\visual studio 2019\visual studio 2019\VC\Tools\MSVC\14.29.30133\include\xmemory
; File C:\Users\ALEXANDER\Desktop\Cliente\COPY_FISH_WON_NEW\Binario\Client\eterLib\Pool.h
;	COMDAT ??1?$CDynamicPoolEx@VCAirResistanceDecorator@NEffectUpdateDecorator@@@@UAE@XZ
_TEXT	SEGMENT
??1?$CDynamicPoolEx@VCAirResistanceDecorator@NEffectUpdateDecorator@@@@UAE@XZ PROC ; CDynamicPoolEx<NEffectUpdateDecorator::CAirResistanceDecorator>::~CDynamicPoolEx<NEffectUpdateDecorator::CAirResistanceDecorator>, COMDAT
; _this$ = ecx

; 132  : 		{

  00000	53		 push	 ebx
  00001	56		 push	 esi
  00002	57		 push	 edi
  00003	8b f9		 mov	 edi, ecx
  00005	c7 07 00 00 00
	00		 mov	 DWORD PTR [edi], OFFSET ??_7?$CDynamicPoolEx@VCAirResistanceDecorator@NEffectUpdateDecorator@@@@6B@
; File D:\visual studio 2019\visual studio 2019\VC\Tools\MSVC\14.29.30133\include\vector

; 41   :     _CONSTEXPR20_CONTAINER _Vector_const_iterator(_Tptr _Parg, const _Container_base* _Pvector) noexcept : _Ptr(_Parg) {

  0000b	8b 5f 08	 mov	 ebx, DWORD PTR [edi+8]
  0000e	8b 77 04	 mov	 esi, DWORD PTR [edi+4]
; File D:\visual studio 2019\visual studio 2019\VC\Tools\MSVC\14.29.30133\include\algorithm

; 232  :     for (; _UFirst != _ULast; ++_UFirst) {

  00011	3b f3		 cmp	 esi, ebx
  00013	74 14		 je	 SHORT $LN19@CDynamicPo
$LL20@CDynamicPo:
; File C:\Users\ALEXANDER\Desktop\Cliente\COPY_FISH_WON_NEW\Binario\Client\eterLib\Pool.h

; 224  : 			::operator delete(pkData);

  00015	ff 36		 push	 DWORD PTR [esi]
  00017	e8 00 00 00 00	 call	 ??3@YAXPAX@Z		; operator delete
; File D:\visual studio 2019\visual studio 2019\VC\Tools\MSVC\14.29.30133\include\algorithm

; 232  :     for (; _UFirst != _ULast; ++_UFirst) {

  0001c	83 c6 04	 add	 esi, 4
; File C:\Users\ALEXANDER\Desktop\Cliente\COPY_FISH_WON_NEW\Binario\Client\eterLib\Pool.h

; 224  : 			::operator delete(pkData);

  0001f	83 c4 04	 add	 esp, 4
; File D:\visual studio 2019\visual studio 2019\VC\Tools\MSVC\14.29.30133\include\algorithm

; 232  :     for (; _UFirst != _ULast; ++_UFirst) {

  00022	3b f3		 cmp	 esi, ebx
  00024	75 ef		 jne	 SHORT $LL20@CDynamicPo
  00026	8b 77 04	 mov	 esi, DWORD PTR [edi+4]
$LN19@CDynamicPo:
; File C:\Users\ALEXANDER\Desktop\Cliente\COPY_FISH_WON_NEW\Binario\Client\eterLib\Pool.h

; 162  : 			m_kVct_pkFree.clear();

  00029	8b 47 10	 mov	 eax, DWORD PTR [edi+16]
  0002c	89 77 08	 mov	 DWORD PTR [edi+8], esi
  0002f	89 47 14	 mov	 DWORD PTR [edi+20], eax
; File D:\visual studio 2019\visual studio 2019\VC\Tools\MSVC\14.29.30133\include\vector

; 1750 :         if (_Myfirst) { // destroy and deallocate old array

  00032	85 c0		 test	 eax, eax
  00034	74 41		 je	 SHORT $LN27@CDynamicPo

; 1751 :             _Destroy(_Myfirst, _Mylast);
; 1752 :             _Getal().deallocate(_Myfirst, static_cast<size_type>(_Myend - _Myfirst));

  00036	8b 4f 18	 mov	 ecx, DWORD PTR [edi+24]
  00039	2b c8		 sub	 ecx, eax
; File D:\visual studio 2019\visual studio 2019\VC\Tools\MSVC\14.29.30133\include\xmemory

; 797  :         _Deallocate<_New_alignof<_Ty>>(_Ptr, sizeof(_Ty) * _Count);

  0003b	83 e1 fc	 and	 ecx, -4			; fffffffcH

; 251  :         if (_Bytes >= _Big_allocation_threshold) { // boost the alignment of big allocations to help autovectorization

  0003e	81 f9 00 10 00
	00		 cmp	 ecx, 4096		; 00001000H
  00044	72 12		 jb	 SHORT $LN43@CDynamicPo

; 150  :     const uintptr_t _Ptr_container   = _Ptr_user[-1];

  00046	8b 50 fc	 mov	 edx, DWORD PTR [eax-4]
  00049	83 c1 23	 add	 ecx, 35			; 00000023H

; 151  : 
; 152  :     // If the following asserts, it likely means that we are performing
; 153  :     // an aligned delete on memory coming from an unaligned allocation.
; 154  :     _STL_ASSERT(_Ptr_user[-2] == _Big_allocation_sentinel, "invalid argument");
; 155  : 
; 156  :     // Extra paranoia on aligned allocation/deallocation; ensure _Ptr_container is
; 157  :     // in range [_Min_back_shift, _Non_user_size]
; 158  : #ifdef _DEBUG
; 159  :     constexpr uintptr_t _Min_back_shift = 2 * sizeof(void*);
; 160  : #else // ^^^ _DEBUG ^^^ // vvv !_DEBUG vvv
; 161  :     constexpr uintptr_t _Min_back_shift = sizeof(void*);
; 162  : #endif // _DEBUG
; 163  :     const uintptr_t _Back_shift = reinterpret_cast<uintptr_t>(_Ptr) - _Ptr_container;

  0004c	2b c2		 sub	 eax, edx

; 164  :     _STL_VERIFY(_Back_shift >= _Min_back_shift && _Back_shift <= _Non_user_size, "invalid argument");

  0004e	83 c0 fc	 add	 eax, -4			; fffffffcH
  00051	83 f8 1f	 cmp	 eax, 31			; 0000001fH
  00054	77 6d		 ja	 SHORT $LN65@CDynamicPo

; 165  :     _Ptr = reinterpret_cast<void*>(_Ptr_container);

  00056	8b c2		 mov	 eax, edx
$LN43@CDynamicPo:

; 255  :         ::operator delete(_Ptr, _Bytes);

  00058	51		 push	 ecx
  00059	50		 push	 eax
  0005a	e8 00 00 00 00	 call	 ??3@YAXPAXI@Z		; operator delete
; File D:\visual studio 2019\visual studio 2019\VC\Tools\MSVC\14.29.30133\include\vector

; 1754 :             _Myfirst = nullptr;

  0005f	c7 47 10 00 00
	00 00		 mov	 DWORD PTR [edi+16], 0
; File D:\visual studio 2019\visual studio 2019\VC\Tools\MSVC\14.29.30133\include\xmemory

; 255  :         ::operator delete(_Ptr, _Bytes);

  00066	83 c4 08	 add	 esp, 8
; File D:\visual studio 2019\visual studio 2019\VC\Tools\MSVC\14.29.30133\include\vector

; 1755 :             _Mylast  = nullptr;

  00069	c7 47 14 00 00
	00 00		 mov	 DWORD PTR [edi+20], 0

; 1756 :             _Myend   = nullptr;

  00070	c7 47 18 00 00
	00 00		 mov	 DWORD PTR [edi+24], 0
$LN27@CDynamicPo:

; 1750 :         if (_Myfirst) { // destroy and deallocate old array

  00077	8b 47 04	 mov	 eax, DWORD PTR [edi+4]
  0007a	85 c0		 test	 eax, eax
  0007c	74 41		 je	 SHORT $LN52@CDynamicPo

; 1751 :             _Destroy(_Myfirst, _Mylast);
; 1752 :             _Getal().deallocate(_Myfirst, static_cast<size_type>(_Myend - _Myfirst));

  0007e	8b 4f 0c	 mov	 ecx, DWORD PTR [edi+12]
  00081	2b c8		 sub	 ecx, eax
; File D:\visual studio 2019\visual studio 2019\VC\Tools\MSVC\14.29.30133\include\xmemory

; 797  :         _Deallocate<_New_alignof<_Ty>>(_Ptr, sizeof(_Ty) * _Count);

  00083	83 e1 fc	 and	 ecx, -4			; fffffffcH

; 251  :         if (_Bytes >= _Big_allocation_threshold) { // boost the alignment of big allocations to help autovectorization

  00086	81 f9 00 10 00
	00		 cmp	 ecx, 4096		; 00001000H
  0008c	72 12		 jb	 SHORT $LN68@CDynamicPo

; 150  :     const uintptr_t _Ptr_container   = _Ptr_user[-1];

  0008e	8b 50 fc	 mov	 edx, DWORD PTR [eax-4]
  00091	83 c1 23	 add	 ecx, 35			; 00000023H

; 151  : 
; 152  :     // If the following asserts, it likely means that we are performing
; 153  :     // an aligned delete on memory coming from an unaligned allocation.
; 154  :     _STL_ASSERT(_Ptr_user[-2] == _Big_allocation_sentinel, "invalid argument");
; 155  : 
; 156  :     // Extra paranoia on aligned allocation/deallocation; ensure _Ptr_container is
; 157  :     // in range [_Min_back_shift, _Non_user_size]
; 158  : #ifdef _DEBUG
; 159  :     constexpr uintptr_t _Min_back_shift = 2 * sizeof(void*);
; 160  : #else // ^^^ _DEBUG ^^^ // vvv !_DEBUG vvv
; 161  :     constexpr uintptr_t _Min_back_shift = sizeof(void*);
; 162  : #endif // _DEBUG
; 163  :     const uintptr_t _Back_shift = reinterpret_cast<uintptr_t>(_Ptr) - _Ptr_container;

  00094	2b c2		 sub	 eax, edx

; 164  :     _STL_VERIFY(_Back_shift >= _Min_back_shift && _Back_shift <= _Non_user_size, "invalid argument");

  00096	83 c0 fc	 add	 eax, -4			; fffffffcH
  00099	83 f8 1f	 cmp	 eax, 31			; 0000001fH
  0009c	77 25		 ja	 SHORT $LN65@CDynamicPo

; 165  :     _Ptr = reinterpret_cast<void*>(_Ptr_container);

  0009e	8b c2		 mov	 eax, edx
$LN68@CDynamicPo:

; 255  :         ::operator delete(_Ptr, _Bytes);

  000a0	51		 push	 ecx
  000a1	50		 push	 eax
  000a2	e8 00 00 00 00	 call	 ??3@YAXPAXI@Z		; operator delete
; File D:\visual studio 2019\visual studio 2019\VC\Tools\MSVC\14.29.30133\include\vector

; 1754 :             _Myfirst = nullptr;

  000a7	c7 47 04 00 00
	00 00		 mov	 DWORD PTR [edi+4], 0
; File D:\visual studio 2019\visual studio 2019\VC\Tools\MSVC\14.29.30133\include\xmemory

; 255  :         ::operator delete(_Ptr, _Bytes);

  000ae	83 c4 08	 add	 esp, 8
; File D:\visual studio 2019\visual studio 2019\VC\Tools\MSVC\14.29.30133\include\vector

; 1755 :             _Mylast  = nullptr;

  000b1	c7 47 08 00 00
	00 00		 mov	 DWORD PTR [edi+8], 0

; 1756 :             _Myend   = nullptr;

  000b8	c7 47 0c 00 00
	00 00		 mov	 DWORD PTR [edi+12], 0
$LN52@CDynamicPo:
  000bf	5f		 pop	 edi
; File C:\Users\ALEXANDER\Desktop\Cliente\COPY_FISH_WON_NEW\Binario\Client\eterLib\Pool.h

; 142  : 		}

  000c0	5e		 pop	 esi
  000c1	5b		 pop	 ebx
  000c2	c3		 ret	 0
$LN65@CDynamicPo:
; File D:\visual studio 2019\visual studio 2019\VC\Tools\MSVC\14.29.30133\include\xmemory

; 164  :     _STL_VERIFY(_Back_shift >= _Min_back_shift && _Back_shift <= _Non_user_size, "invalid argument");

  000c3	e8 00 00 00 00	 call	 __invalid_parameter_noinfo_noreturn
$LN77@CDynamicPo:
  000c8	cc		 int	 3
??1?$CDynamicPoolEx@VCAirResistanceDecorator@NEffectUpdateDecorator@@@@UAE@XZ ENDP ; CDynamicPoolEx<NEffectUpdateDecorator::CAirResistanceDecorator>::~CDynamicPoolEx<NEffectUpdateDecorator::CAirResistanceDecorator>
_TEXT	ENDS
; Function compile flags: /Ogtp
;	COMDAT ??_G?$CDynamicPoolEx@VCGravityDecorator@NEffectUpdateDecorator@@@@UAEPAXI@Z
_TEXT	SEGMENT
___flags$ = 8						; size = 4
??_G?$CDynamicPoolEx@VCGravityDecorator@NEffectUpdateDecorator@@@@UAEPAXI@Z PROC ; CDynamicPoolEx<NEffectUpdateDecorator::CGravityDecorator>::`scalar deleting destructor', COMDAT
; _this$ = ecx
  00000	55		 push	 ebp
  00001	8b ec		 mov	 ebp, esp
  00003	56		 push	 esi
  00004	8b f1		 mov	 esi, ecx
  00006	e8 00 00 00 00	 call	 ??1?$CDynamicPoolEx@VCGravityDecorator@NEffectUpdateDecorator@@@@UAE@XZ ; CDynamicPoolEx<NEffectUpdateDecorator::CGravityDecorator>::~CDynamicPoolEx<NEffectUpdateDecorator::CGravityDecorator>
  0000b	f6 45 08 01	 test	 BYTE PTR ___flags$[ebp], 1
  0000f	74 0b		 je	 SHORT $LN4@scalar
  00011	6a 24		 push	 36			; 00000024H
  00013	56		 push	 esi
  00014	e8 00 00 00 00	 call	 ??3@YAXPAXI@Z		; operator delete
  00019	83 c4 08	 add	 esp, 8
$LN4@scalar:
  0001c	8b c6		 mov	 eax, esi
  0001e	5e		 pop	 esi
  0001f	5d		 pop	 ebp
  00020	c2 04 00	 ret	 4
??_G?$CDynamicPoolEx@VCGravityDecorator@NEffectUpdateDecorator@@@@UAEPAXI@Z ENDP ; CDynamicPoolEx<NEffectUpdateDecorator::CGravityDecorator>::`scalar deleting destructor'
_TEXT	ENDS
; Function compile flags: /Ogtp
; File C:\Users\ALEXANDER\Desktop\Cliente\COPY_FISH_WON_NEW\Binario\Client\eterLib\Pool.h
;	COMDAT ?Delete@?$CDynamicPoolEx@VCGravityDecorator@NEffectUpdateDecorator@@@@KAXPAVCGravityDecorator@NEffectUpdateDecorator@@@Z
_TEXT	SEGMENT
_pkData$ = 8						; size = 4
?Delete@?$CDynamicPoolEx@VCGravityDecorator@NEffectUpdateDecorator@@@@KAXPAVCGravityDecorator@NEffectUpdateDecorator@@@Z PROC ; CDynamicPoolEx<NEffectUpdateDecorator::CGravityDecorator>::Delete, COMDAT

; 224  : 			::operator delete(pkData);

  00000	e9 00 00 00 00	 jmp	 ??3@YAXPAX@Z		; operator delete
?Delete@?$CDynamicPoolEx@VCGravityDecorator@NEffectUpdateDecorator@@@@KAXPAVCGravityDecorator@NEffectUpdateDecorator@@@Z ENDP ; CDynamicPoolEx<NEffectUpdateDecorator::CGravityDecorator>::Delete
_TEXT	ENDS
; Function compile flags: /Ogtp
; File C:\Users\ALEXANDER\Desktop\Cliente\COPY_FISH_WON_NEW\Binario\Client\eterLib\Pool.h
; File D:\visual studio 2019\visual studio 2019\VC\Tools\MSVC\14.29.30133\include\vector
; File D:\visual studio 2019\visual studio 2019\VC\Tools\MSVC\14.29.30133\include\algorithm
; File C:\Users\ALEXANDER\Desktop\Cliente\COPY_FISH_WON_NEW\Binario\Client\eterLib\Pool.h
; File D:\visual studio 2019\visual studio 2019\VC\Tools\MSVC\14.29.30133\include\algorithm
; File C:\Users\ALEXANDER\Desktop\Cliente\COPY_FISH_WON_NEW\Binario\Client\eterLib\Pool.h
; File D:\visual studio 2019\visual studio 2019\VC\Tools\MSVC\14.29.30133\include\algorithm
; File C:\Users\ALEXANDER\Desktop\Cliente\COPY_FISH_WON_NEW\Binario\Client\eterLib\Pool.h
; File D:\visual studio 2019\visual studio 2019\VC\Tools\MSVC\14.29.30133\include\vector
; File D:\visual studio 2019\visual studio 2019\VC\Tools\MSVC\14.29.30133\include\xmemory
; File D:\visual studio 2019\visual studio 2019\VC\Tools\MSVC\14.29.30133\include\vector
; File D:\visual studio 2019\visual studio 2019\VC\Tools\MSVC\14.29.30133\include\xmemory
; File D:\visual studio 2019\visual studio 2019\VC\Tools\MSVC\14.29.30133\include\vector
; File D:\visual studio 2019\visual studio 2019\VC\Tools\MSVC\14.29.30133\include\xmemory
; File D:\visual studio 2019\visual studio 2019\VC\Tools\MSVC\14.29.30133\include\vector
; File D:\visual studio 2019\visual studio 2019\VC\Tools\MSVC\14.29.30133\include\xmemory
; File D:\visual studio 2019\visual studio 2019\VC\Tools\MSVC\14.29.30133\include\vector
; File C:\Users\ALEXANDER\Desktop\Cliente\COPY_FISH_WON_NEW\Binario\Client\eterLib\Pool.h
; File D:\visual studio 2019\visual studio 2019\VC\Tools\MSVC\14.29.30133\include\xmemory
; File C:\Users\ALEXANDER\Desktop\Cliente\COPY_FISH_WON_NEW\Binario\Client\eterLib\Pool.h
;	COMDAT ??1?$CDynamicPoolEx@VCGravityDecorator@NEffectUpdateDecorator@@@@UAE@XZ
_TEXT	SEGMENT
??1?$CDynamicPoolEx@VCGravityDecorator@NEffectUpdateDecorator@@@@UAE@XZ PROC ; CDynamicPoolEx<NEffectUpdateDecorator::CGravityDecorator>::~CDynamicPoolEx<NEffectUpdateDecorator::CGravityDecorator>, COMDAT
; _this$ = ecx

; 132  : 		{

  00000	53		 push	 ebx
  00001	56		 push	 esi
  00002	57		 push	 edi
  00003	8b f9		 mov	 edi, ecx
  00005	c7 07 00 00 00
	00		 mov	 DWORD PTR [edi], OFFSET ??_7?$CDynamicPoolEx@VCGravityDecorator@NEffectUpdateDecorator@@@@6B@
; File D:\visual studio 2019\visual studio 2019\VC\Tools\MSVC\14.29.30133\include\vector

; 41   :     _CONSTEXPR20_CONTAINER _Vector_const_iterator(_Tptr _Parg, const _Container_base* _Pvector) noexcept : _Ptr(_Parg) {

  0000b	8b 5f 08	 mov	 ebx, DWORD PTR [edi+8]
  0000e	8b 77 04	 mov	 esi, DWORD PTR [edi+4]
; File D:\visual studio 2019\visual studio 2019\VC\Tools\MSVC\14.29.30133\include\algorithm

; 232  :     for (; _UFirst != _ULast; ++_UFirst) {

  00011	3b f3		 cmp	 esi, ebx
  00013	74 14		 je	 SHORT $LN19@CDynamicPo
$LL20@CDynamicPo:
; File C:\Users\ALEXANDER\Desktop\Cliente\COPY_FISH_WON_NEW\Binario\Client\eterLib\Pool.h

; 224  : 			::operator delete(pkData);

  00015	ff 36		 push	 DWORD PTR [esi]
  00017	e8 00 00 00 00	 call	 ??3@YAXPAX@Z		; operator delete
; File D:\visual studio 2019\visual studio 2019\VC\Tools\MSVC\14.29.30133\include\algorithm

; 232  :     for (; _UFirst != _ULast; ++_UFirst) {

  0001c	83 c6 04	 add	 esi, 4
; File C:\Users\ALEXANDER\Desktop\Cliente\COPY_FISH_WON_NEW\Binario\Client\eterLib\Pool.h

; 224  : 			::operator delete(pkData);

  0001f	83 c4 04	 add	 esp, 4
; File D:\visual studio 2019\visual studio 2019\VC\Tools\MSVC\14.29.30133\include\algorithm

; 232  :     for (; _UFirst != _ULast; ++_UFirst) {

  00022	3b f3		 cmp	 esi, ebx
  00024	75 ef		 jne	 SHORT $LL20@CDynamicPo
  00026	8b 77 04	 mov	 esi, DWORD PTR [edi+4]
$LN19@CDynamicPo:
; File C:\Users\ALEXANDER\Desktop\Cliente\COPY_FISH_WON_NEW\Binario\Client\eterLib\Pool.h

; 162  : 			m_kVct_pkFree.clear();

  00029	8b 47 10	 mov	 eax, DWORD PTR [edi+16]
  0002c	89 77 08	 mov	 DWORD PTR [edi+8], esi
  0002f	89 47 14	 mov	 DWORD PTR [edi+20], eax
; File D:\visual studio 2019\visual studio 2019\VC\Tools\MSVC\14.29.30133\include\vector

; 1750 :         if (_Myfirst) { // destroy and deallocate old array

  00032	85 c0		 test	 eax, eax
  00034	74 41		 je	 SHORT $LN27@CDynamicPo

; 1751 :             _Destroy(_Myfirst, _Mylast);
; 1752 :             _Getal().deallocate(_Myfirst, static_cast<size_type>(_Myend - _Myfirst));

  00036	8b 4f 18	 mov	 ecx, DWORD PTR [edi+24]
  00039	2b c8		 sub	 ecx, eax
; File D:\visual studio 2019\visual studio 2019\VC\Tools\MSVC\14.29.30133\include\xmemory

; 797  :         _Deallocate<_New_alignof<_Ty>>(_Ptr, sizeof(_Ty) * _Count);

  0003b	83 e1 fc	 and	 ecx, -4			; fffffffcH

; 251  :         if (_Bytes >= _Big_allocation_threshold) { // boost the alignment of big allocations to help autovectorization

  0003e	81 f9 00 10 00
	00		 cmp	 ecx, 4096		; 00001000H
  00044	72 12		 jb	 SHORT $LN43@CDynamicPo

; 150  :     const uintptr_t _Ptr_container   = _Ptr_user[-1];

  00046	8b 50 fc	 mov	 edx, DWORD PTR [eax-4]
  00049	83 c1 23	 add	 ecx, 35			; 00000023H

; 151  : 
; 152  :     // If the following asserts, it likely means that we are performing
; 153  :     // an aligned delete on memory coming from an unaligned allocation.
; 154  :     _STL_ASSERT(_Ptr_user[-2] == _Big_allocation_sentinel, "invalid argument");
; 155  : 
; 156  :     // Extra paranoia on aligned allocation/deallocation; ensure _Ptr_container is
; 157  :     // in range [_Min_back_shift, _Non_user_size]
; 158  : #ifdef _DEBUG
; 159  :     constexpr uintptr_t _Min_back_shift = 2 * sizeof(void*);
; 160  : #else // ^^^ _DEBUG ^^^ // vvv !_DEBUG vvv
; 161  :     constexpr uintptr_t _Min_back_shift = sizeof(void*);
; 162  : #endif // _DEBUG
; 163  :     const uintptr_t _Back_shift = reinterpret_cast<uintptr_t>(_Ptr) - _Ptr_container;

  0004c	2b c2		 sub	 eax, edx

; 164  :     _STL_VERIFY(_Back_shift >= _Min_back_shift && _Back_shift <= _Non_user_size, "invalid argument");

  0004e	83 c0 fc	 add	 eax, -4			; fffffffcH
  00051	83 f8 1f	 cmp	 eax, 31			; 0000001fH
  00054	77 6d		 ja	 SHORT $LN65@CDynamicPo

; 165  :     _Ptr = reinterpret_cast<void*>(_Ptr_container);

  00056	8b c2		 mov	 eax, edx
$LN43@CDynamicPo:

; 255  :         ::operator delete(_Ptr, _Bytes);

  00058	51		 push	 ecx
  00059	50		 push	 eax
  0005a	e8 00 00 00 00	 call	 ??3@YAXPAXI@Z		; operator delete
; File D:\visual studio 2019\visual studio 2019\VC\Tools\MSVC\14.29.30133\include\vector

; 1754 :             _Myfirst = nullptr;

  0005f	c7 47 10 00 00
	00 00		 mov	 DWORD PTR [edi+16], 0
; File D:\visual studio 2019\visual studio 2019\VC\Tools\MSVC\14.29.30133\include\xmemory

; 255  :         ::operator delete(_Ptr, _Bytes);

  00066	83 c4 08	 add	 esp, 8
; File D:\visual studio 2019\visual studio 2019\VC\Tools\MSVC\14.29.30133\include\vector

; 1755 :             _Mylast  = nullptr;

  00069	c7 47 14 00 00
	00 00		 mov	 DWORD PTR [edi+20], 0

; 1756 :             _Myend   = nullptr;

  00070	c7 47 18 00 00
	00 00		 mov	 DWORD PTR [edi+24], 0
$LN27@CDynamicPo:

; 1750 :         if (_Myfirst) { // destroy and deallocate old array

  00077	8b 47 04	 mov	 eax, DWORD PTR [edi+4]
  0007a	85 c0		 test	 eax, eax
  0007c	74 41		 je	 SHORT $LN52@CDynamicPo

; 1751 :             _Destroy(_Myfirst, _Mylast);
; 1752 :             _Getal().deallocate(_Myfirst, static_cast<size_type>(_Myend - _Myfirst));

  0007e	8b 4f 0c	 mov	 ecx, DWORD PTR [edi+12]
  00081	2b c8		 sub	 ecx, eax
; File D:\visual studio 2019\visual studio 2019\VC\Tools\MSVC\14.29.30133\include\xmemory

; 797  :         _Deallocate<_New_alignof<_Ty>>(_Ptr, sizeof(_Ty) * _Count);

  00083	83 e1 fc	 and	 ecx, -4			; fffffffcH

; 251  :         if (_Bytes >= _Big_allocation_threshold) { // boost the alignment of big allocations to help autovectorization

  00086	81 f9 00 10 00
	00		 cmp	 ecx, 4096		; 00001000H
  0008c	72 12		 jb	 SHORT $LN68@CDynamicPo

; 150  :     const uintptr_t _Ptr_container   = _Ptr_user[-1];

  0008e	8b 50 fc	 mov	 edx, DWORD PTR [eax-4]
  00091	83 c1 23	 add	 ecx, 35			; 00000023H

; 151  : 
; 152  :     // If the following asserts, it likely means that we are performing
; 153  :     // an aligned delete on memory coming from an unaligned allocation.
; 154  :     _STL_ASSERT(_Ptr_user[-2] == _Big_allocation_sentinel, "invalid argument");
; 155  : 
; 156  :     // Extra paranoia on aligned allocation/deallocation; ensure _Ptr_container is
; 157  :     // in range [_Min_back_shift, _Non_user_size]
; 158  : #ifdef _DEBUG
; 159  :     constexpr uintptr_t _Min_back_shift = 2 * sizeof(void*);
; 160  : #else // ^^^ _DEBUG ^^^ // vvv !_DEBUG vvv
; 161  :     constexpr uintptr_t _Min_back_shift = sizeof(void*);
; 162  : #endif // _DEBUG
; 163  :     const uintptr_t _Back_shift = reinterpret_cast<uintptr_t>(_Ptr) - _Ptr_container;

  00094	2b c2		 sub	 eax, edx

; 164  :     _STL_VERIFY(_Back_shift >= _Min_back_shift && _Back_shift <= _Non_user_size, "invalid argument");

  00096	83 c0 fc	 add	 eax, -4			; fffffffcH
  00099	83 f8 1f	 cmp	 eax, 31			; 0000001fH
  0009c	77 25		 ja	 SHORT $LN65@CDynamicPo

; 165  :     _Ptr = reinterpret_cast<void*>(_Ptr_container);

  0009e	8b c2		 mov	 eax, edx
$LN68@CDynamicPo:

; 255  :         ::operator delete(_Ptr, _Bytes);

  000a0	51		 push	 ecx
  000a1	50		 push	 eax
  000a2	e8 00 00 00 00	 call	 ??3@YAXPAXI@Z		; operator delete
; File D:\visual studio 2019\visual studio 2019\VC\Tools\MSVC\14.29.30133\include\vector

; 1754 :             _Myfirst = nullptr;

  000a7	c7 47 04 00 00
	00 00		 mov	 DWORD PTR [edi+4], 0
; File D:\visual studio 2019\visual studio 2019\VC\Tools\MSVC\14.29.30133\include\xmemory

; 255  :         ::operator delete(_Ptr, _Bytes);

  000ae	83 c4 08	 add	 esp, 8
; File D:\visual studio 2019\visual studio 2019\VC\Tools\MSVC\14.29.30133\include\vector

; 1755 :             _Mylast  = nullptr;

  000b1	c7 47 08 00 00
	00 00		 mov	 DWORD PTR [edi+8], 0

; 1756 :             _Myend   = nullptr;

  000b8	c7 47 0c 00 00
	00 00		 mov	 DWORD PTR [edi+12], 0
$LN52@CDynamicPo:
  000bf	5f		 pop	 edi
; File C:\Users\ALEXANDER\Desktop\Cliente\COPY_FISH_WON_NEW\Binario\Client\eterLib\Pool.h

; 142  : 		}

  000c0	5e		 pop	 esi
  000c1	5b		 pop	 ebx
  000c2	c3		 ret	 0
$LN65@CDynamicPo:
; File D:\visual studio 2019\visual studio 2019\VC\Tools\MSVC\14.29.30133\include\xmemory

; 164  :     _STL_VERIFY(_Back_shift >= _Min_back_shift && _Back_shift <= _Non_user_size, "invalid argument");

  000c3	e8 00 00 00 00	 call	 __invalid_parameter_noinfo_noreturn
$LN77@CDynamicPo:
  000c8	cc		 int	 3
??1?$CDynamicPoolEx@VCGravityDecorator@NEffectUpdateDecorator@@@@UAE@XZ ENDP ; CDynamicPoolEx<NEffectUpdateDecorator::CGravityDecorator>::~CDynamicPoolEx<NEffectUpdateDecorator::CGravityDecorator>
_TEXT	ENDS
; Function compile flags: /Ogtp
;	COMDAT ??_G?$CDynamicPoolEx@VCRotationDecorator@NEffectUpdateDecorator@@@@UAEPAXI@Z
_TEXT	SEGMENT
___flags$ = 8						; size = 4
??_G?$CDynamicPoolEx@VCRotationDecorator@NEffectUpdateDecorator@@@@UAEPAXI@Z PROC ; CDynamicPoolEx<NEffectUpdateDecorator::CRotationDecorator>::`scalar deleting destructor', COMDAT
; _this$ = ecx
  00000	55		 push	 ebp
  00001	8b ec		 mov	 ebp, esp
  00003	56		 push	 esi
  00004	8b f1		 mov	 esi, ecx
  00006	e8 00 00 00 00	 call	 ??1?$CDynamicPoolEx@VCRotationDecorator@NEffectUpdateDecorator@@@@UAE@XZ ; CDynamicPoolEx<NEffectUpdateDecorator::CRotationDecorator>::~CDynamicPoolEx<NEffectUpdateDecorator::CRotationDecorator>
  0000b	f6 45 08 01	 test	 BYTE PTR ___flags$[ebp], 1
  0000f	74 0b		 je	 SHORT $LN4@scalar
  00011	6a 24		 push	 36			; 00000024H
  00013	56		 push	 esi
  00014	e8 00 00 00 00	 call	 ??3@YAXPAXI@Z		; operator delete
  00019	83 c4 08	 add	 esp, 8
$LN4@scalar:
  0001c	8b c6		 mov	 eax, esi
  0001e	5e		 pop	 esi
  0001f	5d		 pop	 ebp
  00020	c2 04 00	 ret	 4
??_G?$CDynamicPoolEx@VCRotationDecorator@NEffectUpdateDecorator@@@@UAEPAXI@Z ENDP ; CDynamicPoolEx<NEffectUpdateDecorator::CRotationDecorator>::`scalar deleting destructor'
_TEXT	ENDS
; Function compile flags: /Ogtp
; File C:\Users\ALEXANDER\Desktop\Cliente\COPY_FISH_WON_NEW\Binario\Client\eterLib\Pool.h
;	COMDAT ?Delete@?$CDynamicPoolEx@VCRotationDecorator@NEffectUpdateDecorator@@@@KAXPAVCRotationDecorator@NEffectUpdateDecorator@@@Z
_TEXT	SEGMENT
_pkData$ = 8						; size = 4
?Delete@?$CDynamicPoolEx@VCRotationDecorator@NEffectUpdateDecorator@@@@KAXPAVCRotationDecorator@NEffectUpdateDecorator@@@Z PROC ; CDynamicPoolEx<NEffectUpdateDecorator::CRotationDecorator>::Delete, COMDAT

; 224  : 			::operator delete(pkData);

  00000	e9 00 00 00 00	 jmp	 ??3@YAXPAX@Z		; operator delete
?Delete@?$CDynamicPoolEx@VCRotationDecorator@NEffectUpdateDecorator@@@@KAXPAVCRotationDecorator@NEffectUpdateDecorator@@@Z ENDP ; CDynamicPoolEx<NEffectUpdateDecorator::CRotationDecorator>::Delete
_TEXT	ENDS
; Function compile flags: /Ogtp
; File C:\Users\ALEXANDER\Desktop\Cliente\COPY_FISH_WON_NEW\Binario\Client\eterLib\Pool.h
; File D:\visual studio 2019\visual studio 2019\VC\Tools\MSVC\14.29.30133\include\vector
; File D:\visual studio 2019\visual studio 2019\VC\Tools\MSVC\14.29.30133\include\algorithm
; File C:\Users\ALEXANDER\Desktop\Cliente\COPY_FISH_WON_NEW\Binario\Client\eterLib\Pool.h
; File D:\visual studio 2019\visual studio 2019\VC\Tools\MSVC\14.29.30133\include\algorithm
; File C:\Users\ALEXANDER\Desktop\Cliente\COPY_FISH_WON_NEW\Binario\Client\eterLib\Pool.h
; File D:\visual studio 2019\visual studio 2019\VC\Tools\MSVC\14.29.30133\include\algorithm
; File C:\Users\ALEXANDER\Desktop\Cliente\COPY_FISH_WON_NEW\Binario\Client\eterLib\Pool.h
; File D:\visual studio 2019\visual studio 2019\VC\Tools\MSVC\14.29.30133\include\vector
; File D:\visual studio 2019\visual studio 2019\VC\Tools\MSVC\14.29.30133\include\xmemory
; File D:\visual studio 2019\visual studio 2019\VC\Tools\MSVC\14.29.30133\include\vector
; File D:\visual studio 2019\visual studio 2019\VC\Tools\MSVC\14.29.30133\include\xmemory
; File D:\visual studio 2019\visual studio 2019\VC\Tools\MSVC\14.29.30133\include\vector
; File D:\visual studio 2019\visual studio 2019\VC\Tools\MSVC\14.29.30133\include\xmemory
; File D:\visual studio 2019\visual studio 2019\VC\Tools\MSVC\14.29.30133\include\vector
; File D:\visual studio 2019\visual studio 2019\VC\Tools\MSVC\14.29.30133\include\xmemory
; File D:\visual studio 2019\visual studio 2019\VC\Tools\MSVC\14.29.30133\include\vector
; File C:\Users\ALEXANDER\Desktop\Cliente\COPY_FISH_WON_NEW\Binario\Client\eterLib\Pool.h
; File D:\visual studio 2019\visual studio 2019\VC\Tools\MSVC\14.29.30133\include\xmemory
; File C:\Users\ALEXANDER\Desktop\Cliente\COPY_FISH_WON_NEW\Binario\Client\eterLib\Pool.h
;	COMDAT ??1?$CDynamicPoolEx@VCRotationDecorator@NEffectUpdateDecorator@@@@UAE@XZ
_TEXT	SEGMENT
??1?$CDynamicPoolEx@VCRotationDecorator@NEffectUpdateDecorator@@@@UAE@XZ PROC ; CDynamicPoolEx<NEffectUpdateDecorator::CRotationDecorator>::~CDynamicPoolEx<NEffectUpdateDecorator::CRotationDecorator>, COMDAT
; _this$ = ecx

; 132  : 		{

  00000	53		 push	 ebx
  00001	56		 push	 esi
  00002	57		 push	 edi
  00003	8b f9		 mov	 edi, ecx
  00005	c7 07 00 00 00
	00		 mov	 DWORD PTR [edi], OFFSET ??_7?$CDynamicPoolEx@VCRotationDecorator@NEffectUpdateDecorator@@@@6B@
; File D:\visual studio 2019\visual studio 2019\VC\Tools\MSVC\14.29.30133\include\vector

; 41   :     _CONSTEXPR20_CONTAINER _Vector_const_iterator(_Tptr _Parg, const _Container_base* _Pvector) noexcept : _Ptr(_Parg) {

  0000b	8b 5f 08	 mov	 ebx, DWORD PTR [edi+8]
  0000e	8b 77 04	 mov	 esi, DWORD PTR [edi+4]
; File D:\visual studio 2019\visual studio 2019\VC\Tools\MSVC\14.29.30133\include\algorithm

; 232  :     for (; _UFirst != _ULast; ++_UFirst) {

  00011	3b f3		 cmp	 esi, ebx
  00013	74 14		 je	 SHORT $LN19@CDynamicPo
$LL20@CDynamicPo:
; File C:\Users\ALEXANDER\Desktop\Cliente\COPY_FISH_WON_NEW\Binario\Client\eterLib\Pool.h

; 224  : 			::operator delete(pkData);

  00015	ff 36		 push	 DWORD PTR [esi]
  00017	e8 00 00 00 00	 call	 ??3@YAXPAX@Z		; operator delete
; File D:\visual studio 2019\visual studio 2019\VC\Tools\MSVC\14.29.30133\include\algorithm

; 232  :     for (; _UFirst != _ULast; ++_UFirst) {

  0001c	83 c6 04	 add	 esi, 4
; File C:\Users\ALEXANDER\Desktop\Cliente\COPY_FISH_WON_NEW\Binario\Client\eterLib\Pool.h

; 224  : 			::operator delete(pkData);

  0001f	83 c4 04	 add	 esp, 4
; File D:\visual studio 2019\visual studio 2019\VC\Tools\MSVC\14.29.30133\include\algorithm

; 232  :     for (; _UFirst != _ULast; ++_UFirst) {

  00022	3b f3		 cmp	 esi, ebx
  00024	75 ef		 jne	 SHORT $LL20@CDynamicPo
  00026	8b 77 04	 mov	 esi, DWORD PTR [edi+4]
$LN19@CDynamicPo:
; File C:\Users\ALEXANDER\Desktop\Cliente\COPY_FISH_WON_NEW\Binario\Client\eterLib\Pool.h

; 162  : 			m_kVct_pkFree.clear();

  00029	8b 47 10	 mov	 eax, DWORD PTR [edi+16]
  0002c	89 77 08	 mov	 DWORD PTR [edi+8], esi
  0002f	89 47 14	 mov	 DWORD PTR [edi+20], eax
; File D:\visual studio 2019\visual studio 2019\VC\Tools\MSVC\14.29.30133\include\vector

; 1750 :         if (_Myfirst) { // destroy and deallocate old array

  00032	85 c0		 test	 eax, eax
  00034	74 41		 je	 SHORT $LN27@CDynamicPo

; 1751 :             _Destroy(_Myfirst, _Mylast);
; 1752 :             _Getal().deallocate(_Myfirst, static_cast<size_type>(_Myend - _Myfirst));

  00036	8b 4f 18	 mov	 ecx, DWORD PTR [edi+24]
  00039	2b c8		 sub	 ecx, eax
; File D:\visual studio 2019\visual studio 2019\VC\Tools\MSVC\14.29.30133\include\xmemory

; 797  :         _Deallocate<_New_alignof<_Ty>>(_Ptr, sizeof(_Ty) * _Count);

  0003b	83 e1 fc	 and	 ecx, -4			; fffffffcH

; 251  :         if (_Bytes >= _Big_allocation_threshold) { // boost the alignment of big allocations to help autovectorization

  0003e	81 f9 00 10 00
	00		 cmp	 ecx, 4096		; 00001000H
  00044	72 12		 jb	 SHORT $LN43@CDynamicPo

; 150  :     const uintptr_t _Ptr_container   = _Ptr_user[-1];

  00046	8b 50 fc	 mov	 edx, DWORD PTR [eax-4]
  00049	83 c1 23	 add	 ecx, 35			; 00000023H

; 151  : 
; 152  :     // If the following asserts, it likely means that we are performing
; 153  :     // an aligned delete on memory coming from an unaligned allocation.
; 154  :     _STL_ASSERT(_Ptr_user[-2] == _Big_allocation_sentinel, "invalid argument");
; 155  : 
; 156  :     // Extra paranoia on aligned allocation/deallocation; ensure _Ptr_container is
; 157  :     // in range [_Min_back_shift, _Non_user_size]
; 158  : #ifdef _DEBUG
; 159  :     constexpr uintptr_t _Min_back_shift = 2 * sizeof(void*);
; 160  : #else // ^^^ _DEBUG ^^^ // vvv !_DEBUG vvv
; 161  :     constexpr uintptr_t _Min_back_shift = sizeof(void*);
; 162  : #endif // _DEBUG
; 163  :     const uintptr_t _Back_shift = reinterpret_cast<uintptr_t>(_Ptr) - _Ptr_container;

  0004c	2b c2		 sub	 eax, edx

; 164  :     _STL_VERIFY(_Back_shift >= _Min_back_shift && _Back_shift <= _Non_user_size, "invalid argument");

  0004e	83 c0 fc	 add	 eax, -4			; fffffffcH
  00051	83 f8 1f	 cmp	 eax, 31			; 0000001fH
  00054	77 6d		 ja	 SHORT $LN65@CDynamicPo

; 165  :     _Ptr = reinterpret_cast<void*>(_Ptr_container);

  00056	8b c2		 mov	 eax, edx
$LN43@CDynamicPo:

; 255  :         ::operator delete(_Ptr, _Bytes);

  00058	51		 push	 ecx
  00059	50		 push	 eax
  0005a	e8 00 00 00 00	 call	 ??3@YAXPAXI@Z		; operator delete
; File D:\visual studio 2019\visual studio 2019\VC\Tools\MSVC\14.29.30133\include\vector

; 1754 :             _Myfirst = nullptr;

  0005f	c7 47 10 00 00
	00 00		 mov	 DWORD PTR [edi+16], 0
; File D:\visual studio 2019\visual studio 2019\VC\Tools\MSVC\14.29.30133\include\xmemory

; 255  :         ::operator delete(_Ptr, _Bytes);

  00066	83 c4 08	 add	 esp, 8
; File D:\visual studio 2019\visual studio 2019\VC\Tools\MSVC\14.29.30133\include\vector

; 1755 :             _Mylast  = nullptr;

  00069	c7 47 14 00 00
	00 00		 mov	 DWORD PTR [edi+20], 0

; 1756 :             _Myend   = nullptr;

  00070	c7 47 18 00 00
	00 00		 mov	 DWORD PTR [edi+24], 0
$LN27@CDynamicPo:

; 1750 :         if (_Myfirst) { // destroy and deallocate old array

  00077	8b 47 04	 mov	 eax, DWORD PTR [edi+4]
  0007a	85 c0		 test	 eax, eax
  0007c	74 41		 je	 SHORT $LN52@CDynamicPo

; 1751 :             _Destroy(_Myfirst, _Mylast);
; 1752 :             _Getal().deallocate(_Myfirst, static_cast<size_type>(_Myend - _Myfirst));

  0007e	8b 4f 0c	 mov	 ecx, DWORD PTR [edi+12]
  00081	2b c8		 sub	 ecx, eax
; File D:\visual studio 2019\visual studio 2019\VC\Tools\MSVC\14.29.30133\include\xmemory

; 797  :         _Deallocate<_New_alignof<_Ty>>(_Ptr, sizeof(_Ty) * _Count);

  00083	83 e1 fc	 and	 ecx, -4			; fffffffcH

; 251  :         if (_Bytes >= _Big_allocation_threshold) { // boost the alignment of big allocations to help autovectorization

  00086	81 f9 00 10 00
	00		 cmp	 ecx, 4096		; 00001000H
  0008c	72 12		 jb	 SHORT $LN68@CDynamicPo

; 150  :     const uintptr_t _Ptr_container   = _Ptr_user[-1];

  0008e	8b 50 fc	 mov	 edx, DWORD PTR [eax-4]
  00091	83 c1 23	 add	 ecx, 35			; 00000023H

; 151  : 
; 152  :     // If the following asserts, it likely means that we are performing
; 153  :     // an aligned delete on memory coming from an unaligned allocation.
; 154  :     _STL_ASSERT(_Ptr_user[-2] == _Big_allocation_sentinel, "invalid argument");
; 155  : 
; 156  :     // Extra paranoia on aligned allocation/deallocation; ensure _Ptr_container is
; 157  :     // in range [_Min_back_shift, _Non_user_size]
; 158  : #ifdef _DEBUG
; 159  :     constexpr uintptr_t _Min_back_shift = 2 * sizeof(void*);
; 160  : #else // ^^^ _DEBUG ^^^ // vvv !_DEBUG vvv
; 161  :     constexpr uintptr_t _Min_back_shift = sizeof(void*);
; 162  : #endif // _DEBUG
; 163  :     const uintptr_t _Back_shift = reinterpret_cast<uintptr_t>(_Ptr) - _Ptr_container;

  00094	2b c2		 sub	 eax, edx

; 164  :     _STL_VERIFY(_Back_shift >= _Min_back_shift && _Back_shift <= _Non_user_size, "invalid argument");

  00096	83 c0 fc	 add	 eax, -4			; fffffffcH
  00099	83 f8 1f	 cmp	 eax, 31			; 0000001fH
  0009c	77 25		 ja	 SHORT $LN65@CDynamicPo

; 165  :     _Ptr = reinterpret_cast<void*>(_Ptr_container);

  0009e	8b c2		 mov	 eax, edx
$LN68@CDynamicPo:

; 255  :         ::operator delete(_Ptr, _Bytes);

  000a0	51		 push	 ecx
  000a1	50		 push	 eax
  000a2	e8 00 00 00 00	 call	 ??3@YAXPAXI@Z		; operator delete
; File D:\visual studio 2019\visual studio 2019\VC\Tools\MSVC\14.29.30133\include\vector

; 1754 :             _Myfirst = nullptr;

  000a7	c7 47 04 00 00
	00 00		 mov	 DWORD PTR [edi+4], 0
; File D:\visual studio 2019\visual studio 2019\VC\Tools\MSVC\14.29.30133\include\xmemory

; 255  :         ::operator delete(_Ptr, _Bytes);

  000ae	83 c4 08	 add	 esp, 8
; File D:\visual studio 2019\visual studio 2019\VC\Tools\MSVC\14.29.30133\include\vector

; 1755 :             _Mylast  = nullptr;

  000b1	c7 47 08 00 00
	00 00		 mov	 DWORD PTR [edi+8], 0

; 1756 :             _Myend   = nullptr;

  000b8	c7 47 0c 00 00
	00 00		 mov	 DWORD PTR [edi+12], 0
$LN52@CDynamicPo:
  000bf	5f		 pop	 edi
; File C:\Users\ALEXANDER\Desktop\Cliente\COPY_FISH_WON_NEW\Binario\Client\eterLib\Pool.h

; 142  : 		}

  000c0	5e		 pop	 esi
  000c1	5b		 pop	 ebx
  000c2	c3		 ret	 0
$LN65@CDynamicPo:
; File D:\visual studio 2019\visual studio 2019\VC\Tools\MSVC\14.29.30133\include\xmemory

; 164  :     _STL_VERIFY(_Back_shift >= _Min_back_shift && _Back_shift <= _Non_user_size, "invalid argument");

  000c3	e8 00 00 00 00	 call	 __invalid_parameter_noinfo_noreturn
$LN77@CDynamicPo:
  000c8	cc		 int	 3
??1?$CDynamicPoolEx@VCRotationDecorator@NEffectUpdateDecorator@@@@UAE@XZ ENDP ; CDynamicPoolEx<NEffectUpdateDecorator::CRotationDecorator>::~CDynamicPoolEx<NEffectUpdateDecorator::CRotationDecorator>
_TEXT	ENDS
; Function compile flags: /Ogtp
; File D:\visual studio 2019\visual studio 2019\VC\Tools\MSVC\14.29.30133\include\vector
; File D:\visual studio 2019\visual studio 2019\VC\Tools\MSVC\14.29.30133\include\xmemory
; File D:\visual studio 2019\visual studio 2019\VC\Tools\MSVC\14.29.30133\include\vector
; File D:\visual studio 2019\visual studio 2019\VC\Tools\MSVC\14.29.30133\include\xmemory
; File D:\visual studio 2019\visual studio 2019\VC\Tools\MSVC\14.29.30133\include\vector
; File D:\visual studio 2019\visual studio 2019\VC\Tools\MSVC\14.29.30133\include\xmemory
; File D:\visual studio 2019\visual studio 2019\VC\Tools\MSVC\14.29.30133\include\vector
; File D:\visual studio 2019\visual studio 2019\VC\Tools\MSVC\14.29.30133\include\xmemory
; File D:\visual studio 2019\visual studio 2019\VC\Tools\MSVC\14.29.30133\include\vector
; File D:\visual studio 2019\visual studio 2019\VC\Tools\MSVC\14.29.30133\include\xmemory
; File D:\visual studio 2019\visual studio 2019\VC\Tools\MSVC\14.29.30133\include\vector
; File D:\visual studio 2019\visual studio 2019\VC\Tools\MSVC\14.29.30133\include\xmemory
; File D:\visual studio 2019\visual studio 2019\VC\Tools\MSVC\14.29.30133\include\vector
; File D:\visual studio 2019\visual studio 2019\VC\Tools\MSVC\14.29.30133\include\xmemory
; File D:\visual studio 2019\visual studio 2019\VC\Tools\MSVC\14.29.30133\include\vector
; File D:\visual studio 2019\visual studio 2019\VC\Tools\MSVC\14.29.30133\include\xmemory
; File D:\visual studio 2019\visual studio 2019\VC\Tools\MSVC\14.29.30133\include\vector
; File D:\visual studio 2019\visual studio 2019\VC\Tools\MSVC\14.29.30133\include\xmemory
; File D:\visual studio 2019\visual studio 2019\VC\Tools\MSVC\14.29.30133\include\vector
;	COMDAT ??$_Emplace_reallocate@ABQAVCParticleSystemInstance@@@?$vector@PAVCParticleSystemInstance@@V?$allocator@PAVCParticleSystemInstance@@@std@@@std@@QAEPAPAVCParticleSystemInstance@@QAPAV2@ABQAV2@@Z
_TEXT	SEGMENT
__Newsize$1$ = -8					; size = 4
tv641 = -4						; size = 4
__Whereoff$1$ = -4					; size = 4
__Whereptr$ = 8						; size = 4
_<_Val_0>$ = 12						; size = 4
??$_Emplace_reallocate@ABQAVCParticleSystemInstance@@@?$vector@PAVCParticleSystemInstance@@V?$allocator@PAVCParticleSystemInstance@@@std@@@std@@QAEPAPAVCParticleSystemInstance@@QAPAV2@ABQAV2@@Z PROC ; std::vector<CParticleSystemInstance *,std::allocator<CParticleSystemInstance *> >::_Emplace_reallocate<CParticleSystemInstance * const &>, COMDAT
; _this$ = ecx

; 752  :     _CONSTEXPR20_CONTAINER pointer _Emplace_reallocate(const pointer _Whereptr, _Valty&&... _Val) {

  00000	55		 push	 ebp
  00001	8b ec		 mov	 ebp, esp
  00003	83 ec 08	 sub	 esp, 8

; 753  :         // reallocate and insert by perfectly forwarding _Val at _Whereptr
; 754  :         _Alty& _Al        = _Getal();
; 755  :         auto& _My_data    = _Mypair._Myval2;
; 756  :         pointer& _Myfirst = _My_data._Myfirst;
; 757  :         pointer& _Mylast  = _My_data._Mylast;
; 758  : 
; 759  :         _STL_INTERNAL_CHECK(_Mylast == _My_data._Myend); // check that we have no unused capacity
; 760  : 
; 761  :         const auto _Whereoff = static_cast<size_type>(_Whereptr - _Myfirst);

  00006	8b 45 08	 mov	 eax, DWORD PTR __Whereptr$[ebp]
  00009	53		 push	 ebx
  0000a	56		 push	 esi
  0000b	8b f1		 mov	 esi, ecx
  0000d	57		 push	 edi
  0000e	8b 0e		 mov	 ecx, DWORD PTR [esi]
  00010	2b c1		 sub	 eax, ecx
  00012	c1 f8 02	 sar	 eax, 2
  00015	89 45 fc	 mov	 DWORD PTR __Whereoff$1$[ebp], eax

; 762  :         const auto _Oldsize  = static_cast<size_type>(_Mylast - _Myfirst);

  00018	8b 46 04	 mov	 eax, DWORD PTR [esi+4]
  0001b	2b c1		 sub	 eax, ecx
  0001d	c1 f8 02	 sar	 eax, 2

; 763  : 
; 764  :         if (_Oldsize == max_size()) {

  00020	3d ff ff ff 3f	 cmp	 eax, 1073741823		; 3fffffffH
  00025	0f 84 06 01 00
	00		 je	 $LN96@Emplace_re

; 1546 :         return static_cast<size_type>(_My_data._Myend - _My_data._Myfirst);

  0002b	8b 56 08	 mov	 edx, DWORD PTR [esi+8]

; 766  :         }
; 767  : 
; 768  :         const size_type _Newsize     = _Oldsize + 1;

  0002e	8d 78 01	 lea	 edi, DWORD PTR [eax+1]

; 1546 :         return static_cast<size_type>(_My_data._Myend - _My_data._Myfirst);

  00031	2b d1		 sub	 edx, ecx

; 766  :         }
; 767  : 
; 768  :         const size_type _Newsize     = _Oldsize + 1;

  00033	89 7d f8	 mov	 DWORD PTR __Newsize$1$[ebp], edi

; 1546 :         return static_cast<size_type>(_My_data._Myend - _My_data._Myfirst);

  00036	c1 fa 02	 sar	 edx, 2

; 1675 :         if (_Oldcapacity > _Max - _Oldcapacity / 2) {

  00039	b8 ff ff ff 3f	 mov	 eax, 1073741823		; 3fffffffH
  0003e	8b ca		 mov	 ecx, edx
  00040	d1 e9		 shr	 ecx, 1
  00042	2b c1		 sub	 eax, ecx
  00044	3b d0		 cmp	 edx, eax
  00046	76 12		 jbe	 SHORT $LN12@Emplace_re

; 1676 :             return _Max; // geometric growth would overflow

  00048	bb fc ff ff ff	 mov	 ebx, -4			; fffffffcH
; File D:\visual studio 2019\visual studio 2019\VC\Tools\MSVC\14.29.30133\include\xmemory

; 229  :             return _Allocate_manually_vector_aligned<_Traits>(_Bytes);

  0004d	53		 push	 ebx
  0004e	e8 00 00 00 00	 call	 ??$_Allocate_manually_vector_aligned@U_Default_allocate_traits@std@@@std@@YAPAXI@Z ; std::_Allocate_manually_vector_aligned<std::_Default_allocate_traits>
  00053	83 c4 04	 add	 esp, 4
  00056	8b f8		 mov	 edi, eax
  00058	eb 41		 jmp	 SHORT $LN23@Emplace_re
$LN12@Emplace_re:
; File D:\visual studio 2019\visual studio 2019\VC\Tools\MSVC\14.29.30133\include\vector

; 1679 :         const size_type _Geometric = _Oldcapacity + _Oldcapacity / 2;

  0005a	8d 04 11	 lea	 eax, DWORD PTR [ecx+edx]
; File D:\visual studio 2019\visual studio 2019\VC\Tools\MSVC\14.29.30133\include\xmemory

; 60   :         if (_Count > _Max_possible) {

  0005d	8b df		 mov	 ebx, edi
  0005f	3b c7		 cmp	 eax, edi
  00061	0f 43 d8	 cmovae	 ebx, eax
  00064	81 fb ff ff ff
	3f		 cmp	 ebx, 1073741823		; 3fffffffH
  0006a	0f 87 c6 00 00
	00		 ja	 $LN97@Emplace_re

; 62   :         }
; 63   :     }
; 64   : 
; 65   :     return _Count * _Ty_size;

  00070	c1 e3 02	 shl	 ebx, 2

; 228  :         if (_Bytes >= _Big_allocation_threshold) { // boost the alignment of big allocations to help autovectorization

  00073	81 fb 00 10 00
	00		 cmp	 ebx, 4096		; 00001000H
  00079	72 0d		 jb	 SHORT $LN24@Emplace_re

; 229  :             return _Allocate_manually_vector_aligned<_Traits>(_Bytes);

  0007b	53		 push	 ebx
  0007c	e8 00 00 00 00	 call	 ??$_Allocate_manually_vector_aligned@U_Default_allocate_traits@std@@@std@@YAPAXI@Z ; std::_Allocate_manually_vector_aligned<std::_Default_allocate_traits>
  00081	83 c4 04	 add	 esp, 4
  00084	8b f8		 mov	 edi, eax
  00086	eb 13		 jmp	 SHORT $LN23@Emplace_re
$LN24@Emplace_re:

; 230  :         }
; 231  :     }
; 232  : #endif // defined(_M_IX86) || defined(_M_X64)
; 233  : 
; 234  :     if (_Bytes != 0) {

  00088	85 db		 test	 ebx, ebx
  0008a	74 0d		 je	 SHORT $LN25@Emplace_re

; 79   :         return ::operator new(_Bytes);

  0008c	53		 push	 ebx
  0008d	e8 00 00 00 00	 call	 ??2@YAPAXI@Z		; operator new
  00092	83 c4 04	 add	 esp, 4

; 235  :         return _Traits::_Allocate(_Bytes);

  00095	8b f8		 mov	 edi, eax
  00097	eb 02		 jmp	 SHORT $LN23@Emplace_re
$LN25@Emplace_re:

; 236  :     }
; 237  : 
; 238  :     return nullptr;

  00099	33 ff		 xor	 edi, edi
$LN23@Emplace_re:
; File D:\visual studio 2019\visual studio 2019\VC\Tools\MSVC\14.29.30133\include\vector

; 776  :         _Alty_traits::construct(_Al, _Unfancy(_Newvec + _Whereoff), _STD forward<_Valty>(_Val)...);

  0009b	8b 45 fc	 mov	 eax, DWORD PTR __Whereoff$1$[ebp]
  0009e	8d 0c 87	 lea	 ecx, DWORD PTR [edi+eax*4]
  000a1	8b 45 0c	 mov	 eax, DWORD PTR _<_Val_0>$[ebp]
  000a4	89 4d fc	 mov	 DWORD PTR tv641[ebp], ecx
  000a7	8b 00		 mov	 eax, DWORD PTR [eax]
  000a9	89 01		 mov	 DWORD PTR [ecx], eax

; 777  :         _Constructed_first = _Newvec + _Whereoff;
; 778  : 
; 779  :         if (_Whereptr == _Mylast) { // at back, provide strong guarantee

  000ab	8b 4e 04	 mov	 ecx, DWORD PTR [esi+4]
  000ae	8b 45 08	 mov	 eax, DWORD PTR __Whereptr$[ebp]
  000b1	8b 16		 mov	 edx, DWORD PTR [esi]
  000b3	3b c1		 cmp	 eax, ecx
  000b5	75 04		 jne	 SHORT $LN4@Emplace_re
; File D:\visual studio 2019\visual studio 2019\VC\Tools\MSVC\14.29.30133\include\xmemory

; 1711 :             _Copy_memmove(_UFirst, _ULast, _Unfancy(_Dest));

  000b7	8b c7		 mov	 eax, edi
; File D:\visual studio 2019\visual studio 2019\VC\Tools\MSVC\14.29.30133\include\vector

; 781  :         } else { // provide basic guarantee

  000b9	eb 17		 jmp	 SHORT $LN60@Emplace_re
$LN4@Emplace_re:
; File D:\visual studio 2019\visual studio 2019\VC\Tools\MSVC\14.29.30133\include\xmemory

; 1711 :             _Copy_memmove(_UFirst, _ULast, _Unfancy(_Dest));

  000bb	57		 push	 edi
  000bc	50		 push	 eax
  000bd	52		 push	 edx
  000be	e8 00 00 00 00	 call	 ??$_Copy_memmove@PAPAVCParticleSystemInstance@@PAPAV1@@std@@YAPAPAVCParticleSystemInstance@@PAPAV1@00@Z ; std::_Copy_memmove<CParticleSystemInstance * *,CParticleSystemInstance * *>
; File D:\visual studio 2019\visual studio 2019\VC\Tools\MSVC\14.29.30133\include\vector

; 784  :             _Umove(_Whereptr, _Mylast, _Newvec + _Whereoff + 1);

  000c3	8b 45 fc	 mov	 eax, DWORD PTR tv641[ebp]
; File D:\visual studio 2019\visual studio 2019\VC\Tools\MSVC\14.29.30133\include\xmemory

; 1711 :             _Copy_memmove(_UFirst, _ULast, _Unfancy(_Dest));

  000c6	83 c4 0c	 add	 esp, 12			; 0000000cH
  000c9	8b 55 08	 mov	 edx, DWORD PTR __Whereptr$[ebp]
; File D:\visual studio 2019\visual studio 2019\VC\Tools\MSVC\14.29.30133\include\vector

; 784  :             _Umove(_Whereptr, _Mylast, _Newvec + _Whereoff + 1);

  000cc	83 c0 04	 add	 eax, 4
; File D:\visual studio 2019\visual studio 2019\VC\Tools\MSVC\14.29.30133\include\xmemory

; 1711 :             _Copy_memmove(_UFirst, _ULast, _Unfancy(_Dest));

  000cf	8b 4e 04	 mov	 ecx, DWORD PTR [esi+4]
$LN60@Emplace_re:
; File D:\visual studio 2019\visual studio 2019\VC\Tools\MSVC\14.29.30133\include\vector

; 784  :             _Umove(_Whereptr, _Mylast, _Newvec + _Whereoff + 1);

  000d2	50		 push	 eax
  000d3	51		 push	 ecx
  000d4	52		 push	 edx
  000d5	e8 00 00 00 00	 call	 ??$_Copy_memmove@PAPAVCParticleSystemInstance@@PAPAV1@@std@@YAPAPAVCParticleSystemInstance@@PAPAV1@00@Z ; std::_Copy_memmove<CParticleSystemInstance * *,CParticleSystemInstance * *>

; 1732 :         if (_Myfirst) { // destroy and deallocate old array

  000da	8b 06		 mov	 eax, DWORD PTR [esi]

; 784  :             _Umove(_Whereptr, _Mylast, _Newvec + _Whereoff + 1);

  000dc	83 c4 0c	 add	 esp, 12			; 0000000cH

; 1732 :         if (_Myfirst) { // destroy and deallocate old array

  000df	85 c0		 test	 eax, eax
  000e1	74 2c		 je	 SHORT $LN78@Emplace_re

; 1733 :             _Destroy(_Myfirst, _Mylast);
; 1734 :             _Getal().deallocate(_Myfirst, static_cast<size_type>(_Myend - _Myfirst));

  000e3	8b 4e 08	 mov	 ecx, DWORD PTR [esi+8]
  000e6	2b c8		 sub	 ecx, eax
; File D:\visual studio 2019\visual studio 2019\VC\Tools\MSVC\14.29.30133\include\xmemory

; 797  :         _Deallocate<_New_alignof<_Ty>>(_Ptr, sizeof(_Ty) * _Count);

  000e8	83 e1 fc	 and	 ecx, -4			; fffffffcH

; 251  :         if (_Bytes >= _Big_allocation_threshold) { // boost the alignment of big allocations to help autovectorization

  000eb	81 f9 00 10 00
	00		 cmp	 ecx, 4096		; 00001000H
  000f1	72 12		 jb	 SHORT $LN88@Emplace_re

; 150  :     const uintptr_t _Ptr_container   = _Ptr_user[-1];

  000f3	8b 50 fc	 mov	 edx, DWORD PTR [eax-4]
  000f6	83 c1 23	 add	 ecx, 35			; 00000023H

; 151  : 
; 152  :     // If the following asserts, it likely means that we are performing
; 153  :     // an aligned delete on memory coming from an unaligned allocation.
; 154  :     _STL_ASSERT(_Ptr_user[-2] == _Big_allocation_sentinel, "invalid argument");
; 155  : 
; 156  :     // Extra paranoia on aligned allocation/deallocation; ensure _Ptr_container is
; 157  :     // in range [_Min_back_shift, _Non_user_size]
; 158  : #ifdef _DEBUG
; 159  :     constexpr uintptr_t _Min_back_shift = 2 * sizeof(void*);
; 160  : #else // ^^^ _DEBUG ^^^ // vvv !_DEBUG vvv
; 161  :     constexpr uintptr_t _Min_back_shift = sizeof(void*);
; 162  : #endif // _DEBUG
; 163  :     const uintptr_t _Back_shift = reinterpret_cast<uintptr_t>(_Ptr) - _Ptr_container;

  000f9	2b c2		 sub	 eax, edx

; 164  :     _STL_VERIFY(_Back_shift >= _Min_back_shift && _Back_shift <= _Non_user_size, "invalid argument");

  000fb	83 c0 fc	 add	 eax, -4			; fffffffcH
  000fe	83 f8 1f	 cmp	 eax, 31			; 0000001fH
  00101	77 29		 ja	 SHORT $LN85@Emplace_re

; 165  :     _Ptr = reinterpret_cast<void*>(_Ptr_container);

  00103	8b c2		 mov	 eax, edx
$LN88@Emplace_re:

; 255  :         ::operator delete(_Ptr, _Bytes);

  00105	51		 push	 ecx
  00106	50		 push	 eax
  00107	e8 00 00 00 00	 call	 ??3@YAXPAXI@Z		; operator delete
  0010c	83 c4 08	 add	 esp, 8
$LN78@Emplace_re:
; File D:\visual studio 2019\visual studio 2019\VC\Tools\MSVC\14.29.30133\include\vector

; 1738 :         _Mylast  = _Newvec + _Newsize;

  0010f	8b 45 f8	 mov	 eax, DWORD PTR __Newsize$1$[ebp]
  00112	89 3e		 mov	 DWORD PTR [esi], edi
  00114	8d 0c 87	 lea	 ecx, DWORD PTR [edi+eax*4]

; 785  :         }
; 786  :         _CATCH_ALL
; 787  :         _Destroy(_Constructed_first, _Constructed_last);
; 788  :         _Al.deallocate(_Newvec, _Newcapacity);
; 789  :         _RERAISE;
; 790  :         _CATCH_END
; 791  : 
; 792  :         _Change_array(_Newvec, _Newsize, _Newcapacity);
; 793  :         return _Newvec + _Whereoff;

  00117	8b 45 fc	 mov	 eax, DWORD PTR tv641[ebp]

; 1738 :         _Mylast  = _Newvec + _Newsize;

  0011a	89 4e 04	 mov	 DWORD PTR [esi+4], ecx

; 1739 :         _Myend   = _Newvec + _Newcapacity;

  0011d	8d 0c 3b	 lea	 ecx, DWORD PTR [ebx+edi]

; 785  :         }
; 786  :         _CATCH_ALL
; 787  :         _Destroy(_Constructed_first, _Constructed_last);
; 788  :         _Al.deallocate(_Newvec, _Newcapacity);
; 789  :         _RERAISE;
; 790  :         _CATCH_END
; 791  : 
; 792  :         _Change_array(_Newvec, _Newsize, _Newcapacity);
; 793  :         return _Newvec + _Whereoff;

  00120	5f		 pop	 edi

; 1739 :         _Myend   = _Newvec + _Newcapacity;

  00121	89 4e 08	 mov	 DWORD PTR [esi+8], ecx

; 785  :         }
; 786  :         _CATCH_ALL
; 787  :         _Destroy(_Constructed_first, _Constructed_last);
; 788  :         _Al.deallocate(_Newvec, _Newcapacity);
; 789  :         _RERAISE;
; 790  :         _CATCH_END
; 791  : 
; 792  :         _Change_array(_Newvec, _Newsize, _Newcapacity);
; 793  :         return _Newvec + _Whereoff;

  00124	5e		 pop	 esi
  00125	5b		 pop	 ebx

; 794  :     }

  00126	8b e5		 mov	 esp, ebp
  00128	5d		 pop	 ebp
  00129	c2 08 00	 ret	 8
$LN85@Emplace_re:
; File D:\visual studio 2019\visual studio 2019\VC\Tools\MSVC\14.29.30133\include\xmemory

; 164  :     _STL_VERIFY(_Back_shift >= _Min_back_shift && _Back_shift <= _Non_user_size, "invalid argument");

  0012c	e8 00 00 00 00	 call	 __invalid_parameter_noinfo_noreturn
$LN96@Emplace_re:
; File D:\visual studio 2019\visual studio 2019\VC\Tools\MSVC\14.29.30133\include\vector

; 765  :             _Xlength();

  00131	e8 00 00 00 00	 call	 ?_Xlength@?$vector@PAVCParticleSystemInstance@@V?$allocator@PAVCParticleSystemInstance@@@std@@@std@@CAXXZ ; std::vector<CParticleSystemInstance *,std::allocator<CParticleSystemInstance *> >::_Xlength
$LN97@Emplace_re:
; File D:\visual studio 2019\visual studio 2019\VC\Tools\MSVC\14.29.30133\include\xmemory

; 61   :             _Throw_bad_array_new_length(); // multiply overflow

  00136	e8 00 00 00 00	 call	 ?_Throw_bad_array_new_length@std@@YAXXZ ; std::_Throw_bad_array_new_length
$LN94@Emplace_re:
  0013b	cc		 int	 3
??$_Emplace_reallocate@ABQAVCParticleSystemInstance@@@?$vector@PAVCParticleSystemInstance@@V?$allocator@PAVCParticleSystemInstance@@@std@@@std@@QAEPAPAVCParticleSystemInstance@@QAPAV2@ABQAV2@@Z ENDP ; std::vector<CParticleSystemInstance *,std::allocator<CParticleSystemInstance *> >::_Emplace_reallocate<CParticleSystemInstance * const &>
_TEXT	ENDS
; Function compile flags: /Ogtp
; File D:\visual studio 2019\visual studio 2019\VC\Tools\MSVC\14.29.30133\include\vector
; File D:\visual studio 2019\visual studio 2019\VC\Tools\MSVC\14.29.30133\include\xmemory
; File D:\visual studio 2019\visual studio 2019\VC\Tools\MSVC\14.29.30133\include\vector
; File D:\visual studio 2019\visual studio 2019\VC\Tools\MSVC\14.29.30133\include\xmemory
; File D:\visual studio 2019\visual studio 2019\VC\Tools\MSVC\14.29.30133\include\vector
; File D:\visual studio 2019\visual studio 2019\VC\Tools\MSVC\14.29.30133\include\xmemory
; File D:\visual studio 2019\visual studio 2019\VC\Tools\MSVC\14.29.30133\include\vector
; File D:\visual studio 2019\visual studio 2019\VC\Tools\MSVC\14.29.30133\include\xmemory
; File D:\visual studio 2019\visual studio 2019\VC\Tools\MSVC\14.29.30133\include\vector
; File D:\visual studio 2019\visual studio 2019\VC\Tools\MSVC\14.29.30133\include\xmemory
; File D:\visual studio 2019\visual studio 2019\VC\Tools\MSVC\14.29.30133\include\vector
; File D:\visual studio 2019\visual studio 2019\VC\Tools\MSVC\14.29.30133\include\xmemory
; File D:\visual studio 2019\visual studio 2019\VC\Tools\MSVC\14.29.30133\include\vector
; File D:\visual studio 2019\visual studio 2019\VC\Tools\MSVC\14.29.30133\include\xmemory
; File D:\visual studio 2019\visual studio 2019\VC\Tools\MSVC\14.29.30133\include\vector
; File D:\visual studio 2019\visual studio 2019\VC\Tools\MSVC\14.29.30133\include\xmemory
; File D:\visual studio 2019\visual studio 2019\VC\Tools\MSVC\14.29.30133\include\vector
; File D:\visual studio 2019\visual studio 2019\VC\Tools\MSVC\14.29.30133\include\xmemory
; File D:\visual studio 2019\visual studio 2019\VC\Tools\MSVC\14.29.30133\include\vector
;	COMDAT ??$_Emplace_reallocate@ABQAVCEffectMeshInstance@@@?$vector@PAVCEffectMeshInstance@@V?$allocator@PAVCEffectMeshInstance@@@std@@@std@@QAEPAPAVCEffectMeshInstance@@QAPAV2@ABQAV2@@Z
_TEXT	SEGMENT
__Newsize$1$ = -8					; size = 4
tv641 = -4						; size = 4
__Whereoff$1$ = -4					; size = 4
__Whereptr$ = 8						; size = 4
_<_Val_0>$ = 12						; size = 4
??$_Emplace_reallocate@ABQAVCEffectMeshInstance@@@?$vector@PAVCEffectMeshInstance@@V?$allocator@PAVCEffectMeshInstance@@@std@@@std@@QAEPAPAVCEffectMeshInstance@@QAPAV2@ABQAV2@@Z PROC ; std::vector<CEffectMeshInstance *,std::allocator<CEffectMeshInstance *> >::_Emplace_reallocate<CEffectMeshInstance * const &>, COMDAT
; _this$ = ecx

; 752  :     _CONSTEXPR20_CONTAINER pointer _Emplace_reallocate(const pointer _Whereptr, _Valty&&... _Val) {

  00000	55		 push	 ebp
  00001	8b ec		 mov	 ebp, esp
  00003	83 ec 08	 sub	 esp, 8

; 753  :         // reallocate and insert by perfectly forwarding _Val at _Whereptr
; 754  :         _Alty& _Al        = _Getal();
; 755  :         auto& _My_data    = _Mypair._Myval2;
; 756  :         pointer& _Myfirst = _My_data._Myfirst;
; 757  :         pointer& _Mylast  = _My_data._Mylast;
; 758  : 
; 759  :         _STL_INTERNAL_CHECK(_Mylast == _My_data._Myend); // check that we have no unused capacity
; 760  : 
; 761  :         const auto _Whereoff = static_cast<size_type>(_Whereptr - _Myfirst);

  00006	8b 45 08	 mov	 eax, DWORD PTR __Whereptr$[ebp]
  00009	53		 push	 ebx
  0000a	56		 push	 esi
  0000b	8b f1		 mov	 esi, ecx
  0000d	57		 push	 edi
  0000e	8b 0e		 mov	 ecx, DWORD PTR [esi]
  00010	2b c1		 sub	 eax, ecx
  00012	c1 f8 02	 sar	 eax, 2
  00015	89 45 fc	 mov	 DWORD PTR __Whereoff$1$[ebp], eax

; 762  :         const auto _Oldsize  = static_cast<size_type>(_Mylast - _Myfirst);

  00018	8b 46 04	 mov	 eax, DWORD PTR [esi+4]
  0001b	2b c1		 sub	 eax, ecx
  0001d	c1 f8 02	 sar	 eax, 2

; 763  : 
; 764  :         if (_Oldsize == max_size()) {

  00020	3d ff ff ff 3f	 cmp	 eax, 1073741823		; 3fffffffH
  00025	0f 84 06 01 00
	00		 je	 $LN96@Emplace_re

; 1546 :         return static_cast<size_type>(_My_data._Myend - _My_data._Myfirst);

  0002b	8b 56 08	 mov	 edx, DWORD PTR [esi+8]

; 766  :         }
; 767  : 
; 768  :         const size_type _Newsize     = _Oldsize + 1;

  0002e	8d 78 01	 lea	 edi, DWORD PTR [eax+1]

; 1546 :         return static_cast<size_type>(_My_data._Myend - _My_data._Myfirst);

  00031	2b d1		 sub	 edx, ecx

; 766  :         }
; 767  : 
; 768  :         const size_type _Newsize     = _Oldsize + 1;

  00033	89 7d f8	 mov	 DWORD PTR __Newsize$1$[ebp], edi

; 1546 :         return static_cast<size_type>(_My_data._Myend - _My_data._Myfirst);

  00036	c1 fa 02	 sar	 edx, 2

; 1675 :         if (_Oldcapacity > _Max - _Oldcapacity / 2) {

  00039	b8 ff ff ff 3f	 mov	 eax, 1073741823		; 3fffffffH
  0003e	8b ca		 mov	 ecx, edx
  00040	d1 e9		 shr	 ecx, 1
  00042	2b c1		 sub	 eax, ecx
  00044	3b d0		 cmp	 edx, eax
  00046	76 12		 jbe	 SHORT $LN12@Emplace_re

; 1676 :             return _Max; // geometric growth would overflow

  00048	bb fc ff ff ff	 mov	 ebx, -4			; fffffffcH
; File D:\visual studio 2019\visual studio 2019\VC\Tools\MSVC\14.29.30133\include\xmemory

; 229  :             return _Allocate_manually_vector_aligned<_Traits>(_Bytes);

  0004d	53		 push	 ebx
  0004e	e8 00 00 00 00	 call	 ??$_Allocate_manually_vector_aligned@U_Default_allocate_traits@std@@@std@@YAPAXI@Z ; std::_Allocate_manually_vector_aligned<std::_Default_allocate_traits>
  00053	83 c4 04	 add	 esp, 4
  00056	8b f8		 mov	 edi, eax
  00058	eb 41		 jmp	 SHORT $LN23@Emplace_re
$LN12@Emplace_re:
; File D:\visual studio 2019\visual studio 2019\VC\Tools\MSVC\14.29.30133\include\vector

; 1679 :         const size_type _Geometric = _Oldcapacity + _Oldcapacity / 2;

  0005a	8d 04 11	 lea	 eax, DWORD PTR [ecx+edx]
; File D:\visual studio 2019\visual studio 2019\VC\Tools\MSVC\14.29.30133\include\xmemory

; 60   :         if (_Count > _Max_possible) {

  0005d	8b df		 mov	 ebx, edi
  0005f	3b c7		 cmp	 eax, edi
  00061	0f 43 d8	 cmovae	 ebx, eax
  00064	81 fb ff ff ff
	3f		 cmp	 ebx, 1073741823		; 3fffffffH
  0006a	0f 87 c6 00 00
	00		 ja	 $LN97@Emplace_re

; 62   :         }
; 63   :     }
; 64   : 
; 65   :     return _Count * _Ty_size;

  00070	c1 e3 02	 shl	 ebx, 2

; 228  :         if (_Bytes >= _Big_allocation_threshold) { // boost the alignment of big allocations to help autovectorization

  00073	81 fb 00 10 00
	00		 cmp	 ebx, 4096		; 00001000H
  00079	72 0d		 jb	 SHORT $LN24@Emplace_re

; 229  :             return _Allocate_manually_vector_aligned<_Traits>(_Bytes);

  0007b	53		 push	 ebx
  0007c	e8 00 00 00 00	 call	 ??$_Allocate_manually_vector_aligned@U_Default_allocate_traits@std@@@std@@YAPAXI@Z ; std::_Allocate_manually_vector_aligned<std::_Default_allocate_traits>
  00081	83 c4 04	 add	 esp, 4
  00084	8b f8		 mov	 edi, eax
  00086	eb 13		 jmp	 SHORT $LN23@Emplace_re
$LN24@Emplace_re:

; 230  :         }
; 231  :     }
; 232  : #endif // defined(_M_IX86) || defined(_M_X64)
; 233  : 
; 234  :     if (_Bytes != 0) {

  00088	85 db		 test	 ebx, ebx
  0008a	74 0d		 je	 SHORT $LN25@Emplace_re

; 79   :         return ::operator new(_Bytes);

  0008c	53		 push	 ebx
  0008d	e8 00 00 00 00	 call	 ??2@YAPAXI@Z		; operator new
  00092	83 c4 04	 add	 esp, 4

; 235  :         return _Traits::_Allocate(_Bytes);

  00095	8b f8		 mov	 edi, eax
  00097	eb 02		 jmp	 SHORT $LN23@Emplace_re
$LN25@Emplace_re:

; 236  :     }
; 237  : 
; 238  :     return nullptr;

  00099	33 ff		 xor	 edi, edi
$LN23@Emplace_re:
; File D:\visual studio 2019\visual studio 2019\VC\Tools\MSVC\14.29.30133\include\vector

; 776  :         _Alty_traits::construct(_Al, _Unfancy(_Newvec + _Whereoff), _STD forward<_Valty>(_Val)...);

  0009b	8b 45 fc	 mov	 eax, DWORD PTR __Whereoff$1$[ebp]
  0009e	8d 0c 87	 lea	 ecx, DWORD PTR [edi+eax*4]
  000a1	8b 45 0c	 mov	 eax, DWORD PTR _<_Val_0>$[ebp]
  000a4	89 4d fc	 mov	 DWORD PTR tv641[ebp], ecx
  000a7	8b 00		 mov	 eax, DWORD PTR [eax]
  000a9	89 01		 mov	 DWORD PTR [ecx], eax

; 777  :         _Constructed_first = _Newvec + _Whereoff;
; 778  : 
; 779  :         if (_Whereptr == _Mylast) { // at back, provide strong guarantee

  000ab	8b 4e 04	 mov	 ecx, DWORD PTR [esi+4]
  000ae	8b 45 08	 mov	 eax, DWORD PTR __Whereptr$[ebp]
  000b1	8b 16		 mov	 edx, DWORD PTR [esi]
  000b3	3b c1		 cmp	 eax, ecx
  000b5	75 04		 jne	 SHORT $LN4@Emplace_re
; File D:\visual studio 2019\visual studio 2019\VC\Tools\MSVC\14.29.30133\include\xmemory

; 1711 :             _Copy_memmove(_UFirst, _ULast, _Unfancy(_Dest));

  000b7	8b c7		 mov	 eax, edi
; File D:\visual studio 2019\visual studio 2019\VC\Tools\MSVC\14.29.30133\include\vector

; 781  :         } else { // provide basic guarantee

  000b9	eb 17		 jmp	 SHORT $LN60@Emplace_re
$LN4@Emplace_re:
; File D:\visual studio 2019\visual studio 2019\VC\Tools\MSVC\14.29.30133\include\xmemory

; 1711 :             _Copy_memmove(_UFirst, _ULast, _Unfancy(_Dest));

  000bb	57		 push	 edi
  000bc	50		 push	 eax
  000bd	52		 push	 edx
  000be	e8 00 00 00 00	 call	 ??$_Copy_memmove@PAPAVCEffectMeshInstance@@PAPAV1@@std@@YAPAPAVCEffectMeshInstance@@PAPAV1@00@Z ; std::_Copy_memmove<CEffectMeshInstance * *,CEffectMeshInstance * *>
; File D:\visual studio 2019\visual studio 2019\VC\Tools\MSVC\14.29.30133\include\vector

; 784  :             _Umove(_Whereptr, _Mylast, _Newvec + _Whereoff + 1);

  000c3	8b 45 fc	 mov	 eax, DWORD PTR tv641[ebp]
; File D:\visual studio 2019\visual studio 2019\VC\Tools\MSVC\14.29.30133\include\xmemory

; 1711 :             _Copy_memmove(_UFirst, _ULast, _Unfancy(_Dest));

  000c6	83 c4 0c	 add	 esp, 12			; 0000000cH
  000c9	8b 55 08	 mov	 edx, DWORD PTR __Whereptr$[ebp]
; File D:\visual studio 2019\visual studio 2019\VC\Tools\MSVC\14.29.30133\include\vector

; 784  :             _Umove(_Whereptr, _Mylast, _Newvec + _Whereoff + 1);

  000cc	83 c0 04	 add	 eax, 4
; File D:\visual studio 2019\visual studio 2019\VC\Tools\MSVC\14.29.30133\include\xmemory

; 1711 :             _Copy_memmove(_UFirst, _ULast, _Unfancy(_Dest));

  000cf	8b 4e 04	 mov	 ecx, DWORD PTR [esi+4]
$LN60@Emplace_re:
; File D:\visual studio 2019\visual studio 2019\VC\Tools\MSVC\14.29.30133\include\vector

; 784  :             _Umove(_Whereptr, _Mylast, _Newvec + _Whereoff + 1);

  000d2	50		 push	 eax
  000d3	51		 push	 ecx
  000d4	52		 push	 edx
  000d5	e8 00 00 00 00	 call	 ??$_Copy_memmove@PAPAVCEffectMeshInstance@@PAPAV1@@std@@YAPAPAVCEffectMeshInstance@@PAPAV1@00@Z ; std::_Copy_memmove<CEffectMeshInstance * *,CEffectMeshInstance * *>

; 1732 :         if (_Myfirst) { // destroy and deallocate old array

  000da	8b 06		 mov	 eax, DWORD PTR [esi]

; 784  :             _Umove(_Whereptr, _Mylast, _Newvec + _Whereoff + 1);

  000dc	83 c4 0c	 add	 esp, 12			; 0000000cH

; 1732 :         if (_Myfirst) { // destroy and deallocate old array

  000df	85 c0		 test	 eax, eax
  000e1	74 2c		 je	 SHORT $LN78@Emplace_re

; 1733 :             _Destroy(_Myfirst, _Mylast);
; 1734 :             _Getal().deallocate(_Myfirst, static_cast<size_type>(_Myend - _Myfirst));

  000e3	8b 4e 08	 mov	 ecx, DWORD PTR [esi+8]
  000e6	2b c8		 sub	 ecx, eax
; File D:\visual studio 2019\visual studio 2019\VC\Tools\MSVC\14.29.30133\include\xmemory

; 797  :         _Deallocate<_New_alignof<_Ty>>(_Ptr, sizeof(_Ty) * _Count);

  000e8	83 e1 fc	 and	 ecx, -4			; fffffffcH

; 251  :         if (_Bytes >= _Big_allocation_threshold) { // boost the alignment of big allocations to help autovectorization

  000eb	81 f9 00 10 00
	00		 cmp	 ecx, 4096		; 00001000H
  000f1	72 12		 jb	 SHORT $LN88@Emplace_re

; 150  :     const uintptr_t _Ptr_container   = _Ptr_user[-1];

  000f3	8b 50 fc	 mov	 edx, DWORD PTR [eax-4]
  000f6	83 c1 23	 add	 ecx, 35			; 00000023H

; 151  : 
; 152  :     // If the following asserts, it likely means that we are performing
; 153  :     // an aligned delete on memory coming from an unaligned allocation.
; 154  :     _STL_ASSERT(_Ptr_user[-2] == _Big_allocation_sentinel, "invalid argument");
; 155  : 
; 156  :     // Extra paranoia on aligned allocation/deallocation; ensure _Ptr_container is
; 157  :     // in range [_Min_back_shift, _Non_user_size]
; 158  : #ifdef _DEBUG
; 159  :     constexpr uintptr_t _Min_back_shift = 2 * sizeof(void*);
; 160  : #else // ^^^ _DEBUG ^^^ // vvv !_DEBUG vvv
; 161  :     constexpr uintptr_t _Min_back_shift = sizeof(void*);
; 162  : #endif // _DEBUG
; 163  :     const uintptr_t _Back_shift = reinterpret_cast<uintptr_t>(_Ptr) - _Ptr_container;

  000f9	2b c2		 sub	 eax, edx

; 164  :     _STL_VERIFY(_Back_shift >= _Min_back_shift && _Back_shift <= _Non_user_size, "invalid argument");

  000fb	83 c0 fc	 add	 eax, -4			; fffffffcH
  000fe	83 f8 1f	 cmp	 eax, 31			; 0000001fH
  00101	77 29		 ja	 SHORT $LN85@Emplace_re

; 165  :     _Ptr = reinterpret_cast<void*>(_Ptr_container);

  00103	8b c2		 mov	 eax, edx
$LN88@Emplace_re:

; 255  :         ::operator delete(_Ptr, _Bytes);

  00105	51		 push	 ecx
  00106	50		 push	 eax
  00107	e8 00 00 00 00	 call	 ??3@YAXPAXI@Z		; operator delete
  0010c	83 c4 08	 add	 esp, 8
$LN78@Emplace_re:
; File D:\visual studio 2019\visual studio 2019\VC\Tools\MSVC\14.29.30133\include\vector

; 1738 :         _Mylast  = _Newvec + _Newsize;

  0010f	8b 45 f8	 mov	 eax, DWORD PTR __Newsize$1$[ebp]
  00112	89 3e		 mov	 DWORD PTR [esi], edi
  00114	8d 0c 87	 lea	 ecx, DWORD PTR [edi+eax*4]

; 785  :         }
; 786  :         _CATCH_ALL
; 787  :         _Destroy(_Constructed_first, _Constructed_last);
; 788  :         _Al.deallocate(_Newvec, _Newcapacity);
; 789  :         _RERAISE;
; 790  :         _CATCH_END
; 791  : 
; 792  :         _Change_array(_Newvec, _Newsize, _Newcapacity);
; 793  :         return _Newvec + _Whereoff;

  00117	8b 45 fc	 mov	 eax, DWORD PTR tv641[ebp]

; 1738 :         _Mylast  = _Newvec + _Newsize;

  0011a	89 4e 04	 mov	 DWORD PTR [esi+4], ecx

; 1739 :         _Myend   = _Newvec + _Newcapacity;

  0011d	8d 0c 3b	 lea	 ecx, DWORD PTR [ebx+edi]

; 785  :         }
; 786  :         _CATCH_ALL
; 787  :         _Destroy(_Constructed_first, _Constructed_last);
; 788  :         _Al.deallocate(_Newvec, _Newcapacity);
; 789  :         _RERAISE;
; 790  :         _CATCH_END
; 791  : 
; 792  :         _Change_array(_Newvec, _Newsize, _Newcapacity);
; 793  :         return _Newvec + _Whereoff;

  00120	5f		 pop	 edi

; 1739 :         _Myend   = _Newvec + _Newcapacity;

  00121	89 4e 08	 mov	 DWORD PTR [esi+8], ecx

; 785  :         }
; 786  :         _CATCH_ALL
; 787  :         _Destroy(_Constructed_first, _Constructed_last);
; 788  :         _Al.deallocate(_Newvec, _Newcapacity);
; 789  :         _RERAISE;
; 790  :         _CATCH_END
; 791  : 
; 792  :         _Change_array(_Newvec, _Newsize, _Newcapacity);
; 793  :         return _Newvec + _Whereoff;

  00124	5e		 pop	 esi
  00125	5b		 pop	 ebx

; 794  :     }

  00126	8b e5		 mov	 esp, ebp
  00128	5d		 pop	 ebp
  00129	c2 08 00	 ret	 8
$LN85@Emplace_re:
; File D:\visual studio 2019\visual studio 2019\VC\Tools\MSVC\14.29.30133\include\xmemory

; 164  :     _STL_VERIFY(_Back_shift >= _Min_back_shift && _Back_shift <= _Non_user_size, "invalid argument");

  0012c	e8 00 00 00 00	 call	 __invalid_parameter_noinfo_noreturn
$LN96@Emplace_re:
; File D:\visual studio 2019\visual studio 2019\VC\Tools\MSVC\14.29.30133\include\vector

; 765  :             _Xlength();

  00131	e8 00 00 00 00	 call	 ?_Xlength@?$vector@PAVCEffectMeshInstance@@V?$allocator@PAVCEffectMeshInstance@@@std@@@std@@CAXXZ ; std::vector<CEffectMeshInstance *,std::allocator<CEffectMeshInstance *> >::_Xlength
$LN97@Emplace_re:
; File D:\visual studio 2019\visual studio 2019\VC\Tools\MSVC\14.29.30133\include\xmemory

; 61   :             _Throw_bad_array_new_length(); // multiply overflow

  00136	e8 00 00 00 00	 call	 ?_Throw_bad_array_new_length@std@@YAXXZ ; std::_Throw_bad_array_new_length
$LN94@Emplace_re:
  0013b	cc		 int	 3
??$_Emplace_reallocate@ABQAVCEffectMeshInstance@@@?$vector@PAVCEffectMeshInstance@@V?$allocator@PAVCEffectMeshInstance@@@std@@@std@@QAEPAPAVCEffectMeshInstance@@QAPAV2@ABQAV2@@Z ENDP ; std::vector<CEffectMeshInstance *,std::allocator<CEffectMeshInstance *> >::_Emplace_reallocate<CEffectMeshInstance * const &>
_TEXT	ENDS
; Function compile flags: /Ogtp
; File D:\visual studio 2019\visual studio 2019\VC\Tools\MSVC\14.29.30133\include\vector
; File D:\visual studio 2019\visual studio 2019\VC\Tools\MSVC\14.29.30133\include\xmemory
; File D:\visual studio 2019\visual studio 2019\VC\Tools\MSVC\14.29.30133\include\vector
; File D:\visual studio 2019\visual studio 2019\VC\Tools\MSVC\14.29.30133\include\xmemory
; File D:\visual studio 2019\visual studio 2019\VC\Tools\MSVC\14.29.30133\include\vector
; File D:\visual studio 2019\visual studio 2019\VC\Tools\MSVC\14.29.30133\include\xmemory
; File D:\visual studio 2019\visual studio 2019\VC\Tools\MSVC\14.29.30133\include\vector
; File D:\visual studio 2019\visual studio 2019\VC\Tools\MSVC\14.29.30133\include\xmemory
; File D:\visual studio 2019\visual studio 2019\VC\Tools\MSVC\14.29.30133\include\vector
; File D:\visual studio 2019\visual studio 2019\VC\Tools\MSVC\14.29.30133\include\xmemory
; File D:\visual studio 2019\visual studio 2019\VC\Tools\MSVC\14.29.30133\include\vector
; File D:\visual studio 2019\visual studio 2019\VC\Tools\MSVC\14.29.30133\include\xmemory
; File D:\visual studio 2019\visual studio 2019\VC\Tools\MSVC\14.29.30133\include\vector
; File D:\visual studio 2019\visual studio 2019\VC\Tools\MSVC\14.29.30133\include\xmemory
; File D:\visual studio 2019\visual studio 2019\VC\Tools\MSVC\14.29.30133\include\vector
; File D:\visual studio 2019\visual studio 2019\VC\Tools\MSVC\14.29.30133\include\xmemory
; File D:\visual studio 2019\visual studio 2019\VC\Tools\MSVC\14.29.30133\include\vector
; File D:\visual studio 2019\visual studio 2019\VC\Tools\MSVC\14.29.30133\include\xmemory
; File D:\visual studio 2019\visual studio 2019\VC\Tools\MSVC\14.29.30133\include\vector
;	COMDAT ??$_Emplace_reallocate@ABQAVCLightInstance@@@?$vector@PAVCLightInstance@@V?$allocator@PAVCLightInstance@@@std@@@std@@QAEPAPAVCLightInstance@@QAPAV2@ABQAV2@@Z
_TEXT	SEGMENT
__Newsize$1$ = -8					; size = 4
tv641 = -4						; size = 4
__Whereoff$1$ = -4					; size = 4
__Whereptr$ = 8						; size = 4
_<_Val_0>$ = 12						; size = 4
??$_Emplace_reallocate@ABQAVCLightInstance@@@?$vector@PAVCLightInstance@@V?$allocator@PAVCLightInstance@@@std@@@std@@QAEPAPAVCLightInstance@@QAPAV2@ABQAV2@@Z PROC ; std::vector<CLightInstance *,std::allocator<CLightInstance *> >::_Emplace_reallocate<CLightInstance * const &>, COMDAT
; _this$ = ecx

; 752  :     _CONSTEXPR20_CONTAINER pointer _Emplace_reallocate(const pointer _Whereptr, _Valty&&... _Val) {

  00000	55		 push	 ebp
  00001	8b ec		 mov	 ebp, esp
  00003	83 ec 08	 sub	 esp, 8

; 753  :         // reallocate and insert by perfectly forwarding _Val at _Whereptr
; 754  :         _Alty& _Al        = _Getal();
; 755  :         auto& _My_data    = _Mypair._Myval2;
; 756  :         pointer& _Myfirst = _My_data._Myfirst;
; 757  :         pointer& _Mylast  = _My_data._Mylast;
; 758  : 
; 759  :         _STL_INTERNAL_CHECK(_Mylast == _My_data._Myend); // check that we have no unused capacity
; 760  : 
; 761  :         const auto _Whereoff = static_cast<size_type>(_Whereptr - _Myfirst);

  00006	8b 45 08	 mov	 eax, DWORD PTR __Whereptr$[ebp]
  00009	53		 push	 ebx
  0000a	56		 push	 esi
  0000b	8b f1		 mov	 esi, ecx
  0000d	57		 push	 edi
  0000e	8b 0e		 mov	 ecx, DWORD PTR [esi]
  00010	2b c1		 sub	 eax, ecx
  00012	c1 f8 02	 sar	 eax, 2
  00015	89 45 fc	 mov	 DWORD PTR __Whereoff$1$[ebp], eax

; 762  :         const auto _Oldsize  = static_cast<size_type>(_Mylast - _Myfirst);

  00018	8b 46 04	 mov	 eax, DWORD PTR [esi+4]
  0001b	2b c1		 sub	 eax, ecx
  0001d	c1 f8 02	 sar	 eax, 2

; 763  : 
; 764  :         if (_Oldsize == max_size()) {

  00020	3d ff ff ff 3f	 cmp	 eax, 1073741823		; 3fffffffH
  00025	0f 84 06 01 00
	00		 je	 $LN96@Emplace_re

; 1546 :         return static_cast<size_type>(_My_data._Myend - _My_data._Myfirst);

  0002b	8b 56 08	 mov	 edx, DWORD PTR [esi+8]

; 766  :         }
; 767  : 
; 768  :         const size_type _Newsize     = _Oldsize + 1;

  0002e	8d 78 01	 lea	 edi, DWORD PTR [eax+1]

; 1546 :         return static_cast<size_type>(_My_data._Myend - _My_data._Myfirst);

  00031	2b d1		 sub	 edx, ecx

; 766  :         }
; 767  : 
; 768  :         const size_type _Newsize     = _Oldsize + 1;

  00033	89 7d f8	 mov	 DWORD PTR __Newsize$1$[ebp], edi

; 1546 :         return static_cast<size_type>(_My_data._Myend - _My_data._Myfirst);

  00036	c1 fa 02	 sar	 edx, 2

; 1675 :         if (_Oldcapacity > _Max - _Oldcapacity / 2) {

  00039	b8 ff ff ff 3f	 mov	 eax, 1073741823		; 3fffffffH
  0003e	8b ca		 mov	 ecx, edx
  00040	d1 e9		 shr	 ecx, 1
  00042	2b c1		 sub	 eax, ecx
  00044	3b d0		 cmp	 edx, eax
  00046	76 12		 jbe	 SHORT $LN12@Emplace_re

; 1676 :             return _Max; // geometric growth would overflow

  00048	bb fc ff ff ff	 mov	 ebx, -4			; fffffffcH
; File D:\visual studio 2019\visual studio 2019\VC\Tools\MSVC\14.29.30133\include\xmemory

; 229  :             return _Allocate_manually_vector_aligned<_Traits>(_Bytes);

  0004d	53		 push	 ebx
  0004e	e8 00 00 00 00	 call	 ??$_Allocate_manually_vector_aligned@U_Default_allocate_traits@std@@@std@@YAPAXI@Z ; std::_Allocate_manually_vector_aligned<std::_Default_allocate_traits>
  00053	83 c4 04	 add	 esp, 4
  00056	8b f8		 mov	 edi, eax
  00058	eb 41		 jmp	 SHORT $LN23@Emplace_re
$LN12@Emplace_re:
; File D:\visual studio 2019\visual studio 2019\VC\Tools\MSVC\14.29.30133\include\vector

; 1679 :         const size_type _Geometric = _Oldcapacity + _Oldcapacity / 2;

  0005a	8d 04 11	 lea	 eax, DWORD PTR [ecx+edx]
; File D:\visual studio 2019\visual studio 2019\VC\Tools\MSVC\14.29.30133\include\xmemory

; 60   :         if (_Count > _Max_possible) {

  0005d	8b df		 mov	 ebx, edi
  0005f	3b c7		 cmp	 eax, edi
  00061	0f 43 d8	 cmovae	 ebx, eax
  00064	81 fb ff ff ff
	3f		 cmp	 ebx, 1073741823		; 3fffffffH
  0006a	0f 87 c6 00 00
	00		 ja	 $LN97@Emplace_re

; 62   :         }
; 63   :     }
; 64   : 
; 65   :     return _Count * _Ty_size;

  00070	c1 e3 02	 shl	 ebx, 2

; 228  :         if (_Bytes >= _Big_allocation_threshold) { // boost the alignment of big allocations to help autovectorization

  00073	81 fb 00 10 00
	00		 cmp	 ebx, 4096		; 00001000H
  00079	72 0d		 jb	 SHORT $LN24@Emplace_re

; 229  :             return _Allocate_manually_vector_aligned<_Traits>(_Bytes);

  0007b	53		 push	 ebx
  0007c	e8 00 00 00 00	 call	 ??$_Allocate_manually_vector_aligned@U_Default_allocate_traits@std@@@std@@YAPAXI@Z ; std::_Allocate_manually_vector_aligned<std::_Default_allocate_traits>
  00081	83 c4 04	 add	 esp, 4
  00084	8b f8		 mov	 edi, eax
  00086	eb 13		 jmp	 SHORT $LN23@Emplace_re
$LN24@Emplace_re:

; 230  :         }
; 231  :     }
; 232  : #endif // defined(_M_IX86) || defined(_M_X64)
; 233  : 
; 234  :     if (_Bytes != 0) {

  00088	85 db		 test	 ebx, ebx
  0008a	74 0d		 je	 SHORT $LN25@Emplace_re

; 79   :         return ::operator new(_Bytes);

  0008c	53		 push	 ebx
  0008d	e8 00 00 00 00	 call	 ??2@YAPAXI@Z		; operator new
  00092	83 c4 04	 add	 esp, 4

; 235  :         return _Traits::_Allocate(_Bytes);

  00095	8b f8		 mov	 edi, eax
  00097	eb 02		 jmp	 SHORT $LN23@Emplace_re
$LN25@Emplace_re:

; 236  :     }
; 237  : 
; 238  :     return nullptr;

  00099	33 ff		 xor	 edi, edi
$LN23@Emplace_re:
; File D:\visual studio 2019\visual studio 2019\VC\Tools\MSVC\14.29.30133\include\vector

; 776  :         _Alty_traits::construct(_Al, _Unfancy(_Newvec + _Whereoff), _STD forward<_Valty>(_Val)...);

  0009b	8b 45 fc	 mov	 eax, DWORD PTR __Whereoff$1$[ebp]
  0009e	8d 0c 87	 lea	 ecx, DWORD PTR [edi+eax*4]
  000a1	8b 45 0c	 mov	 eax, DWORD PTR _<_Val_0>$[ebp]
  000a4	89 4d fc	 mov	 DWORD PTR tv641[ebp], ecx
  000a7	8b 00		 mov	 eax, DWORD PTR [eax]
  000a9	89 01		 mov	 DWORD PTR [ecx], eax

; 777  :         _Constructed_first = _Newvec + _Whereoff;
; 778  : 
; 779  :         if (_Whereptr == _Mylast) { // at back, provide strong guarantee

  000ab	8b 4e 04	 mov	 ecx, DWORD PTR [esi+4]
  000ae	8b 45 08	 mov	 eax, DWORD PTR __Whereptr$[ebp]
  000b1	8b 16		 mov	 edx, DWORD PTR [esi]
  000b3	3b c1		 cmp	 eax, ecx
  000b5	75 04		 jne	 SHORT $LN4@Emplace_re
; File D:\visual studio 2019\visual studio 2019\VC\Tools\MSVC\14.29.30133\include\xmemory

; 1711 :             _Copy_memmove(_UFirst, _ULast, _Unfancy(_Dest));

  000b7	8b c7		 mov	 eax, edi
; File D:\visual studio 2019\visual studio 2019\VC\Tools\MSVC\14.29.30133\include\vector

; 781  :         } else { // provide basic guarantee

  000b9	eb 17		 jmp	 SHORT $LN60@Emplace_re
$LN4@Emplace_re:
; File D:\visual studio 2019\visual studio 2019\VC\Tools\MSVC\14.29.30133\include\xmemory

; 1711 :             _Copy_memmove(_UFirst, _ULast, _Unfancy(_Dest));

  000bb	57		 push	 edi
  000bc	50		 push	 eax
  000bd	52		 push	 edx
  000be	e8 00 00 00 00	 call	 ??$_Copy_memmove@PAPAVCLightInstance@@PAPAV1@@std@@YAPAPAVCLightInstance@@PAPAV1@00@Z ; std::_Copy_memmove<CLightInstance * *,CLightInstance * *>
; File D:\visual studio 2019\visual studio 2019\VC\Tools\MSVC\14.29.30133\include\vector

; 784  :             _Umove(_Whereptr, _Mylast, _Newvec + _Whereoff + 1);

  000c3	8b 45 fc	 mov	 eax, DWORD PTR tv641[ebp]
; File D:\visual studio 2019\visual studio 2019\VC\Tools\MSVC\14.29.30133\include\xmemory

; 1711 :             _Copy_memmove(_UFirst, _ULast, _Unfancy(_Dest));

  000c6	83 c4 0c	 add	 esp, 12			; 0000000cH
  000c9	8b 55 08	 mov	 edx, DWORD PTR __Whereptr$[ebp]
; File D:\visual studio 2019\visual studio 2019\VC\Tools\MSVC\14.29.30133\include\vector

; 784  :             _Umove(_Whereptr, _Mylast, _Newvec + _Whereoff + 1);

  000cc	83 c0 04	 add	 eax, 4
; File D:\visual studio 2019\visual studio 2019\VC\Tools\MSVC\14.29.30133\include\xmemory

; 1711 :             _Copy_memmove(_UFirst, _ULast, _Unfancy(_Dest));

  000cf	8b 4e 04	 mov	 ecx, DWORD PTR [esi+4]
$LN60@Emplace_re:
; File D:\visual studio 2019\visual studio 2019\VC\Tools\MSVC\14.29.30133\include\vector

; 784  :             _Umove(_Whereptr, _Mylast, _Newvec + _Whereoff + 1);

  000d2	50		 push	 eax
  000d3	51		 push	 ecx
  000d4	52		 push	 edx
  000d5	e8 00 00 00 00	 call	 ??$_Copy_memmove@PAPAVCLightInstance@@PAPAV1@@std@@YAPAPAVCLightInstance@@PAPAV1@00@Z ; std::_Copy_memmove<CLightInstance * *,CLightInstance * *>

; 1732 :         if (_Myfirst) { // destroy and deallocate old array

  000da	8b 06		 mov	 eax, DWORD PTR [esi]

; 784  :             _Umove(_Whereptr, _Mylast, _Newvec + _Whereoff + 1);

  000dc	83 c4 0c	 add	 esp, 12			; 0000000cH

; 1732 :         if (_Myfirst) { // destroy and deallocate old array

  000df	85 c0		 test	 eax, eax
  000e1	74 2c		 je	 SHORT $LN78@Emplace_re

; 1733 :             _Destroy(_Myfirst, _Mylast);
; 1734 :             _Getal().deallocate(_Myfirst, static_cast<size_type>(_Myend - _Myfirst));

  000e3	8b 4e 08	 mov	 ecx, DWORD PTR [esi+8]
  000e6	2b c8		 sub	 ecx, eax
; File D:\visual studio 2019\visual studio 2019\VC\Tools\MSVC\14.29.30133\include\xmemory

; 797  :         _Deallocate<_New_alignof<_Ty>>(_Ptr, sizeof(_Ty) * _Count);

  000e8	83 e1 fc	 and	 ecx, -4			; fffffffcH

; 251  :         if (_Bytes >= _Big_allocation_threshold) { // boost the alignment of big allocations to help autovectorization

  000eb	81 f9 00 10 00
	00		 cmp	 ecx, 4096		; 00001000H
  000f1	72 12		 jb	 SHORT $LN88@Emplace_re

; 150  :     const uintptr_t _Ptr_container   = _Ptr_user[-1];

  000f3	8b 50 fc	 mov	 edx, DWORD PTR [eax-4]
  000f6	83 c1 23	 add	 ecx, 35			; 00000023H

; 151  : 
; 152  :     // If the following asserts, it likely means that we are performing
; 153  :     // an aligned delete on memory coming from an unaligned allocation.
; 154  :     _STL_ASSERT(_Ptr_user[-2] == _Big_allocation_sentinel, "invalid argument");
; 155  : 
; 156  :     // Extra paranoia on aligned allocation/deallocation; ensure _Ptr_container is
; 157  :     // in range [_Min_back_shift, _Non_user_size]
; 158  : #ifdef _DEBUG
; 159  :     constexpr uintptr_t _Min_back_shift = 2 * sizeof(void*);
; 160  : #else // ^^^ _DEBUG ^^^ // vvv !_DEBUG vvv
; 161  :     constexpr uintptr_t _Min_back_shift = sizeof(void*);
; 162  : #endif // _DEBUG
; 163  :     const uintptr_t _Back_shift = reinterpret_cast<uintptr_t>(_Ptr) - _Ptr_container;

  000f9	2b c2		 sub	 eax, edx

; 164  :     _STL_VERIFY(_Back_shift >= _Min_back_shift && _Back_shift <= _Non_user_size, "invalid argument");

  000fb	83 c0 fc	 add	 eax, -4			; fffffffcH
  000fe	83 f8 1f	 cmp	 eax, 31			; 0000001fH
  00101	77 29		 ja	 SHORT $LN85@Emplace_re

; 165  :     _Ptr = reinterpret_cast<void*>(_Ptr_container);

  00103	8b c2		 mov	 eax, edx
$LN88@Emplace_re:

; 255  :         ::operator delete(_Ptr, _Bytes);

  00105	51		 push	 ecx
  00106	50		 push	 eax
  00107	e8 00 00 00 00	 call	 ??3@YAXPAXI@Z		; operator delete
  0010c	83 c4 08	 add	 esp, 8
$LN78@Emplace_re:
; File D:\visual studio 2019\visual studio 2019\VC\Tools\MSVC\14.29.30133\include\vector

; 1738 :         _Mylast  = _Newvec + _Newsize;

  0010f	8b 45 f8	 mov	 eax, DWORD PTR __Newsize$1$[ebp]
  00112	89 3e		 mov	 DWORD PTR [esi], edi
  00114	8d 0c 87	 lea	 ecx, DWORD PTR [edi+eax*4]

; 785  :         }
; 786  :         _CATCH_ALL
; 787  :         _Destroy(_Constructed_first, _Constructed_last);
; 788  :         _Al.deallocate(_Newvec, _Newcapacity);
; 789  :         _RERAISE;
; 790  :         _CATCH_END
; 791  : 
; 792  :         _Change_array(_Newvec, _Newsize, _Newcapacity);
; 793  :         return _Newvec + _Whereoff;

  00117	8b 45 fc	 mov	 eax, DWORD PTR tv641[ebp]

; 1738 :         _Mylast  = _Newvec + _Newsize;

  0011a	89 4e 04	 mov	 DWORD PTR [esi+4], ecx

; 1739 :         _Myend   = _Newvec + _Newcapacity;

  0011d	8d 0c 3b	 lea	 ecx, DWORD PTR [ebx+edi]

; 785  :         }
; 786  :         _CATCH_ALL
; 787  :         _Destroy(_Constructed_first, _Constructed_last);
; 788  :         _Al.deallocate(_Newvec, _Newcapacity);
; 789  :         _RERAISE;
; 790  :         _CATCH_END
; 791  : 
; 792  :         _Change_array(_Newvec, _Newsize, _Newcapacity);
; 793  :         return _Newvec + _Whereoff;

  00120	5f		 pop	 edi

; 1739 :         _Myend   = _Newvec + _Newcapacity;

  00121	89 4e 08	 mov	 DWORD PTR [esi+8], ecx

; 785  :         }
; 786  :         _CATCH_ALL
; 787  :         _Destroy(_Constructed_first, _Constructed_last);
; 788  :         _Al.deallocate(_Newvec, _Newcapacity);
; 789  :         _RERAISE;
; 790  :         _CATCH_END
; 791  : 
; 792  :         _Change_array(_Newvec, _Newsize, _Newcapacity);
; 793  :         return _Newvec + _Whereoff;

  00124	5e		 pop	 esi
  00125	5b		 pop	 ebx

; 794  :     }

  00126	8b e5		 mov	 esp, ebp
  00128	5d		 pop	 ebp
  00129	c2 08 00	 ret	 8
$LN85@Emplace_re:
; File D:\visual studio 2019\visual studio 2019\VC\Tools\MSVC\14.29.30133\include\xmemory

; 164  :     _STL_VERIFY(_Back_shift >= _Min_back_shift && _Back_shift <= _Non_user_size, "invalid argument");

  0012c	e8 00 00 00 00	 call	 __invalid_parameter_noinfo_noreturn
$LN96@Emplace_re:
; File D:\visual studio 2019\visual studio 2019\VC\Tools\MSVC\14.29.30133\include\vector

; 765  :             _Xlength();

  00131	e8 00 00 00 00	 call	 ?_Xlength@?$vector@PAVCLightInstance@@V?$allocator@PAVCLightInstance@@@std@@@std@@CAXXZ ; std::vector<CLightInstance *,std::allocator<CLightInstance *> >::_Xlength
$LN97@Emplace_re:
; File D:\visual studio 2019\visual studio 2019\VC\Tools\MSVC\14.29.30133\include\xmemory

; 61   :             _Throw_bad_array_new_length(); // multiply overflow

  00136	e8 00 00 00 00	 call	 ?_Throw_bad_array_new_length@std@@YAXXZ ; std::_Throw_bad_array_new_length
$LN94@Emplace_re:
  0013b	cc		 int	 3
??$_Emplace_reallocate@ABQAVCLightInstance@@@?$vector@PAVCLightInstance@@V?$allocator@PAVCLightInstance@@@std@@@std@@QAEPAPAVCLightInstance@@QAPAV2@ABQAV2@@Z ENDP ; std::vector<CLightInstance *,std::allocator<CLightInstance *> >::_Emplace_reallocate<CLightInstance * const &>
_TEXT	ENDS
; Function compile flags: /Ogtp
;	COMDAT ??__F?ms_kPool@CEffectInstance@@2V?$CDynamicPool@VCEffectInstance@@@@A@@YAXXZ
text$yd	SEGMENT
??__F?ms_kPool@CEffectInstance@@2V?$CDynamicPool@VCEffectInstance@@@@A@@YAXXZ PROC ; `dynamic atexit destructor for 'CEffectInstance::ms_kPool'', COMDAT
  00000	b9 00 00 00 00	 mov	 ecx, OFFSET ?ms_kPool@CEffectInstance@@2V?$CDynamicPool@VCEffectInstance@@@@A ; CEffectInstance::ms_kPool
  00005	e9 00 00 00 00	 jmp	 ??1?$CDynamicPool@VCEffectInstance@@@@UAE@XZ ; CDynamicPool<CEffectInstance>::~CDynamicPool<CEffectInstance>
??__F?ms_kPool@CEffectInstance@@2V?$CDynamicPool@VCEffectInstance@@@@A@@YAXXZ ENDP ; `dynamic atexit destructor for 'CEffectInstance::ms_kPool''
text$yd	ENDS
; Function compile flags: /Ogtp
; File C:\Users\ALEXANDER\Desktop\Cliente\COPY_FISH_WON_NEW\Binario\Client\EffectLib\EffectInstance.cpp
;	COMDAT ??__E?ms_kPool@CEffectInstance@@2V?$CDynamicPool@VCEffectInstance@@@@A@@YAXXZ
text$di	SEGMENT
??__E?ms_kPool@CEffectInstance@@2V?$CDynamicPool@VCEffectInstance@@@@A@@YAXXZ PROC ; `dynamic initializer for 'CEffectInstance::ms_kPool'', COMDAT

; 10   : CDynamicPool<CEffectInstance>	CEffectInstance::ms_kPool;

  00000	68 00 00 00 00	 push	 OFFSET ??__F?ms_kPool@CEffectInstance@@2V?$CDynamicPool@VCEffectInstance@@@@A@@YAXXZ ; `dynamic atexit destructor for 'CEffectInstance::ms_kPool''
  00005	e8 00 00 00 00	 call	 _atexit
  0000a	59		 pop	 ecx
  0000b	c3		 ret	 0
??__E?ms_kPool@CEffectInstance@@2V?$CDynamicPool@VCEffectInstance@@@@A@@YAXXZ ENDP ; `dynamic initializer for 'CEffectInstance::ms_kPool''
text$di	ENDS
; Function compile flags: /Ogtp
;	COMDAT ??_G?$CDynamicPool@VCEffectInstance@@@@UAEPAXI@Z
_TEXT	SEGMENT
___flags$ = 8						; size = 4
??_G?$CDynamicPool@VCEffectInstance@@@@UAEPAXI@Z PROC	; CDynamicPool<CEffectInstance>::`scalar deleting destructor', COMDAT
; _this$ = ecx
  00000	55		 push	 ebp
  00001	8b ec		 mov	 ebp, esp
  00003	56		 push	 esi
  00004	8b f1		 mov	 esi, ecx
  00006	e8 00 00 00 00	 call	 ??1?$CDynamicPool@VCEffectInstance@@@@UAE@XZ ; CDynamicPool<CEffectInstance>::~CDynamicPool<CEffectInstance>
  0000b	f6 45 08 01	 test	 BYTE PTR ___flags$[ebp], 1
  0000f	74 0b		 je	 SHORT $LN4@scalar
  00011	6a 24		 push	 36			; 00000024H
  00013	56		 push	 esi
  00014	e8 00 00 00 00	 call	 ??3@YAXPAXI@Z		; operator delete
  00019	83 c4 08	 add	 esp, 8
$LN4@scalar:
  0001c	8b c6		 mov	 eax, esi
  0001e	5e		 pop	 esi
  0001f	5d		 pop	 ebp
  00020	c2 04 00	 ret	 4
??_G?$CDynamicPool@VCEffectInstance@@@@UAEPAXI@Z ENDP	; CDynamicPool<CEffectInstance>::`scalar deleting destructor'
_TEXT	ENDS
; Function compile flags: /Ogtp
; File D:\visual studio 2019\visual studio 2019\VC\Tools\MSVC\14.29.30133\include\vector
;	COMDAT ?_Xlength@?$vector@PAVCEffectInstance@@V?$allocator@PAVCEffectInstance@@@std@@@std@@CAXXZ
_TEXT	SEGMENT
?_Xlength@?$vector@PAVCEffectInstance@@V?$allocator@PAVCEffectInstance@@@std@@@std@@CAXXZ PROC ; std::vector<CEffectInstance *,std::allocator<CEffectInstance *> >::_Xlength, COMDAT

; 1761 :         _Xlength_error("vector too long");

  00000	68 00 00 00 00	 push	 OFFSET ??_C@_0BA@FOIKENOD@vector?5too?5long@
  00005	e8 00 00 00 00	 call	 ?_Xlength_error@std@@YAXPBD@Z ; std::_Xlength_error
$LN3@Xlength:
  0000a	cc		 int	 3
?_Xlength@?$vector@PAVCEffectInstance@@V?$allocator@PAVCEffectInstance@@@std@@@std@@CAXXZ ENDP ; std::vector<CEffectInstance *,std::allocator<CEffectInstance *> >::_Xlength
_TEXT	ENDS
; Function compile flags: /Ogtp
; File C:\Users\ALEXANDER\Desktop\Cliente\COPY_FISH_WON_NEW\Binario\Client\eterLib\Pool.h
;	COMDAT ?Delete@?$CDynamicPool@VCEffectInstance@@@@KAXPAVCEffectInstance@@@Z
_TEXT	SEGMENT
_pkData$ = 8						; size = 4
?Delete@?$CDynamicPool@VCEffectInstance@@@@KAXPAVCEffectInstance@@@Z PROC ; CDynamicPool<CEffectInstance>::Delete, COMDAT

; 109  : 		{

  00000	55		 push	 ebp
  00001	8b ec		 mov	 ebp, esp

; 110  : 			delete pkData;

  00003	8b 4d 08	 mov	 ecx, DWORD PTR _pkData$[ebp]
  00006	85 c9		 test	 ecx, ecx
  00008	74 06		 je	 SHORT $LN3@Delete
  0000a	8b 01		 mov	 eax, DWORD PTR [ecx]
  0000c	6a 01		 push	 1
  0000e	ff 10		 call	 DWORD PTR [eax]
$LN3@Delete:

; 111  : 		}

  00010	5d		 pop	 ebp
  00011	c3		 ret	 0
?Delete@?$CDynamicPool@VCEffectInstance@@@@KAXPAVCEffectInstance@@@Z ENDP ; CDynamicPool<CEffectInstance>::Delete
_TEXT	ENDS
; Function compile flags: /Ogtp
; File C:\Users\ALEXANDER\Desktop\Cliente\COPY_FISH_WON_NEW\Binario\Client\eterLib\Pool.h
; File D:\visual studio 2019\visual studio 2019\VC\Tools\MSVC\14.29.30133\include\vector
; File D:\visual studio 2019\visual studio 2019\VC\Tools\MSVC\14.29.30133\include\xmemory
; File D:\visual studio 2019\visual studio 2019\VC\Tools\MSVC\14.29.30133\include\vector
; File D:\visual studio 2019\visual studio 2019\VC\Tools\MSVC\14.29.30133\include\xmemory
; File D:\visual studio 2019\visual studio 2019\VC\Tools\MSVC\14.29.30133\include\vector
; File D:\visual studio 2019\visual studio 2019\VC\Tools\MSVC\14.29.30133\include\xmemory
; File D:\visual studio 2019\visual studio 2019\VC\Tools\MSVC\14.29.30133\include\vector
; File D:\visual studio 2019\visual studio 2019\VC\Tools\MSVC\14.29.30133\include\xmemory
; File D:\visual studio 2019\visual studio 2019\VC\Tools\MSVC\14.29.30133\include\vector
; File C:\Users\ALEXANDER\Desktop\Cliente\COPY_FISH_WON_NEW\Binario\Client\eterLib\Pool.h
; File D:\visual studio 2019\visual studio 2019\VC\Tools\MSVC\14.29.30133\include\xmemory
; File C:\Users\ALEXANDER\Desktop\Cliente\COPY_FISH_WON_NEW\Binario\Client\eterLib\Pool.h
;	COMDAT ??1?$CDynamicPool@VCEffectInstance@@@@UAE@XZ
_TEXT	SEGMENT
??1?$CDynamicPool@VCEffectInstance@@@@UAE@XZ PROC	; CDynamicPool<CEffectInstance>::~CDynamicPool<CEffectInstance>, COMDAT
; _this$ = ecx

; 18   : 		{

  00000	56		 push	 esi
  00001	8b f1		 mov	 esi, ecx
  00003	c7 06 00 00 00
	00		 mov	 DWORD PTR [esi], OFFSET ??_7?$CDynamicPool@VCEffectInstance@@@@6B@
; File D:\visual studio 2019\visual studio 2019\VC\Tools\MSVC\14.29.30133\include\vector

; 1750 :         if (_Myfirst) { // destroy and deallocate old array

  00009	8b 46 10	 mov	 eax, DWORD PTR [esi+16]
  0000c	85 c0		 test	 eax, eax
  0000e	74 41		 je	 SHORT $LN6@CDynamicPo

; 1751 :             _Destroy(_Myfirst, _Mylast);
; 1752 :             _Getal().deallocate(_Myfirst, static_cast<size_type>(_Myend - _Myfirst));

  00010	8b 4e 18	 mov	 ecx, DWORD PTR [esi+24]
  00013	2b c8		 sub	 ecx, eax
; File D:\visual studio 2019\visual studio 2019\VC\Tools\MSVC\14.29.30133\include\xmemory

; 797  :         _Deallocate<_New_alignof<_Ty>>(_Ptr, sizeof(_Ty) * _Count);

  00015	83 e1 fc	 and	 ecx, -4			; fffffffcH

; 251  :         if (_Bytes >= _Big_allocation_threshold) { // boost the alignment of big allocations to help autovectorization

  00018	81 f9 00 10 00
	00		 cmp	 ecx, 4096		; 00001000H
  0001e	72 12		 jb	 SHORT $LN22@CDynamicPo

; 150  :     const uintptr_t _Ptr_container   = _Ptr_user[-1];

  00020	8b 50 fc	 mov	 edx, DWORD PTR [eax-4]
  00023	83 c1 23	 add	 ecx, 35			; 00000023H

; 151  : 
; 152  :     // If the following asserts, it likely means that we are performing
; 153  :     // an aligned delete on memory coming from an unaligned allocation.
; 154  :     _STL_ASSERT(_Ptr_user[-2] == _Big_allocation_sentinel, "invalid argument");
; 155  : 
; 156  :     // Extra paranoia on aligned allocation/deallocation; ensure _Ptr_container is
; 157  :     // in range [_Min_back_shift, _Non_user_size]
; 158  : #ifdef _DEBUG
; 159  :     constexpr uintptr_t _Min_back_shift = 2 * sizeof(void*);
; 160  : #else // ^^^ _DEBUG ^^^ // vvv !_DEBUG vvv
; 161  :     constexpr uintptr_t _Min_back_shift = sizeof(void*);
; 162  : #endif // _DEBUG
; 163  :     const uintptr_t _Back_shift = reinterpret_cast<uintptr_t>(_Ptr) - _Ptr_container;

  00026	2b c2		 sub	 eax, edx

; 164  :     _STL_VERIFY(_Back_shift >= _Min_back_shift && _Back_shift <= _Non_user_size, "invalid argument");

  00028	83 c0 fc	 add	 eax, -4			; fffffffcH
  0002b	83 f8 1f	 cmp	 eax, 31			; 0000001fH
  0002e	77 6b		 ja	 SHORT $LN44@CDynamicPo

; 165  :     _Ptr = reinterpret_cast<void*>(_Ptr_container);

  00030	8b c2		 mov	 eax, edx
$LN22@CDynamicPo:

; 255  :         ::operator delete(_Ptr, _Bytes);

  00032	51		 push	 ecx
  00033	50		 push	 eax
  00034	e8 00 00 00 00	 call	 ??3@YAXPAXI@Z		; operator delete
; File D:\visual studio 2019\visual studio 2019\VC\Tools\MSVC\14.29.30133\include\vector

; 1754 :             _Myfirst = nullptr;

  00039	c7 46 10 00 00
	00 00		 mov	 DWORD PTR [esi+16], 0
; File D:\visual studio 2019\visual studio 2019\VC\Tools\MSVC\14.29.30133\include\xmemory

; 255  :         ::operator delete(_Ptr, _Bytes);

  00040	83 c4 08	 add	 esp, 8
; File D:\visual studio 2019\visual studio 2019\VC\Tools\MSVC\14.29.30133\include\vector

; 1755 :             _Mylast  = nullptr;

  00043	c7 46 14 00 00
	00 00		 mov	 DWORD PTR [esi+20], 0

; 1756 :             _Myend   = nullptr;

  0004a	c7 46 18 00 00
	00 00		 mov	 DWORD PTR [esi+24], 0
$LN6@CDynamicPo:

; 1750 :         if (_Myfirst) { // destroy and deallocate old array

  00051	8b 46 04	 mov	 eax, DWORD PTR [esi+4]
  00054	85 c0		 test	 eax, eax
  00056	74 41		 je	 SHORT $LN31@CDynamicPo

; 1751 :             _Destroy(_Myfirst, _Mylast);
; 1752 :             _Getal().deallocate(_Myfirst, static_cast<size_type>(_Myend - _Myfirst));

  00058	8b 4e 0c	 mov	 ecx, DWORD PTR [esi+12]
  0005b	2b c8		 sub	 ecx, eax
; File D:\visual studio 2019\visual studio 2019\VC\Tools\MSVC\14.29.30133\include\xmemory

; 797  :         _Deallocate<_New_alignof<_Ty>>(_Ptr, sizeof(_Ty) * _Count);

  0005d	83 e1 fc	 and	 ecx, -4			; fffffffcH

; 251  :         if (_Bytes >= _Big_allocation_threshold) { // boost the alignment of big allocations to help autovectorization

  00060	81 f9 00 10 00
	00		 cmp	 ecx, 4096		; 00001000H
  00066	72 12		 jb	 SHORT $LN47@CDynamicPo

; 150  :     const uintptr_t _Ptr_container   = _Ptr_user[-1];

  00068	8b 50 fc	 mov	 edx, DWORD PTR [eax-4]
  0006b	83 c1 23	 add	 ecx, 35			; 00000023H

; 151  : 
; 152  :     // If the following asserts, it likely means that we are performing
; 153  :     // an aligned delete on memory coming from an unaligned allocation.
; 154  :     _STL_ASSERT(_Ptr_user[-2] == _Big_allocation_sentinel, "invalid argument");
; 155  : 
; 156  :     // Extra paranoia on aligned allocation/deallocation; ensure _Ptr_container is
; 157  :     // in range [_Min_back_shift, _Non_user_size]
; 158  : #ifdef _DEBUG
; 159  :     constexpr uintptr_t _Min_back_shift = 2 * sizeof(void*);
; 160  : #else // ^^^ _DEBUG ^^^ // vvv !_DEBUG vvv
; 161  :     constexpr uintptr_t _Min_back_shift = sizeof(void*);
; 162  : #endif // _DEBUG
; 163  :     const uintptr_t _Back_shift = reinterpret_cast<uintptr_t>(_Ptr) - _Ptr_container;

  0006e	2b c2		 sub	 eax, edx

; 164  :     _STL_VERIFY(_Back_shift >= _Min_back_shift && _Back_shift <= _Non_user_size, "invalid argument");

  00070	83 c0 fc	 add	 eax, -4			; fffffffcH
  00073	83 f8 1f	 cmp	 eax, 31			; 0000001fH
  00076	77 23		 ja	 SHORT $LN44@CDynamicPo

; 165  :     _Ptr = reinterpret_cast<void*>(_Ptr_container);

  00078	8b c2		 mov	 eax, edx
$LN47@CDynamicPo:

; 255  :         ::operator delete(_Ptr, _Bytes);

  0007a	51		 push	 ecx
  0007b	50		 push	 eax
  0007c	e8 00 00 00 00	 call	 ??3@YAXPAXI@Z		; operator delete
; File D:\visual studio 2019\visual studio 2019\VC\Tools\MSVC\14.29.30133\include\vector

; 1754 :             _Myfirst = nullptr;

  00081	c7 46 04 00 00
	00 00		 mov	 DWORD PTR [esi+4], 0
; File D:\visual studio 2019\visual studio 2019\VC\Tools\MSVC\14.29.30133\include\xmemory

; 255  :         ::operator delete(_Ptr, _Bytes);

  00088	83 c4 08	 add	 esp, 8
; File D:\visual studio 2019\visual studio 2019\VC\Tools\MSVC\14.29.30133\include\vector

; 1755 :             _Mylast  = nullptr;

  0008b	c7 46 08 00 00
	00 00		 mov	 DWORD PTR [esi+8], 0

; 1756 :             _Myend   = nullptr;

  00092	c7 46 0c 00 00
	00 00		 mov	 DWORD PTR [esi+12], 0
$LN31@CDynamicPo:
  00099	5e		 pop	 esi
; File C:\Users\ALEXANDER\Desktop\Cliente\COPY_FISH_WON_NEW\Binario\Client\eterLib\Pool.h

; 26   : 		}

  0009a	c3		 ret	 0
$LN44@CDynamicPo:
; File D:\visual studio 2019\visual studio 2019\VC\Tools\MSVC\14.29.30133\include\xmemory

; 164  :     _STL_VERIFY(_Back_shift >= _Min_back_shift && _Back_shift <= _Non_user_size, "invalid argument");

  0009b	e8 00 00 00 00	 call	 __invalid_parameter_noinfo_noreturn
$LN52@CDynamicPo:
  000a0	cc		 int	 3
??1?$CDynamicPool@VCEffectInstance@@@@UAE@XZ ENDP	; CDynamicPool<CEffectInstance>::~CDynamicPool<CEffectInstance>
_TEXT	ENDS
; Function compile flags: /Ogtp
;	COMDAT ??_GCEffectInstance@@UAEPAXI@Z
_TEXT	SEGMENT
___flags$ = 8						; size = 4
??_GCEffectInstance@@UAEPAXI@Z PROC			; CEffectInstance::`scalar deleting destructor', COMDAT
; _this$ = ecx
  00000	55		 push	 ebp
  00001	8b ec		 mov	 ebp, esp
  00003	56		 push	 esi
  00004	8b f1		 mov	 esi, ecx
  00006	e8 00 00 00 00	 call	 ??1CEffectInstance@@UAE@XZ ; CEffectInstance::~CEffectInstance
  0000b	f6 45 08 01	 test	 BYTE PTR ___flags$[ebp], 1
  0000f	74 0e		 je	 SHORT $LN4@scalar
  00011	68 b0 03 00 00	 push	 944			; 000003b0H
  00016	56		 push	 esi
  00017	e8 00 00 00 00	 call	 ??3@YAXPAXI@Z		; operator delete
  0001c	83 c4 08	 add	 esp, 8
$LN4@scalar:
  0001f	8b c6		 mov	 eax, esi
  00021	5e		 pop	 esi
  00022	5d		 pop	 ebp
  00023	c2 04 00	 ret	 4
??_GCEffectInstance@@UAEPAXI@Z ENDP			; CEffectInstance::`scalar deleting destructor'
_TEXT	ENDS
; Function compile flags: /Ogtp
; File D:\visual studio 2019\visual studio 2019\VC\Tools\MSVC\14.29.30133\include\vector
;	COMDAT ?_Xlength@?$vector@PAVCLightInstance@@V?$allocator@PAVCLightInstance@@@std@@@std@@CAXXZ
_TEXT	SEGMENT
?_Xlength@?$vector@PAVCLightInstance@@V?$allocator@PAVCLightInstance@@@std@@@std@@CAXXZ PROC ; std::vector<CLightInstance *,std::allocator<CLightInstance *> >::_Xlength, COMDAT

; 1761 :         _Xlength_error("vector too long");

  00000	68 00 00 00 00	 push	 OFFSET ??_C@_0BA@FOIKENOD@vector?5too?5long@
  00005	e8 00 00 00 00	 call	 ?_Xlength_error@std@@YAXPBD@Z ; std::_Xlength_error
$LN3@Xlength:
  0000a	cc		 int	 3
?_Xlength@?$vector@PAVCLightInstance@@V?$allocator@PAVCLightInstance@@@std@@@std@@CAXXZ ENDP ; std::vector<CLightInstance *,std::allocator<CLightInstance *> >::_Xlength
_TEXT	ENDS
; Function compile flags: /Ogtp
; File D:\visual studio 2019\visual studio 2019\VC\Tools\MSVC\14.29.30133\include\vector
;	COMDAT ?_Xlength@?$vector@PAVCEffectMeshInstance@@V?$allocator@PAVCEffectMeshInstance@@@std@@@std@@CAXXZ
_TEXT	SEGMENT
?_Xlength@?$vector@PAVCEffectMeshInstance@@V?$allocator@PAVCEffectMeshInstance@@@std@@@std@@CAXXZ PROC ; std::vector<CEffectMeshInstance *,std::allocator<CEffectMeshInstance *> >::_Xlength, COMDAT

; 1761 :         _Xlength_error("vector too long");

  00000	68 00 00 00 00	 push	 OFFSET ??_C@_0BA@FOIKENOD@vector?5too?5long@
  00005	e8 00 00 00 00	 call	 ?_Xlength_error@std@@YAXPBD@Z ; std::_Xlength_error
$LN3@Xlength:
  0000a	cc		 int	 3
?_Xlength@?$vector@PAVCEffectMeshInstance@@V?$allocator@PAVCEffectMeshInstance@@@std@@@std@@CAXXZ ENDP ; std::vector<CEffectMeshInstance *,std::allocator<CEffectMeshInstance *> >::_Xlength
_TEXT	ENDS
; Function compile flags: /Ogtp
; File D:\visual studio 2019\visual studio 2019\VC\Tools\MSVC\14.29.30133\include\vector
;	COMDAT ?_Xlength@?$vector@PAVCParticleSystemInstance@@V?$allocator@PAVCParticleSystemInstance@@@std@@@std@@CAXXZ
_TEXT	SEGMENT
?_Xlength@?$vector@PAVCParticleSystemInstance@@V?$allocator@PAVCParticleSystemInstance@@@std@@@std@@CAXXZ PROC ; std::vector<CParticleSystemInstance *,std::allocator<CParticleSystemInstance *> >::_Xlength, COMDAT

; 1761 :         _Xlength_error("vector too long");

  00000	68 00 00 00 00	 push	 OFFSET ??_C@_0BA@FOIKENOD@vector?5too?5long@
  00005	e8 00 00 00 00	 call	 ?_Xlength_error@std@@YAXPBD@Z ; std::_Xlength_error
$LN3@Xlength:
  0000a	cc		 int	 3
?_Xlength@?$vector@PAVCParticleSystemInstance@@V?$allocator@PAVCParticleSystemInstance@@@std@@@std@@CAXXZ ENDP ; std::vector<CParticleSystemInstance *,std::allocator<CParticleSystemInstance *> >::_Xlength
_TEXT	ENDS
; Function compile flags: /Ogtp
; File C:\Users\ALEXANDER\Desktop\Cliente\COPY_FISH_WON_NEW\Binario\Client\EffectLib\EffectInstance.h
;	COMDAT ?OnGetObjectHeight@CEffectInstance@@MAE_NMMPAM@Z
_TEXT	SEGMENT
_fX$ = 8						; size = 4
_fY$ = 12						; size = 4
_pfHeight$ = 16						; size = 4
?OnGetObjectHeight@CEffectInstance@@MAE_NMMPAM@Z PROC	; CEffectInstance::OnGetObjectHeight, COMDAT
; _this$ = ecx

; 71   : 		virtual bool			OnGetObjectHeight(float fX, float fY, float * pfHeight) { return false; }

  00000	32 c0		 xor	 al, al
  00002	c2 0c 00	 ret	 12			; 0000000cH
?OnGetObjectHeight@CEffectInstance@@MAE_NMMPAM@Z ENDP	; CEffectInstance::OnGetObjectHeight
_TEXT	ENDS
; Function compile flags: /Ogtp
; File C:\Users\ALEXANDER\Desktop\Cliente\COPY_FISH_WON_NEW\Binario\Client\EffectLib\EffectInstance.h
;	COMDAT ?OnUpdateHeighInstance@CEffectInstance@@MAEXPAVCAttributeInstance@@@Z
_TEXT	SEGMENT
_pAttributeInstance$ = 8				; size = 4
?OnUpdateHeighInstance@CEffectInstance@@MAEXPAVCAttributeInstance@@@Z PROC ; CEffectInstance::OnUpdateHeighInstance, COMDAT
; _this$ = ecx

; 70   : 		virtual void			OnUpdateHeighInstance(CAttributeInstance * pAttributeInstance) {}

  00000	c2 04 00	 ret	 4
?OnUpdateHeighInstance@CEffectInstance@@MAEXPAVCAttributeInstance@@@Z ENDP ; CEffectInstance::OnUpdateHeighInstance
_TEXT	ENDS
; Function compile flags: /Ogtp
; File C:\Users\ALEXANDER\Desktop\Cliente\COPY_FISH_WON_NEW\Binario\Client\EffectLib\EffectInstance.h
;	COMDAT ?OnUpdateCollisionData@CEffectInstance@@MAEXPBV?$vector@VCStaticCollisionData@@V?$allocator@VCStaticCollisionData@@@std@@@std@@@Z
_TEXT	SEGMENT
_pscdVector$ = 8					; size = 4
?OnUpdateCollisionData@CEffectInstance@@MAEXPBV?$vector@VCStaticCollisionData@@V?$allocator@VCStaticCollisionData@@@std@@@std@@@Z PROC ; CEffectInstance::OnUpdateCollisionData, COMDAT
; _this$ = ecx

; 69   : 		virtual void			OnUpdateCollisionData(const CStaticCollisionDataVector * pscdVector) {} // Not used

  00000	c2 04 00	 ret	 4
?OnUpdateCollisionData@CEffectInstance@@MAEXPBV?$vector@VCStaticCollisionData@@V?$allocator@VCStaticCollisionData@@@std@@@std@@@Z ENDP ; CEffectInstance::OnUpdateCollisionData
_TEXT	ENDS
; Function compile flags: /Ogtp
; File C:\Users\ALEXANDER\Desktop\Cliente\COPY_FISH_WON_NEW\Binario\Client\EffectLib\EffectInstance.cpp
; File D:\visual studio 2019\visual studio 2019\VC\Tools\MSVC\14.29.30133\include\vector
; File C:\Users\ALEXANDER\Desktop\Cliente\COPY_FISH_WON_NEW\Binario\Client\EffectLib\EffectInstance.cpp
; File D:\visual studio 2019\visual studio 2019\VC\Tools\MSVC\14.29.30133\include\vector
; File C:\Users\ALEXANDER\Desktop\Cliente\COPY_FISH_WON_NEW\Binario\Client\EffectLib\EffectInstance.cpp
; File D:\visual studio 2019\visual studio 2019\VC\Tools\MSVC\14.29.30133\include\vector
; File C:\Users\ALEXANDER\Desktop\Cliente\COPY_FISH_WON_NEW\Binario\Client\EffectLib\EffectInstance.cpp
;	COMDAT ?__SetLightData@CEffectInstance@@IAEXPAVCLightData@@@Z
_TEXT	SEGMENT
_pInstance$ = -4					; size = 4
_pData$ = 8						; size = 4
?__SetLightData@CEffectInstance@@IAEXPAVCLightData@@@Z PROC ; CEffectInstance::__SetLightData, COMDAT
; _this$ = ecx

; 188  : {

  00000	55		 push	 ebp
  00001	8b ec		 mov	 ebp, esp
  00003	51		 push	 ecx
  00004	56		 push	 esi
  00005	57		 push	 edi
  00006	8b f1		 mov	 esi, ecx

; 189  : 	CLightInstance * pInstance = CLightInstance::New();

  00008	e8 00 00 00 00	 call	 ?New@CLightInstance@@SAPAV1@XZ ; CLightInstance::New

; 190  : 	pInstance->SetDataPointer(pData);

  0000d	ff 75 08	 push	 DWORD PTR _pData$[ebp]
  00010	8b f8		 mov	 edi, eax
  00012	8b cf		 mov	 ecx, edi
  00014	89 7d fc	 mov	 DWORD PTR _pInstance$[ebp], edi
  00017	e8 00 00 00 00	 call	 ?SetDataPointer@CEffectElementBaseInstance@@QAEXPAVCEffectElementBase@@@Z ; CEffectElementBaseInstance::SetDataPointer

; 191  : 	pInstance->SetLocalMatrixPointer(&m_matGlobal);

  0001c	8d 96 20 03 00
	00		 lea	 edx, DWORD PTR [esi+800]
  00022	8b cf		 mov	 ecx, edi
  00024	52		 push	 edx
  00025	e8 00 00 00 00	 call	 ?SetLocalMatrixPointer@CEffectElementBaseInstance@@QAEXPBUD3DXMATRIX@@@Z ; CEffectElementBaseInstance::SetLocalMatrixPointer
; File D:\visual studio 2019\visual studio 2019\VC\Tools\MSVC\14.29.30133\include\vector

; 730  :         if (_Mylast != _My_data._Myend) {

  0002a	8b 86 80 03 00
	00		 mov	 eax, DWORD PTR [esi+896]
; File C:\Users\ALEXANDER\Desktop\Cliente\COPY_FISH_WON_NEW\Binario\Client\EffectLib\EffectInstance.cpp

; 193  : 	m_LightInstanceVector.push_back(pInstance);

  00030	8d 8e 7c 03 00
	00		 lea	 ecx, DWORD PTR [esi+892]
; File D:\visual studio 2019\visual studio 2019\VC\Tools\MSVC\14.29.30133\include\vector

; 730  :         if (_Mylast != _My_data._Myend) {

  00036	3b 41 08	 cmp	 eax, DWORD PTR [ecx+8]
  00039	74 0e		 je	 SHORT $LN6@SetLightDa

; 713  :         _Alty_traits::construct(_Getal(), _Unfancy(_Mylast), _STD forward<_Valty>(_Val)...);

  0003b	89 38		 mov	 DWORD PTR [eax], edi

; 714  :         _Orphan_range(_Mylast, _Mylast);
; 715  :         _Ty& _Result = *_Mylast;
; 716  :         ++_Mylast;

  0003d	83 41 04 04	 add	 DWORD PTR [ecx+4], 4
  00041	5f		 pop	 edi
; File C:\Users\ALEXANDER\Desktop\Cliente\COPY_FISH_WON_NEW\Binario\Client\EffectLib\EffectInstance.cpp

; 194  : }

  00042	5e		 pop	 esi
  00043	8b e5		 mov	 esp, ebp
  00045	5d		 pop	 ebp
  00046	c2 04 00	 ret	 4
$LN6@SetLightDa:
; File D:\visual studio 2019\visual studio 2019\VC\Tools\MSVC\14.29.30133\include\vector

; 734  :         _Ty& _Result = *_Emplace_reallocate(_Mylast, _STD forward<_Valty>(_Val)...);

  00049	8d 55 fc	 lea	 edx, DWORD PTR _pInstance$[ebp]
  0004c	52		 push	 edx
  0004d	50		 push	 eax
  0004e	e8 00 00 00 00	 call	 ??$_Emplace_reallocate@ABQAVCLightInstance@@@?$vector@PAVCLightInstance@@V?$allocator@PAVCLightInstance@@@std@@@std@@QAEPAPAVCLightInstance@@QAPAV2@ABQAV2@@Z ; std::vector<CLightInstance *,std::allocator<CLightInstance *> >::_Emplace_reallocate<CLightInstance * const &>
  00053	5f		 pop	 edi
; File C:\Users\ALEXANDER\Desktop\Cliente\COPY_FISH_WON_NEW\Binario\Client\EffectLib\EffectInstance.cpp

; 194  : }

  00054	5e		 pop	 esi
  00055	8b e5		 mov	 esp, ebp
  00057	5d		 pop	 ebp
  00058	c2 04 00	 ret	 4
?__SetLightData@CEffectInstance@@IAEXPAVCLightData@@@Z ENDP ; CEffectInstance::__SetLightData
_TEXT	ENDS
; Function compile flags: /Ogtp
; File C:\Users\ALEXANDER\Desktop\Cliente\COPY_FISH_WON_NEW\Binario\Client\EffectLib\EffectInstance.cpp
; File D:\visual studio 2019\visual studio 2019\VC\Tools\MSVC\14.29.30133\include\vector
; File C:\Users\ALEXANDER\Desktop\Cliente\COPY_FISH_WON_NEW\Binario\Client\EffectLib\EffectInstance.cpp
; File D:\visual studio 2019\visual studio 2019\VC\Tools\MSVC\14.29.30133\include\vector
; File C:\Users\ALEXANDER\Desktop\Cliente\COPY_FISH_WON_NEW\Binario\Client\EffectLib\EffectInstance.cpp
; File D:\visual studio 2019\visual studio 2019\VC\Tools\MSVC\14.29.30133\include\vector
; File C:\Users\ALEXANDER\Desktop\Cliente\COPY_FISH_WON_NEW\Binario\Client\EffectLib\EffectInstance.cpp
;	COMDAT ?__SetMeshData@CEffectInstance@@IAEXPAVCEffectMeshScript@@@Z
_TEXT	SEGMENT
_pMeshInstance$ = -4					; size = 4
_pMesh$ = 8						; size = 4
?__SetMeshData@CEffectInstance@@IAEXPAVCEffectMeshScript@@@Z PROC ; CEffectInstance::__SetMeshData, COMDAT
; _this$ = ecx

; 178  : {

  00000	55		 push	 ebp
  00001	8b ec		 mov	 ebp, esp
  00003	51		 push	 ecx
  00004	56		 push	 esi
  00005	57		 push	 edi
  00006	8b f1		 mov	 esi, ecx

; 179  : 	CEffectMeshInstance * pMeshInstance = CEffectMeshInstance::New();

  00008	e8 00 00 00 00	 call	 ?New@CEffectMeshInstance@@SAPAV1@XZ ; CEffectMeshInstance::New

; 180  : 	pMeshInstance->SetDataPointer(pMesh);

  0000d	ff 75 08	 push	 DWORD PTR _pMesh$[ebp]
  00010	8b f8		 mov	 edi, eax
  00012	8b cf		 mov	 ecx, edi
  00014	89 7d fc	 mov	 DWORD PTR _pMeshInstance$[ebp], edi
  00017	e8 00 00 00 00	 call	 ?SetDataPointer@CEffectElementBaseInstance@@QAEXPAVCEffectElementBase@@@Z ; CEffectElementBaseInstance::SetDataPointer

; 181  : 	pMeshInstance->SetLocalMatrixPointer(&m_matGlobal);

  0001c	8d 96 20 03 00
	00		 lea	 edx, DWORD PTR [esi+800]
  00022	8b cf		 mov	 ecx, edi
  00024	52		 push	 edx
  00025	e8 00 00 00 00	 call	 ?SetLocalMatrixPointer@CEffectElementBaseInstance@@QAEXPBUD3DXMATRIX@@@Z ; CEffectElementBaseInstance::SetLocalMatrixPointer

; 182  : 	pMeshInstance->SetMeshScale(GetMeshScale());

  0002a	f3 0f 7e 86 a4
	03 00 00	 movq	 xmm0, QWORD PTR [esi+932]
  00032	83 ec 0c	 sub	 esp, 12			; 0000000cH
  00035	8b 86 ac 03 00
	00		 mov	 eax, DWORD PTR [esi+940]
  0003b	8b cc		 mov	 ecx, esp
  0003d	66 0f d6 01	 movq	 QWORD PTR [ecx], xmm0
  00041	89 41 08	 mov	 DWORD PTR [ecx+8], eax
  00044	8b cf		 mov	 ecx, edi
  00046	e8 00 00 00 00	 call	 ?SetMeshScale@CEffectElementBaseInstance@@QAEXUD3DXVECTOR3@@@Z ; CEffectElementBaseInstance::SetMeshScale
; File D:\visual studio 2019\visual studio 2019\VC\Tools\MSVC\14.29.30133\include\vector

; 730  :         if (_Mylast != _My_data._Myend) {

  0004b	8b 86 74 03 00
	00		 mov	 eax, DWORD PTR [esi+884]
; File C:\Users\ALEXANDER\Desktop\Cliente\COPY_FISH_WON_NEW\Binario\Client\EffectLib\EffectInstance.cpp

; 184  : 	m_MeshInstanceVector.push_back(pMeshInstance);

  00051	8d 8e 70 03 00
	00		 lea	 ecx, DWORD PTR [esi+880]
; File D:\visual studio 2019\visual studio 2019\VC\Tools\MSVC\14.29.30133\include\vector

; 730  :         if (_Mylast != _My_data._Myend) {

  00057	3b 41 08	 cmp	 eax, DWORD PTR [ecx+8]
  0005a	74 0e		 je	 SHORT $LN8@SetMeshDat

; 713  :         _Alty_traits::construct(_Getal(), _Unfancy(_Mylast), _STD forward<_Valty>(_Val)...);

  0005c	89 38		 mov	 DWORD PTR [eax], edi

; 714  :         _Orphan_range(_Mylast, _Mylast);
; 715  :         _Ty& _Result = *_Mylast;
; 716  :         ++_Mylast;

  0005e	83 41 04 04	 add	 DWORD PTR [ecx+4], 4
; File C:\Users\ALEXANDER\Desktop\Cliente\COPY_FISH_WON_NEW\Binario\Client\EffectLib\EffectInstance.cpp

; 185  : }

  00062	5f		 pop	 edi
  00063	5e		 pop	 esi
  00064	8b e5		 mov	 esp, ebp
  00066	5d		 pop	 ebp
  00067	c2 04 00	 ret	 4
$LN8@SetMeshDat:
; File D:\visual studio 2019\visual studio 2019\VC\Tools\MSVC\14.29.30133\include\vector

; 734  :         _Ty& _Result = *_Emplace_reallocate(_Mylast, _STD forward<_Valty>(_Val)...);

  0006a	8d 55 fc	 lea	 edx, DWORD PTR _pMeshInstance$[ebp]
  0006d	52		 push	 edx
  0006e	50		 push	 eax
  0006f	e8 00 00 00 00	 call	 ??$_Emplace_reallocate@ABQAVCEffectMeshInstance@@@?$vector@PAVCEffectMeshInstance@@V?$allocator@PAVCEffectMeshInstance@@@std@@@std@@QAEPAPAVCEffectMeshInstance@@QAPAV2@ABQAV2@@Z ; std::vector<CEffectMeshInstance *,std::allocator<CEffectMeshInstance *> >::_Emplace_reallocate<CEffectMeshInstance * const &>
; File C:\Users\ALEXANDER\Desktop\Cliente\COPY_FISH_WON_NEW\Binario\Client\EffectLib\EffectInstance.cpp

; 185  : }

  00074	5f		 pop	 edi
  00075	5e		 pop	 esi
  00076	8b e5		 mov	 esp, ebp
  00078	5d		 pop	 ebp
  00079	c2 04 00	 ret	 4
?__SetMeshData@CEffectInstance@@IAEXPAVCEffectMeshScript@@@Z ENDP ; CEffectInstance::__SetMeshData
_TEXT	ENDS
; Function compile flags: /Ogtp
; File C:\Users\ALEXANDER\Desktop\Cliente\COPY_FISH_WON_NEW\Binario\Client\EffectLib\EffectInstance.cpp
; File D:\visual studio 2019\visual studio 2019\VC\Tools\MSVC\14.29.30133\include\vector
; File C:\Users\ALEXANDER\Desktop\Cliente\COPY_FISH_WON_NEW\Binario\Client\EffectLib\EffectInstance.cpp
; File D:\visual studio 2019\visual studio 2019\VC\Tools\MSVC\14.29.30133\include\vector
; File C:\Users\ALEXANDER\Desktop\Cliente\COPY_FISH_WON_NEW\Binario\Client\EffectLib\EffectInstance.cpp
; File D:\visual studio 2019\visual studio 2019\VC\Tools\MSVC\14.29.30133\include\vector
; File C:\Users\ALEXANDER\Desktop\Cliente\COPY_FISH_WON_NEW\Binario\Client\EffectLib\EffectInstance.cpp
;	COMDAT ?__SetParticleData@CEffectInstance@@IAEXPAVCParticleSystemData@@@Z
_TEXT	SEGMENT
_pInstance$ = -4					; size = 4
_pData$ = 8						; size = 4
?__SetParticleData@CEffectInstance@@IAEXPAVCParticleSystemData@@@Z PROC ; CEffectInstance::__SetParticleData, COMDAT
; _this$ = ecx

; 169  : {

  00000	55		 push	 ebp
  00001	8b ec		 mov	 ebp, esp
  00003	51		 push	 ecx
  00004	56		 push	 esi
  00005	57		 push	 edi
  00006	8b f1		 mov	 esi, ecx

; 170  : 	CParticleSystemInstance * pInstance = CParticleSystemInstance::New();

  00008	e8 00 00 00 00	 call	 ?New@CParticleSystemInstance@@SAPAV1@XZ ; CParticleSystemInstance::New

; 171  : 	pInstance->SetDataPointer(pData);

  0000d	ff 75 08	 push	 DWORD PTR _pData$[ebp]
  00010	8b f8		 mov	 edi, eax
  00012	8b cf		 mov	 ecx, edi
  00014	89 7d fc	 mov	 DWORD PTR _pInstance$[ebp], edi
  00017	e8 00 00 00 00	 call	 ?SetDataPointer@CEffectElementBaseInstance@@QAEXPAVCEffectElementBase@@@Z ; CEffectElementBaseInstance::SetDataPointer

; 172  : 	pInstance->SetLocalMatrixPointer(&m_matGlobal);

  0001c	8d 96 20 03 00
	00		 lea	 edx, DWORD PTR [esi+800]
  00022	8b cf		 mov	 ecx, edi
  00024	52		 push	 edx
  00025	e8 00 00 00 00	 call	 ?SetLocalMatrixPointer@CEffectElementBaseInstance@@QAEXPBUD3DXMATRIX@@@Z ; CEffectElementBaseInstance::SetLocalMatrixPointer

; 173  : 	pInstance->SetParticleScale(GetParticleScale());

  0002a	f3 0f 10 86 a0
	03 00 00	 movss	 xmm0, DWORD PTR [esi+928]
  00032	51		 push	 ecx
  00033	8b cf		 mov	 ecx, edi
  00035	f3 0f 11 04 24	 movss	 DWORD PTR [esp], xmm0
  0003a	e8 00 00 00 00	 call	 ?SetParticleScale@CEffectElementBaseInstance@@QAEXM@Z ; CEffectElementBaseInstance::SetParticleScale
; File D:\visual studio 2019\visual studio 2019\VC\Tools\MSVC\14.29.30133\include\vector

; 730  :         if (_Mylast != _My_data._Myend) {

  0003f	8b 86 68 03 00
	00		 mov	 eax, DWORD PTR [esi+872]
; File C:\Users\ALEXANDER\Desktop\Cliente\COPY_FISH_WON_NEW\Binario\Client\EffectLib\EffectInstance.cpp

; 175  : 	m_ParticleInstanceVector.push_back(pInstance);

  00045	8d 8e 64 03 00
	00		 lea	 ecx, DWORD PTR [esi+868]
; File D:\visual studio 2019\visual studio 2019\VC\Tools\MSVC\14.29.30133\include\vector

; 730  :         if (_Mylast != _My_data._Myend) {

  0004b	3b 41 08	 cmp	 eax, DWORD PTR [ecx+8]
  0004e	74 0e		 je	 SHORT $LN6@SetParticl

; 713  :         _Alty_traits::construct(_Getal(), _Unfancy(_Mylast), _STD forward<_Valty>(_Val)...);

  00050	89 38		 mov	 DWORD PTR [eax], edi

; 714  :         _Orphan_range(_Mylast, _Mylast);
; 715  :         _Ty& _Result = *_Mylast;
; 716  :         ++_Mylast;

  00052	83 41 04 04	 add	 DWORD PTR [ecx+4], 4
  00056	5f		 pop	 edi
; File C:\Users\ALEXANDER\Desktop\Cliente\COPY_FISH_WON_NEW\Binario\Client\EffectLib\EffectInstance.cpp

; 176  : }

  00057	5e		 pop	 esi
  00058	8b e5		 mov	 esp, ebp
  0005a	5d		 pop	 ebp
  0005b	c2 04 00	 ret	 4
$LN6@SetParticl:
; File D:\visual studio 2019\visual studio 2019\VC\Tools\MSVC\14.29.30133\include\vector

; 734  :         _Ty& _Result = *_Emplace_reallocate(_Mylast, _STD forward<_Valty>(_Val)...);

  0005e	8d 55 fc	 lea	 edx, DWORD PTR _pInstance$[ebp]
  00061	52		 push	 edx
  00062	50		 push	 eax
  00063	e8 00 00 00 00	 call	 ??$_Emplace_reallocate@ABQAVCParticleSystemInstance@@@?$vector@PAVCParticleSystemInstance@@V?$allocator@PAVCParticleSystemInstance@@@std@@@std@@QAEPAPAVCParticleSystemInstance@@QAPAV2@ABQAV2@@Z ; std::vector<CParticleSystemInstance *,std::allocator<CParticleSystemInstance *> >::_Emplace_reallocate<CParticleSystemInstance * const &>
  00068	5f		 pop	 edi
; File C:\Users\ALEXANDER\Desktop\Cliente\COPY_FISH_WON_NEW\Binario\Client\EffectLib\EffectInstance.cpp

; 176  : }

  00069	5e		 pop	 esi
  0006a	8b e5		 mov	 esp, ebp
  0006c	5d		 pop	 ebp
  0006d	c2 04 00	 ret	 4
?__SetParticleData@CEffectInstance@@IAEXPAVCParticleSystemData@@@Z ENDP ; CEffectInstance::__SetParticleData
_TEXT	ENDS
; Function compile flags: /Ogtp
; File C:\Users\ALEXANDER\Desktop\Cliente\COPY_FISH_WON_NEW\Binario\Client\EffectLib\EffectInstance.cpp
; File C:\Users\ALEXANDER\Desktop\Cliente\COPY_FISH_WON_NEW\Binario\extern\include\d3dx8math.inl
; File C:\Users\ALEXANDER\Desktop\Cliente\COPY_FISH_WON_NEW\Binario\Client\EffectLib\EffectInstance.cpp
;	COMDAT ?__Initialize@CEffectInstance@@IAEXXZ
_TEXT	SEGMENT
?__Initialize@CEffectInstance@@IAEXXZ PROC		; CEffectInstance::__Initialize, COMDAT
; _this$ = ecx

; 304  : 	m_isAlive = FALSE;

  00000	c7 81 18 03 00
	00 00 00 00 00	 mov	 DWORD PTR [ecx+792], 0

; 305  : 	m_dwFrame = 0;

  0000a	c7 81 1c 03 00
	00 00 00 00 00	 mov	 DWORD PTR [ecx+796], 0

; 306  : 
; 307  : 	m_pSoundInstanceVector = NULL;

  00014	c7 81 88 03 00
	00 00 00 00 00	 mov	 DWORD PTR [ecx+904], 0

; 308  : 	m_fBoundingSphereRadius = 0.0f;

  0001e	c7 81 8c 03 00
	00 00 00 00 00	 mov	 DWORD PTR [ecx+908], 0

; 309  : 	m_v3BoundingSpherePosition.x = m_v3BoundingSpherePosition.y = m_v3BoundingSpherePosition.z = 0.0f;

  00028	c7 81 98 03 00
	00 00 00 00 00	 mov	 DWORD PTR [ecx+920], 0
  00032	c7 81 94 03 00
	00 00 00 00 00	 mov	 DWORD PTR [ecx+916], 0
  0003c	c7 81 90 03 00
	00 00 00 00 00	 mov	 DWORD PTR [ecx+912], 0

; 310  : 	m_fParticleScale = 1.0f;

  00046	c7 81 a0 03 00
	00 00 00 80 3f	 mov	 DWORD PTR [ecx+928], 1065353216 ; 3f800000H

; 311  : 	m_v3MeshScale.x = m_v3MeshScale.y = m_v3MeshScale.z = 1.0f;

  00050	c7 81 ac 03 00
	00 00 00 80 3f	 mov	 DWORD PTR [ecx+940], 1065353216 ; 3f800000H
  0005a	c7 81 a8 03 00
	00 00 00 80 3f	 mov	 DWORD PTR [ecx+936], 1065353216 ; 3f800000H
  00064	c7 81 a4 03 00
	00 00 00 80 3f	 mov	 DWORD PTR [ecx+932], 1065353216 ; 3f800000H

; 312  : 	m_pkEftData=NULL;

  0006e	c7 81 60 03 00
	00 00 00 00 00	 mov	 DWORD PTR [ecx+864], 0
; File C:\Users\ALEXANDER\Desktop\Cliente\COPY_FISH_WON_NEW\Binario\extern\include\d3dx8math.inl

; 1516 :     pOut->m[0][1] = pOut->m[0][2] = pOut->m[0][3] =

  00078	c7 81 58 03 00
	00 00 00 00 00	 mov	 DWORD PTR [ecx+856], 0
  00082	c7 81 54 03 00
	00 00 00 00 00	 mov	 DWORD PTR [ecx+852], 0
  0008c	c7 81 50 03 00
	00 00 00 00 00	 mov	 DWORD PTR [ecx+848], 0
  00096	c7 81 4c 03 00
	00 00 00 00 00	 mov	 DWORD PTR [ecx+844], 0
  000a0	c7 81 44 03 00
	00 00 00 00 00	 mov	 DWORD PTR [ecx+836], 0
  000aa	c7 81 40 03 00
	00 00 00 00 00	 mov	 DWORD PTR [ecx+832], 0
  000b4	c7 81 3c 03 00
	00 00 00 00 00	 mov	 DWORD PTR [ecx+828], 0
  000be	c7 81 38 03 00
	00 00 00 00 00	 mov	 DWORD PTR [ecx+824], 0
  000c8	c7 81 30 03 00
	00 00 00 00 00	 mov	 DWORD PTR [ecx+816], 0
  000d2	c7 81 2c 03 00
	00 00 00 00 00	 mov	 DWORD PTR [ecx+812], 0
  000dc	c7 81 28 03 00
	00 00 00 00 00	 mov	 DWORD PTR [ecx+808], 0
  000e6	c7 81 24 03 00
	00 00 00 00 00	 mov	 DWORD PTR [ecx+804], 0

; 1517 :     pOut->m[1][0] = pOut->m[1][2] = pOut->m[1][3] =
; 1518 :     pOut->m[2][0] = pOut->m[2][1] = pOut->m[2][3] =
; 1519 :     pOut->m[3][0] = pOut->m[3][1] = pOut->m[3][2] = 0.0f;
; 1520 : 
; 1521 :     pOut->m[0][0] = pOut->m[1][1] = pOut->m[2][2] = pOut->m[3][3] = 1.0f;

  000f0	c7 81 5c 03 00
	00 00 00 80 3f	 mov	 DWORD PTR [ecx+860], 1065353216 ; 3f800000H
  000fa	c7 81 48 03 00
	00 00 00 80 3f	 mov	 DWORD PTR [ecx+840], 1065353216 ; 3f800000H
  00104	c7 81 34 03 00
	00 00 00 80 3f	 mov	 DWORD PTR [ecx+820], 1065353216 ; 3f800000H
  0010e	c7 81 20 03 00
	00 00 00 80 3f	 mov	 DWORD PTR [ecx+800], 1065353216 ; 3f800000H
; File C:\Users\ALEXANDER\Desktop\Cliente\COPY_FISH_WON_NEW\Binario\Client\EffectLib\EffectInstance.cpp

; 315  : }

  00118	c3		 ret	 0
?__Initialize@CEffectInstance@@IAEXXZ ENDP		; CEffectInstance::__Initialize
_TEXT	ENDS
; Function compile flags: /Ogtp
; File C:\Users\ALEXANDER\Desktop\Cliente\COPY_FISH_WON_NEW\Binario\Client\EffectLib\EffectInstance.h
;	COMDAT ?OnRenderPCBlocker@CEffectInstance@@UAEXXZ
_TEXT	SEGMENT
?OnRenderPCBlocker@CEffectInstance@@UAEXXZ PROC		; CEffectInstance::OnRenderPCBlocker, COMDAT
; _this$ = ecx

; 60   : 		void OnRenderPCBlocker() {} // Not used

  00000	c2 00 00	 ret	 0
?OnRenderPCBlocker@CEffectInstance@@UAEXXZ ENDP		; CEffectInstance::OnRenderPCBlocker
_TEXT	ENDS
; Function compile flags: /Ogtp
; File C:\Users\ALEXANDER\Desktop\Cliente\COPY_FISH_WON_NEW\Binario\Client\EffectLib\EffectInstance.h
;	COMDAT ?OnRenderShadow@CEffectInstance@@UAEXXZ
_TEXT	SEGMENT
?OnRenderShadow@CEffectInstance@@UAEXXZ PROC		; CEffectInstance::OnRenderShadow, COMDAT
; _this$ = ecx

; 59   : 		void OnRenderShadow() {} // Not used

  00000	c2 00 00	 ret	 0
?OnRenderShadow@CEffectInstance@@UAEXXZ ENDP		; CEffectInstance::OnRenderShadow
_TEXT	ENDS
; Function compile flags: /Ogtp
; File C:\Users\ALEXANDER\Desktop\Cliente\COPY_FISH_WON_NEW\Binario\Client\EffectLib\EffectInstance.h
;	COMDAT ?OnRenderToShadowMap@CEffectInstance@@UAEXXZ
_TEXT	SEGMENT
?OnRenderToShadowMap@CEffectInstance@@UAEXXZ PROC	; CEffectInstance::OnRenderToShadowMap, COMDAT
; _this$ = ecx

; 58   : 		void OnRenderToShadowMap() {} // Not used

  00000	c2 00 00	 ret	 0
?OnRenderToShadowMap@CEffectInstance@@UAEXXZ ENDP	; CEffectInstance::OnRenderToShadowMap
_TEXT	ENDS
; Function compile flags: /Ogtp
; File C:\Users\ALEXANDER\Desktop\Cliente\COPY_FISH_WON_NEW\Binario\Client\EffectLib\EffectInstance.h
;	COMDAT ?OnBlendRender@CEffectInstance@@UAEXXZ
_TEXT	SEGMENT
?OnBlendRender@CEffectInstance@@UAEXXZ PROC		; CEffectInstance::OnBlendRender, COMDAT
; _this$ = ecx

; 57   : 		void OnBlendRender() {} // Not used

  00000	c2 00 00	 ret	 0
?OnBlendRender@CEffectInstance@@UAEXXZ ENDP		; CEffectInstance::OnBlendRender
_TEXT	ENDS
; Function compile flags: /Ogtp
; File C:\Users\ALEXANDER\Desktop\Cliente\COPY_FISH_WON_NEW\Binario\Client\EffectLib\EffectInstance.cpp
; File D:\visual studio 2019\visual studio 2019\VC\Tools\MSVC\14.29.30133\include\vector
; File D:\visual studio 2019\visual studio 2019\VC\Tools\MSVC\14.29.30133\include\algorithm
; File C:\Users\ALEXANDER\Desktop\Cliente\COPY_FISH_WON_NEW\Binario\Client\eterBase\Stl.h
; File D:\visual studio 2019\visual studio 2019\VC\Tools\MSVC\14.29.30133\include\algorithm
; File D:\visual studio 2019\visual studio 2019\VC\Tools\MSVC\14.29.30133\include\vector
; File D:\visual studio 2019\visual studio 2019\VC\Tools\MSVC\14.29.30133\include\algorithm
; File C:\Users\ALEXANDER\Desktop\Cliente\COPY_FISH_WON_NEW\Binario\Client\eterBase\Stl.h
; File D:\visual studio 2019\visual studio 2019\VC\Tools\MSVC\14.29.30133\include\algorithm
; File C:\Users\ALEXANDER\Desktop\Cliente\COPY_FISH_WON_NEW\Binario\Client\EffectLib\EffectInstance.cpp
;	COMDAT ?OnRender@CEffectInstance@@UAEXXZ
_TEXT	SEGMENT
?OnRender@CEffectInstance@@UAEXXZ PROC			; CEffectInstance::OnRender, COMDAT
; _this$ = ecx

; 92   : {

  00000	53		 push	 ebx
  00001	56		 push	 esi
  00002	57		 push	 edi

; 93   : 	STATEMANAGER.SaveTextureStageState(0, D3DTSS_MINFILTER, D3DTEXF_NONE);

  00003	6a 00		 push	 0
  00005	6a 11		 push	 17			; 00000011H
  00007	8b d9		 mov	 ebx, ecx
  00009	8b 0d 00 00 00
	00		 mov	 ecx, DWORD PTR ?ms_singleton@?$CSingleton@VCStateManager@@@@0PAVCStateManager@@A ; CSingleton<CStateManager>::ms_singleton
  0000f	6a 00		 push	 0
  00011	e8 00 00 00 00	 call	 ?SaveTextureStageState@CStateManager@@QAEXKW4_D3DTEXTURESTAGESTATETYPE@@K@Z ; CStateManager::SaveTextureStageState

; 94   : 	STATEMANAGER.SaveTextureStageState(0, D3DTSS_MAGFILTER, D3DTEXF_NONE);

  00016	8b 0d 00 00 00
	00		 mov	 ecx, DWORD PTR ?ms_singleton@?$CSingleton@VCStateManager@@@@0PAVCStateManager@@A ; CSingleton<CStateManager>::ms_singleton
  0001c	6a 00		 push	 0
  0001e	6a 10		 push	 16			; 00000010H
  00020	6a 00		 push	 0
  00022	e8 00 00 00 00	 call	 ?SaveTextureStageState@CStateManager@@QAEXKW4_D3DTEXTURESTAGESTATETYPE@@K@Z ; CStateManager::SaveTextureStageState

; 95   : 	STATEMANAGER.SaveRenderState(D3DRS_ALPHABLENDENABLE, TRUE);

  00027	8b 0d 00 00 00
	00		 mov	 ecx, DWORD PTR ?ms_singleton@?$CSingleton@VCStateManager@@@@0PAVCStateManager@@A ; CSingleton<CStateManager>::ms_singleton
  0002d	6a 01		 push	 1
  0002f	6a 1b		 push	 27			; 0000001bH
  00031	e8 00 00 00 00	 call	 ?SaveRenderState@CStateManager@@QAEXW4_D3DRENDERSTATETYPE@@K@Z ; CStateManager::SaveRenderState

; 96   : 	STATEMANAGER.SaveRenderState(D3DRS_SRCBLEND, D3DBLEND_SRCALPHA);

  00036	8b 0d 00 00 00
	00		 mov	 ecx, DWORD PTR ?ms_singleton@?$CSingleton@VCStateManager@@@@0PAVCStateManager@@A ; CSingleton<CStateManager>::ms_singleton
  0003c	6a 05		 push	 5
  0003e	6a 13		 push	 19			; 00000013H
  00040	e8 00 00 00 00	 call	 ?SaveRenderState@CStateManager@@QAEXW4_D3DRENDERSTATETYPE@@K@Z ; CStateManager::SaveRenderState

; 97   : 	STATEMANAGER.SaveRenderState(D3DRS_DESTBLEND, D3DBLEND_INVSRCALPHA);

  00045	8b 0d 00 00 00
	00		 mov	 ecx, DWORD PTR ?ms_singleton@?$CSingleton@VCStateManager@@@@0PAVCStateManager@@A ; CSingleton<CStateManager>::ms_singleton
  0004b	6a 06		 push	 6
  0004d	6a 14		 push	 20			; 00000014H
  0004f	e8 00 00 00 00	 call	 ?SaveRenderState@CStateManager@@QAEXW4_D3DRENDERSTATETYPE@@K@Z ; CStateManager::SaveRenderState

; 98   : 	STATEMANAGER.SaveRenderState(D3DRS_ALPHATESTENABLE, FALSE);

  00054	8b 0d 00 00 00
	00		 mov	 ecx, DWORD PTR ?ms_singleton@?$CSingleton@VCStateManager@@@@0PAVCStateManager@@A ; CSingleton<CStateManager>::ms_singleton
  0005a	6a 00		 push	 0
  0005c	6a 0f		 push	 15			; 0000000fH
  0005e	e8 00 00 00 00	 call	 ?SaveRenderState@CStateManager@@QAEXW4_D3DRENDERSTATETYPE@@K@Z ; CStateManager::SaveRenderState

; 99   : 	STATEMANAGER.SaveRenderState(D3DRS_CULLMODE, D3DCULL_NONE);

  00063	8b 0d 00 00 00
	00		 mov	 ecx, DWORD PTR ?ms_singleton@?$CSingleton@VCStateManager@@@@0PAVCStateManager@@A ; CSingleton<CStateManager>::ms_singleton
  00069	6a 01		 push	 1
  0006b	6a 16		 push	 22			; 00000016H
  0006d	e8 00 00 00 00	 call	 ?SaveRenderState@CStateManager@@QAEXW4_D3DRENDERSTATETYPE@@K@Z ; CStateManager::SaveRenderState

; 100  : 	STATEMANAGER.SaveRenderState(D3DRS_ZWRITEENABLE, FALSE);

  00072	8b 0d 00 00 00
	00		 mov	 ecx, DWORD PTR ?ms_singleton@?$CSingleton@VCStateManager@@@@0PAVCStateManager@@A ; CSingleton<CStateManager>::ms_singleton
  00078	6a 00		 push	 0
  0007a	6a 0e		 push	 14			; 0000000eH
  0007c	e8 00 00 00 00	 call	 ?SaveRenderState@CStateManager@@QAEXW4_D3DRENDERSTATETYPE@@K@Z ; CStateManager::SaveRenderState

; 101  : 	/////
; 102  : 
; 103  :     STATEMANAGER.SetTextureStageState(0, D3DTSS_COLORARG1, D3DTA_TFACTOR);

  00081	8b 0d 00 00 00
	00		 mov	 ecx, DWORD PTR ?ms_singleton@?$CSingleton@VCStateManager@@@@0PAVCStateManager@@A ; CSingleton<CStateManager>::ms_singleton
  00087	6a 03		 push	 3
  00089	6a 02		 push	 2
  0008b	6a 00		 push	 0
  0008d	e8 00 00 00 00	 call	 ?SetTextureStageState@CStateManager@@QAEXKW4_D3DTEXTURESTAGESTATETYPE@@K@Z ; CStateManager::SetTextureStageState

; 104  : 	STATEMANAGER.SetTextureStageState(0, D3DTSS_COLORARG2, D3DTA_TEXTURE);

  00092	8b 0d 00 00 00
	00		 mov	 ecx, DWORD PTR ?ms_singleton@?$CSingleton@VCStateManager@@@@0PAVCStateManager@@A ; CSingleton<CStateManager>::ms_singleton
  00098	6a 02		 push	 2
  0009a	6a 03		 push	 3
  0009c	6a 00		 push	 0
  0009e	e8 00 00 00 00	 call	 ?SetTextureStageState@CStateManager@@QAEXKW4_D3DTEXTURESTAGESTATETYPE@@K@Z ; CStateManager::SetTextureStageState

; 105  : 	STATEMANAGER.SetTextureStageState(0, D3DTSS_COLOROP,   D3DTOP_MODULATE);

  000a3	8b 0d 00 00 00
	00		 mov	 ecx, DWORD PTR ?ms_singleton@?$CSingleton@VCStateManager@@@@0PAVCStateManager@@A ; CSingleton<CStateManager>::ms_singleton
  000a9	6a 04		 push	 4
  000ab	6a 01		 push	 1
  000ad	6a 00		 push	 0
  000af	e8 00 00 00 00	 call	 ?SetTextureStageState@CStateManager@@QAEXKW4_D3DTEXTURESTAGESTATETYPE@@K@Z ; CStateManager::SetTextureStageState

; 106  : 	STATEMANAGER.SetTextureStageState(0, D3DTSS_ALPHAARG1, D3DTA_TFACTOR);

  000b4	8b 0d 00 00 00
	00		 mov	 ecx, DWORD PTR ?ms_singleton@?$CSingleton@VCStateManager@@@@0PAVCStateManager@@A ; CSingleton<CStateManager>::ms_singleton
  000ba	6a 03		 push	 3
  000bc	6a 05		 push	 5
  000be	6a 00		 push	 0
  000c0	e8 00 00 00 00	 call	 ?SetTextureStageState@CStateManager@@QAEXKW4_D3DTEXTURESTAGESTATETYPE@@K@Z ; CStateManager::SetTextureStageState

; 107  : 	STATEMANAGER.SetTextureStageState(0, D3DTSS_ALPHAARG2, D3DTA_TEXTURE);

  000c5	8b 0d 00 00 00
	00		 mov	 ecx, DWORD PTR ?ms_singleton@?$CSingleton@VCStateManager@@@@0PAVCStateManager@@A ; CSingleton<CStateManager>::ms_singleton
  000cb	6a 02		 push	 2
  000cd	6a 06		 push	 6
  000cf	6a 00		 push	 0
  000d1	e8 00 00 00 00	 call	 ?SetTextureStageState@CStateManager@@QAEXKW4_D3DTEXTURESTAGESTATETYPE@@K@Z ; CStateManager::SetTextureStageState

; 108  : 	STATEMANAGER.SetTextureStageState(0, D3DTSS_ALPHAOP,   D3DTOP_MODULATE);

  000d6	8b 0d 00 00 00
	00		 mov	 ecx, DWORD PTR ?ms_singleton@?$CSingleton@VCStateManager@@@@0PAVCStateManager@@A ; CSingleton<CStateManager>::ms_singleton
  000dc	6a 04		 push	 4
  000de	6a 04		 push	 4
  000e0	6a 00		 push	 0
  000e2	e8 00 00 00 00	 call	 ?SetTextureStageState@CStateManager@@QAEXKW4_D3DTEXTURESTAGESTATETYPE@@K@Z ; CStateManager::SetTextureStageState

; 109  : 	STATEMANAGER.SetVertexShader(D3DFVF_XYZ|D3DFVF_TEX1);

  000e7	8b 0d 00 00 00
	00		 mov	 ecx, DWORD PTR ?ms_singleton@?$CSingleton@VCStateManager@@@@0PAVCStateManager@@A ; CSingleton<CStateManager>::ms_singleton
  000ed	68 02 01 00 00	 push	 258			; 00000102H
  000f2	e8 00 00 00 00	 call	 ?SetVertexShader@CStateManager@@QAEXK@Z ; CStateManager::SetVertexShader
; File D:\visual studio 2019\visual studio 2019\VC\Tools\MSVC\14.29.30133\include\vector

; 41   :     _CONSTEXPR20_CONTAINER _Vector_const_iterator(_Tptr _Parg, const _Container_base* _Pvector) noexcept : _Ptr(_Parg) {

  000f7	8b bb 68 03 00
	00		 mov	 edi, DWORD PTR [ebx+872]
; File D:\visual studio 2019\visual studio 2019\VC\Tools\MSVC\14.29.30133\include\algorithm

; 232  :     for (; _UFirst != _ULast; ++_UFirst) {

  000fd	8b b3 64 03 00
	00		 mov	 esi, DWORD PTR [ebx+868]
  00103	3b f7		 cmp	 esi, edi
  00105	74 0e		 je	 SHORT $LN21@OnRender
$LL22@OnRender:
; File C:\Users\ALEXANDER\Desktop\Cliente\COPY_FISH_WON_NEW\Binario\Client\eterBase\Stl.h

; 41   : 		{((_P->*_Ptr)()); }

  00107	8b 0e		 mov	 ecx, DWORD PTR [esi]
  00109	e8 00 00 00 00	 call	 ?Render@CEffectElementBaseInstance@@QAEXXZ ; CEffectElementBaseInstance::Render
; File D:\visual studio 2019\visual studio 2019\VC\Tools\MSVC\14.29.30133\include\algorithm

; 232  :     for (; _UFirst != _ULast; ++_UFirst) {

  0010e	83 c6 04	 add	 esi, 4
  00111	3b f7		 cmp	 esi, edi
  00113	75 f2		 jne	 SHORT $LL22@OnRender
$LN21@OnRender:
; File D:\visual studio 2019\visual studio 2019\VC\Tools\MSVC\14.29.30133\include\vector

; 41   :     _CONSTEXPR20_CONTAINER _Vector_const_iterator(_Tptr _Parg, const _Container_base* _Pvector) noexcept : _Ptr(_Parg) {

  00115	8b bb 74 03 00
	00		 mov	 edi, DWORD PTR [ebx+884]
; File D:\visual studio 2019\visual studio 2019\VC\Tools\MSVC\14.29.30133\include\algorithm

; 232  :     for (; _UFirst != _ULast; ++_UFirst) {

  0011b	8b b3 70 03 00
	00		 mov	 esi, DWORD PTR [ebx+880]
  00121	3b f7		 cmp	 esi, edi
  00123	74 0e		 je	 SHORT $LN44@OnRender
$LL45@OnRender:
; File C:\Users\ALEXANDER\Desktop\Cliente\COPY_FISH_WON_NEW\Binario\Client\eterBase\Stl.h

; 41   : 		{((_P->*_Ptr)()); }

  00125	8b 0e		 mov	 ecx, DWORD PTR [esi]
  00127	e8 00 00 00 00	 call	 ?Render@CEffectElementBaseInstance@@QAEXXZ ; CEffectElementBaseInstance::Render
; File D:\visual studio 2019\visual studio 2019\VC\Tools\MSVC\14.29.30133\include\algorithm

; 232  :     for (; _UFirst != _ULast; ++_UFirst) {

  0012c	83 c6 04	 add	 esi, 4
  0012f	3b f7		 cmp	 esi, edi
  00131	75 f2		 jne	 SHORT $LL45@OnRender
$LN44@OnRender:
; File C:\Users\ALEXANDER\Desktop\Cliente\COPY_FISH_WON_NEW\Binario\Client\EffectLib\EffectInstance.cpp

; 114  : 	STATEMANAGER.RestoreTextureStageState(0, D3DTSS_MINFILTER);

  00133	8b 0d 00 00 00
	00		 mov	 ecx, DWORD PTR ?ms_singleton@?$CSingleton@VCStateManager@@@@0PAVCStateManager@@A ; CSingleton<CStateManager>::ms_singleton
  00139	6a 11		 push	 17			; 00000011H
  0013b	6a 00		 push	 0
  0013d	e8 00 00 00 00	 call	 ?RestoreTextureStageState@CStateManager@@QAEXKW4_D3DTEXTURESTAGESTATETYPE@@@Z ; CStateManager::RestoreTextureStageState

; 115  : 	STATEMANAGER.RestoreTextureStageState(0, D3DTSS_MAGFILTER);

  00142	8b 0d 00 00 00
	00		 mov	 ecx, DWORD PTR ?ms_singleton@?$CSingleton@VCStateManager@@@@0PAVCStateManager@@A ; CSingleton<CStateManager>::ms_singleton
  00148	6a 10		 push	 16			; 00000010H
  0014a	6a 00		 push	 0
  0014c	e8 00 00 00 00	 call	 ?RestoreTextureStageState@CStateManager@@QAEXKW4_D3DTEXTURESTAGESTATETYPE@@@Z ; CStateManager::RestoreTextureStageState

; 116  : 	STATEMANAGER.RestoreRenderState(D3DRS_ALPHABLENDENABLE);

  00151	8b 0d 00 00 00
	00		 mov	 ecx, DWORD PTR ?ms_singleton@?$CSingleton@VCStateManager@@@@0PAVCStateManager@@A ; CSingleton<CStateManager>::ms_singleton
  00157	6a 1b		 push	 27			; 0000001bH
  00159	e8 00 00 00 00	 call	 ?RestoreRenderState@CStateManager@@QAEXW4_D3DRENDERSTATETYPE@@@Z ; CStateManager::RestoreRenderState

; 117  : 	STATEMANAGER.RestoreRenderState(D3DRS_SRCBLEND);

  0015e	8b 0d 00 00 00
	00		 mov	 ecx, DWORD PTR ?ms_singleton@?$CSingleton@VCStateManager@@@@0PAVCStateManager@@A ; CSingleton<CStateManager>::ms_singleton
  00164	6a 13		 push	 19			; 00000013H
  00166	e8 00 00 00 00	 call	 ?RestoreRenderState@CStateManager@@QAEXW4_D3DRENDERSTATETYPE@@@Z ; CStateManager::RestoreRenderState

; 118  : 	STATEMANAGER.RestoreRenderState(D3DRS_DESTBLEND);

  0016b	8b 0d 00 00 00
	00		 mov	 ecx, DWORD PTR ?ms_singleton@?$CSingleton@VCStateManager@@@@0PAVCStateManager@@A ; CSingleton<CStateManager>::ms_singleton
  00171	6a 14		 push	 20			; 00000014H
  00173	e8 00 00 00 00	 call	 ?RestoreRenderState@CStateManager@@QAEXW4_D3DRENDERSTATETYPE@@@Z ; CStateManager::RestoreRenderState

; 119  : 	STATEMANAGER.RestoreRenderState(D3DRS_ALPHATESTENABLE);

  00178	8b 0d 00 00 00
	00		 mov	 ecx, DWORD PTR ?ms_singleton@?$CSingleton@VCStateManager@@@@0PAVCStateManager@@A ; CSingleton<CStateManager>::ms_singleton
  0017e	6a 0f		 push	 15			; 0000000fH
  00180	e8 00 00 00 00	 call	 ?RestoreRenderState@CStateManager@@QAEXW4_D3DRENDERSTATETYPE@@@Z ; CStateManager::RestoreRenderState

; 120  : 	STATEMANAGER.RestoreRenderState(D3DRS_CULLMODE);

  00185	8b 0d 00 00 00
	00		 mov	 ecx, DWORD PTR ?ms_singleton@?$CSingleton@VCStateManager@@@@0PAVCStateManager@@A ; CSingleton<CStateManager>::ms_singleton
  0018b	6a 16		 push	 22			; 00000016H
  0018d	e8 00 00 00 00	 call	 ?RestoreRenderState@CStateManager@@QAEXW4_D3DRENDERSTATETYPE@@@Z ; CStateManager::RestoreRenderState

; 121  : 	STATEMANAGER.RestoreRenderState(D3DRS_ZWRITEENABLE);

  00192	8b 0d 00 00 00
	00		 mov	 ecx, DWORD PTR ?ms_singleton@?$CSingleton@VCStateManager@@@@0PAVCStateManager@@A ; CSingleton<CStateManager>::ms_singleton
  00198	6a 0e		 push	 14			; 0000000eH
  0019a	e8 00 00 00 00	 call	 ?RestoreRenderState@CStateManager@@QAEXW4_D3DRENDERSTATETYPE@@@Z ; CStateManager::RestoreRenderState

; 122  : 
; 123  : 	++ms_iRenderingEffectCount;

  0019f	ff 05 00 00 00
	00		 inc	 DWORD PTR ?ms_iRenderingEffectCount@CEffectInstance@@2HA ; CEffectInstance::ms_iRenderingEffectCount
  001a5	5f		 pop	 edi
  001a6	5e		 pop	 esi
  001a7	5b		 pop	 ebx

; 124  : }

  001a8	c3		 ret	 0
?OnRender@CEffectInstance@@UAEXXZ ENDP			; CEffectInstance::OnRender
_TEXT	ENDS
; Function compile flags: /Ogtp
; File C:\Users\ALEXANDER\Desktop\Cliente\COPY_FISH_WON_NEW\Binario\Client\EffectLib\EffectInstance.cpp
; File D:\visual studio 2019\visual studio 2019\VC\Tools\MSVC\14.29.30133\include\vector
; File C:\Users\ALEXANDER\Desktop\Cliente\COPY_FISH_WON_NEW\Binario\Client\EffectLib\EffectInstance.cpp
; File D:\visual studio 2019\visual studio 2019\VC\Tools\MSVC\14.29.30133\include\algorithm
; File C:\Users\ALEXANDER\Desktop\Cliente\COPY_FISH_WON_NEW\Binario\Client\EffectLib\EffectInstance.cpp
; File D:\visual studio 2019\visual studio 2019\VC\Tools\MSVC\14.29.30133\include\algorithm
; File C:\Users\ALEXANDER\Desktop\Cliente\COPY_FISH_WON_NEW\Binario\Client\EffectLib\EffectInstance.cpp
; File D:\visual studio 2019\visual studio 2019\VC\Tools\MSVC\14.29.30133\include\algorithm
; File D:\visual studio 2019\visual studio 2019\VC\Tools\MSVC\14.29.30133\include\vector
; File D:\visual studio 2019\visual studio 2019\VC\Tools\MSVC\14.29.30133\include\algorithm
; File C:\Users\ALEXANDER\Desktop\Cliente\COPY_FISH_WON_NEW\Binario\Client\EffectLib\EffectInstance.cpp
; File D:\visual studio 2019\visual studio 2019\VC\Tools\MSVC\14.29.30133\include\algorithm
; File D:\visual studio 2019\visual studio 2019\VC\Tools\MSVC\14.29.30133\include\vector
; File D:\visual studio 2019\visual studio 2019\VC\Tools\MSVC\14.29.30133\include\algorithm
; File C:\Users\ALEXANDER\Desktop\Cliente\COPY_FISH_WON_NEW\Binario\Client\EffectLib\EffectInstance.cpp
; File D:\visual studio 2019\visual studio 2019\VC\Tools\MSVC\14.29.30133\include\algorithm
; File C:\Users\ALEXANDER\Desktop\Cliente\COPY_FISH_WON_NEW\Binario\Client\EffectLib\EffectInstance.cpp
;	COMDAT ?OnUpdate@CEffectInstance@@UAEXXZ
_TEXT	SEGMENT
tv466 = -12						; size = 4
tv465 = -12						; size = 4
tv464 = -12						; size = 4
_this$1$ = -8						; size = 4
_f$$sroa$254$ = -4					; size = 4
?OnUpdate@CEffectInstance@@UAEXXZ PROC			; CEffectInstance::OnUpdate, COMDAT
; _this$ = ecx

; 75   : {

  00000	55		 push	 ebp
  00001	8b ec		 mov	 ebp, esp
  00003	83 ec 0c	 sub	 esp, 12			; 0000000cH
  00006	53		 push	 ebx
  00007	56		 push	 esi
  00008	8b d9		 mov	 ebx, ecx
  0000a	57		 push	 edi
  0000b	89 5d f8	 mov	 DWORD PTR _this$1$[ebp], ebx

; 76   : 	Transform();

  0000e	e8 00 00 00 00	 call	 ?Transform@CGraphicObjectInstance@@QAEXXZ ; CGraphicObjectInstance::Transform

; 77   : 
; 78   : #ifdef WORLD_EDITOR
; 79   : 	FEffectUpdator f(CTimer::Instance().GetElapsedSecond());
; 80   : #else
; 81   : 	FEffectUpdator f(CTimer::Instance().GetCurrentSecond()-m_fLastTime);

  00013	8b 0d 00 00 00
	00		 mov	 ecx, DWORD PTR ?ms_singleton@?$CSingleton@VCTimer@@@@0PAVCTimer@@A ; CSingleton<CTimer>::ms_singleton
  00019	e8 00 00 00 00	 call	 ?GetCurrentSecond@CTimer@@QAEMXZ ; CTimer::GetCurrentSecond
  0001e	d8 a3 9c 03 00
	00		 fsub	 DWORD PTR [ebx+924]
; File D:\visual studio 2019\visual studio 2019\VC\Tools\MSVC\14.29.30133\include\vector

; 41   :     _CONSTEXPR20_CONTAINER _Vector_const_iterator(_Tptr _Parg, const _Container_base* _Pvector) noexcept : _Ptr(_Parg) {

  00024	8b 83 68 03 00
	00		 mov	 eax, DWORD PTR [ebx+872]
; File C:\Users\ALEXANDER\Desktop\Cliente\COPY_FISH_WON_NEW\Binario\Client\EffectLib\EffectInstance.cpp

; 83   : 	f = std::for_each(m_ParticleInstanceVector.begin(), m_ParticleInstanceVector.end(),f);

  0002a	33 f6		 xor	 esi, esi
; File D:\visual studio 2019\visual studio 2019\VC\Tools\MSVC\14.29.30133\include\algorithm

; 232  :     for (; _UFirst != _ULast; ++_UFirst) {

  0002c	8b bb 64 03 00
	00		 mov	 edi, DWORD PTR [ebx+868]
; File C:\Users\ALEXANDER\Desktop\Cliente\COPY_FISH_WON_NEW\Binario\Client\EffectLib\EffectInstance.cpp

; 64   : 		: isAlive(FALSE), fElapsedTime(fElapsedTime)

  00032	d9 5d fc	 fstp	 DWORD PTR _f$$sroa$254$[ebp]
; File D:\visual studio 2019\visual studio 2019\VC\Tools\MSVC\14.29.30133\include\algorithm

; 232  :     for (; _UFirst != _ULast; ++_UFirst) {

  00035	3b f8		 cmp	 edi, eax
  00037	74 2d		 je	 SHORT $LN19@OnUpdate
  00039	8b d8		 mov	 ebx, eax
  0003b	0f 1f 44 00 00	 npad	 5
$LL20@OnUpdate:
; File C:\Users\ALEXANDER\Desktop\Cliente\COPY_FISH_WON_NEW\Binario\Client\EffectLib\EffectInstance.cpp

; 69   : 		if (pInstance->Update(fElapsedTime))

  00040	f3 0f 10 45 fc	 movss	 xmm0, DWORD PTR _f$$sroa$254$[ebp]
  00045	51		 push	 ecx
  00046	8b 0f		 mov	 ecx, DWORD PTR [edi]
  00048	f3 0f 11 04 24	 movss	 DWORD PTR [esp], xmm0
  0004d	e8 00 00 00 00	 call	 ?Update@CEffectElementBaseInstance@@QAE_NM@Z ; CEffectElementBaseInstance::Update
  00052	84 c0		 test	 al, al
  00054	b9 01 00 00 00	 mov	 ecx, 1
  00059	0f 45 f1	 cmovne	 esi, ecx
; File D:\visual studio 2019\visual studio 2019\VC\Tools\MSVC\14.29.30133\include\algorithm

; 232  :     for (; _UFirst != _ULast; ++_UFirst) {

  0005c	83 c7 04	 add	 edi, 4
  0005f	3b fb		 cmp	 edi, ebx
  00061	75 dd		 jne	 SHORT $LL20@OnUpdate
  00063	8b 5d f8	 mov	 ebx, DWORD PTR _this$1$[ebp]
$LN19@OnUpdate:
; File D:\visual studio 2019\visual studio 2019\VC\Tools\MSVC\14.29.30133\include\vector

; 41   :     _CONSTEXPR20_CONTAINER _Vector_const_iterator(_Tptr _Parg, const _Container_base* _Pvector) noexcept : _Ptr(_Parg) {

  00066	8b 83 74 03 00
	00		 mov	 eax, DWORD PTR [ebx+884]
; File D:\visual studio 2019\visual studio 2019\VC\Tools\MSVC\14.29.30133\include\algorithm

; 232  :     for (; _UFirst != _ULast; ++_UFirst) {

  0006c	8b bb 70 03 00
	00		 mov	 edi, DWORD PTR [ebx+880]
  00072	3b f8		 cmp	 edi, eax
  00074	74 28		 je	 SHORT $LN39@OnUpdate
  00076	8b d8		 mov	 ebx, eax
$LL40@OnUpdate:
; File C:\Users\ALEXANDER\Desktop\Cliente\COPY_FISH_WON_NEW\Binario\Client\EffectLib\EffectInstance.cpp

; 69   : 		if (pInstance->Update(fElapsedTime))

  00078	f3 0f 10 45 fc	 movss	 xmm0, DWORD PTR _f$$sroa$254$[ebp]
  0007d	51		 push	 ecx
  0007e	8b 0f		 mov	 ecx, DWORD PTR [edi]
  00080	f3 0f 11 04 24	 movss	 DWORD PTR [esp], xmm0
  00085	e8 00 00 00 00	 call	 ?Update@CEffectElementBaseInstance@@QAE_NM@Z ; CEffectElementBaseInstance::Update
  0008a	84 c0		 test	 al, al
  0008c	b9 01 00 00 00	 mov	 ecx, 1
  00091	0f 45 f1	 cmovne	 esi, ecx
; File D:\visual studio 2019\visual studio 2019\VC\Tools\MSVC\14.29.30133\include\algorithm

; 232  :     for (; _UFirst != _ULast; ++_UFirst) {

  00094	83 c7 04	 add	 edi, 4
  00097	3b fb		 cmp	 edi, ebx
  00099	75 dd		 jne	 SHORT $LL40@OnUpdate
  0009b	8b 5d f8	 mov	 ebx, DWORD PTR _this$1$[ebp]
$LN39@OnUpdate:
; File D:\visual studio 2019\visual studio 2019\VC\Tools\MSVC\14.29.30133\include\vector

; 41   :     _CONSTEXPR20_CONTAINER _Vector_const_iterator(_Tptr _Parg, const _Container_base* _Pvector) noexcept : _Ptr(_Parg) {

  0009e	8b 83 80 03 00
	00		 mov	 eax, DWORD PTR [ebx+896]
; File D:\visual studio 2019\visual studio 2019\VC\Tools\MSVC\14.29.30133\include\algorithm

; 232  :     for (; _UFirst != _ULast; ++_UFirst) {

  000a4	8b bb 7c 03 00
	00		 mov	 edi, DWORD PTR [ebx+892]
  000aa	3b f8		 cmp	 edi, eax
  000ac	74 28		 je	 SHORT $LN59@OnUpdate
  000ae	8b d8		 mov	 ebx, eax
$LL60@OnUpdate:
; File C:\Users\ALEXANDER\Desktop\Cliente\COPY_FISH_WON_NEW\Binario\Client\EffectLib\EffectInstance.cpp

; 69   : 		if (pInstance->Update(fElapsedTime))

  000b0	f3 0f 10 45 fc	 movss	 xmm0, DWORD PTR _f$$sroa$254$[ebp]
  000b5	51		 push	 ecx
  000b6	8b 0f		 mov	 ecx, DWORD PTR [edi]
  000b8	f3 0f 11 04 24	 movss	 DWORD PTR [esp], xmm0
  000bd	e8 00 00 00 00	 call	 ?Update@CEffectElementBaseInstance@@QAE_NM@Z ; CEffectElementBaseInstance::Update
  000c2	84 c0		 test	 al, al
  000c4	b8 01 00 00 00	 mov	 eax, 1
  000c9	0f 45 f0	 cmovne	 esi, eax
; File D:\visual studio 2019\visual studio 2019\VC\Tools\MSVC\14.29.30133\include\algorithm

; 232  :     for (; _UFirst != _ULast; ++_UFirst) {

  000cc	83 c7 04	 add	 edi, 4
  000cf	3b fb		 cmp	 edi, ebx
  000d1	75 dd		 jne	 SHORT $LL60@OnUpdate
  000d3	8b 5d f8	 mov	 ebx, DWORD PTR _this$1$[ebp]
$LN59@OnUpdate:
; File C:\Users\ALEXANDER\Desktop\Cliente\COPY_FISH_WON_NEW\Binario\Client\EffectLib\EffectInstance.cpp

; 86   : 	m_isAlive = f.isAlive;

  000d6	89 b3 18 03 00
	00		 mov	 DWORD PTR [ebx+792], esi

; 87   : 
; 88   : 	m_fLastTime = CTimer::Instance().GetCurrentSecond();

  000dc	8b 0d 00 00 00
	00		 mov	 ecx, DWORD PTR ?ms_singleton@?$CSingleton@VCTimer@@@@0PAVCTimer@@A ; CSingleton<CTimer>::ms_singleton
  000e2	e8 00 00 00 00	 call	 ?GetCurrentSecond@CTimer@@QAEMXZ ; CTimer::GetCurrentSecond
  000e7	5f		 pop	 edi
  000e8	5e		 pop	 esi
  000e9	d9 9b 9c 03 00
	00		 fstp	 DWORD PTR [ebx+924]
  000ef	5b		 pop	 ebx

; 89   : }

  000f0	8b e5		 mov	 esp, ebp
  000f2	5d		 pop	 ebp
  000f3	c3		 ret	 0
?OnUpdate@CEffectInstance@@UAEXXZ ENDP			; CEffectInstance::OnUpdate
_TEXT	ENDS
; Function compile flags: /Ogtp
; File C:\Users\ALEXANDER\Desktop\Cliente\COPY_FISH_WON_NEW\Binario\Client\EffectLib\EffectInstance.cpp
;	COMDAT ?UpdateSound@CEffectInstance@@QAEXXZ
_TEXT	SEGMENT
?UpdateSound@CEffectInstance@@QAEXXZ PROC		; CEffectInstance::UpdateSound, COMDAT
; _this$ = ecx

; 50   : {

  00000	56		 push	 esi
  00001	8b f1		 mov	 esi, ecx

; 51   : 	if (m_pSoundInstanceVector)

  00003	8b 86 88 03 00
	00		 mov	 eax, DWORD PTR [esi+904]
  00009	85 c0		 test	 eax, eax
  0000b	74 40		 je	 SHORT $LN4@UpdateSoun

; 52   : 	{
; 53   : 		CSoundManager& rkSndMgr=CSoundManager::Instance();
; 54   : 		rkSndMgr.UpdateSoundInstance(m_matGlobal._41, m_matGlobal._42, m_matGlobal._43, m_dwFrame, m_pSoundInstanceVector);

  0000d	f3 0f 10 86 58
	03 00 00	 movss	 xmm0, DWORD PTR [esi+856]
  00015	8b 0d 00 00 00
	00		 mov	 ecx, DWORD PTR ?ms_singleton@?$CSingleton@VCSoundManager@@@@0PAVCSoundManager@@A ; CSingleton<CSoundManager>::ms_singleton
  0001b	6a 00		 push	 0
  0001d	50		 push	 eax
  0001e	ff b6 1c 03 00
	00		 push	 DWORD PTR [esi+796]
  00024	83 ec 0c	 sub	 esp, 12			; 0000000cH
  00027	f3 0f 11 44 24
	08		 movss	 DWORD PTR [esp+8], xmm0
  0002d	f3 0f 10 86 54
	03 00 00	 movss	 xmm0, DWORD PTR [esi+852]
  00035	f3 0f 11 44 24
	04		 movss	 DWORD PTR [esp+4], xmm0
  0003b	f3 0f 10 86 50
	03 00 00	 movss	 xmm0, DWORD PTR [esi+848]
  00043	f3 0f 11 04 24	 movss	 DWORD PTR [esp], xmm0
  00048	e8 00 00 00 00	 call	 ?UpdateSoundInstance@CSoundManager@@QAEXMMMKPBV?$vector@USSoundInstance@NSound@@V?$allocator@USSoundInstance@NSound@@@std@@@std@@H@Z ; CSoundManager::UpdateSoundInstance
$LN4@UpdateSoun:

; 55   : 	}
; 56   : 	++m_dwFrame;
; 57   : }

  0004d	ff 86 1c 03 00
	00		 inc	 DWORD PTR [esi+796]
  00053	5e		 pop	 esi
  00054	c3		 ret	 0
?UpdateSound@CEffectInstance@@QAEXXZ ENDP		; CEffectInstance::UpdateSound
_TEXT	ENDS
; Function compile flags: /Ogtp
; File C:\Users\ALEXANDER\Desktop\Cliente\COPY_FISH_WON_NEW\Binario\Client\EffectLib\EffectInstance.cpp
;	COMDAT ?SetGlobalMatrix@CEffectInstance@@QAEXABUD3DXMATRIX@@@Z
_TEXT	SEGMENT
_c_rmatGlobal$ = 8					; size = 4
?SetGlobalMatrix@CEffectInstance@@QAEXABUD3DXMATRIX@@@Z PROC ; CEffectInstance::SetGlobalMatrix, COMDAT
; _this$ = ecx

; 127  : {

  00000	55		 push	 ebp
  00001	8b ec		 mov	 ebp, esp

; 128  : 	m_matGlobal = c_rmatGlobal;

  00003	8b 45 08	 mov	 eax, DWORD PTR _c_rmatGlobal$[ebp]
  00006	0f 10 00	 movups	 xmm0, XMMWORD PTR [eax]
  00009	0f 11 81 20 03
	00 00		 movups	 XMMWORD PTR [ecx+800], xmm0
  00010	0f 10 40 10	 movups	 xmm0, XMMWORD PTR [eax+16]
  00014	0f 11 81 30 03
	00 00		 movups	 XMMWORD PTR [ecx+816], xmm0
  0001b	0f 10 40 20	 movups	 xmm0, XMMWORD PTR [eax+32]
  0001f	0f 11 81 40 03
	00 00		 movups	 XMMWORD PTR [ecx+832], xmm0
  00026	0f 10 40 30	 movups	 xmm0, XMMWORD PTR [eax+48]
  0002a	0f 11 81 50 03
	00 00		 movups	 XMMWORD PTR [ecx+848], xmm0

; 129  : }

  00031	5d		 pop	 ebp
  00032	c2 04 00	 ret	 4
?SetGlobalMatrix@CEffectInstance@@QAEXABUD3DXMATRIX@@@Z ENDP ; CEffectInstance::SetGlobalMatrix
_TEXT	ENDS
; Function compile flags: /Ogtp
; File C:\Users\ALEXANDER\Desktop\Cliente\COPY_FISH_WON_NEW\Binario\Client\EffectLib\EffectInstance.cpp
; File D:\visual studio 2019\visual studio 2019\VC\Tools\MSVC\14.29.30133\include\vector
; File D:\visual studio 2019\visual studio 2019\VC\Tools\MSVC\14.29.30133\include\algorithm
; File C:\Users\ALEXANDER\Desktop\Cliente\COPY_FISH_WON_NEW\Binario\Client\eterBase\Stl.h
; File D:\visual studio 2019\visual studio 2019\VC\Tools\MSVC\14.29.30133\include\algorithm
; File D:\visual studio 2019\visual studio 2019\VC\Tools\MSVC\14.29.30133\include\vector
; File D:\visual studio 2019\visual studio 2019\VC\Tools\MSVC\14.29.30133\include\algorithm
; File C:\Users\ALEXANDER\Desktop\Cliente\COPY_FISH_WON_NEW\Binario\Client\eterBase\Stl.h
; File D:\visual studio 2019\visual studio 2019\VC\Tools\MSVC\14.29.30133\include\algorithm
; File D:\visual studio 2019\visual studio 2019\VC\Tools\MSVC\14.29.30133\include\vector
; File D:\visual studio 2019\visual studio 2019\VC\Tools\MSVC\14.29.30133\include\algorithm
; File C:\Users\ALEXANDER\Desktop\Cliente\COPY_FISH_WON_NEW\Binario\Client\eterBase\Stl.h
; File D:\visual studio 2019\visual studio 2019\VC\Tools\MSVC\14.29.30133\include\algorithm
; File C:\Users\ALEXANDER\Desktop\Cliente\COPY_FISH_WON_NEW\Binario\Client\EffectLib\EffectInstance.cpp
;	COMDAT ?SetDeactive@CEffectInstance@@QAEXXZ
_TEXT	SEGMENT
?SetDeactive@CEffectInstance@@QAEXXZ PROC		; CEffectInstance::SetDeactive, COMDAT
; _this$ = ecx

; 153  : {

  00000	53		 push	 ebx
  00001	8b d9		 mov	 ebx, ecx
  00003	56		 push	 esi
  00004	57		 push	 edi
; File D:\visual studio 2019\visual studio 2019\VC\Tools\MSVC\14.29.30133\include\vector

; 41   :     _CONSTEXPR20_CONTAINER _Vector_const_iterator(_Tptr _Parg, const _Container_base* _Pvector) noexcept : _Ptr(_Parg) {

  00005	8b bb 68 03 00
	00		 mov	 edi, DWORD PTR [ebx+872]
; File D:\visual studio 2019\visual studio 2019\VC\Tools\MSVC\14.29.30133\include\algorithm

; 232  :     for (; _UFirst != _ULast; ++_UFirst) {

  0000b	8b b3 64 03 00
	00		 mov	 esi, DWORD PTR [ebx+868]
  00011	3b f7		 cmp	 esi, edi
  00013	74 0e		 je	 SHORT $LN21@SetDeactiv
$LL22@SetDeactiv:
; File C:\Users\ALEXANDER\Desktop\Cliente\COPY_FISH_WON_NEW\Binario\Client\eterBase\Stl.h

; 41   : 		{((_P->*_Ptr)()); }

  00015	8b 0e		 mov	 ecx, DWORD PTR [esi]
  00017	e8 00 00 00 00	 call	 ?SetDeactive@CEffectElementBaseInstance@@QAEXXZ ; CEffectElementBaseInstance::SetDeactive
; File D:\visual studio 2019\visual studio 2019\VC\Tools\MSVC\14.29.30133\include\algorithm

; 232  :     for (; _UFirst != _ULast; ++_UFirst) {

  0001c	83 c6 04	 add	 esi, 4
  0001f	3b f7		 cmp	 esi, edi
  00021	75 f2		 jne	 SHORT $LL22@SetDeactiv
$LN21@SetDeactiv:
; File D:\visual studio 2019\visual studio 2019\VC\Tools\MSVC\14.29.30133\include\vector

; 41   :     _CONSTEXPR20_CONTAINER _Vector_const_iterator(_Tptr _Parg, const _Container_base* _Pvector) noexcept : _Ptr(_Parg) {

  00023	8b bb 74 03 00
	00		 mov	 edi, DWORD PTR [ebx+884]
; File D:\visual studio 2019\visual studio 2019\VC\Tools\MSVC\14.29.30133\include\algorithm

; 232  :     for (; _UFirst != _ULast; ++_UFirst) {

  00029	8b b3 70 03 00
	00		 mov	 esi, DWORD PTR [ebx+880]
  0002f	3b f7		 cmp	 esi, edi
  00031	74 0e		 je	 SHORT $LN44@SetDeactiv
$LL45@SetDeactiv:
; File C:\Users\ALEXANDER\Desktop\Cliente\COPY_FISH_WON_NEW\Binario\Client\eterBase\Stl.h

; 41   : 		{((_P->*_Ptr)()); }

  00033	8b 0e		 mov	 ecx, DWORD PTR [esi]
  00035	e8 00 00 00 00	 call	 ?SetDeactive@CEffectElementBaseInstance@@QAEXXZ ; CEffectElementBaseInstance::SetDeactive
; File D:\visual studio 2019\visual studio 2019\VC\Tools\MSVC\14.29.30133\include\algorithm

; 232  :     for (; _UFirst != _ULast; ++_UFirst) {

  0003a	83 c6 04	 add	 esi, 4
  0003d	3b f7		 cmp	 esi, edi
  0003f	75 f2		 jne	 SHORT $LL45@SetDeactiv
$LN44@SetDeactiv:
; File D:\visual studio 2019\visual studio 2019\VC\Tools\MSVC\14.29.30133\include\vector

; 41   :     _CONSTEXPR20_CONTAINER _Vector_const_iterator(_Tptr _Parg, const _Container_base* _Pvector) noexcept : _Ptr(_Parg) {

  00041	8b bb 80 03 00
	00		 mov	 edi, DWORD PTR [ebx+896]
; File D:\visual studio 2019\visual studio 2019\VC\Tools\MSVC\14.29.30133\include\algorithm

; 232  :     for (; _UFirst != _ULast; ++_UFirst) {

  00047	8b b3 7c 03 00
	00		 mov	 esi, DWORD PTR [ebx+892]
  0004d	3b f7		 cmp	 esi, edi
  0004f	74 0e		 je	 SHORT $LN67@SetDeactiv
$LL68@SetDeactiv:
; File C:\Users\ALEXANDER\Desktop\Cliente\COPY_FISH_WON_NEW\Binario\Client\eterBase\Stl.h

; 41   : 		{((_P->*_Ptr)()); }

  00051	8b 0e		 mov	 ecx, DWORD PTR [esi]
  00053	e8 00 00 00 00	 call	 ?SetDeactive@CEffectElementBaseInstance@@QAEXXZ ; CEffectElementBaseInstance::SetDeactive
; File D:\visual studio 2019\visual studio 2019\VC\Tools\MSVC\14.29.30133\include\algorithm

; 232  :     for (; _UFirst != _ULast; ++_UFirst) {

  00058	83 c6 04	 add	 esi, 4
  0005b	3b f7		 cmp	 esi, edi
  0005d	75 f2		 jne	 SHORT $LL68@SetDeactiv
$LN67@SetDeactiv:
  0005f	5f		 pop	 edi
; File C:\Users\ALEXANDER\Desktop\Cliente\COPY_FISH_WON_NEW\Binario\Client\EffectLib\EffectInstance.cpp

; 166  : }

  00060	5e		 pop	 esi
  00061	5b		 pop	 ebx
  00062	c3		 ret	 0
?SetDeactive@CEffectInstance@@QAEXXZ ENDP		; CEffectInstance::SetDeactive
_TEXT	ENDS
; Function compile flags: /Ogtp
; File C:\Users\ALEXANDER\Desktop\Cliente\COPY_FISH_WON_NEW\Binario\Client\EffectLib\EffectInstance.cpp
; File D:\visual studio 2019\visual studio 2019\VC\Tools\MSVC\14.29.30133\include\vector
; File D:\visual studio 2019\visual studio 2019\VC\Tools\MSVC\14.29.30133\include\algorithm
; File C:\Users\ALEXANDER\Desktop\Cliente\COPY_FISH_WON_NEW\Binario\Client\eterBase\Stl.h
; File D:\visual studio 2019\visual studio 2019\VC\Tools\MSVC\14.29.30133\include\algorithm
; File D:\visual studio 2019\visual studio 2019\VC\Tools\MSVC\14.29.30133\include\vector
; File D:\visual studio 2019\visual studio 2019\VC\Tools\MSVC\14.29.30133\include\algorithm
; File C:\Users\ALEXANDER\Desktop\Cliente\COPY_FISH_WON_NEW\Binario\Client\eterBase\Stl.h
; File D:\visual studio 2019\visual studio 2019\VC\Tools\MSVC\14.29.30133\include\algorithm
; File D:\visual studio 2019\visual studio 2019\VC\Tools\MSVC\14.29.30133\include\vector
; File D:\visual studio 2019\visual studio 2019\VC\Tools\MSVC\14.29.30133\include\algorithm
; File C:\Users\ALEXANDER\Desktop\Cliente\COPY_FISH_WON_NEW\Binario\Client\eterBase\Stl.h
; File D:\visual studio 2019\visual studio 2019\VC\Tools\MSVC\14.29.30133\include\algorithm
; File C:\Users\ALEXANDER\Desktop\Cliente\COPY_FISH_WON_NEW\Binario\Client\EffectLib\EffectInstance.cpp
;	COMDAT ?SetActive@CEffectInstance@@QAEXXZ
_TEXT	SEGMENT
?SetActive@CEffectInstance@@QAEXXZ PROC			; CEffectInstance::SetActive, COMDAT
; _this$ = ecx

; 137  : {

  00000	53		 push	 ebx
  00001	8b d9		 mov	 ebx, ecx
  00003	56		 push	 esi
  00004	57		 push	 edi
; File D:\visual studio 2019\visual studio 2019\VC\Tools\MSVC\14.29.30133\include\vector

; 41   :     _CONSTEXPR20_CONTAINER _Vector_const_iterator(_Tptr _Parg, const _Container_base* _Pvector) noexcept : _Ptr(_Parg) {

  00005	8b bb 68 03 00
	00		 mov	 edi, DWORD PTR [ebx+872]
; File D:\visual studio 2019\visual studio 2019\VC\Tools\MSVC\14.29.30133\include\algorithm

; 232  :     for (; _UFirst != _ULast; ++_UFirst) {

  0000b	8b b3 64 03 00
	00		 mov	 esi, DWORD PTR [ebx+868]
  00011	3b f7		 cmp	 esi, edi
  00013	74 0e		 je	 SHORT $LN21@SetActive
$LL22@SetActive:
; File C:\Users\ALEXANDER\Desktop\Cliente\COPY_FISH_WON_NEW\Binario\Client\eterBase\Stl.h

; 41   : 		{((_P->*_Ptr)()); }

  00015	8b 0e		 mov	 ecx, DWORD PTR [esi]
  00017	e8 00 00 00 00	 call	 ?SetActive@CEffectElementBaseInstance@@QAEXXZ ; CEffectElementBaseInstance::SetActive
; File D:\visual studio 2019\visual studio 2019\VC\Tools\MSVC\14.29.30133\include\algorithm

; 232  :     for (; _UFirst != _ULast; ++_UFirst) {

  0001c	83 c6 04	 add	 esi, 4
  0001f	3b f7		 cmp	 esi, edi
  00021	75 f2		 jne	 SHORT $LL22@SetActive
$LN21@SetActive:
; File D:\visual studio 2019\visual studio 2019\VC\Tools\MSVC\14.29.30133\include\vector

; 41   :     _CONSTEXPR20_CONTAINER _Vector_const_iterator(_Tptr _Parg, const _Container_base* _Pvector) noexcept : _Ptr(_Parg) {

  00023	8b bb 74 03 00
	00		 mov	 edi, DWORD PTR [ebx+884]
; File D:\visual studio 2019\visual studio 2019\VC\Tools\MSVC\14.29.30133\include\algorithm

; 232  :     for (; _UFirst != _ULast; ++_UFirst) {

  00029	8b b3 70 03 00
	00		 mov	 esi, DWORD PTR [ebx+880]
  0002f	3b f7		 cmp	 esi, edi
  00031	74 0e		 je	 SHORT $LN44@SetActive
$LL45@SetActive:
; File C:\Users\ALEXANDER\Desktop\Cliente\COPY_FISH_WON_NEW\Binario\Client\eterBase\Stl.h

; 41   : 		{((_P->*_Ptr)()); }

  00033	8b 0e		 mov	 ecx, DWORD PTR [esi]
  00035	e8 00 00 00 00	 call	 ?SetActive@CEffectElementBaseInstance@@QAEXXZ ; CEffectElementBaseInstance::SetActive
; File D:\visual studio 2019\visual studio 2019\VC\Tools\MSVC\14.29.30133\include\algorithm

; 232  :     for (; _UFirst != _ULast; ++_UFirst) {

  0003a	83 c6 04	 add	 esi, 4
  0003d	3b f7		 cmp	 esi, edi
  0003f	75 f2		 jne	 SHORT $LL45@SetActive
$LN44@SetActive:
; File D:\visual studio 2019\visual studio 2019\VC\Tools\MSVC\14.29.30133\include\vector

; 41   :     _CONSTEXPR20_CONTAINER _Vector_const_iterator(_Tptr _Parg, const _Container_base* _Pvector) noexcept : _Ptr(_Parg) {

  00041	8b bb 80 03 00
	00		 mov	 edi, DWORD PTR [ebx+896]
; File D:\visual studio 2019\visual studio 2019\VC\Tools\MSVC\14.29.30133\include\algorithm

; 232  :     for (; _UFirst != _ULast; ++_UFirst) {

  00047	8b b3 7c 03 00
	00		 mov	 esi, DWORD PTR [ebx+892]
  0004d	3b f7		 cmp	 esi, edi
  0004f	74 0e		 je	 SHORT $LN67@SetActive
$LL68@SetActive:
; File C:\Users\ALEXANDER\Desktop\Cliente\COPY_FISH_WON_NEW\Binario\Client\eterBase\Stl.h

; 41   : 		{((_P->*_Ptr)()); }

  00051	8b 0e		 mov	 ecx, DWORD PTR [esi]
  00053	e8 00 00 00 00	 call	 ?SetActive@CEffectElementBaseInstance@@QAEXXZ ; CEffectElementBaseInstance::SetActive
; File D:\visual studio 2019\visual studio 2019\VC\Tools\MSVC\14.29.30133\include\algorithm

; 232  :     for (; _UFirst != _ULast; ++_UFirst) {

  00058	83 c6 04	 add	 esi, 4
  0005b	3b f7		 cmp	 esi, edi
  0005d	75 f2		 jne	 SHORT $LL68@SetActive
$LN67@SetActive:
  0005f	5f		 pop	 edi
; File C:\Users\ALEXANDER\Desktop\Cliente\COPY_FISH_WON_NEW\Binario\Client\EffectLib\EffectInstance.cpp

; 150  : }

  00060	5e		 pop	 esi
  00061	5b		 pop	 ebx
  00062	c3		 ret	 0
?SetActive@CEffectInstance@@QAEXXZ ENDP			; CEffectInstance::SetActive
_TEXT	ENDS
; Function compile flags: /Ogtp
; File C:\Users\ALEXANDER\Desktop\Cliente\COPY_FISH_WON_NEW\Binario\Client\EffectLib\EffectInstance.cpp
;	COMDAT ?isAlive@CEffectInstance@@QAEHXZ
_TEXT	SEGMENT
?isAlive@CEffectInstance@@QAEHXZ PROC			; CEffectInstance::isAlive, COMDAT
; _this$ = ecx

; 133  : 	return m_isAlive;

  00000	8b 81 18 03 00
	00		 mov	 eax, DWORD PTR [ecx+792]

; 134  : }

  00006	c3		 ret	 0
?isAlive@CEffectInstance@@QAEHXZ ENDP			; CEffectInstance::isAlive
_TEXT	ENDS
; Function compile flags: /Ogtp
; File C:\Users\ALEXANDER\Desktop\Cliente\COPY_FISH_WON_NEW\Binario\Client\EffectLib\EffectInstance.cpp
; File D:\visual studio 2019\visual studio 2019\VC\Tools\MSVC\14.29.30133\include\vector
; File C:\Users\ALEXANDER\Desktop\Cliente\COPY_FISH_WON_NEW\Binario\Client\EffectLib\EffectInstance.cpp
; File D:\visual studio 2019\visual studio 2019\VC\Tools\MSVC\14.29.30133\include\vector
; File D:\visual studio 2019\visual studio 2019\VC\Tools\MSVC\14.29.30133\include\algorithm
; File C:\Users\ALEXANDER\Desktop\Cliente\COPY_FISH_WON_NEW\Binario\Client\EffectLib\EffectInstance.cpp
; File D:\visual studio 2019\visual studio 2019\VC\Tools\MSVC\14.29.30133\include\vector
; File C:\Users\ALEXANDER\Desktop\Cliente\COPY_FISH_WON_NEW\Binario\Client\EffectLib\EffectInstance.cpp
; File D:\visual studio 2019\visual studio 2019\VC\Tools\MSVC\14.29.30133\include\vector
; File D:\visual studio 2019\visual studio 2019\VC\Tools\MSVC\14.29.30133\include\algorithm
; File C:\Users\ALEXANDER\Desktop\Cliente\COPY_FISH_WON_NEW\Binario\Client\EffectLib\EffectInstance.cpp
; File D:\visual studio 2019\visual studio 2019\VC\Tools\MSVC\14.29.30133\include\vector
; File C:\Users\ALEXANDER\Desktop\Cliente\COPY_FISH_WON_NEW\Binario\Client\EffectLib\EffectInstance.cpp
; File D:\visual studio 2019\visual studio 2019\VC\Tools\MSVC\14.29.30133\include\vector
; File D:\visual studio 2019\visual studio 2019\VC\Tools\MSVC\14.29.30133\include\algorithm
; File C:\Users\ALEXANDER\Desktop\Cliente\COPY_FISH_WON_NEW\Binario\Client\EffectLib\EffectInstance.cpp
;	COMDAT ?Clear@CEffectInstance@@QAEXXZ
_TEXT	SEGMENT
?Clear@CEffectInstance@@QAEXXZ PROC			; CEffectInstance::Clear, COMDAT
; _this$ = ecx

; 280  : {

  00000	53		 push	 ebx
  00001	56		 push	 esi
  00002	57		 push	 edi
  00003	8b f9		 mov	 edi, ecx
; File D:\visual studio 2019\visual studio 2019\VC\Tools\MSVC\14.29.30133\include\vector

; 1531 :         return _My_data._Myfirst == _My_data._Mylast;

  00005	8b b7 64 03 00
	00		 mov	 esi, DWORD PTR [edi+868]
  0000b	3b b7 68 03 00
	00		 cmp	 esi, DWORD PTR [edi+872]
; File C:\Users\ALEXANDER\Desktop\Cliente\COPY_FISH_WON_NEW\Binario\Client\EffectLib\EffectInstance.cpp

; 281  : 	if (!m_ParticleInstanceVector.empty())

  00011	74 2a		 je	 SHORT $LN2@Clear
; File D:\visual studio 2019\visual studio 2019\VC\Tools\MSVC\14.29.30133\include\vector

; 41   :     _CONSTEXPR20_CONTAINER _Vector_const_iterator(_Tptr _Parg, const _Container_base* _Pvector) noexcept : _Ptr(_Parg) {

  00013	8b 9f 68 03 00
	00		 mov	 ebx, DWORD PTR [edi+872]
; File D:\visual studio 2019\visual studio 2019\VC\Tools\MSVC\14.29.30133\include\algorithm

; 232  :     for (; _UFirst != _ULast; ++_UFirst) {

  00019	3b f3		 cmp	 esi, ebx
  0001b	74 1a		 je	 SHORT $LN22@Clear
  0001d	0f 1f 00	 npad	 3
$LL23@Clear:

; 233  :         _Func(*_UFirst);

  00020	ff 36		 push	 DWORD PTR [esi]
  00022	e8 00 00 00 00	 call	 ?Delete@CParticleSystemInstance@@SAXPAV1@@Z ; CParticleSystemInstance::Delete
  00027	83 c6 04	 add	 esi, 4
  0002a	83 c4 04	 add	 esp, 4
  0002d	3b f3		 cmp	 esi, ebx
  0002f	75 ef		 jne	 SHORT $LL23@Clear
  00031	8b b7 64 03 00
	00		 mov	 esi, DWORD PTR [edi+868]
$LN22@Clear:
; File C:\Users\ALEXANDER\Desktop\Cliente\COPY_FISH_WON_NEW\Binario\Client\EffectLib\EffectInstance.cpp

; 284  : 		m_ParticleInstanceVector.clear();

  00037	89 b7 68 03 00
	00		 mov	 DWORD PTR [edi+872], esi
$LN2@Clear:
; File D:\visual studio 2019\visual studio 2019\VC\Tools\MSVC\14.29.30133\include\vector

; 1531 :         return _My_data._Myfirst == _My_data._Mylast;

  0003d	8b b7 70 03 00
	00		 mov	 esi, DWORD PTR [edi+880]
  00043	3b b7 74 03 00
	00		 cmp	 esi, DWORD PTR [edi+884]
; File C:\Users\ALEXANDER\Desktop\Cliente\COPY_FISH_WON_NEW\Binario\Client\EffectLib\EffectInstance.cpp

; 287  : 	if (!m_MeshInstanceVector.empty())

  00049	74 27		 je	 SHORT $LN3@Clear
; File D:\visual studio 2019\visual studio 2019\VC\Tools\MSVC\14.29.30133\include\vector

; 41   :     _CONSTEXPR20_CONTAINER _Vector_const_iterator(_Tptr _Parg, const _Container_base* _Pvector) noexcept : _Ptr(_Parg) {

  0004b	8b 9f 74 03 00
	00		 mov	 ebx, DWORD PTR [edi+884]
; File D:\visual studio 2019\visual studio 2019\VC\Tools\MSVC\14.29.30133\include\algorithm

; 232  :     for (; _UFirst != _ULast; ++_UFirst) {

  00051	3b f3		 cmp	 esi, ebx
  00053	74 17		 je	 SHORT $LN41@Clear
$LL42@Clear:

; 233  :         _Func(*_UFirst);

  00055	ff 36		 push	 DWORD PTR [esi]
  00057	e8 00 00 00 00	 call	 ?Delete@CEffectMeshInstance@@SAXPAV1@@Z ; CEffectMeshInstance::Delete
  0005c	83 c6 04	 add	 esi, 4
  0005f	83 c4 04	 add	 esp, 4
  00062	3b f3		 cmp	 esi, ebx
  00064	75 ef		 jne	 SHORT $LL42@Clear
  00066	8b b7 70 03 00
	00		 mov	 esi, DWORD PTR [edi+880]
$LN41@Clear:
; File C:\Users\ALEXANDER\Desktop\Cliente\COPY_FISH_WON_NEW\Binario\Client\EffectLib\EffectInstance.cpp

; 290  : 		m_MeshInstanceVector.clear();

  0006c	89 b7 74 03 00
	00		 mov	 DWORD PTR [edi+884], esi
$LN3@Clear:
; File D:\visual studio 2019\visual studio 2019\VC\Tools\MSVC\14.29.30133\include\vector

; 1531 :         return _My_data._Myfirst == _My_data._Mylast;

  00072	8b b7 7c 03 00
	00		 mov	 esi, DWORD PTR [edi+892]
  00078	3b b7 80 03 00
	00		 cmp	 esi, DWORD PTR [edi+896]
; File C:\Users\ALEXANDER\Desktop\Cliente\COPY_FISH_WON_NEW\Binario\Client\EffectLib\EffectInstance.cpp

; 293  : 	if (!m_LightInstanceVector.empty())

  0007e	74 2d		 je	 SHORT $LN4@Clear
; File D:\visual studio 2019\visual studio 2019\VC\Tools\MSVC\14.29.30133\include\vector

; 41   :     _CONSTEXPR20_CONTAINER _Vector_const_iterator(_Tptr _Parg, const _Container_base* _Pvector) noexcept : _Ptr(_Parg) {

  00080	8b 9f 80 03 00
	00		 mov	 ebx, DWORD PTR [edi+896]
; File D:\visual studio 2019\visual studio 2019\VC\Tools\MSVC\14.29.30133\include\algorithm

; 232  :     for (; _UFirst != _ULast; ++_UFirst) {

  00086	3b f3		 cmp	 esi, ebx
  00088	74 1d		 je	 SHORT $LN60@Clear
  0008a	66 0f 1f 44 00
	00		 npad	 6
$LL61@Clear:

; 233  :         _Func(*_UFirst);

  00090	ff 36		 push	 DWORD PTR [esi]
  00092	e8 00 00 00 00	 call	 ?Delete@CLightInstance@@SAXPAV1@@Z ; CLightInstance::Delete
  00097	83 c6 04	 add	 esi, 4
  0009a	83 c4 04	 add	 esp, 4
  0009d	3b f3		 cmp	 esi, ebx
  0009f	75 ef		 jne	 SHORT $LL61@Clear
  000a1	8b b7 7c 03 00
	00		 mov	 esi, DWORD PTR [edi+892]
$LN60@Clear:
; File C:\Users\ALEXANDER\Desktop\Cliente\COPY_FISH_WON_NEW\Binario\Client\EffectLib\EffectInstance.cpp

; 296  : 		m_LightInstanceVector.clear();

  000a7	89 b7 80 03 00
	00		 mov	 DWORD PTR [edi+896], esi
$LN4@Clear:

; 297  : 	}
; 298  : 
; 299  : 	__Initialize();

  000ad	8b cf		 mov	 ecx, edi
  000af	5f		 pop	 edi
  000b0	5e		 pop	 esi
  000b1	5b		 pop	 ebx
  000b2	e9 00 00 00 00	 jmp	 ?__Initialize@CEffectInstance@@IAEXXZ ; CEffectInstance::__Initialize
?Clear@CEffectInstance@@QAEXXZ ENDP			; CEffectInstance::Clear
_TEXT	ENDS
; Function compile flags: /Ogtp
; File C:\Users\ALEXANDER\Desktop\Cliente\COPY_FISH_WON_NEW\Binario\Client\EffectLib\EffectInstance.cpp
; File C:\Users\ALEXANDER\Desktop\Cliente\COPY_FISH_WON_NEW\Binario\extern\include\d3dx8math.inl
; File D:\visual studio 2019\visual studio 2019\VC\Tools\MSVC\14.29.30133\include\vector
; File C:\Users\ALEXANDER\Desktop\Cliente\COPY_FISH_WON_NEW\Binario\extern\include\d3dx8math.inl
; File D:\visual studio 2019\visual studio 2019\VC\Tools\MSVC\14.29.30133\include\vector
; File C:\Users\ALEXANDER\Desktop\Cliente\COPY_FISH_WON_NEW\Binario\Client\EffectLib\EffectInstance.cpp
; File C:\Users\ALEXANDER\Desktop\Cliente\COPY_FISH_WON_NEW\Binario\extern\include\d3dx8math.inl
; File C:\Users\ALEXANDER\Desktop\Cliente\COPY_FISH_WON_NEW\Binario\Client\EffectLib\EffectInstance.cpp
; File C:\Users\ALEXANDER\Desktop\Cliente\COPY_FISH_WON_NEW\Binario\extern\include\d3dx8math.inl
; File C:\Users\ALEXANDER\Desktop\Cliente\COPY_FISH_WON_NEW\Binario\Client\EffectLib\EffectInstance.cpp
; File D:\visual studio 2019\visual studio 2019\VC\Tools\MSVC\14.29.30133\include\vector
; File C:\Users\ALEXANDER\Desktop\Cliente\COPY_FISH_WON_NEW\Binario\Client\EffectLib\EffectInstance.cpp
; File D:\visual studio 2019\visual studio 2019\VC\Tools\MSVC\14.29.30133\include\vector
; File C:\Users\ALEXANDER\Desktop\Cliente\COPY_FISH_WON_NEW\Binario\Client\EffectLib\EffectInstance.cpp
; File D:\visual studio 2019\visual studio 2019\VC\Tools\MSVC\14.29.30133\include\vector
; File C:\Users\ALEXANDER\Desktop\Cliente\COPY_FISH_WON_NEW\Binario\Client\EffectLib\EffectInstance.cpp
; File D:\visual studio 2019\visual studio 2019\VC\Tools\MSVC\14.29.30133\include\vector
; File C:\Users\ALEXANDER\Desktop\Cliente\COPY_FISH_WON_NEW\Binario\Client\EffectLib\EffectInstance.cpp
; File D:\visual studio 2019\visual studio 2019\VC\Tools\MSVC\14.29.30133\include\vector
; File C:\Users\ALEXANDER\Desktop\Cliente\COPY_FISH_WON_NEW\Binario\Client\EffectLib\EffectInstance.cpp
;	COMDAT ?SetEffectDataPointer@CEffectInstance@@QAEXPAVCEffectData@@PAKK@Z
_TEXT	SEGMENT
_c$1$sroa$245$1$ = -56					; size = 4
_prob$1$ = -52						; size = 4
_d$2$sroa$236$1$ = -48					; size = 4
_c$1$sroa$239$1$ = -44					; size = 4
_c$1$sroa$242$1$ = -40					; size = 4
_dwR$1$ = -36						; size = 4
_i$1$ = -32						; size = 4
_pEffectData$GSCopy$1$ = -28				; size = 4
_this$GSCopy$1$ = -24					; size = 4
_pParticle$1$ = -20					; size = 4
$T3 = -16						; size = 12
__$ArrayPad$ = -4					; size = 4
_pEffectData$ = 8					; size = 4
_dwSkillColor$ = 12					; size = 4
_EffectID$ = 16						; size = 4
?SetEffectDataPointer@CEffectInstance@@QAEXPAVCEffectData@@PAKK@Z PROC ; CEffectInstance::SetEffectDataPointer, COMDAT
; _this$ = ecx

; 201  : {

  00000	55		 push	 ebp
  00001	8b ec		 mov	 ebp, esp
  00003	83 ec 38	 sub	 esp, 56			; 00000038H
  00006	a1 00 00 00 00	 mov	 eax, DWORD PTR ___security_cookie
  0000b	33 c5		 xor	 eax, ebp
  0000d	89 45 fc	 mov	 DWORD PTR __$ArrayPad$[ebp], eax
  00010	53		 push	 ebx
  00011	8b 5d 08	 mov	 ebx, DWORD PTR _pEffectData$[ebp]
  00014	56		 push	 esi
  00015	8b f1		 mov	 esi, ecx
  00017	89 5d e4	 mov	 DWORD PTR _pEffectData$GSCopy$1$[ebp], ebx
  0001a	57		 push	 edi
  0001b	89 75 e8	 mov	 DWORD PTR _this$GSCopy$1$[ebp], esi

; 202  : 	m_isAlive=true;

  0001e	c7 86 18 03 00
	00 01 00 00 00	 mov	 DWORD PTR [esi+792], 1

; 203  : 
; 204  : 	m_pkEftData=pEffectData;

  00028	89 9e 60 03 00
	00		 mov	 DWORD PTR [esi+864], ebx

; 205  : 
; 206  : 	m_fLastTime = CTimer::Instance().GetCurrentSecond();

  0002e	8b 0d 00 00 00
	00		 mov	 ecx, DWORD PTR ?ms_singleton@?$CSingleton@VCTimer@@@@0PAVCTimer@@A ; CSingleton<CTimer>::ms_singleton
  00034	e8 00 00 00 00	 call	 ?GetCurrentSecond@CTimer@@QAEMXZ ; CTimer::GetCurrentSecond
  00039	d9 9e 9c 03 00
	00		 fstp	 DWORD PTR [esi+924]

; 207  : 	m_fBoundingSphereRadius = pEffectData->GetBoundingSphereRadius();

  0003f	8b cb		 mov	 ecx, ebx
  00041	e8 00 00 00 00	 call	 ?GetBoundingSphereRadius@CEffectData@@QAEMXZ ; CEffectData::GetBoundingSphereRadius

; 208  : 	m_v3BoundingSpherePosition = pEffectData->GetBoundingSpherePosition();

  00046	8d 45 f0	 lea	 eax, DWORD PTR $T3[ebp]
  00049	8b cb		 mov	 ecx, ebx
  0004b	50		 push	 eax
  0004c	d9 9e 8c 03 00
	00		 fstp	 DWORD PTR [esi+908]
  00052	e8 00 00 00 00	 call	 ?GetBoundingSpherePosition@CEffectData@@QAE?AUD3DXVECTOR3@@XZ ; CEffectData::GetBoundingSpherePosition
  00057	f3 0f 7e 00	 movq	 xmm0, QWORD PTR [eax]
  0005b	66 0f d6 86 90
	03 00 00	 movq	 QWORD PTR [esi+912], xmm0

; 209  : 
; 210  : 	if (m_fBoundingSphereRadius > 0.0f)

  00063	f3 0f 10 86 8c
	03 00 00	 movss	 xmm0, DWORD PTR [esi+908]
  0006b	0f 2f 05 00 00
	00 00		 comiss	 xmm0, DWORD PTR __real@00000000
  00072	8b 40 08	 mov	 eax, DWORD PTR [eax+8]
  00075	89 86 98 03 00
	00		 mov	 DWORD PTR [esi+920], eax
  0007b	76 07		 jbe	 SHORT $LN17@SetEffectD

; 211  : 		CGraphicObjectInstance::RegisterBoundingSphere();

  0007d	8b ce		 mov	 ecx, esi
  0007f	e8 00 00 00 00	 call	 ?RegisterBoundingSphere@CGraphicObjectInstance@@QAEXXZ ; CGraphicObjectInstance::RegisterBoundingSphere
$LN17@SetEffectD:

; 212  : 
; 213  : 	DWORD i;
; 214  : 
; 215  : 	for (i = 0; i < pEffectData->GetParticleCount(); ++i)

  00084	33 f6		 xor	 esi, esi
  00086	8b cb		 mov	 ecx, ebx
  00088	89 75 e0	 mov	 DWORD PTR _i$1$[ebp], esi
  0008b	e8 00 00 00 00	 call	 ?GetParticleCount@CEffectData@@QAEKXZ ; CEffectData::GetParticleCount
  00090	8b 7d e8	 mov	 edi, DWORD PTR _this$GSCopy$1$[ebp]
  00093	85 c0		 test	 eax, eax
  00095	0f 84 29 02 00
	00		 je	 $LN3@SetEffectD
  0009b	0f 1f 44 00 00	 npad	 5
$LL4@SetEffectD:

; 216  : 	{
; 217  : 		CParticleSystemData * pParticle = pEffectData->GetParticlePointer(i);

  000a0	56		 push	 esi
  000a1	8b cb		 mov	 ecx, ebx
  000a3	e8 00 00 00 00	 call	 ?GetParticlePointer@CEffectData@@QAEPAVCParticleSystemData@@K@Z ; CEffectData::GetParticlePointer

; 218  : 
; 219  : #ifdef ENABLE_SKILL_COLOR_SYSTEM
; 220  : 		if (dwSkillColor != NULL)

  000a8	8b 4d 0c	 mov	 ecx, DWORD PTR _dwSkillColor$[ebp]
  000ab	89 45 ec	 mov	 DWORD PTR _pParticle$1$[ebp], eax
  000ae	85 c9		 test	 ecx, ecx
  000b0	0f 84 f3 01 00
	00		 je	 $LN9@SetEffectD

; 221  : 		{
; 222  : 			DWORD skill;
; 223  : 
; 224  : 			if (i >= 5)

  000b6	83 fe 05	 cmp	 esi, 5
  000b9	72 05		 jb	 SHORT $LN19@SetEffectD

; 225  : 				skill = dwSkillColor[4];

  000bb	8b 59 10	 mov	 ebx, DWORD PTR [ecx+16]
  000be	eb 03		 jmp	 SHORT $LN20@SetEffectD
$LN19@SetEffectD:

; 226  : 			else
; 227  : 				skill = dwSkillColor[i];

  000c0	8b 1c b1	 mov	 ebx, DWORD PTR [ecx+esi*4]
$LN20@SetEffectD:

; 228  : 
; 229  : 			CParticleProperty * prob = pParticle->GetParticlePropertyPointer();

  000c3	8b 4d ec	 mov	 ecx, DWORD PTR _pParticle$1$[ebp]
  000c6	e8 00 00 00 00	 call	 ?GetParticlePropertyPointer@CParticleSystemData@@QAEPAVCParticleProperty@@XZ ; CParticleSystemData::GetParticlePropertyPointer
  000cb	8b f8		 mov	 edi, eax
  000cd	89 7d cc	 mov	 DWORD PTR _prob$1$[ebp], edi

; 230  : 			if (skill != 99999999 && skill != 0)

  000d0	81 fb ff e0 f5
	05		 cmp	 ebx, 99999999		; 05f5e0ffH
  000d6	0f 84 c4 01 00
	00		 je	 $LN139@SetEffectD
  000dc	85 db		 test	 ebx, ebx
  000de	0f 84 8d 01 00
	00		 je	 $LN136@SetEffectD
; File C:\Users\ALEXANDER\Desktop\Cliente\COPY_FISH_WON_NEW\Binario\extern\include\d3dx8math.inl

; 888  :     r = f * (FLOAT) (unsigned char) (dw >> 16);

  000e4	f3 0f 10 15 00
	00 00 00	 movss	 xmm2, DWORD PTR __real@3b808081

; 889  :     g = f * (FLOAT) (unsigned char) (dw >>  8);

  000ec	8b c3		 mov	 eax, ebx
; File D:\visual studio 2019\visual studio 2019\VC\Tools\MSVC\14.29.30133\include\vector

; 41   :     _CONSTEXPR20_CONTAINER _Vector_const_iterator(_Tptr _Parg, const _Container_base* _Pvector) noexcept : _Ptr(_Parg) {

  000ee	8b 77 58	 mov	 esi, DWORD PTR [edi+88]
; File C:\Users\ALEXANDER\Desktop\Cliente\COPY_FISH_WON_NEW\Binario\extern\include\d3dx8math.inl

; 888  :     r = f * (FLOAT) (unsigned char) (dw >> 16);

  000f1	8b cb		 mov	 ecx, ebx

; 889  :     g = f * (FLOAT) (unsigned char) (dw >>  8);

  000f3	c1 e8 08	 shr	 eax, 8
  000f6	0f b6 c0	 movzx	 eax, al
  000f9	c1 e9 10	 shr	 ecx, 16			; 00000010H
  000fc	0f b6 c9	 movzx	 ecx, cl
  000ff	66 0f 6e d8	 movd	 xmm3, eax

; 890  :     b = f * (FLOAT) (unsigned char) (dw >>  0);

  00103	0f b6 c3	 movzx	 eax, bl
  00106	66 0f 6e c9	 movd	 xmm1, ecx

; 888  :     r = f * (FLOAT) (unsigned char) (dw >> 16);

  0010a	0f 5b c9	 cvtdq2ps xmm1, xmm1
  0010d	66 0f 6e c0	 movd	 xmm0, eax

; 889  :     g = f * (FLOAT) (unsigned char) (dw >>  8);

  00111	0f 5b db	 cvtdq2ps xmm3, xmm3

; 890  :     b = f * (FLOAT) (unsigned char) (dw >>  0);

  00114	0f 5b c0	 cvtdq2ps xmm0, xmm0
  00117	f3 0f 59 ca	 mulss	 xmm1, xmm2
  0011b	f3 0f 59 da	 mulss	 xmm3, xmm2
  0011f	f3 0f 59 c2	 mulss	 xmm0, xmm2
  00123	f3 0f 11 4d c8	 movss	 DWORD PTR _c$1$sroa$245$1$[ebp], xmm1
  00128	f3 0f 11 5d d8	 movss	 DWORD PTR _c$1$sroa$242$1$[ebp], xmm3
  0012d	f3 0f 11 45 d4	 movss	 DWORD PTR _c$1$sroa$239$1$[ebp], xmm0
; File D:\visual studio 2019\visual studio 2019\VC\Tools\MSVC\14.29.30133\include\vector

; 150  :         return _Ptr == _Right._Ptr;

  00132	3b 77 5c	 cmp	 esi, DWORD PTR [edi+92]
; File C:\Users\ALEXANDER\Desktop\Cliente\COPY_FISH_WON_NEW\Binario\Client\EffectLib\EffectInstance.cpp

; 234  : 				for (TTimeEventTableColor::iterator it = prob->m_TimeEventColor.begin(); it != prob->m_TimeEventColor.end(); ++it)

  00135	0f 84 62 01 00
	00		 je	 $LN140@SetEffectD
  0013b	0f 1f 44 00 00	 npad	 5
$LL36@SetEffectD:
; File C:\Users\ALEXANDER\Desktop\Cliente\COPY_FISH_WON_NEW\Binario\extern\include\d3dx8math.inl

; 931  :     DWORD dwR = r >= 1.0f ? 0xff : r <= 0.0f ? 0x00 : (DWORD) (r * 255.0f + 0.5f);

  00140	0f 2f 0d 00 00
	00 00		 comiss	 xmm1, DWORD PTR __real@3f800000

; 891  :     a = f * (FLOAT) (unsigned char) (dw >> 24);

  00147	0f b6 46 07	 movzx	 eax, BYTE PTR [esi+7]
  0014b	66 0f 6e c0	 movd	 xmm0, eax
  0014f	0f 5b c0	 cvtdq2ps xmm0, xmm0
  00152	f3 0f 59 c2	 mulss	 xmm0, xmm2
  00156	f3 0f 11 45 d0	 movss	 DWORD PTR _d$2$sroa$236$1$[ebp], xmm0

; 931  :     DWORD dwR = r >= 1.0f ? 0xff : r <= 0.0f ? 0x00 : (DWORD) (r * 255.0f + 0.5f);

  0015b	0f 57 c0	 xorps	 xmm0, xmm0
  0015e	72 09		 jb	 SHORT $LN53@SetEffectD
  00160	c7 45 dc ff 00
	00 00		 mov	 DWORD PTR _dwR$1$[ebp], 255 ; 000000ffH
  00167	eb 31		 jmp	 SHORT $LN52@SetEffectD
$LN53@SetEffectD:
  00169	0f 2f c1	 comiss	 xmm0, xmm1
  0016c	72 09		 jb	 SHORT $LN51@SetEffectD
  0016e	c7 45 dc 00 00
	00 00		 mov	 DWORD PTR _dwR$1$[ebp], 0
  00175	eb 23		 jmp	 SHORT $LN52@SetEffectD
$LN51@SetEffectD:
  00177	0f 28 c1	 movaps	 xmm0, xmm1
  0017a	f3 0f 59 05 00
	00 00 00	 mulss	 xmm0, DWORD PTR __real@437f0000
  00182	f3 0f 58 05 00
	00 00 00	 addss	 xmm0, DWORD PTR __real@3f000000
  0018a	e8 00 00 00 00	 call	 __ftoui3
  0018f	f3 0f 10 5d d8	 movss	 xmm3, DWORD PTR _c$1$sroa$242$1$[ebp]
  00194	0f 57 c0	 xorps	 xmm0, xmm0
  00197	89 45 dc	 mov	 DWORD PTR _dwR$1$[ebp], eax
$LN52@SetEffectD:

; 932  :     DWORD dwG = g >= 1.0f ? 0xff : g <= 0.0f ? 0x00 : (DWORD) (g * 255.0f + 0.5f);

  0019a	0f 2f 1d 00 00
	00 00		 comiss	 xmm3, DWORD PTR __real@3f800000
  001a1	72 07		 jb	 SHORT $LN57@SetEffectD
  001a3	bb ff 00 00 00	 mov	 ebx, 255		; 000000ffH
  001a8	eb 23		 jmp	 SHORT $LN56@SetEffectD
$LN57@SetEffectD:
  001aa	0f 2f c3	 comiss	 xmm0, xmm3
  001ad	72 04		 jb	 SHORT $LN55@SetEffectD
  001af	33 db		 xor	 ebx, ebx
  001b1	eb 1a		 jmp	 SHORT $LN56@SetEffectD
$LN55@SetEffectD:
  001b3	0f 28 c3	 movaps	 xmm0, xmm3
  001b6	f3 0f 59 05 00
	00 00 00	 mulss	 xmm0, DWORD PTR __real@437f0000
  001be	f3 0f 58 05 00
	00 00 00	 addss	 xmm0, DWORD PTR __real@3f000000
  001c6	e8 00 00 00 00	 call	 __ftoui3
  001cb	8b d8		 mov	 ebx, eax
$LN56@SetEffectD:

; 933  :     DWORD dwB = b >= 1.0f ? 0xff : b <= 0.0f ? 0x00 : (DWORD) (b * 255.0f + 0.5f);

  001cd	f3 0f 10 45 d4	 movss	 xmm0, DWORD PTR _c$1$sroa$239$1$[ebp]
  001d2	0f 57 c9	 xorps	 xmm1, xmm1
  001d5	0f 2f 05 00 00
	00 00		 comiss	 xmm0, DWORD PTR __real@3f800000
  001dc	72 07		 jb	 SHORT $LN61@SetEffectD
  001de	bf ff 00 00 00	 mov	 edi, 255		; 000000ffH
  001e3	eb 23		 jmp	 SHORT $LN60@SetEffectD
$LN61@SetEffectD:
  001e5	0f 2f c8	 comiss	 xmm1, xmm0
  001e8	72 04		 jb	 SHORT $LN59@SetEffectD
  001ea	33 ff		 xor	 edi, edi
  001ec	eb 1a		 jmp	 SHORT $LN60@SetEffectD
$LN59@SetEffectD:
  001ee	f3 0f 59 05 00
	00 00 00	 mulss	 xmm0, DWORD PTR __real@437f0000
  001f6	f3 0f 58 05 00
	00 00 00	 addss	 xmm0, DWORD PTR __real@3f000000
  001fe	e8 00 00 00 00	 call	 __ftoui3
  00203	8b f8		 mov	 edi, eax
  00205	0f 57 c9	 xorps	 xmm1, xmm1
$LN60@SetEffectD:

; 934  :     DWORD dwA = a >= 1.0f ? 0xff : a <= 0.0f ? 0x00 : (DWORD) (a * 255.0f + 0.5f);

  00208	f3 0f 10 45 d0	 movss	 xmm0, DWORD PTR _d$2$sroa$236$1$[ebp]
  0020d	0f 2f 05 00 00
	00 00		 comiss	 xmm0, DWORD PTR __real@3f800000
  00214	72 07		 jb	 SHORT $LN65@SetEffectD
  00216	b8 ff 00 00 00	 mov	 eax, 255		; 000000ffH
  0021b	eb 1e		 jmp	 SHORT $LN64@SetEffectD
$LN65@SetEffectD:
  0021d	0f 2f c8	 comiss	 xmm1, xmm0
  00220	72 04		 jb	 SHORT $LN63@SetEffectD
  00222	33 c0		 xor	 eax, eax
  00224	eb 15		 jmp	 SHORT $LN64@SetEffectD
$LN63@SetEffectD:
  00226	f3 0f 59 05 00
	00 00 00	 mulss	 xmm0, DWORD PTR __real@437f0000
  0022e	f3 0f 58 05 00
	00 00 00	 addss	 xmm0, DWORD PTR __real@3f000000
  00236	e8 00 00 00 00	 call	 __ftoui3
$LN64@SetEffectD:
; File C:\Users\ALEXANDER\Desktop\Cliente\COPY_FISH_WON_NEW\Binario\Client\EffectLib\EffectInstance.cpp

; 234  : 				for (TTimeEventTableColor::iterator it = prob->m_TimeEventColor.begin(); it != prob->m_TimeEventColor.end(); ++it)

  0023b	f3 0f 10 4d c8	 movss	 xmm1, DWORD PTR _c$1$sroa$245$1$[ebp]
  00240	f3 0f 10 5d d8	 movss	 xmm3, DWORD PTR _c$1$sroa$242$1$[ebp]
  00245	f3 0f 10 15 00
	00 00 00	 movss	 xmm2, DWORD PTR __real@3b808081
; File C:\Users\ALEXANDER\Desktop\Cliente\COPY_FISH_WON_NEW\Binario\extern\include\d3dx8math.inl

; 936  :     return (dwA << 24) | (dwR << 16) | (dwG << 8) | dwB;

  0024d	c1 e0 08	 shl	 eax, 8
  00250	0b 45 dc	 or	 eax, DWORD PTR _dwR$1$[ebp]
  00253	c1 e0 08	 shl	 eax, 8
  00256	0b c3		 or	 eax, ebx
  00258	c1 e0 08	 shl	 eax, 8
  0025b	0b c7		 or	 eax, edi
; File C:\Users\ALEXANDER\Desktop\Cliente\COPY_FISH_WON_NEW\Binario\Client\EffectLib\EffectInstance.cpp

; 238  : 					it->m_Value.m_dwColor = (DWORD)c;

  0025d	89 46 04	 mov	 DWORD PTR [esi+4], eax
; File D:\visual studio 2019\visual studio 2019\VC\Tools\MSVC\14.29.30133\include\vector

; 74   :         ++_Ptr;

  00260	83 c6 08	 add	 esi, 8

; 150  :         return _Ptr == _Right._Ptr;

  00263	8b 45 cc	 mov	 eax, DWORD PTR _prob$1$[ebp]
  00266	3b 70 5c	 cmp	 esi, DWORD PTR [eax+92]
; File C:\Users\ALEXANDER\Desktop\Cliente\COPY_FISH_WON_NEW\Binario\Client\EffectLib\EffectInstance.cpp

; 234  : 				for (TTimeEventTableColor::iterator it = prob->m_TimeEventColor.begin(); it != prob->m_TimeEventColor.end(); ++it)

  00269	0f 85 d1 fe ff
	ff		 jne	 $LL36@SetEffectD
  0026f	eb 2c		 jmp	 SHORT $LN140@SetEffectD
$LN136@SetEffectD:

; 243  : 				CParticleProperty * prob_backup = pParticle->GetParticlePropertyBackupPointer();

  00271	8b 4d ec	 mov	 ecx, DWORD PTR _pParticle$1$[ebp]
  00274	e8 00 00 00 00	 call	 ?GetParticlePropertyBackupPointer@CParticleSystemData@@QAEPAVCParticleProperty@@XZ ; CParticleSystemData::GetParticlePropertyBackupPointer
; File D:\visual studio 2019\visual studio 2019\VC\Tools\MSVC\14.29.30133\include\vector

; 41   :     _CONSTEXPR20_CONTAINER _Vector_const_iterator(_Tptr _Parg, const _Container_base* _Pvector) noexcept : _Ptr(_Parg) {

  00279	8b 4f 58	 mov	 ecx, DWORD PTR [edi+88]
; File C:\Users\ALEXANDER\Desktop\Cliente\COPY_FISH_WON_NEW\Binario\Client\EffectLib\EffectInstance.cpp

; 243  : 				CParticleProperty * prob_backup = pParticle->GetParticlePropertyBackupPointer();

  0027c	8b f0		 mov	 esi, eax
; File D:\visual studio 2019\visual studio 2019\VC\Tools\MSVC\14.29.30133\include\vector

; 41   :     _CONSTEXPR20_CONTAINER _Vector_const_iterator(_Tptr _Parg, const _Container_base* _Pvector) noexcept : _Ptr(_Parg) {

  0027e	3b 4f 5c	 cmp	 ecx, DWORD PTR [edi+92]
; File C:\Users\ALEXANDER\Desktop\Cliente\COPY_FISH_WON_NEW\Binario\Client\EffectLib\EffectInstance.cpp

; 244  : 				for (TTimeEventTableColor::iterator it = prob->m_TimeEventColor.begin(); it != prob->m_TimeEventColor.end(); ++it)

  00281	74 1a		 je	 SHORT $LN140@SetEffectD
$LL76@SetEffectD:

; 245  : 					it->m_Value.m_dwColor = prob_backup->m_TimeEventColor[distance(prob->m_TimeEventColor.begin(), it)].m_Value.m_dwColor;

  00283	8b 46 58	 mov	 eax, DWORD PTR [esi+88]
; File D:\visual studio 2019\visual studio 2019\VC\Tools\MSVC\14.29.30133\include\vector

; 141  :         return _Ptr - _Right._Ptr;

  00286	8b d1		 mov	 edx, ecx
  00288	2b 57 58	 sub	 edx, DWORD PTR [edi+88]
  0028b	c1 fa 03	 sar	 edx, 3
; File C:\Users\ALEXANDER\Desktop\Cliente\COPY_FISH_WON_NEW\Binario\Client\EffectLib\EffectInstance.cpp

; 245  : 					it->m_Value.m_dwColor = prob_backup->m_TimeEventColor[distance(prob->m_TimeEventColor.begin(), it)].m_Value.m_dwColor;

  0028e	8b 44 d0 04	 mov	 eax, DWORD PTR [eax+edx*8+4]
  00292	89 41 04	 mov	 DWORD PTR [ecx+4], eax
; File D:\visual studio 2019\visual studio 2019\VC\Tools\MSVC\14.29.30133\include\vector

; 74   :         ++_Ptr;

  00295	83 c1 08	 add	 ecx, 8

; 150  :         return _Ptr == _Right._Ptr;

  00298	3b 4f 5c	 cmp	 ecx, DWORD PTR [edi+92]
; File C:\Users\ALEXANDER\Desktop\Cliente\COPY_FISH_WON_NEW\Binario\Client\EffectLib\EffectInstance.cpp

; 244  : 				for (TTimeEventTableColor::iterator it = prob->m_TimeEventColor.begin(); it != prob->m_TimeEventColor.end(); ++it)

  0029b	75 e6		 jne	 SHORT $LL76@SetEffectD
$LN140@SetEffectD:

; 246  : 			}
; 247  : 		}
; 248  : #endif
; 249  : 
; 250  : 		__SetParticleData(pParticle);

  0029d	8b 75 e0	 mov	 esi, DWORD PTR _i$1$[ebp]
$LN139@SetEffectD:
  002a0	8b 5d e4	 mov	 ebx, DWORD PTR _pEffectData$GSCopy$1$[ebp]
  002a3	8b 7d e8	 mov	 edi, DWORD PTR _this$GSCopy$1$[ebp]
  002a6	8b 45 ec	 mov	 eax, DWORD PTR _pParticle$1$[ebp]
$LN9@SetEffectD:
  002a9	50		 push	 eax
  002aa	8b cf		 mov	 ecx, edi
  002ac	e8 00 00 00 00	 call	 ?__SetParticleData@CEffectInstance@@IAEXPAVCParticleSystemData@@@Z ; CEffectInstance::__SetParticleData
  002b1	46		 inc	 esi
  002b2	8b cb		 mov	 ecx, ebx
  002b4	89 75 e0	 mov	 DWORD PTR _i$1$[ebp], esi
  002b7	e8 00 00 00 00	 call	 ?GetParticleCount@CEffectData@@QAEKXZ ; CEffectData::GetParticleCount
  002bc	3b f0		 cmp	 esi, eax
  002be	0f 82 dc fd ff
	ff		 jb	 $LL4@SetEffectD
$LN3@SetEffectD:

; 251  : 	}
; 252  : 
; 253  : 	for (i = 0; i < pEffectData->GetMeshCount(); ++i)

  002c4	8b cb		 mov	 ecx, ebx
  002c6	33 f6		 xor	 esi, esi
  002c8	e8 00 00 00 00	 call	 ?GetMeshCount@CEffectData@@QAEKXZ ; CEffectData::GetMeshCount
  002cd	85 c0		 test	 eax, eax
  002cf	74 1c		 je	 SHORT $LN12@SetEffectD
$LL13@SetEffectD:

; 254  : 	{
; 255  : 		CEffectMeshScript * pMesh = pEffectData->GetMeshPointer(i);

  002d1	56		 push	 esi
  002d2	8b cb		 mov	 ecx, ebx
  002d4	e8 00 00 00 00	 call	 ?GetMeshPointer@CEffectData@@QAEPAVCEffectMeshScript@@K@Z ; CEffectData::GetMeshPointer

; 256  : 
; 257  : 		__SetMeshData(pMesh);

  002d9	50		 push	 eax
  002da	8b cf		 mov	 ecx, edi
  002dc	e8 00 00 00 00	 call	 ?__SetMeshData@CEffectInstance@@IAEXPAVCEffectMeshScript@@@Z ; CEffectInstance::__SetMeshData
  002e1	8b cb		 mov	 ecx, ebx
  002e3	46		 inc	 esi
  002e4	e8 00 00 00 00	 call	 ?GetMeshCount@CEffectData@@QAEKXZ ; CEffectData::GetMeshCount
  002e9	3b f0		 cmp	 esi, eax
  002eb	72 e4		 jb	 SHORT $LL13@SetEffectD
$LN12@SetEffectD:

; 258  : 	}
; 259  : 
; 260  : 	for (i = 0; i < pEffectData->GetLightCount(); ++i)

  002ed	8b cb		 mov	 ecx, ebx
  002ef	33 f6		 xor	 esi, esi
  002f1	e8 00 00 00 00	 call	 ?GetLightCount@CEffectData@@QAEKXZ ; CEffectData::GetLightCount
  002f6	85 c0		 test	 eax, eax
  002f8	74 22		 je	 SHORT $LN15@SetEffectD
  002fa	66 0f 1f 44 00
	00		 npad	 6
$LL16@SetEffectD:

; 261  : 	{
; 262  : 		CLightData * pLight = pEffectData->GetLightPointer(i);

  00300	56		 push	 esi
  00301	8b cb		 mov	 ecx, ebx
  00303	e8 00 00 00 00	 call	 ?GetLightPointer@CEffectData@@QAEPAVCLightData@@K@Z ; CEffectData::GetLightPointer

; 263  : 
; 264  : 		__SetLightData(pLight);

  00308	50		 push	 eax
  00309	8b cf		 mov	 ecx, edi
  0030b	e8 00 00 00 00	 call	 ?__SetLightData@CEffectInstance@@IAEXPAVCLightData@@@Z ; CEffectInstance::__SetLightData
  00310	8b cb		 mov	 ecx, ebx
  00312	46		 inc	 esi
  00313	e8 00 00 00 00	 call	 ?GetLightCount@CEffectData@@QAEKXZ ; CEffectData::GetLightCount
  00318	3b f0		 cmp	 esi, eax
  0031a	72 e4		 jb	 SHORT $LL16@SetEffectD
$LN15@SetEffectD:

; 265  : 	}
; 266  : 
; 267  : 	m_pSoundInstanceVector = pEffectData->GetSoundInstanceVector();

  0031c	8b cb		 mov	 ecx, ebx
  0031e	e8 00 00 00 00	 call	 ?GetSoundInstanceVector@CEffectData@@QAEPAV?$vector@USSoundInstance@NSound@@V?$allocator@USSoundInstance@NSound@@@std@@@std@@XZ ; CEffectData::GetSoundInstanceVector

; 268  : }

  00323	8b 4d fc	 mov	 ecx, DWORD PTR __$ArrayPad$[ebp]
  00326	89 87 88 03 00
	00		 mov	 DWORD PTR [edi+904], eax
  0032c	33 cd		 xor	 ecx, ebp
  0032e	5f		 pop	 edi
  0032f	5e		 pop	 esi
  00330	5b		 pop	 ebx
  00331	e8 00 00 00 00	 call	 @__security_check_cookie@4
  00336	8b e5		 mov	 esp, ebp
  00338	5d		 pop	 ebp
  00339	c2 0c 00	 ret	 12			; 0000000cH
?SetEffectDataPointer@CEffectInstance@@QAEXPAVCEffectData@@PAKK@Z ENDP ; CEffectInstance::SetEffectDataPointer
_TEXT	ENDS
; Function compile flags: /Ogtp
; File C:\Users\ALEXANDER\Desktop\Cliente\COPY_FISH_WON_NEW\Binario\Client\EffectLib\EffectInstance.cpp
;	COMDAT ?LessRenderOrder@CEffectInstance@@QAE_NPAV1@@Z
_TEXT	SEGMENT
_pkEftInst$ = 8						; size = 4
?LessRenderOrder@CEffectInstance@@QAE_NPAV1@@Z PROC	; CEffectInstance::LessRenderOrder, COMDAT
; _this$ = ecx

; 14   : {

  00000	55		 push	 ebp
  00001	8b ec		 mov	 ebp, esp

; 15   : 	return (m_pkEftData<pkEftInst->m_pkEftData);

  00003	8b 45 08	 mov	 eax, DWORD PTR _pkEftInst$[ebp]
  00006	8b 89 60 03 00
	00		 mov	 ecx, DWORD PTR [ecx+864]
  0000c	3b 88 60 03 00
	00		 cmp	 ecx, DWORD PTR [eax+864]
  00012	0f 92 c0	 setb	 al

; 16   : }

  00015	5d		 pop	 ebp
  00016	c2 04 00	 ret	 4
?LessRenderOrder@CEffectInstance@@QAE_NPAV1@@Z ENDP	; CEffectInstance::LessRenderOrder
_TEXT	ENDS
; Function compile flags: /Ogtp
; File C:\Users\ALEXANDER\Desktop\Cliente\COPY_FISH_WON_NEW\Binario\Client\EffectLib\EffectInstance.cpp
; File D:\visual studio 2019\visual studio 2019\VC\Tools\MSVC\14.29.30133\include\vector
; File D:\visual studio 2019\visual studio 2019\VC\Tools\MSVC\14.29.30133\include\xmemory
; File D:\visual studio 2019\visual studio 2019\VC\Tools\MSVC\14.29.30133\include\vector
; File D:\visual studio 2019\visual studio 2019\VC\Tools\MSVC\14.29.30133\include\xmemory
; File D:\visual studio 2019\visual studio 2019\VC\Tools\MSVC\14.29.30133\include\vector
; File D:\visual studio 2019\visual studio 2019\VC\Tools\MSVC\14.29.30133\include\xmemory
; File D:\visual studio 2019\visual studio 2019\VC\Tools\MSVC\14.29.30133\include\vector
; File D:\visual studio 2019\visual studio 2019\VC\Tools\MSVC\14.29.30133\include\xmemory
; File D:\visual studio 2019\visual studio 2019\VC\Tools\MSVC\14.29.30133\include\vector
; File D:\visual studio 2019\visual studio 2019\VC\Tools\MSVC\14.29.30133\include\xmemory
; File D:\visual studio 2019\visual studio 2019\VC\Tools\MSVC\14.29.30133\include\vector
; File D:\visual studio 2019\visual studio 2019\VC\Tools\MSVC\14.29.30133\include\xmemory
; File D:\visual studio 2019\visual studio 2019\VC\Tools\MSVC\14.29.30133\include\vector
; File C:\Users\ALEXANDER\Desktop\Cliente\COPY_FISH_WON_NEW\Binario\Client\EffectLib\EffectInstance.cpp
; File D:\visual studio 2019\visual studio 2019\VC\Tools\MSVC\14.29.30133\include\xmemory
; File C:\Users\ALEXANDER\Desktop\Cliente\COPY_FISH_WON_NEW\Binario\Client\EffectLib\EffectInstance.cpp
;	COMDAT ??1CEffectInstance@@UAE@XZ
_TEXT	SEGMENT
??1CEffectInstance@@UAE@XZ PROC				; CEffectInstance::~CEffectInstance, COMDAT
; _this$ = ecx

; 322  : {

  00000	56		 push	 esi
  00001	8b f1		 mov	 esi, ecx
  00003	c7 06 00 00 00
	00		 mov	 DWORD PTR [esi], OFFSET ??_7CEffectInstance@@6B@
; File D:\visual studio 2019\visual studio 2019\VC\Tools\MSVC\14.29.30133\include\vector

; 1750 :         if (_Myfirst) { // destroy and deallocate old array

  00009	8b 86 7c 03 00
	00		 mov	 eax, DWORD PTR [esi+892]
  0000f	85 c0		 test	 eax, eax
  00011	74 51		 je	 SHORT $LN6@CEffectIns

; 1751 :             _Destroy(_Myfirst, _Mylast);
; 1752 :             _Getal().deallocate(_Myfirst, static_cast<size_type>(_Myend - _Myfirst));

  00013	8b 8e 84 03 00
	00		 mov	 ecx, DWORD PTR [esi+900]
  00019	2b c8		 sub	 ecx, eax
; File D:\visual studio 2019\visual studio 2019\VC\Tools\MSVC\14.29.30133\include\xmemory

; 797  :         _Deallocate<_New_alignof<_Ty>>(_Ptr, sizeof(_Ty) * _Count);

  0001b	83 e1 fc	 and	 ecx, -4			; fffffffcH

; 251  :         if (_Bytes >= _Big_allocation_threshold) { // boost the alignment of big allocations to help autovectorization

  0001e	81 f9 00 10 00
	00		 cmp	 ecx, 4096		; 00001000H
  00024	72 16		 jb	 SHORT $LN22@CEffectIns

; 150  :     const uintptr_t _Ptr_container   = _Ptr_user[-1];

  00026	8b 50 fc	 mov	 edx, DWORD PTR [eax-4]
  00029	83 c1 23	 add	 ecx, 35			; 00000023H

; 151  : 
; 152  :     // If the following asserts, it likely means that we are performing
; 153  :     // an aligned delete on memory coming from an unaligned allocation.
; 154  :     _STL_ASSERT(_Ptr_user[-2] == _Big_allocation_sentinel, "invalid argument");
; 155  : 
; 156  :     // Extra paranoia on aligned allocation/deallocation; ensure _Ptr_container is
; 157  :     // in range [_Min_back_shift, _Non_user_size]
; 158  : #ifdef _DEBUG
; 159  :     constexpr uintptr_t _Min_back_shift = 2 * sizeof(void*);
; 160  : #else // ^^^ _DEBUG ^^^ // vvv !_DEBUG vvv
; 161  :     constexpr uintptr_t _Min_back_shift = sizeof(void*);
; 162  : #endif // _DEBUG
; 163  :     const uintptr_t _Back_shift = reinterpret_cast<uintptr_t>(_Ptr) - _Ptr_container;

  0002c	2b c2		 sub	 eax, edx

; 164  :     _STL_VERIFY(_Back_shift >= _Min_back_shift && _Back_shift <= _Non_user_size, "invalid argument");

  0002e	83 c0 fc	 add	 eax, -4			; fffffffcH
  00031	83 f8 1f	 cmp	 eax, 31			; 0000001fH
  00034	0f 87 e4 00 00
	00		 ja	 $LN68@CEffectIns

; 165  :     _Ptr = reinterpret_cast<void*>(_Ptr_container);

  0003a	8b c2		 mov	 eax, edx
$LN22@CEffectIns:

; 255  :         ::operator delete(_Ptr, _Bytes);

  0003c	51		 push	 ecx
  0003d	50		 push	 eax
  0003e	e8 00 00 00 00	 call	 ??3@YAXPAXI@Z		; operator delete
; File D:\visual studio 2019\visual studio 2019\VC\Tools\MSVC\14.29.30133\include\vector

; 1754 :             _Myfirst = nullptr;

  00043	c7 86 7c 03 00
	00 00 00 00 00	 mov	 DWORD PTR [esi+892], 0
; File D:\visual studio 2019\visual studio 2019\VC\Tools\MSVC\14.29.30133\include\xmemory

; 255  :         ::operator delete(_Ptr, _Bytes);

  0004d	83 c4 08	 add	 esp, 8
; File D:\visual studio 2019\visual studio 2019\VC\Tools\MSVC\14.29.30133\include\vector

; 1755 :             _Mylast  = nullptr;

  00050	c7 86 80 03 00
	00 00 00 00 00	 mov	 DWORD PTR [esi+896], 0

; 1756 :             _Myend   = nullptr;

  0005a	c7 86 84 03 00
	00 00 00 00 00	 mov	 DWORD PTR [esi+900], 0
$LN6@CEffectIns:

; 1750 :         if (_Myfirst) { // destroy and deallocate old array

  00064	8b 86 70 03 00
	00		 mov	 eax, DWORD PTR [esi+880]
  0006a	85 c0		 test	 eax, eax
  0006c	74 51		 je	 SHORT $LN31@CEffectIns

; 1751 :             _Destroy(_Myfirst, _Mylast);
; 1752 :             _Getal().deallocate(_Myfirst, static_cast<size_type>(_Myend - _Myfirst));

  0006e	8b 8e 78 03 00
	00		 mov	 ecx, DWORD PTR [esi+888]
  00074	2b c8		 sub	 ecx, eax
; File D:\visual studio 2019\visual studio 2019\VC\Tools\MSVC\14.29.30133\include\xmemory

; 797  :         _Deallocate<_New_alignof<_Ty>>(_Ptr, sizeof(_Ty) * _Count);

  00076	83 e1 fc	 and	 ecx, -4			; fffffffcH

; 251  :         if (_Bytes >= _Big_allocation_threshold) { // boost the alignment of big allocations to help autovectorization

  00079	81 f9 00 10 00
	00		 cmp	 ecx, 4096		; 00001000H
  0007f	72 16		 jb	 SHORT $LN47@CEffectIns

; 150  :     const uintptr_t _Ptr_container   = _Ptr_user[-1];

  00081	8b 50 fc	 mov	 edx, DWORD PTR [eax-4]
  00084	83 c1 23	 add	 ecx, 35			; 00000023H

; 151  : 
; 152  :     // If the following asserts, it likely means that we are performing
; 153  :     // an aligned delete on memory coming from an unaligned allocation.
; 154  :     _STL_ASSERT(_Ptr_user[-2] == _Big_allocation_sentinel, "invalid argument");
; 155  : 
; 156  :     // Extra paranoia on aligned allocation/deallocation; ensure _Ptr_container is
; 157  :     // in range [_Min_back_shift, _Non_user_size]
; 158  : #ifdef _DEBUG
; 159  :     constexpr uintptr_t _Min_back_shift = 2 * sizeof(void*);
; 160  : #else // ^^^ _DEBUG ^^^ // vvv !_DEBUG vvv
; 161  :     constexpr uintptr_t _Min_back_shift = sizeof(void*);
; 162  : #endif // _DEBUG
; 163  :     const uintptr_t _Back_shift = reinterpret_cast<uintptr_t>(_Ptr) - _Ptr_container;

  00087	2b c2		 sub	 eax, edx

; 164  :     _STL_VERIFY(_Back_shift >= _Min_back_shift && _Back_shift <= _Non_user_size, "invalid argument");

  00089	83 c0 fc	 add	 eax, -4			; fffffffcH
  0008c	83 f8 1f	 cmp	 eax, 31			; 0000001fH
  0008f	0f 87 89 00 00
	00		 ja	 $LN68@CEffectIns

; 165  :     _Ptr = reinterpret_cast<void*>(_Ptr_container);

  00095	8b c2		 mov	 eax, edx
$LN47@CEffectIns:

; 255  :         ::operator delete(_Ptr, _Bytes);

  00097	51		 push	 ecx
  00098	50		 push	 eax
  00099	e8 00 00 00 00	 call	 ??3@YAXPAXI@Z		; operator delete
; File D:\visual studio 2019\visual studio 2019\VC\Tools\MSVC\14.29.30133\include\vector

; 1754 :             _Myfirst = nullptr;

  0009e	c7 86 70 03 00
	00 00 00 00 00	 mov	 DWORD PTR [esi+880], 0
; File D:\visual studio 2019\visual studio 2019\VC\Tools\MSVC\14.29.30133\include\xmemory

; 255  :         ::operator delete(_Ptr, _Bytes);

  000a8	83 c4 08	 add	 esp, 8
; File D:\visual studio 2019\visual studio 2019\VC\Tools\MSVC\14.29.30133\include\vector

; 1755 :             _Mylast  = nullptr;

  000ab	c7 86 74 03 00
	00 00 00 00 00	 mov	 DWORD PTR [esi+884], 0

; 1756 :             _Myend   = nullptr;

  000b5	c7 86 78 03 00
	00 00 00 00 00	 mov	 DWORD PTR [esi+888], 0
$LN31@CEffectIns:

; 1750 :         if (_Myfirst) { // destroy and deallocate old array

  000bf	8b 86 64 03 00
	00		 mov	 eax, DWORD PTR [esi+868]
  000c5	85 c0		 test	 eax, eax
  000c7	74 4d		 je	 SHORT $LN55@CEffectIns

; 1751 :             _Destroy(_Myfirst, _Mylast);
; 1752 :             _Getal().deallocate(_Myfirst, static_cast<size_type>(_Myend - _Myfirst));

  000c9	8b 8e 6c 03 00
	00		 mov	 ecx, DWORD PTR [esi+876]
  000cf	2b c8		 sub	 ecx, eax
; File D:\visual studio 2019\visual studio 2019\VC\Tools\MSVC\14.29.30133\include\xmemory

; 797  :         _Deallocate<_New_alignof<_Ty>>(_Ptr, sizeof(_Ty) * _Count);

  000d1	83 e1 fc	 and	 ecx, -4			; fffffffcH

; 251  :         if (_Bytes >= _Big_allocation_threshold) { // boost the alignment of big allocations to help autovectorization

  000d4	81 f9 00 10 00
	00		 cmp	 ecx, 4096		; 00001000H
  000da	72 12		 jb	 SHORT $LN71@CEffectIns

; 150  :     const uintptr_t _Ptr_container   = _Ptr_user[-1];

  000dc	8b 50 fc	 mov	 edx, DWORD PTR [eax-4]
  000df	83 c1 23	 add	 ecx, 35			; 00000023H

; 151  : 
; 152  :     // If the following asserts, it likely means that we are performing
; 153  :     // an aligned delete on memory coming from an unaligned allocation.
; 154  :     _STL_ASSERT(_Ptr_user[-2] == _Big_allocation_sentinel, "invalid argument");
; 155  : 
; 156  :     // Extra paranoia on aligned allocation/deallocation; ensure _Ptr_container is
; 157  :     // in range [_Min_back_shift, _Non_user_size]
; 158  : #ifdef _DEBUG
; 159  :     constexpr uintptr_t _Min_back_shift = 2 * sizeof(void*);
; 160  : #else // ^^^ _DEBUG ^^^ // vvv !_DEBUG vvv
; 161  :     constexpr uintptr_t _Min_back_shift = sizeof(void*);
; 162  : #endif // _DEBUG
; 163  :     const uintptr_t _Back_shift = reinterpret_cast<uintptr_t>(_Ptr) - _Ptr_container;

  000e2	2b c2		 sub	 eax, edx

; 164  :     _STL_VERIFY(_Back_shift >= _Min_back_shift && _Back_shift <= _Non_user_size, "invalid argument");

  000e4	83 c0 fc	 add	 eax, -4			; fffffffcH
  000e7	83 f8 1f	 cmp	 eax, 31			; 0000001fH
  000ea	77 32		 ja	 SHORT $LN68@CEffectIns

; 165  :     _Ptr = reinterpret_cast<void*>(_Ptr_container);

  000ec	8b c2		 mov	 eax, edx
$LN71@CEffectIns:

; 255  :         ::operator delete(_Ptr, _Bytes);

  000ee	51		 push	 ecx
  000ef	50		 push	 eax
  000f0	e8 00 00 00 00	 call	 ??3@YAXPAXI@Z		; operator delete
; File D:\visual studio 2019\visual studio 2019\VC\Tools\MSVC\14.29.30133\include\vector

; 1754 :             _Myfirst = nullptr;

  000f5	c7 86 64 03 00
	00 00 00 00 00	 mov	 DWORD PTR [esi+868], 0
; File D:\visual studio 2019\visual studio 2019\VC\Tools\MSVC\14.29.30133\include\xmemory

; 255  :         ::operator delete(_Ptr, _Bytes);

  000ff	83 c4 08	 add	 esp, 8
; File D:\visual studio 2019\visual studio 2019\VC\Tools\MSVC\14.29.30133\include\vector

; 1755 :             _Mylast  = nullptr;

  00102	c7 86 68 03 00
	00 00 00 00 00	 mov	 DWORD PTR [esi+872], 0

; 1756 :             _Myend   = nullptr;

  0010c	c7 86 6c 03 00
	00 00 00 00 00	 mov	 DWORD PTR [esi+876], 0
$LN55@CEffectIns:
; File C:\Users\ALEXANDER\Desktop\Cliente\COPY_FISH_WON_NEW\Binario\Client\EffectLib\EffectInstance.cpp

; 326  : }

  00116	8b ce		 mov	 ecx, esi
  00118	5e		 pop	 esi
  00119	e9 00 00 00 00	 jmp	 ??1CGraphicObjectInstance@@UAE@XZ ; CGraphicObjectInstance::~CGraphicObjectInstance
$LN68@CEffectIns:
; File D:\visual studio 2019\visual studio 2019\VC\Tools\MSVC\14.29.30133\include\xmemory

; 164  :     _STL_VERIFY(_Back_shift >= _Min_back_shift && _Back_shift <= _Non_user_size, "invalid argument");

  0011e	e8 00 00 00 00	 call	 __invalid_parameter_noinfo_noreturn
$LN76@CEffectIns:
  00123	cc		 int	 3
??1CEffectInstance@@UAE@XZ ENDP				; CEffectInstance::~CEffectInstance
_TEXT	ENDS
; Function compile flags: /Ogtp
; File C:\Users\ALEXANDER\Desktop\Cliente\COPY_FISH_WON_NEW\Binario\Client\EffectLib\EffectInstance.cpp
; File D:\visual studio 2019\visual studio 2019\VC\Tools\MSVC\14.29.30133\include\vector
; File C:\Users\ALEXANDER\Desktop\Cliente\COPY_FISH_WON_NEW\Binario\Client\EffectLib\EffectInstance.cpp
;	COMDAT ??0CEffectInstance@@QAE@XZ
_TEXT	SEGMENT
_this$ = -4						; size = 4
??0CEffectInstance@@QAE@XZ PROC				; CEffectInstance::CEffectInstance, COMDAT
; _this$ = ecx

; 318  : {

  00000	55		 push	 ebp
  00001	8b ec		 mov	 ebp, esp
  00003	51		 push	 ecx
  00004	56		 push	 esi
  00005	8b f1		 mov	 esi, ecx
  00007	89 75 fc	 mov	 DWORD PTR _this$[ebp], esi
  0000a	e8 00 00 00 00	 call	 ??0CGraphicObjectInstance@@QAE@XZ ; CGraphicObjectInstance::CGraphicObjectInstance
  0000f	c7 06 00 00 00
	00		 mov	 DWORD PTR [esi], OFFSET ??_7CEffectInstance@@6B@

; 319  : 	__Initialize();

  00015	8b ce		 mov	 ecx, esi
; File D:\visual studio 2019\visual studio 2019\VC\Tools\MSVC\14.29.30133\include\vector

; 390  :     _CONSTEXPR20_CONTAINER _Vector_val() noexcept : _Myfirst(), _Mylast(), _Myend() {}

  00017	c7 86 64 03 00
	00 00 00 00 00	 mov	 DWORD PTR [esi+868], 0
  00021	c7 86 68 03 00
	00 00 00 00 00	 mov	 DWORD PTR [esi+872], 0
  0002b	c7 86 6c 03 00
	00 00 00 00 00	 mov	 DWORD PTR [esi+876], 0
  00035	c7 86 70 03 00
	00 00 00 00 00	 mov	 DWORD PTR [esi+880], 0
  0003f	c7 86 74 03 00
	00 00 00 00 00	 mov	 DWORD PTR [esi+884], 0
  00049	c7 86 78 03 00
	00 00 00 00 00	 mov	 DWORD PTR [esi+888], 0
  00053	c7 86 7c 03 00
	00 00 00 00 00	 mov	 DWORD PTR [esi+892], 0
  0005d	c7 86 80 03 00
	00 00 00 00 00	 mov	 DWORD PTR [esi+896], 0
  00067	c7 86 84 03 00
	00 00 00 00 00	 mov	 DWORD PTR [esi+900], 0
; File C:\Users\ALEXANDER\Desktop\Cliente\COPY_FISH_WON_NEW\Binario\Client\EffectLib\EffectInstance.cpp

; 319  : 	__Initialize();

  00071	e8 00 00 00 00	 call	 ?__Initialize@CEffectInstance@@IAEXXZ ; CEffectInstance::__Initialize

; 320  : }

  00076	8b c6		 mov	 eax, esi
  00078	5e		 pop	 esi
  00079	8b e5		 mov	 esp, ebp
  0007b	5d		 pop	 ebp
  0007c	c3		 ret	 0
??0CEffectInstance@@QAE@XZ ENDP				; CEffectInstance::CEffectInstance
_TEXT	ENDS
; Function compile flags: /Ogtp
; File C:\Users\ALEXANDER\Desktop\Cliente\COPY_FISH_WON_NEW\Binario\Client\EffectLib\EffectInstance.cpp
;	COMDAT ?GetRenderingEffectCount@CEffectInstance@@SAHXZ
_TEXT	SEGMENT
?GetRenderingEffectCount@CEffectInstance@@SAHXZ PROC	; CEffectInstance::GetRenderingEffectCount, COMDAT

; 25   : 	return ms_iRenderingEffectCount;

  00000	a1 00 00 00 00	 mov	 eax, DWORD PTR ?ms_iRenderingEffectCount@CEffectInstance@@2HA ; CEffectInstance::ms_iRenderingEffectCount

; 26   : }

  00005	c3		 ret	 0
?GetRenderingEffectCount@CEffectInstance@@SAHXZ ENDP	; CEffectInstance::GetRenderingEffectCount
_TEXT	ENDS
; Function compile flags: /Ogtp
; File C:\Users\ALEXANDER\Desktop\Cliente\COPY_FISH_WON_NEW\Binario\Client\EffectLib\EffectInstance.cpp
;	COMDAT ?ResetRenderingEffectCount@CEffectInstance@@SAXXZ
_TEXT	SEGMENT
?ResetRenderingEffectCount@CEffectInstance@@SAXXZ PROC	; CEffectInstance::ResetRenderingEffectCount, COMDAT

; 20   : 	ms_iRenderingEffectCount = 0;

  00000	c7 05 00 00 00
	00 00 00 00 00	 mov	 DWORD PTR ?ms_iRenderingEffectCount@CEffectInstance@@2HA, 0 ; CEffectInstance::ms_iRenderingEffectCount

; 21   : }

  0000a	c3		 ret	 0
?ResetRenderingEffectCount@CEffectInstance@@SAXXZ ENDP	; CEffectInstance::ResetRenderingEffectCount
_TEXT	ENDS
; Function compile flags: /Ogtp
; File C:\Users\ALEXANDER\Desktop\Cliente\COPY_FISH_WON_NEW\Binario\Client\EffectLib\EffectInstance.cpp
; File D:\visual studio 2019\visual studio 2019\VC\Tools\MSVC\14.29.30133\include\vector
; File C:\Users\ALEXANDER\Desktop\Cliente\COPY_FISH_WON_NEW\Binario\Client\EffectLib\EffectInstance.cpp
; File D:\visual studio 2019\visual studio 2019\VC\Tools\MSVC\14.29.30133\include\vector
; File C:\Users\ALEXANDER\Desktop\Cliente\COPY_FISH_WON_NEW\Binario\Client\EffectLib\EffectInstance.cpp
; File D:\visual studio 2019\visual studio 2019\VC\Tools\MSVC\14.29.30133\include\vector
; File C:\Users\ALEXANDER\Desktop\Cliente\COPY_FISH_WON_NEW\Binario\Client\EffectLib\EffectInstance.cpp
;	COMDAT ?Delete@CEffectInstance@@SAXPAV1@@Z
_TEXT	SEGMENT
_pkData$ = 8						; size = 4
_pkEftInst$ = 8						; size = 4
?Delete@CEffectInstance@@SAXPAV1@@Z PROC		; CEffectInstance::Delete, COMDAT

; 35   : {

  00000	55		 push	 ebp
  00001	8b ec		 mov	 ebp, esp
  00003	56		 push	 esi

; 36   : 	pkEftInst->Clear();

  00004	8b 75 08	 mov	 esi, DWORD PTR _pkEftInst$[ebp]
  00007	8b ce		 mov	 ecx, esi
  00009	e8 00 00 00 00	 call	 ?Clear@CEffectInstance@@QAEXXZ ; CEffectInstance::Clear
; File D:\visual studio 2019\visual studio 2019\VC\Tools\MSVC\14.29.30133\include\vector

; 730  :         if (_Mylast != _My_data._Myend) {

  0000e	a1 14 00 00 00	 mov	 eax, DWORD PTR ?ms_kPool@CEffectInstance@@2V?$CDynamicPool@VCEffectInstance@@@@A+20
; File C:\Users\ALEXANDER\Desktop\Cliente\COPY_FISH_WON_NEW\Binario\Client\EffectLib\EffectInstance.cpp

; 37   : 	ms_kPool.Free(pkEftInst);

  00013	89 75 08	 mov	 DWORD PTR _pkData$[ebp], esi
; File D:\visual studio 2019\visual studio 2019\VC\Tools\MSVC\14.29.30133\include\vector

; 730  :         if (_Mylast != _My_data._Myend) {

  00016	3b 05 18 00 00
	00		 cmp	 eax, DWORD PTR ?ms_kPool@CEffectInstance@@2V?$CDynamicPool@VCEffectInstance@@@@A+24
  0001c	74 0c		 je	 SHORT $LN8@Delete

; 713  :         _Alty_traits::construct(_Getal(), _Unfancy(_Mylast), _STD forward<_Valty>(_Val)...);

  0001e	89 30		 mov	 DWORD PTR [eax], esi

; 714  :         _Orphan_range(_Mylast, _Mylast);
; 715  :         _Ty& _Result = *_Mylast;
; 716  :         ++_Mylast;

  00020	83 05 14 00 00
	00 04		 add	 DWORD PTR ?ms_kPool@CEffectInstance@@2V?$CDynamicPool@VCEffectInstance@@@@A+20, 4
  00027	5e		 pop	 esi
; File C:\Users\ALEXANDER\Desktop\Cliente\COPY_FISH_WON_NEW\Binario\Client\EffectLib\EffectInstance.cpp

; 38   : }

  00028	5d		 pop	 ebp
  00029	c3		 ret	 0
$LN8@Delete:
; File D:\visual studio 2019\visual studio 2019\VC\Tools\MSVC\14.29.30133\include\vector

; 734  :         _Ty& _Result = *_Emplace_reallocate(_Mylast, _STD forward<_Valty>(_Val)...);

  0002a	8d 4d 08	 lea	 ecx, DWORD PTR _pkData$[ebp]
  0002d	51		 push	 ecx
  0002e	50		 push	 eax
  0002f	b9 10 00 00 00	 mov	 ecx, OFFSET ?ms_kPool@CEffectInstance@@2V?$CDynamicPool@VCEffectInstance@@@@A+16
  00034	e8 00 00 00 00	 call	 ??$_Emplace_reallocate@ABQAVCEffectInstance@@@?$vector@PAVCEffectInstance@@V?$allocator@PAVCEffectInstance@@@std@@@std@@QAEPAPAVCEffectInstance@@QAPAV2@ABQAV2@@Z ; std::vector<CEffectInstance *,std::allocator<CEffectInstance *> >::_Emplace_reallocate<CEffectInstance * const &>
  00039	5e		 pop	 esi
; File C:\Users\ALEXANDER\Desktop\Cliente\COPY_FISH_WON_NEW\Binario\Client\EffectLib\EffectInstance.cpp

; 38   : }

  0003a	5d		 pop	 ebp
  0003b	c3		 ret	 0
?Delete@CEffectInstance@@SAXPAV1@@Z ENDP		; CEffectInstance::Delete
_TEXT	ENDS
; Function compile flags: /Ogtp
; File C:\Users\ALEXANDER\Desktop\Cliente\COPY_FISH_WON_NEW\Binario\Client\EffectLib\EffectInstance.cpp
; File C:\Users\ALEXANDER\Desktop\Cliente\COPY_FISH_WON_NEW\Binario\Client\eterLib\Pool.h
; File D:\visual studio 2019\visual studio 2019\VC\Tools\MSVC\14.29.30133\include\vector
; File C:\Users\ALEXANDER\Desktop\Cliente\COPY_FISH_WON_NEW\Binario\Client\eterLib\Pool.h
; File D:\visual studio 2019\visual studio 2019\VC\Tools\MSVC\14.29.30133\include\vector
; File C:\Users\ALEXANDER\Desktop\Cliente\COPY_FISH_WON_NEW\Binario\Client\EffectLib\EffectInstance.cpp
; File D:\visual studio 2019\visual studio 2019\VC\Tools\MSVC\14.29.30133\include\vector
; File C:\Users\ALEXANDER\Desktop\Cliente\COPY_FISH_WON_NEW\Binario\Client\eterLib\Pool.h
; File C:\Users\ALEXANDER\Desktop\Cliente\COPY_FISH_WON_NEW\Binario\Client\EffectLib\EffectInstance.cpp
; File D:\visual studio 2019\visual studio 2019\VC\Tools\MSVC\14.29.30133\include\vector
; File C:\Users\ALEXANDER\Desktop\Cliente\COPY_FISH_WON_NEW\Binario\Client\eterLib\Pool.h
; File C:\Users\ALEXANDER\Desktop\Cliente\COPY_FISH_WON_NEW\Binario\Client\EffectLib\EffectInstance.cpp
; File C:\Users\ALEXANDER\Desktop\Cliente\COPY_FISH_WON_NEW\Binario\Client\eterLib\Pool.h
; File D:\visual studio 2019\visual studio 2019\VC\Tools\MSVC\14.29.30133\include\vector
; File C:\Users\ALEXANDER\Desktop\Cliente\COPY_FISH_WON_NEW\Binario\Client\EffectLib\EffectInstance.cpp
;	COMDAT ?New@CEffectInstance@@SAPAV1@XZ
_TEXT	SEGMENT
$T2 = -16						; size = 4
_pkNewData$3 = -16					; size = 4
__$EHRec$ = -12						; size = 12
?New@CEffectInstance@@SAPAV1@XZ PROC			; CEffectInstance::New, COMDAT

; 29   : {

  00000	55		 push	 ebp
  00001	8b ec		 mov	 ebp, esp
  00003	6a ff		 push	 -1
  00005	68 00 00 00 00	 push	 __ehhandler$?New@CEffectInstance@@SAPAV1@XZ
  0000a	64 a1 00 00 00
	00		 mov	 eax, DWORD PTR fs:0
  00010	50		 push	 eax
  00011	51		 push	 ecx
  00012	56		 push	 esi
  00013	a1 00 00 00 00	 mov	 eax, DWORD PTR ___security_cookie
  00018	33 c5		 xor	 eax, ebp
  0001a	50		 push	 eax
  0001b	8d 45 f4	 lea	 eax, DWORD PTR __$EHRec$[ebp]
  0001e	64 a3 00 00 00
	00		 mov	 DWORD PTR fs:0, eax
; File C:\Users\ALEXANDER\Desktop\Cliente\COPY_FISH_WON_NEW\Binario\Client\eterLib\Pool.h

; 63   : 			if (m_kVct_pkFree.empty())

  00024	8b 0d 14 00 00
	00		 mov	 ecx, DWORD PTR ?ms_kPool@CEffectInstance@@2V?$CDynamicPool@VCEffectInstance@@@@A+20
  0002a	39 0d 10 00 00
	00		 cmp	 DWORD PTR ?ms_kPool@CEffectInstance@@2V?$CDynamicPool@VCEffectInstance@@@@A+16, ecx
  00030	0f 85 87 00 00
	00		 jne	 $LN4@New

; 65   : 				T* pkNewData=new T;

  00036	68 b0 03 00 00	 push	 944			; 000003b0H
  0003b	e8 00 00 00 00	 call	 ??2@YAPAXI@Z		; operator new
  00040	83 c4 04	 add	 esp, 4
  00043	89 45 f0	 mov	 DWORD PTR $T2[ebp], eax
  00046	c7 45 fc 00 00
	00 00		 mov	 DWORD PTR __$EHRec$[ebp+8], 0
  0004d	85 c0		 test	 eax, eax
  0004f	74 0b		 je	 SHORT $LN6@New
  00051	8b c8		 mov	 ecx, eax
  00053	e8 00 00 00 00	 call	 ??0CEffectInstance@@QAE@XZ ; CEffectInstance::CEffectInstance
  00058	8b f0		 mov	 esi, eax
  0005a	eb 02		 jmp	 SHORT $LN7@New
$LN6@New:
  0005c	33 f6		 xor	 esi, esi
$LN7@New:
; File D:\visual studio 2019\visual studio 2019\VC\Tools\MSVC\14.29.30133\include\vector

; 730  :         if (_Mylast != _My_data._Myend) {

  0005e	a1 08 00 00 00	 mov	 eax, DWORD PTR ?ms_kPool@CEffectInstance@@2V?$CDynamicPool@VCEffectInstance@@@@A+8
; File C:\Users\ALEXANDER\Desktop\Cliente\COPY_FISH_WON_NEW\Binario\Client\eterLib\Pool.h

; 65   : 				T* pkNewData=new T;

  00063	c7 45 fc ff ff
	ff ff		 mov	 DWORD PTR __$EHRec$[ebp+8], -1
  0006a	89 75 f0	 mov	 DWORD PTR _pkNewData$3[ebp], esi
; File D:\visual studio 2019\visual studio 2019\VC\Tools\MSVC\14.29.30133\include\vector

; 730  :         if (_Mylast != _My_data._Myend) {

  0006d	3b 05 0c 00 00
	00		 cmp	 eax, DWORD PTR ?ms_kPool@CEffectInstance@@2V?$CDynamicPool@VCEffectInstance@@@@A+12
  00073	74 21		 je	 SHORT $LN14@New

; 713  :         _Alty_traits::construct(_Getal(), _Unfancy(_Mylast), _STD forward<_Valty>(_Val)...);

  00075	89 30		 mov	 DWORD PTR [eax], esi
; File C:\Users\ALEXANDER\Desktop\Cliente\COPY_FISH_WON_NEW\Binario\Client\EffectLib\EffectInstance.cpp

; 31   : 	return pkEftInst;

  00077	8b c6		 mov	 eax, esi
; File D:\visual studio 2019\visual studio 2019\VC\Tools\MSVC\14.29.30133\include\vector

; 716  :         ++_Mylast;

  00079	83 05 08 00 00
	00 04		 add	 DWORD PTR ?ms_kPool@CEffectInstance@@2V?$CDynamicPool@VCEffectInstance@@@@A+8, 4
; File C:\Users\ALEXANDER\Desktop\Cliente\COPY_FISH_WON_NEW\Binario\Client\eterLib\Pool.h

; 67   : 				++m_uUsedCapacity;

  00080	ff 05 20 00 00
	00		 inc	 DWORD PTR ?ms_kPool@CEffectInstance@@2V?$CDynamicPool@VCEffectInstance@@@@A+32
; File C:\Users\ALEXANDER\Desktop\Cliente\COPY_FISH_WON_NEW\Binario\Client\EffectLib\EffectInstance.cpp

; 32   : }

  00086	8b 4d f4	 mov	 ecx, DWORD PTR __$EHRec$[ebp]
  00089	64 89 0d 00 00
	00 00		 mov	 DWORD PTR fs:0, ecx
  00090	59		 pop	 ecx
  00091	5e		 pop	 esi
  00092	8b e5		 mov	 esp, ebp
  00094	5d		 pop	 ebp
  00095	c3		 ret	 0
$LN14@New:
; File D:\visual studio 2019\visual studio 2019\VC\Tools\MSVC\14.29.30133\include\vector

; 734  :         _Ty& _Result = *_Emplace_reallocate(_Mylast, _STD forward<_Valty>(_Val)...);

  00096	8d 4d f0	 lea	 ecx, DWORD PTR _pkNewData$3[ebp]
  00099	51		 push	 ecx
  0009a	50		 push	 eax
  0009b	b9 04 00 00 00	 mov	 ecx, OFFSET ?ms_kPool@CEffectInstance@@2V?$CDynamicPool@VCEffectInstance@@@@A+4
  000a0	e8 00 00 00 00	 call	 ??$_Emplace_reallocate@ABQAVCEffectInstance@@@?$vector@PAVCEffectInstance@@V?$allocator@PAVCEffectInstance@@@std@@@std@@QAEPAPAVCEffectInstance@@QAPAV2@ABQAV2@@Z ; std::vector<CEffectInstance *,std::allocator<CEffectInstance *> >::_Emplace_reallocate<CEffectInstance * const &>
; File C:\Users\ALEXANDER\Desktop\Cliente\COPY_FISH_WON_NEW\Binario\Client\eterLib\Pool.h

; 67   : 				++m_uUsedCapacity;

  000a5	ff 05 20 00 00
	00		 inc	 DWORD PTR ?ms_kPool@CEffectInstance@@2V?$CDynamicPool@VCEffectInstance@@@@A+32
; File C:\Users\ALEXANDER\Desktop\Cliente\COPY_FISH_WON_NEW\Binario\Client\EffectLib\EffectInstance.cpp

; 31   : 	return pkEftInst;

  000ab	8b c6		 mov	 eax, esi

; 32   : }

  000ad	8b 4d f4	 mov	 ecx, DWORD PTR __$EHRec$[ebp]
  000b0	64 89 0d 00 00
	00 00		 mov	 DWORD PTR fs:0, ecx
  000b7	59		 pop	 ecx
  000b8	5e		 pop	 esi
  000b9	8b e5		 mov	 esp, ebp
  000bb	5d		 pop	 ebp
  000bc	c3		 ret	 0
$LN4@New:
; File C:\Users\ALEXANDER\Desktop\Cliente\COPY_FISH_WON_NEW\Binario\Client\eterLib\Pool.h

; 71   : 			T* pkFreeData=m_kVct_pkFree.back();

  000bd	8b 41 fc	 mov	 eax, DWORD PTR [ecx-4]
; File D:\visual studio 2019\visual studio 2019\VC\Tools\MSVC\14.29.30133\include\vector

; 1611 :         return _My_data._Mylast[-1];

  000c0	83 c1 fc	 add	 ecx, -4			; fffffffcH

; 1390 :         --_Mylast;

  000c3	89 0d 14 00 00
	00		 mov	 DWORD PTR ?ms_kPool@CEffectInstance@@2V?$CDynamicPool@VCEffectInstance@@@@A+20, ecx
; File C:\Users\ALEXANDER\Desktop\Cliente\COPY_FISH_WON_NEW\Binario\Client\EffectLib\EffectInstance.cpp

; 32   : }

  000c9	8b 4d f4	 mov	 ecx, DWORD PTR __$EHRec$[ebp]
  000cc	64 89 0d 00 00
	00 00		 mov	 DWORD PTR fs:0, ecx
  000d3	59		 pop	 ecx
  000d4	5e		 pop	 esi
  000d5	8b e5		 mov	 esp, ebp
  000d7	5d		 pop	 ebp
  000d8	c3		 ret	 0
_TEXT	ENDS
;	COMDAT text$x
text$x	SEGMENT
__unwindfunclet$?New@CEffectInstance@@SAPAV1@XZ$0:
  00000	68 b0 03 00 00	 push	 944			; 000003b0H
  00005	8b 45 f0	 mov	 eax, DWORD PTR $T2[ebp]
  00008	50		 push	 eax
  00009	e8 00 00 00 00	 call	 ??3@YAXPAXI@Z		; operator delete
  0000e	83 c4 08	 add	 esp, 8
  00011	c3		 ret	 0
  00012	cc		 int	 3
  00013	cc		 int	 3
  00014	cc		 int	 3
  00015	cc		 int	 3
  00016	cc		 int	 3
__ehhandler$?New@CEffectInstance@@SAPAV1@XZ:
  00017	90		 npad	 1
  00018	90		 npad	 1
  00019	8b 54 24 08	 mov	 edx, DWORD PTR [esp+8]
  0001d	8d 42 0c	 lea	 eax, DWORD PTR [edx+12]
  00020	8b 4a f4	 mov	 ecx, DWORD PTR [edx-12]
  00023	33 c8		 xor	 ecx, eax
  00025	e8 00 00 00 00	 call	 @__security_check_cookie@4
  0002a	b8 00 00 00 00	 mov	 eax, OFFSET __ehfuncinfo$?New@CEffectInstance@@SAPAV1@XZ
  0002f	e9 00 00 00 00	 jmp	 ___CxxFrameHandler3
text$x	ENDS
?New@CEffectInstance@@SAPAV1@XZ ENDP			; CEffectInstance::New
; Function compile flags: /Ogtp
; File C:\Users\ALEXANDER\Desktop\Cliente\COPY_FISH_WON_NEW\Binario\Client\EffectLib\EffectInstance.cpp
; File D:\visual studio 2019\visual studio 2019\VC\Tools\MSVC\14.29.30133\include\algorithm
; File C:\Users\ALEXANDER\Desktop\Cliente\COPY_FISH_WON_NEW\Binario\Client\EffectLib\EffectInstance.cpp
; File D:\visual studio 2019\visual studio 2019\VC\Tools\MSVC\14.29.30133\include\algorithm
; File C:\Users\ALEXANDER\Desktop\Cliente\COPY_FISH_WON_NEW\Binario\Client\eterLib\Pool.h
; File D:\visual studio 2019\visual studio 2019\VC\Tools\MSVC\14.29.30133\include\algorithm
; File C:\Users\ALEXANDER\Desktop\Cliente\COPY_FISH_WON_NEW\Binario\Client\eterLib\Pool.h
; File C:\Users\ALEXANDER\Desktop\Cliente\COPY_FISH_WON_NEW\Binario\Client\EffectLib\EffectInstance.cpp
;	COMDAT ?DestroySystem@CEffectInstance@@SAXXZ
_TEXT	SEGMENT
?DestroySystem@CEffectInstance@@SAXXZ PROC		; CEffectInstance::DestroySystem, COMDAT

; 41   : {

  00000	56		 push	 esi
; File D:\visual studio 2019\visual studio 2019\VC\Tools\MSVC\14.29.30133\include\algorithm

; 232  :     for (; _UFirst != _ULast; ++_UFirst) {

  00001	8b 35 04 00 00
	00		 mov	 esi, DWORD PTR ?ms_kPool@CEffectInstance@@2V?$CDynamicPool@VCEffectInstance@@@@A+4
; File C:\Users\ALEXANDER\Desktop\Cliente\COPY_FISH_WON_NEW\Binario\Client\EffectLib\EffectInstance.cpp

; 41   : {

  00007	57		 push	 edi
; File D:\visual studio 2019\visual studio 2019\VC\Tools\MSVC\14.29.30133\include\algorithm

; 231  :     const auto _ULast = _Get_unwrapped(_Last);

  00008	8b 3d 08 00 00
	00		 mov	 edi, DWORD PTR ?ms_kPool@CEffectInstance@@2V?$CDynamicPool@VCEffectInstance@@@@A+8

; 232  :     for (; _UFirst != _ULast; ++_UFirst) {

  0000e	3b f7		 cmp	 esi, edi
  00010	74 19		 je	 SHORT $LN19@DestroySys
$LL20@DestroySys:
; File C:\Users\ALEXANDER\Desktop\Cliente\COPY_FISH_WON_NEW\Binario\Client\eterLib\Pool.h

; 110  : 			delete pkData;

  00012	8b 0e		 mov	 ecx, DWORD PTR [esi]
  00014	85 c9		 test	 ecx, ecx
  00016	74 06		 je	 SHORT $LN18@DestroySys
  00018	8b 01		 mov	 eax, DWORD PTR [ecx]
  0001a	6a 01		 push	 1
  0001c	ff 10		 call	 DWORD PTR [eax]
$LN18@DestroySys:
; File D:\visual studio 2019\visual studio 2019\VC\Tools\MSVC\14.29.30133\include\algorithm

; 232  :     for (; _UFirst != _ULast; ++_UFirst) {

  0001e	83 c6 04	 add	 esi, 4
  00021	3b f7		 cmp	 esi, edi
  00023	75 ed		 jne	 SHORT $LL20@DestroySys
  00025	8b 35 04 00 00
	00		 mov	 esi, DWORD PTR ?ms_kPool@CEffectInstance@@2V?$CDynamicPool@VCEffectInstance@@@@A+4
$LN19@DestroySys:
; File C:\Users\ALEXANDER\Desktop\Cliente\COPY_FISH_WON_NEW\Binario\Client\eterLib\Pool.h

; 52   : 			m_kVct_pkFree.clear();

  0002b	a1 10 00 00 00	 mov	 eax, DWORD PTR ?ms_kPool@CEffectInstance@@2V?$CDynamicPool@VCEffectInstance@@@@A+16
  00030	89 35 08 00 00
	00		 mov	 DWORD PTR ?ms_kPool@CEffectInstance@@2V?$CDynamicPool@VCEffectInstance@@@@A+8, esi
  00036	a3 14 00 00 00	 mov	 DWORD PTR ?ms_kPool@CEffectInstance@@2V?$CDynamicPool@VCEffectInstance@@@@A+20, eax
; File C:\Users\ALEXANDER\Desktop\Cliente\COPY_FISH_WON_NEW\Binario\Client\EffectLib\EffectInstance.cpp

; 44   : 	CParticleSystemInstance::DestroySystem();

  0003b	e8 00 00 00 00	 call	 ?DestroySystem@CParticleSystemInstance@@SAXXZ ; CParticleSystemInstance::DestroySystem

; 45   : 	CEffectMeshInstance::DestroySystem();

  00040	e8 00 00 00 00	 call	 ?DestroySystem@CEffectMeshInstance@@SAXXZ ; CEffectMeshInstance::DestroySystem

; 46   : 	CLightInstance::DestroySystem();

  00045	5f		 pop	 edi
  00046	5e		 pop	 esi
  00047	e9 00 00 00 00	 jmp	 ?DestroySystem@CLightInstance@@SAXXZ ; CLightInstance::DestroySystem
?DestroySystem@CEffectInstance@@SAXXZ ENDP		; CEffectInstance::DestroySystem
_TEXT	ENDS
; Function compile flags: /Ogtp
; File C:\Users\ALEXANDER\Desktop\Cliente\COPY_FISH_WON_NEW\Binario\Client\EffectLib\EffectInstance.cpp
;	COMDAT ?GetBoundingSphere@CEffectInstance@@UAE_NAAUD3DXVECTOR3@@AAM@Z
_TEXT	SEGMENT
_v3Center$ = 8						; size = 4
_fRadius$ = 12						; size = 4
?GetBoundingSphere@CEffectInstance@@UAE_NAAUD3DXVECTOR3@@AAM@Z PROC ; CEffectInstance::GetBoundingSphere, COMDAT
; _this$ = ecx

; 271  : {

  00000	55		 push	 ebp
  00001	8b ec		 mov	 ebp, esp

; 272  : 	v3Center.x = m_matGlobal._41 + m_v3BoundingSpherePosition.x;

  00003	f3 0f 10 81 90
	03 00 00	 movss	 xmm0, DWORD PTR [ecx+912]
  0000b	f3 0f 58 81 50
	03 00 00	 addss	 xmm0, DWORD PTR [ecx+848]
  00013	8b 45 08	 mov	 eax, DWORD PTR _v3Center$[ebp]
  00016	f3 0f 11 00	 movss	 DWORD PTR [eax], xmm0

; 273  : 	v3Center.y = m_matGlobal._42 + m_v3BoundingSpherePosition.y;

  0001a	f3 0f 10 81 94
	03 00 00	 movss	 xmm0, DWORD PTR [ecx+916]
  00022	f3 0f 58 81 54
	03 00 00	 addss	 xmm0, DWORD PTR [ecx+852]
  0002a	f3 0f 11 40 04	 movss	 DWORD PTR [eax+4], xmm0

; 274  : 	v3Center.z = m_matGlobal._43 + m_v3BoundingSpherePosition.z;

  0002f	f3 0f 10 81 98
	03 00 00	 movss	 xmm0, DWORD PTR [ecx+920]
  00037	f3 0f 58 81 58
	03 00 00	 addss	 xmm0, DWORD PTR [ecx+856]
  0003f	f3 0f 11 40 08	 movss	 DWORD PTR [eax+8], xmm0

; 275  : 	fRadius = m_fBoundingSphereRadius;

  00044	8b 45 0c	 mov	 eax, DWORD PTR _fRadius$[ebp]
  00047	8b 89 8c 03 00
	00		 mov	 ecx, DWORD PTR [ecx+908]
  0004d	89 08		 mov	 DWORD PTR [eax], ecx

; 276  : 	return true;

  0004f	b0 01		 mov	 al, 1

; 277  : }

  00051	5d		 pop	 ebp
  00052	c2 08 00	 ret	 8
?GetBoundingSphere@CEffectInstance@@UAE_NAAUD3DXVECTOR3@@AAM@Z ENDP ; CEffectInstance::GetBoundingSphere
_TEXT	ENDS
; Function compile flags: /Ogtp
; File C:\Users\ALEXANDER\Desktop\Cliente\COPY_FISH_WON_NEW\Binario\Client\EffectLib\EffectInstance.h
;	COMDAT ?GetType@CEffectInstance@@UBEHXZ
_TEXT	SEGMENT
?GetType@CEffectInstance@@UBEHXZ PROC			; CEffectInstance::GetType, COMDAT
; _this$ = ecx

; 24   : 			return CEffectInstance::ID;

  00000	b8 c6 97 fa 1c	 mov	 eax, 486184902		; 1cfa97c6H

; 25   : 		}

  00005	c3		 ret	 0
?GetType@CEffectInstance@@UBEHXZ ENDP			; CEffectInstance::GetType
_TEXT	ENDS
; Function compile flags: /Ogtp
; File C:\Users\ALEXANDER\Desktop\Cliente\COPY_FISH_WON_NEW\Binario\Client\eterlib\GrpObjectInstance.h
;	COMDAT ?OnDeform@CGraphicObjectInstance@@UAEXXZ
_TEXT	SEGMENT
?OnDeform@CGraphicObjectInstance@@UAEXXZ PROC		; CGraphicObjectInstance::OnDeform, COMDAT
; _this$ = ecx

; 104  : 		virtual void			OnDeform(){}

  00000	c2 00 00	 ret	 0
?OnDeform@CGraphicObjectInstance@@UAEXXZ ENDP		; CGraphicObjectInstance::OnDeform
_TEXT	ENDS
; Function compile flags: /Ogtp
; File C:\Users\ALEXANDER\Desktop\Cliente\COPY_FISH_WON_NEW\Binario\Client\eterlib\GrpObjectInstance.h
;	COMDAT ?OnClear@CGraphicObjectInstance@@UAEXXZ
_TEXT	SEGMENT
?OnClear@CGraphicObjectInstance@@UAEXXZ PROC		; CGraphicObjectInstance::OnClear, COMDAT
; _this$ = ecx

; 102  : 		virtual void			OnClear(){}

  00000	c2 00 00	 ret	 0
?OnClear@CGraphicObjectInstance@@UAEXXZ ENDP		; CGraphicObjectInstance::OnClear
_TEXT	ENDS
; Function compile flags: /Ogtp
; File D:\visual studio 2019\visual studio 2019\VC\Tools\MSVC\14.29.30133\include\xmemory
;	COMDAT ??$_Allocate_manually_vector_aligned@U_Default_allocate_traits@std@@@std@@YAPAXI@Z
_TEXT	SEGMENT
__Bytes$ = 8						; size = 4
??$_Allocate_manually_vector_aligned@U_Default_allocate_traits@std@@@std@@YAPAXI@Z PROC ; std::_Allocate_manually_vector_aligned<std::_Default_allocate_traits>, COMDAT

; 127  : __declspec(allocator) void* _Allocate_manually_vector_aligned(const size_t _Bytes) {

  00000	55		 push	 ebp
  00001	8b ec		 mov	 ebp, esp

; 128  :     // allocate _Bytes manually aligned to at least _Big_allocation_alignment
; 129  :     const size_t _Block_size = _Non_user_size + _Bytes;

  00003	8b 45 08	 mov	 eax, DWORD PTR __Bytes$[ebp]
  00006	8d 48 23	 lea	 ecx, DWORD PTR [eax+35]

; 130  :     if (_Block_size <= _Bytes) {

  00009	3b c8		 cmp	 ecx, eax
  0000b	0f 86 00 00 00
	00		 jbe	 ?_Throw_bad_array_new_length@std@@YAXXZ ; std::_Throw_bad_array_new_length

; 79   :         return ::operator new(_Bytes);

  00011	51		 push	 ecx
  00012	e8 00 00 00 00	 call	 ??2@YAPAXI@Z		; operator new

; 131  :         _Throw_bad_array_new_length(); // add overflow
; 132  :     }
; 133  : 
; 134  :     const uintptr_t _Ptr_container = reinterpret_cast<uintptr_t>(_Traits::_Allocate(_Block_size));

  00017	8b c8		 mov	 ecx, eax

; 79   :         return ::operator new(_Bytes);

  00019	83 c4 04	 add	 esp, 4

; 135  :     _STL_VERIFY(_Ptr_container != 0, "invalid argument"); // validate even in release since we're doing p[-1]

  0001c	85 c9		 test	 ecx, ecx
  0001e	74 0b		 je	 SHORT $LN7@Allocate_m

; 136  :     void* const _Ptr = reinterpret_cast<void*>((_Ptr_container + _Non_user_size) & ~(_Big_allocation_alignment - 1));

  00020	8d 41 23	 lea	 eax, DWORD PTR [ecx+35]
  00023	83 e0 e0	 and	 eax, -32		; ffffffe0H

; 137  :     static_cast<uintptr_t*>(_Ptr)[-1] = _Ptr_container;

  00026	89 48 fc	 mov	 DWORD PTR [eax-4], ecx

; 138  : 
; 139  : #ifdef _DEBUG
; 140  :     static_cast<uintptr_t*>(_Ptr)[-2] = _Big_allocation_sentinel;
; 141  : #endif // _DEBUG
; 142  :     return _Ptr;
; 143  : }

  00029	5d		 pop	 ebp
  0002a	c3		 ret	 0
$LN7@Allocate_m:

; 135  :     _STL_VERIFY(_Ptr_container != 0, "invalid argument"); // validate even in release since we're doing p[-1]

  0002b	e9 00 00 00 00	 jmp	 __invalid_parameter_noinfo_noreturn
??$_Allocate_manually_vector_aligned@U_Default_allocate_traits@std@@@std@@YAPAXI@Z ENDP ; std::_Allocate_manually_vector_aligned<std::_Default_allocate_traits>
_TEXT	ENDS
; Function compile flags: /Ogtp
; File C:\Users\ALEXANDER\Desktop\Cliente\COPY_FISH_WON_NEW\Binario\extern\include\d3dx8math.h
;	COMDAT ??0D3DXMATRIX@@QAE@XZ
_TEXT	SEGMENT
??0D3DXMATRIX@@QAE@XZ PROC				; D3DXMATRIX::D3DXMATRIX, COMDAT
; _this$ = ecx

; 177  :     D3DXMATRIX() {};

  00000	8b c1		 mov	 eax, ecx
  00002	c3		 ret	 0
??0D3DXMATRIX@@QAE@XZ ENDP				; D3DXMATRIX::D3DXMATRIX
_TEXT	ENDS
; Function compile flags: /Ogtp
; File D:\visual studio 2019\visual studio 2019\VC\Tools\MSVC\14.29.30133\include\exception
;	COMDAT ?_Throw_bad_array_new_length@std@@YAXXZ
_TEXT	SEGMENT
$T1 = -12						; size = 12
?_Throw_bad_array_new_length@std@@YAXXZ PROC		; std::_Throw_bad_array_new_length, COMDAT

; 315  : [[noreturn]] inline void _Throw_bad_array_new_length() {

  00000	55		 push	 ebp
  00001	8b ec		 mov	 ebp, esp
  00003	83 ec 0c	 sub	 esp, 12			; 0000000cH

; 316  :     _THROW(bad_array_new_length{});

  00006	8d 4d f4	 lea	 ecx, DWORD PTR $T1[ebp]
  00009	e8 00 00 00 00	 call	 ??0bad_array_new_length@std@@QAE@XZ ; std::bad_array_new_length::bad_array_new_length
  0000e	68 00 00 00 00	 push	 OFFSET __TI3?AVbad_array_new_length@std@@
  00013	8d 45 f4	 lea	 eax, DWORD PTR $T1[ebp]
  00016	50		 push	 eax
  00017	e8 00 00 00 00	 call	 __CxxThrowException@8
$LN3@Throw_bad_:
  0001c	cc		 int	 3
?_Throw_bad_array_new_length@std@@YAXXZ ENDP		; std::_Throw_bad_array_new_length
_TEXT	ENDS
; Function compile flags: /Ogtp
; File D:\visual studio 2019\visual studio 2019\VC\Tools\MSVC\14.29.30133\include\vcruntime_exception.h
;	COMDAT ??_Gbad_array_new_length@std@@UAEPAXI@Z
_TEXT	SEGMENT
___flags$ = 8						; size = 4
??_Gbad_array_new_length@std@@UAEPAXI@Z PROC		; std::bad_array_new_length::`scalar deleting destructor', COMDAT
; _this$ = ecx
  00000	55		 push	 ebp
  00001	8b ec		 mov	 ebp, esp

; 89   :     {

  00003	56		 push	 esi
  00004	8b f1		 mov	 esi, ecx

; 90   :         __std_exception_destroy(&_Data);

  00006	8d 46 04	 lea	 eax, DWORD PTR [esi+4]
  00009	c7 06 00 00 00
	00		 mov	 DWORD PTR [esi], OFFSET ??_7exception@std@@6B@
  0000f	50		 push	 eax
  00010	e8 00 00 00 00	 call	 ___std_exception_destroy
  00015	83 c4 04	 add	 esp, 4
  00018	f6 45 08 01	 test	 BYTE PTR ___flags$[ebp], 1
  0001c	74 0b		 je	 SHORT $LN12@scalar
  0001e	6a 0c		 push	 12			; 0000000cH
  00020	56		 push	 esi
  00021	e8 00 00 00 00	 call	 ??3@YAXPAXI@Z		; operator delete
  00026	83 c4 08	 add	 esp, 8
$LN12@scalar:
  00029	8b c6		 mov	 eax, esi
  0002b	5e		 pop	 esi
  0002c	5d		 pop	 ebp
  0002d	c2 04 00	 ret	 4
??_Gbad_array_new_length@std@@UAEPAXI@Z ENDP		; std::bad_array_new_length::`scalar deleting destructor'
_TEXT	ENDS
; Function compile flags: /Ogtp
; File D:\visual studio 2019\visual studio 2019\VC\Tools\MSVC\14.29.30133\include\vcruntime_exception.h
;	COMDAT ??0bad_array_new_length@std@@QAE@ABV01@@Z
_TEXT	SEGMENT
___that$ = 8						; size = 4
??0bad_array_new_length@std@@QAE@ABV01@@Z PROC		; std::bad_array_new_length::bad_array_new_length, COMDAT
; _this$ = ecx
  00000	55		 push	 ebp
  00001	8b ec		 mov	 ebp, esp

; 72   :     {

  00003	56		 push	 esi
  00004	8b f1		 mov	 esi, ecx
  00006	0f 57 c0	 xorps	 xmm0, xmm0

; 71   :         : _Data()

  00009	8d 46 04	 lea	 eax, DWORD PTR [esi+4]

; 73   :         __std_exception_copy(&_Other._Data, &_Data);

  0000c	50		 push	 eax
  0000d	c7 06 00 00 00
	00		 mov	 DWORD PTR [esi], OFFSET ??_7exception@std@@6B@
  00013	66 0f d6 00	 movq	 QWORD PTR [eax], xmm0
  00017	8b 45 08	 mov	 eax, DWORD PTR ___that$[ebp]
  0001a	83 c0 04	 add	 eax, 4
  0001d	50		 push	 eax
  0001e	e8 00 00 00 00	 call	 ___std_exception_copy
  00023	83 c4 08	 add	 esp, 8
  00026	c7 06 00 00 00
	00		 mov	 DWORD PTR [esi], OFFSET ??_7bad_array_new_length@std@@6B@
  0002c	8b c6		 mov	 eax, esi
  0002e	5e		 pop	 esi
  0002f	5d		 pop	 ebp
  00030	c2 04 00	 ret	 4
??0bad_array_new_length@std@@QAE@ABV01@@Z ENDP		; std::bad_array_new_length::bad_array_new_length
_TEXT	ENDS
; Function compile flags: /Ogtp
; File D:\visual studio 2019\visual studio 2019\VC\Tools\MSVC\14.29.30133\include\vcruntime_exception.h
;	COMDAT ??1bad_array_new_length@std@@UAE@XZ
_TEXT	SEGMENT
??1bad_array_new_length@std@@UAE@XZ PROC		; std::bad_array_new_length::~bad_array_new_length, COMDAT
; _this$ = ecx

; 90   :         __std_exception_destroy(&_Data);

  00000	8d 41 04	 lea	 eax, DWORD PTR [ecx+4]
  00003	c7 01 00 00 00
	00		 mov	 DWORD PTR [ecx], OFFSET ??_7exception@std@@6B@
  00009	50		 push	 eax
  0000a	e8 00 00 00 00	 call	 ___std_exception_destroy
  0000f	59		 pop	 ecx
  00010	c3		 ret	 0
??1bad_array_new_length@std@@UAE@XZ ENDP		; std::bad_array_new_length::~bad_array_new_length
_TEXT	ENDS
; Function compile flags: /Ogtp
; File D:\visual studio 2019\visual studio 2019\VC\Tools\MSVC\14.29.30133\include\vcruntime_exception.h
;	COMDAT ??0bad_array_new_length@std@@QAE@XZ
_TEXT	SEGMENT
??0bad_array_new_length@std@@QAE@XZ PROC		; std::bad_array_new_length::bad_array_new_length, COMDAT
; _this$ = ecx

; 141  :     {

  00000	0f 57 c0	 xorps	 xmm0, xmm0

; 142  :     }

  00003	8b c1		 mov	 eax, ecx

; 65   :         : _Data()

  00005	66 0f d6 41 04	 movq	 QWORD PTR [ecx+4], xmm0

; 66   :     {
; 67   :         _Data._What = _Message;

  0000a	c7 41 04 00 00
	00 00		 mov	 DWORD PTR [ecx+4], OFFSET ??_C@_0BF@KINCDENJ@bad?5array?5new?5length@

; 141  :     {

  00011	c7 01 00 00 00
	00		 mov	 DWORD PTR [ecx], OFFSET ??_7bad_array_new_length@std@@6B@

; 142  :     }

  00017	c3		 ret	 0
??0bad_array_new_length@std@@QAE@XZ ENDP		; std::bad_array_new_length::bad_array_new_length
_TEXT	ENDS
; Function compile flags: /Ogtp
; File D:\visual studio 2019\visual studio 2019\VC\Tools\MSVC\14.29.30133\include\vcruntime_exception.h
;	COMDAT ??_Gbad_alloc@std@@UAEPAXI@Z
_TEXT	SEGMENT
___flags$ = 8						; size = 4
??_Gbad_alloc@std@@UAEPAXI@Z PROC			; std::bad_alloc::`scalar deleting destructor', COMDAT
; _this$ = ecx
  00000	55		 push	 ebp
  00001	8b ec		 mov	 ebp, esp

; 89   :     {

  00003	56		 push	 esi
  00004	8b f1		 mov	 esi, ecx

; 90   :         __std_exception_destroy(&_Data);

  00006	8d 46 04	 lea	 eax, DWORD PTR [esi+4]
  00009	c7 06 00 00 00
	00		 mov	 DWORD PTR [esi], OFFSET ??_7exception@std@@6B@
  0000f	50		 push	 eax
  00010	e8 00 00 00 00	 call	 ___std_exception_destroy
  00015	83 c4 04	 add	 esp, 4
  00018	f6 45 08 01	 test	 BYTE PTR ___flags$[ebp], 1
  0001c	74 0b		 je	 SHORT $LN9@scalar
  0001e	6a 0c		 push	 12			; 0000000cH
  00020	56		 push	 esi
  00021	e8 00 00 00 00	 call	 ??3@YAXPAXI@Z		; operator delete
  00026	83 c4 08	 add	 esp, 8
$LN9@scalar:
  00029	8b c6		 mov	 eax, esi
  0002b	5e		 pop	 esi
  0002c	5d		 pop	 ebp
  0002d	c2 04 00	 ret	 4
??_Gbad_alloc@std@@UAEPAXI@Z ENDP			; std::bad_alloc::`scalar deleting destructor'
_TEXT	ENDS
; Function compile flags: /Ogtp
; File D:\visual studio 2019\visual studio 2019\VC\Tools\MSVC\14.29.30133\include\vcruntime_exception.h
;	COMDAT ??0bad_alloc@std@@QAE@ABV01@@Z
_TEXT	SEGMENT
___that$ = 8						; size = 4
??0bad_alloc@std@@QAE@ABV01@@Z PROC			; std::bad_alloc::bad_alloc, COMDAT
; _this$ = ecx
  00000	55		 push	 ebp
  00001	8b ec		 mov	 ebp, esp

; 72   :     {

  00003	56		 push	 esi
  00004	8b f1		 mov	 esi, ecx
  00006	0f 57 c0	 xorps	 xmm0, xmm0

; 71   :         : _Data()

  00009	8d 46 04	 lea	 eax, DWORD PTR [esi+4]

; 73   :         __std_exception_copy(&_Other._Data, &_Data);

  0000c	50		 push	 eax
  0000d	c7 06 00 00 00
	00		 mov	 DWORD PTR [esi], OFFSET ??_7exception@std@@6B@
  00013	66 0f d6 00	 movq	 QWORD PTR [eax], xmm0
  00017	8b 45 08	 mov	 eax, DWORD PTR ___that$[ebp]
  0001a	83 c0 04	 add	 eax, 4
  0001d	50		 push	 eax
  0001e	e8 00 00 00 00	 call	 ___std_exception_copy
  00023	83 c4 08	 add	 esp, 8
  00026	c7 06 00 00 00
	00		 mov	 DWORD PTR [esi], OFFSET ??_7bad_alloc@std@@6B@
  0002c	8b c6		 mov	 eax, esi
  0002e	5e		 pop	 esi
  0002f	5d		 pop	 ebp
  00030	c2 04 00	 ret	 4
??0bad_alloc@std@@QAE@ABV01@@Z ENDP			; std::bad_alloc::bad_alloc
_TEXT	ENDS
; Function compile flags: /Ogtp
; File D:\visual studio 2019\visual studio 2019\VC\Tools\MSVC\14.29.30133\include\vcruntime_exception.h
;	COMDAT ??_Gexception@std@@UAEPAXI@Z
_TEXT	SEGMENT
___flags$ = 8						; size = 4
??_Gexception@std@@UAEPAXI@Z PROC			; std::exception::`scalar deleting destructor', COMDAT
; _this$ = ecx
  00000	55		 push	 ebp
  00001	8b ec		 mov	 ebp, esp

; 89   :     {

  00003	56		 push	 esi
  00004	8b f1		 mov	 esi, ecx

; 90   :         __std_exception_destroy(&_Data);

  00006	8d 46 04	 lea	 eax, DWORD PTR [esi+4]
  00009	c7 06 00 00 00
	00		 mov	 DWORD PTR [esi], OFFSET ??_7exception@std@@6B@
  0000f	50		 push	 eax
  00010	e8 00 00 00 00	 call	 ___std_exception_destroy
  00015	83 c4 04	 add	 esp, 4
  00018	f6 45 08 01	 test	 BYTE PTR ___flags$[ebp], 1
  0001c	74 0b		 je	 SHORT $LN6@scalar
  0001e	6a 0c		 push	 12			; 0000000cH
  00020	56		 push	 esi
  00021	e8 00 00 00 00	 call	 ??3@YAXPAXI@Z		; operator delete
  00026	83 c4 08	 add	 esp, 8
$LN6@scalar:
  00029	8b c6		 mov	 eax, esi
  0002b	5e		 pop	 esi
  0002c	5d		 pop	 ebp
  0002d	c2 04 00	 ret	 4
??_Gexception@std@@UAEPAXI@Z ENDP			; std::exception::`scalar deleting destructor'
_TEXT	ENDS
; Function compile flags: /Ogtp
; File D:\visual studio 2019\visual studio 2019\VC\Tools\MSVC\14.29.30133\include\vcruntime_exception.h
;	COMDAT ?what@exception@std@@UBEPBDXZ
_TEXT	SEGMENT
?what@exception@std@@UBEPBDXZ PROC			; std::exception::what, COMDAT
; _this$ = ecx

; 95   :         return _Data._What ? _Data._What : "Unknown exception";

  00000	8b 49 04	 mov	 ecx, DWORD PTR [ecx+4]
  00003	b8 00 00 00 00	 mov	 eax, OFFSET ??_C@_0BC@EOODALEL@Unknown?5exception@
  00008	85 c9		 test	 ecx, ecx
  0000a	0f 45 c1	 cmovne	 eax, ecx

; 96   :     }

  0000d	c3		 ret	 0
?what@exception@std@@UBEPBDXZ ENDP			; std::exception::what
_TEXT	ENDS
; Function compile flags: /Ogtp
; File D:\visual studio 2019\visual studio 2019\VC\Tools\MSVC\14.29.30133\include\vcruntime_exception.h
;	COMDAT ??1exception@std@@UAE@XZ
_TEXT	SEGMENT
??1exception@std@@UAE@XZ PROC				; std::exception::~exception, COMDAT
; _this$ = ecx

; 90   :         __std_exception_destroy(&_Data);

  00000	8d 41 04	 lea	 eax, DWORD PTR [ecx+4]
  00003	c7 01 00 00 00
	00		 mov	 DWORD PTR [ecx], OFFSET ??_7exception@std@@6B@
  00009	50		 push	 eax
  0000a	e8 00 00 00 00	 call	 ___std_exception_destroy
  0000f	59		 pop	 ecx

; 91   :     }

  00010	c3		 ret	 0
??1exception@std@@UAE@XZ ENDP				; std::exception::~exception
_TEXT	ENDS
; Function compile flags: /Ogtp
; File D:\visual studio 2019\visual studio 2019\VC\Tools\MSVC\14.29.30133\include\vcruntime_exception.h
;	COMDAT ??0exception@std@@QAE@ABV01@@Z
_TEXT	SEGMENT
__Other$ = 8						; size = 4
??0exception@std@@QAE@ABV01@@Z PROC			; std::exception::exception, COMDAT
; _this$ = ecx

; 72   :     {

  00000	55		 push	 ebp
  00001	8b ec		 mov	 ebp, esp
  00003	56		 push	 esi
  00004	8b f1		 mov	 esi, ecx
  00006	0f 57 c0	 xorps	 xmm0, xmm0
  00009	8d 46 04	 lea	 eax, DWORD PTR [esi+4]

; 73   :         __std_exception_copy(&_Other._Data, &_Data);

  0000c	50		 push	 eax
  0000d	c7 06 00 00 00
	00		 mov	 DWORD PTR [esi], OFFSET ??_7exception@std@@6B@
  00013	66 0f d6 00	 movq	 QWORD PTR [eax], xmm0
  00017	8b 45 08	 mov	 eax, DWORD PTR __Other$[ebp]
  0001a	83 c0 04	 add	 eax, 4
  0001d	50		 push	 eax
  0001e	e8 00 00 00 00	 call	 ___std_exception_copy
  00023	83 c4 08	 add	 esp, 8

; 74   :     }

  00026	8b c6		 mov	 eax, esi
  00028	5e		 pop	 esi
  00029	5d		 pop	 ebp
  0002a	c2 04 00	 ret	 4
??0exception@std@@QAE@ABV01@@Z ENDP			; std::exception::exception
_TEXT	ENDS
; Function compile flags: /Ogtp
; File C:\Users\ALEXANDER\Desktop\Cliente\COPY_FISH_WON_NEW\Binario\Client\EffectLib\EffectInstance.cpp
;	COMDAT ?__empty_global_delete@@YAXPAXI@Z
_TEXT	SEGMENT
___formal$ = 8						; size = 4
___formal$ = 12						; size = 4
?__empty_global_delete@@YAXPAXI@Z PROC			; __empty_global_delete, COMDAT

  00000	c2 00 00	 ret	 0
?__empty_global_delete@@YAXPAXI@Z ENDP			; __empty_global_delete
_TEXT	ENDS
; Function compile flags: /Ogtp
; File C:\Users\ALEXANDER\Desktop\Cliente\COPY_FISH_WON_NEW\Binario\Client\EffectLib\EffectInstance.cpp
;	COMDAT ?__empty_global_delete@@YAXPAX@Z
_TEXT	SEGMENT
___formal$ = 8						; size = 4
?__empty_global_delete@@YAXPAX@Z PROC			; __empty_global_delete, COMDAT

  00000	c2 00 00	 ret	 0
?__empty_global_delete@@YAXPAX@Z ENDP			; __empty_global_delete
_TEXT	ENDS
; Function compile flags: /Ogtp
;	COMDAT ??_H@YGXPAXIIP6EPAX0@Z@Z
_TEXT	SEGMENT
___t$ = 8						; size = 4
___s$ = 12						; size = 4
___n$ = 16						; size = 4
___f$ = 20						; size = 4
??_H@YGXPAXIIP6EPAX0@Z@Z PROC				; `vector constructor iterator', COMDAT
  00000	55		 push	 ebp
  00001	8b ec		 mov	 ebp, esp
  00003	56		 push	 esi
  00004	8b 75 10	 mov	 esi, DWORD PTR ___n$[ebp]
  00007	85 f6		 test	 esi, esi
  00009	74 16		 je	 SHORT $LN6@vector
  0000b	53		 push	 ebx
  0000c	8b 5d 14	 mov	 ebx, DWORD PTR ___f$[ebp]
  0000f	57		 push	 edi
  00010	8b 7d 08	 mov	 edi, DWORD PTR ___t$[ebp]
$LL2@vector:
  00013	8b cf		 mov	 ecx, edi
  00015	ff d3		 call	 ebx
  00017	03 7d 0c	 add	 edi, DWORD PTR ___s$[ebp]
  0001a	83 ee 01	 sub	 esi, 1
  0001d	75 f4		 jne	 SHORT $LL2@vector
  0001f	5f		 pop	 edi
  00020	5b		 pop	 ebx
$LN6@vector:
  00021	5e		 pop	 esi
  00022	5d		 pop	 ebp
  00023	c2 10 00	 ret	 16			; 00000010H
??_H@YGXPAXIIP6EPAX0@Z@Z ENDP				; `vector constructor iterator'
_TEXT	ENDS
END
