; Listing generated by Microsoft (R) Optimizing Compiler Version 19.29.30151.0 

	TITLE	C:\Users\ALEXANDER\Desktop\Cliente\COPY_FISH_WON_NEW\Binario\Client\GameLib\Distribute\ItemManager.obj
	.686P
	.XMM
	include listing.inc
	.model	flat

INCLUDELIB LIBCMT
INCLUDELIB OLDNAMES

CONST	SEGMENT
?_Fake_alloc@std@@3U_Fake_allocator@1@B	ORG $+1		; std::_Fake_alloc
CONST	ENDS
PUBLIC	___local_stdio_printf_options
PUBLIC	_sprintf
PUBLIC	__snprintf
PUBLIC	??0exception@std@@QAE@ABV01@@Z			; std::exception::exception
PUBLIC	??1exception@std@@UAE@XZ			; std::exception::~exception
PUBLIC	?what@exception@std@@UBEPBDXZ			; std::exception::what
PUBLIC	??_Gexception@std@@UAEPAXI@Z			; std::exception::`scalar deleting destructor'
PUBLIC	??0bad_alloc@std@@QAE@ABV01@@Z			; std::bad_alloc::bad_alloc
PUBLIC	??_Gbad_alloc@std@@UAEPAXI@Z			; std::bad_alloc::`scalar deleting destructor'
PUBLIC	??0bad_array_new_length@std@@QAE@XZ		; std::bad_array_new_length::bad_array_new_length
PUBLIC	??1bad_array_new_length@std@@UAE@XZ		; std::bad_array_new_length::~bad_array_new_length
PUBLIC	??0bad_array_new_length@std@@QAE@ABV01@@Z	; std::bad_array_new_length::bad_array_new_length
PUBLIC	??_Gbad_array_new_length@std@@UAEPAXI@Z		; std::bad_array_new_length::`scalar deleting destructor'
PUBLIC	?_Throw_bad_array_new_length@std@@YAXXZ		; std::_Throw_bad_array_new_length
PUBLIC	?_Xlen_string@std@@YAXXZ			; std::_Xlen_string
PUBLIC	??1?$basic_string@DU?$char_traits@D@std@@V?$allocator@D@2@@std@@QAE@XZ ; std::basic_string<char,std::char_traits<char>,std::allocator<char> >::~basic_string<char,std::char_traits<char>,std::allocator<char> >
PUBLIC	?assign@?$basic_string@DU?$char_traits@D@std@@V?$allocator@D@2@@std@@QAEAAV12@QBDI@Z ; std::basic_string<char,std::char_traits<char>,std::allocator<char> >::assign
PUBLIC	?_Throw_tree_length_error@std@@YAXXZ		; std::_Throw_tree_length_error
PUBLIC	??1?$vector@V?$basic_string@DU?$char_traits@D@std@@V?$allocator@D@2@@std@@V?$allocator@V?$basic_string@DU?$char_traits@D@std@@V?$allocator@D@2@@std@@@2@@std@@QAE@XZ ; std::vector<std::basic_string<char,std::char_traits<char>,std::allocator<char> >,std::allocator<std::basic_string<char,std::char_traits<char>,std::allocator<char> > > >::~vector<std::basic_string<char,std::char_traits<char>,std::allocator<char> >,std::allocator<std::basic_string<char,std::char_traits<char>,std::allocator<char> > > >
PUBLIC	?_Xlength@?$vector@V?$basic_string@DU?$char_traits@D@std@@V?$allocator@D@2@@std@@V?$allocator@V?$basic_string@DU?$char_traits@D@std@@V?$allocator@D@2@@std@@@2@@std@@CAXXZ ; std::vector<std::basic_string<char,std::char_traits<char>,std::allocator<char> >,std::allocator<std::basic_string<char,std::char_traits<char>,std::allocator<char> > > >::_Xlength
PUBLIC	??$_Allocate_manually_vector_aligned@U_Default_allocate_traits@std@@@std@@YAPAXI@Z ; std::_Allocate_manually_vector_aligned<std::_Default_allocate_traits>
PUBLIC	??1?$CSingleton@VCItemManager@@@@UAE@XZ		; CSingleton<CItemManager>::~CSingleton<CItemManager>
PUBLIC	??_G?$CSingleton@VCItemManager@@@@UAEPAXI@Z	; CSingleton<CItemManager>::`scalar deleting destructor'
PUBLIC	?LoadAuraScale@CItemManager@@QAE_NPBD@Z		; CItemManager::LoadAuraScale
PUBLIC	??0CItemManager@@QAE@XZ				; CItemManager::CItemManager
PUBLIC	??1CItemManager@@UAE@XZ				; CItemManager::~CItemManager
PUBLIC	?Destroy@CItemManager@@QAEXXZ			; CItemManager::Destroy
PUBLIC	?SelectItemData@CItemManager@@QAEHK@Z		; CItemManager::SelectItemData
PUBLIC	?GetSelectedItemDataPointer@CItemManager@@QAEPAVCItemData@@XZ ; CItemManager::GetSelectedItemDataPointer
PUBLIC	?GetItemDataPointer@CItemManager@@QAEHKPAPAVCItemData@@@Z ; CItemManager::GetItemDataPointer
PUBLIC	?LoadItemDesc@CItemManager@@QAE_NPBD@Z		; CItemManager::LoadItemDesc
PUBLIC	?LoadItemList@CItemManager@@QAE_NPBD@Z		; CItemManager::LoadItemList
PUBLIC	?LoadItemTable@CItemManager@@QAE_NPBD@Z		; CItemManager::LoadItemTable
PUBLIC	?MakeItemData@CItemManager@@QAEPAVCItemData@@K@Z ; CItemManager::MakeItemData
PUBLIC	?LoadItemScale@CItemManager@@QAE_NPBD@Z		; CItemManager::LoadItemScale
PUBLIC	?LoadShiningTable@CItemManager@@QAE_NPBD@Z	; CItemManager::LoadShiningTable
PUBLIC	??1?$_Tree@V?$_Tmap_traits@KPAVCItemData@@U?$less@K@std@@V?$allocator@U?$pair@$$CBKPAVCItemData@@@std@@@3@$0A@@std@@@std@@QAE@XZ ; std::_Tree<std::_Tmap_traits<unsigned long,CItemData *,std::less<unsigned long>,std::allocator<std::pair<unsigned long const ,CItemData *> >,0> >::~_Tree<std::_Tmap_traits<unsigned long,CItemData *,std::less<unsigned long>,std::allocator<std::pair<unsigned long const ,CItemData *> >,0> >
PUBLIC	?_Insert_node@?$_Tree_val@U?$_Tree_simple_types@U?$pair@$$CBKPAVCItemData@@@std@@@std@@@std@@QAEPAU?$_Tree_node@U?$pair@$$CBKPAVCItemData@@@std@@PAX@2@U?$_Tree_id@PAU?$_Tree_node@U?$pair@$$CBKPAVCItemData@@@std@@PAX@std@@@2@QAU32@@Z ; std::_Tree_val<std::_Tree_simple_types<std::pair<unsigned long const ,CItemData *> > >::_Insert_node
PUBLIC	?_Xlength@?$vector@PAVCItemData@@V?$allocator@PAVCItemData@@@std@@@std@@CAXXZ ; std::vector<CItemData *,std::allocator<CItemData *> >::_Xlength
PUBLIC	??_GCItemManager@@UAEPAXI@Z			; CItemManager::`scalar deleting destructor'
PUBLIC	??$insert@$0A@$0A@@?$_Tree@V?$_Tmap_traits@KPAVCItemData@@U?$less@K@std@@V?$allocator@U?$pair@$$CBKPAVCItemData@@@std@@@3@$0A@@std@@@std@@QAE?AU?$pair@V?$_Tree_iterator@V?$_Tree_val@U?$_Tree_simple_types@U?$pair@$$CBKPAVCItemData@@@std@@@std@@@std@@@std@@_N@1@$$QAU?$pair@$$CBKPAVCItemData@@@1@@Z ; std::_Tree<std::_Tmap_traits<unsigned long,CItemData *,std::less<unsigned long>,std::allocator<std::pair<unsigned long const ,CItemData *> >,0> >::insert<0,0>
PUBLIC	?__SnapString@@YAABV?$basic_string@DU?$char_traits@D@std@@V?$allocator@D@2@@std@@ABV12@AAV12@@Z ; __SnapString
PUBLIC	?GetHashCode@@YAKPBD@Z				; GetHashCode
PUBLIC	??1?$_Tree@V?$_Tmap_traits@KKU?$less@K@std@@V?$allocator@U?$pair@$$CBKK@std@@@2@$0A@@std@@@std@@QAE@XZ ; std::_Tree<std::_Tmap_traits<unsigned long,unsigned long,std::less<unsigned long>,std::allocator<std::pair<unsigned long const ,unsigned long> >,0> >::~_Tree<std::_Tmap_traits<unsigned long,unsigned long,std::less<unsigned long>,std::allocator<std::pair<unsigned long const ,unsigned long> >,0> >
PUBLIC	?_Insert_node@?$_Tree_val@U?$_Tree_simple_types@U?$pair@$$CBKK@std@@@std@@@std@@QAEPAU?$_Tree_node@U?$pair@$$CBKK@std@@PAX@2@U?$_Tree_id@PAU?$_Tree_node@U?$pair@$$CBKK@std@@PAX@std@@@2@QAU32@@Z ; std::_Tree_val<std::_Tree_simple_types<std::pair<unsigned long const ,unsigned long> > >::_Insert_node
PUBLIC	??1?$map@KKU?$less@K@std@@V?$allocator@U?$pair@$$CBKK@std@@@2@@std@@QAE@XZ ; std::map<unsigned long,unsigned long,std::less<unsigned long>,std::allocator<std::pair<unsigned long const ,unsigned long> > >::~map<unsigned long,unsigned long,std::less<unsigned long>,std::allocator<std::pair<unsigned long const ,unsigned long> > >
PUBLIC	??$_Emplace_reallocate@ABQAVCItemData@@@?$vector@PAVCItemData@@V?$allocator@PAVCItemData@@@std@@@std@@QAEPAPAVCItemData@@QAPAV2@ABQAV2@@Z ; std::vector<CItemData *,std::allocator<CItemData *> >::_Emplace_reallocate<CItemData * const &>
PUBLIC	??$_Erase_tree@V?$allocator@U?$_Tree_node@U?$pair@$$CBKPAVCItemData@@@std@@PAX@std@@@std@@@?$_Tree_val@U?$_Tree_simple_types@U?$pair@$$CBKPAVCItemData@@@std@@@std@@@std@@QAEXAAV?$allocator@U?$_Tree_node@U?$pair@$$CBKPAVCItemData@@@std@@PAX@std@@@1@PAU?$_Tree_node@U?$pair@$$CBKPAVCItemData@@@std@@PAX@1@@Z ; std::_Tree_val<std::_Tree_simple_types<std::pair<unsigned long const ,CItemData *> > >::_Erase_tree<std::allocator<std::_Tree_node<std::pair<unsigned long const ,CItemData *>,void *> > >
PUBLIC	??$_Emplace_reallocate@V?$basic_string@DU?$char_traits@D@std@@V?$allocator@D@2@@std@@@?$vector@V?$basic_string@DU?$char_traits@D@std@@V?$allocator@D@2@@std@@V?$allocator@V?$basic_string@DU?$char_traits@D@std@@V?$allocator@D@2@@std@@@2@@std@@QAEPAV?$basic_string@DU?$char_traits@D@std@@V?$allocator@D@2@@1@QAV21@$$QAV21@@Z ; std::vector<std::basic_string<char,std::char_traits<char>,std::allocator<char> >,std::allocator<std::basic_string<char,std::char_traits<char>,std::allocator<char> > > >::_Emplace_reallocate<std::basic_string<char,std::char_traits<char>,std::allocator<char> > >
PUBLIC	??$_Destroy_range@V?$allocator@V?$basic_string@DU?$char_traits@D@std@@V?$allocator@D@2@@std@@@std@@@std@@YAXPAV?$basic_string@DU?$char_traits@D@std@@V?$allocator@D@2@@0@QAV10@AAV?$allocator@V?$basic_string@DU?$char_traits@D@std@@V?$allocator@D@2@@std@@@0@@Z ; std::_Destroy_range<std::allocator<std::basic_string<char,std::char_traits<char>,std::allocator<char> > > >
PUBLIC	??$_Find_lower_bound@K@?$_Tree@V?$_Tmap_traits@KKU?$less@K@std@@V?$allocator@U?$pair@$$CBKK@std@@@2@$0A@@std@@@std@@IBE?AU?$_Tree_find_result@PAU?$_Tree_node@U?$pair@$$CBKK@std@@PAX@std@@@1@ABK@Z ; std::_Tree<std::_Tmap_traits<unsigned long,unsigned long,std::less<unsigned long>,std::allocator<std::pair<unsigned long const ,unsigned long> >,0> >::_Find_lower_bound<unsigned long>
PUBLIC	??$_Erase_tree@V?$allocator@U?$_Tree_node@U?$pair@$$CBKK@std@@PAX@std@@@std@@@?$_Tree_val@U?$_Tree_simple_types@U?$pair@$$CBKK@std@@@std@@@std@@QAEXAAV?$allocator@U?$_Tree_node@U?$pair@$$CBKK@std@@PAX@std@@@1@PAU?$_Tree_node@U?$pair@$$CBKK@std@@PAX@1@@Z ; std::_Tree_val<std::_Tree_simple_types<std::pair<unsigned long const ,unsigned long> > >::_Erase_tree<std::allocator<std::_Tree_node<std::pair<unsigned long const ,unsigned long>,void *> > >
PUBLIC	??$_Find_lower_bound@K@?$_Tree@V?$_Tmap_traits@KPAVCItemData@@U?$less@K@std@@V?$allocator@U?$pair@$$CBKPAVCItemData@@@std@@@3@$0A@@std@@@std@@IBE?AU?$_Tree_find_result@PAU?$_Tree_node@U?$pair@$$CBKPAVCItemData@@@std@@PAX@std@@@1@ABK@Z ; std::_Tree<std::_Tmap_traits<unsigned long,CItemData *,std::less<unsigned long>,std::allocator<std::pair<unsigned long const ,CItemData *> >,0> >::_Find_lower_bound<unsigned long>
PUBLIC	??$_Uninitialized_move@PAV?$basic_string@DU?$char_traits@D@std@@V?$allocator@D@2@@std@@V?$allocator@V?$basic_string@DU?$char_traits@D@std@@V?$allocator@D@2@@std@@@2@@std@@YAPAV?$basic_string@DU?$char_traits@D@std@@V?$allocator@D@2@@0@QAV10@0PAV10@AAV?$allocator@V?$basic_string@DU?$char_traits@D@std@@V?$allocator@D@2@@std@@@0@@Z ; std::_Uninitialized_move<std::basic_string<char,std::char_traits<char>,std::allocator<char> > *,std::allocator<std::basic_string<char,std::char_traits<char>,std::allocator<char> > > >
PUBLIC	??1?$_Alloc_construct_ptr@V?$allocator@U?$_Tree_node@U?$pair@$$CBKPAVCItemData@@@std@@PAX@std@@@std@@@std@@QAE@XZ ; std::_Alloc_construct_ptr<std::allocator<std::_Tree_node<std::pair<unsigned long const ,CItemData *>,void *> > >::~_Alloc_construct_ptr<std::allocator<std::_Tree_node<std::pair<unsigned long const ,CItemData *>,void *> > >
PUBLIC	??1?$_Alloc_construct_ptr@V?$allocator@U?$_Tree_node@U?$pair@$$CBKK@std@@PAX@std@@@std@@@std@@QAE@XZ ; std::_Alloc_construct_ptr<std::allocator<std::_Tree_node<std::pair<unsigned long const ,unsigned long>,void *> > >::~_Alloc_construct_ptr<std::allocator<std::_Tree_node<std::pair<unsigned long const ,unsigned long>,void *> > >
PUBLIC	??$_Copy_memmove@PAPAVCItemData@@PAPAV1@@std@@YAPAPAVCItemData@@PAPAV1@00@Z ; std::_Copy_memmove<CItemData * *,CItemData * *>
PUBLIC	?_OptionsStorage@?1??__local_stdio_printf_options@@9@4_KA ; `__local_stdio_printf_options'::`2'::_OptionsStorage
PUBLIC	??_7exception@std@@6B@				; std::exception::`vftable'
PUBLIC	??_C@_0BC@EOODALEL@Unknown?5exception@		; `string'
PUBLIC	??_7bad_alloc@std@@6B@				; std::bad_alloc::`vftable'
PUBLIC	??_7bad_array_new_length@std@@6B@		; std::bad_array_new_length::`vftable'
PUBLIC	??_C@_0BF@KINCDENJ@bad?5array?5new?5length@	; `string'
PUBLIC	__TI3?AVbad_array_new_length@std@@
PUBLIC	__CTA3?AVbad_array_new_length@std@@
PUBLIC	??_R0?AVbad_array_new_length@std@@@8		; std::bad_array_new_length `RTTI Type Descriptor'
PUBLIC	__CT??_R0?AVbad_array_new_length@std@@@8??0bad_array_new_length@std@@QAE@ABV01@@Z12
PUBLIC	??_R0?AVbad_alloc@std@@@8			; std::bad_alloc `RTTI Type Descriptor'
PUBLIC	__CT??_R0?AVbad_alloc@std@@@8??0bad_alloc@std@@QAE@ABV01@@Z12
PUBLIC	??_R0?AVexception@std@@@8			; std::exception `RTTI Type Descriptor'
PUBLIC	__CT??_R0?AVexception@std@@@8??0exception@std@@QAE@ABV01@@Z12
PUBLIC	??_C@_0BA@JFNIOLAK@string?5too?5long@		; `string'
PUBLIC	??_C@_0BB@GCADKGJO@map?1set?5too?5long@		; `string'
PUBLIC	??_C@_00CNPNBAHC@@				; `string'
PUBLIC	?ms_singleton@?$CSingleton@VCLZO@@@@0PAVCLZO@@A	; CSingleton<CLZO>::ms_singleton
PUBLIC	??_C@_0BI@CFPLBAOH@invalid?5string?5position@	; `string'
PUBLIC	??_R4exception@std@@6B@				; std::exception::`RTTI Complete Object Locator'
PUBLIC	??_R3exception@std@@8				; std::exception::`RTTI Class Hierarchy Descriptor'
PUBLIC	??_R2exception@std@@8				; std::exception::`RTTI Base Class Array'
PUBLIC	??_R1A@?0A@EA@exception@std@@8			; std::exception::`RTTI Base Class Descriptor at (0,-1,0,64)'
PUBLIC	??_R4bad_alloc@std@@6B@				; std::bad_alloc::`RTTI Complete Object Locator'
PUBLIC	??_R3bad_alloc@std@@8				; std::bad_alloc::`RTTI Class Hierarchy Descriptor'
PUBLIC	??_R2bad_alloc@std@@8				; std::bad_alloc::`RTTI Base Class Array'
PUBLIC	??_R1A@?0A@EA@bad_alloc@std@@8			; std::bad_alloc::`RTTI Base Class Descriptor at (0,-1,0,64)'
PUBLIC	??_R4bad_array_new_length@std@@6B@		; std::bad_array_new_length::`RTTI Complete Object Locator'
PUBLIC	??_R3bad_array_new_length@std@@8		; std::bad_array_new_length::`RTTI Class Hierarchy Descriptor'
PUBLIC	??_R2bad_array_new_length@std@@8		; std::bad_array_new_length::`RTTI Base Class Array'
PUBLIC	??_R1A@?0A@EA@bad_array_new_length@std@@8	; std::bad_array_new_length::`RTTI Base Class Descriptor at (0,-1,0,64)'
PUBLIC	?ms_singleton@?$CSingleton@VCEterPackManager@@@@0PAVCEterPackManager@@A ; CSingleton<CEterPackManager>::ms_singleton
PUBLIC	?ms_singleton@?$CSingleton@VCResourceManager@@@@0PAVCResourceManager@@A ; CSingleton<CResourceManager>::ms_singleton
PUBLIC	?ms_singleton@?$CSingleton@VCItemManager@@@@0PAVCItemManager@@A ; CSingleton<CItemManager>::ms_singleton
PUBLIC	??_7?$CSingleton@VCItemManager@@@@6B@		; CSingleton<CItemManager>::`vftable'
PUBLIC	??_7CItemManager@@6B@				; CItemManager::`vftable'
PUBLIC	??_C@_0DB@OJKGMCEF@?5CItemManager?3?3SelectItemData?5?9@ ; `string'
PUBLIC	??_C@_0DF@GPLOHCFJ@?5CItemManager?3?3GetItemDataPoint@ ; `string'
PUBLIC	??_C@_01GPOEFGEJ@?7@				; `string'
PUBLIC	??_C@_0DF@BBNNBFGM@?5CItemManager?3?3LoadItemList?$CI?$CFs?$CJ@ ; `string'
PUBLIC	??_C@_0BD@MGMLGJGK@icon?1item?1?$CF?45d?4tga@	; `string'
PUBLIC	??_C@_0CC@GKBFKKKF@d?3?1ymir?5work?1item?1weapon?1?$CF?45d?4g@ ; `string'
PUBLIC	??_C@_04CGMHACBB@AURA@				; `string'
PUBLIC	??_C@_0DJ@OBCJLLMB@CItemManager?3?3LoadItemDesc?$CIc_sz@ ; `string'
PUBLIC	??_C@_0DP@NBGHGGP@CPythonItem?3?3LoadItemTable?3?5inv@ ; `string'
PUBLIC	??_C@_0FE@FEBCGCHP@CPythonItem?3?3LoadItemTable?3?5inv@ ; `string'
PUBLIC	??_C@_0DH@PMBKMONN@CPythonItem?3?3LoadItemTable?3?5inv@ ; `string'
PUBLIC	??_C@_0BD@KPPKEKHD@icon?1item?1?$CF05d?4tga@	; `string'
PUBLIC	??_C@_0DF@BOLLEAGK@?5CItemManager?3?3LoadItemScale?$CI?$CFs@ ; `string'
PUBLIC	??_C@_0N@IAFGBDIL@JOB_ASSASSIN@			; `string'
PUBLIC	??_C@_08IJIBKCOK@JOB_SURA@			; `string'
PUBLIC	??_C@_0L@FBDFJGPA@JOB_SHAMAN@			; `string'
PUBLIC	??_C@_0M@BIDPEPDP@JOB_WOLFMAN@			; `string'
PUBLIC	??_C@_0FK@BGOPJJIB@CItemManager?3?3LoadShiningTable?$CI@ ; `string'
PUBLIC	??_C@_0DF@DOEGMGNI@?5CItemManager?3?3LoadAuraScale?$CI?$CFs@ ; `string'
PUBLIC	??_C@_0BA@FOIKENOD@vector?5too?5long@		; `string'
PUBLIC	??_R4CItemManager@@6B@				; CItemManager::`RTTI Complete Object Locator'
PUBLIC	??_R0?AVCItemManager@@@8			; CItemManager `RTTI Type Descriptor'
PUBLIC	??_R3CItemManager@@8				; CItemManager::`RTTI Class Hierarchy Descriptor'
PUBLIC	??_R2CItemManager@@8				; CItemManager::`RTTI Base Class Array'
PUBLIC	??_R1A@?0A@EA@CItemManager@@8			; CItemManager::`RTTI Base Class Descriptor at (0,-1,0,64)'
PUBLIC	??_R1A@?0A@EA@?$CSingleton@VCItemManager@@@@8	; CSingleton<CItemManager>::`RTTI Base Class Descriptor at (0,-1,0,64)'
PUBLIC	??_R0?AV?$CSingleton@VCItemManager@@@@@8	; CSingleton<CItemManager> `RTTI Type Descriptor'
PUBLIC	??_R3?$CSingleton@VCItemManager@@@@8		; CSingleton<CItemManager>::`RTTI Class Hierarchy Descriptor'
PUBLIC	??_R2?$CSingleton@VCItemManager@@@@8		; CSingleton<CItemManager>::`RTTI Base Class Array'
PUBLIC	??_R4?$CSingleton@VCItemManager@@@@6B@		; CSingleton<CItemManager>::`RTTI Complete Object Locator'
PUBLIC	__real@3f800000
PUBLIC	__real@3f847ae140000000
EXTRN	??2@YAPAXI@Z:PROC				; operator new
EXTRN	??3@YAXPAXI@Z:PROC				; operator delete
EXTRN	??_U@YAPAXI@Z:PROC				; operator new[]
EXTRN	??_V@YAXPAX@Z:PROC				; operator delete[]
EXTRN	__invalid_parameter_noinfo_noreturn:PROC
EXTRN	_strncpy_s:PROC
EXTRN	_atof:PROC
EXTRN	__atoi64:PROC
EXTRN	___stdio_common_vsprintf:PROC
EXTRN	___std_exception_copy:PROC
EXTRN	___std_exception_destroy:PROC
EXTRN	??_Eexception@std@@UAEPAXI@Z:PROC		; std::exception::`vector deleting destructor'
EXTRN	??_Ebad_alloc@std@@UAEPAXI@Z:PROC		; std::bad_alloc::`vector deleting destructor'
EXTRN	??_Ebad_array_new_length@std@@UAEPAXI@Z:PROC	; std::bad_array_new_length::`vector deleting destructor'
EXTRN	?_Xlength_error@std@@YAXPBD@Z:PROC		; std::_Xlength_error
EXTRN	?_Xout_of_range@std@@YAXPBD@Z:PROC		; std::_Xout_of_range
EXTRN	?Tracenf@@YAXPBDZZ:PROC				; Tracenf
EXTRN	?Tracef@@YAXPBDZZ:PROC				; Tracef
EXTRN	?TraceError@@YAXPBDZZ:PROC			; TraceError
EXTRN	??0CMemoryTextFileLoader@@QAE@XZ:PROC		; CMemoryTextFileLoader::CMemoryTextFileLoader
EXTRN	??1CMemoryTextFileLoader@@UAE@XZ:PROC		; CMemoryTextFileLoader::~CMemoryTextFileLoader
EXTRN	?Bind@CMemoryTextFileLoader@@QAEXHPBX@Z:PROC	; CMemoryTextFileLoader::Bind
EXTRN	?GetLineCount@CMemoryTextFileLoader@@QAEKXZ:PROC ; CMemoryTextFileLoader::GetLineCount
EXTRN	?SplitLine@CMemoryTextFileLoader@@QAE_NKPAV?$vector@V?$basic_string@DU?$char_traits@D@std@@V?$allocator@D@2@@std@@V?$allocator@V?$basic_string@DU?$char_traits@D@std@@V?$allocator@D@2@@std@@@2@@std@@PBD@Z:PROC ; CMemoryTextFileLoader::SplitLine
EXTRN	?SplitLineByTab@CMemoryTextFileLoader@@QAE_NKPAV?$vector@V?$basic_string@DU?$char_traits@D@std@@V?$allocator@D@2@@std@@V?$allocator@V?$basic_string@DU?$char_traits@D@std@@V?$allocator@D@2@@std@@@2@@std@@@Z:PROC ; CMemoryTextFileLoader::SplitLineByTab
EXTRN	??0CLZObject@@QAE@XZ:PROC			; CLZObject::CLZObject
EXTRN	??1CLZObject@@QAE@XZ:PROC			; CLZObject::~CLZObject
EXTRN	?Decompress@CLZO@@QAE_NAAVCLZObject@@PBEPAK@Z:PROC ; CLZO::Decompress
EXTRN	??0CMappedFile@@QAE@XZ:PROC			; CMappedFile::CMappedFile
EXTRN	??1CMappedFile@@UAE@XZ:PROC			; CMappedFile::~CMappedFile
EXTRN	?Size@CMappedFile@@QAEKXZ:PROC			; CMappedFile::Size
EXTRN	?Read@CMappedFile@@QAEHPAXH@Z:PROC		; CMappedFile::Read
EXTRN	?Get@CEterPackManager@@QAE_NAAVCMappedFile@@PBDPAPBX@Z:PROC ; CEterPackManager::Get
EXTRN	?IsFileExist@CResourceManager@@QAE_NPBD@Z:PROC	; CResourceManager::IsFileExist
EXTRN	?SetSummary@CItemData@@QAEXABV?$basic_string@DU?$char_traits@D@std@@V?$allocator@D@2@@std@@@Z:PROC ; CItemData::SetSummary
EXTRN	?SetDescription@CItemData@@QAEXABV?$basic_string@DU?$char_traits@D@std@@V?$allocator@D@2@@std@@@Z:PROC ; CItemData::SetDescription
EXTRN	?GetTable@CItemData@@QBEPBUSItemTable_r156@1@XZ:PROC ; CItemData::GetTable
EXTRN	?SetDefaultItemData@CItemData@@QAEXPBD0@Z:PROC	; CItemData::SetDefaultItemData
EXTRN	?SetItemTableData@CItemData@@QAEXPAUSItemTable_r156@1@@Z:PROC ; CItemData::SetItemTableData
EXTRN	?SetItemShiningTableData@CItemData@@QAEXEPBD@Z:PROC ; CItemData::SetItemShiningTableData
EXTRN	?SetAuraScaleTableData@CItemData@@QAEXEEMMMM@Z:PROC ; CItemData::SetAuraScaleTableData
EXTRN	?SetAuraEffectID@CItemData@@QAEXPBD@Z:PROC	; CItemData::SetAuraEffectID
EXTRN	?New@CItemData@@SAPAV1@XZ:PROC			; CItemData::New
EXTRN	?Delete@CItemData@@SAXPAV1@@Z:PROC		; CItemData::Delete
EXTRN	?SetItemTableScaleData@CItemData@@QAEXEEMMMM@Z:PROC ; CItemData::SetItemTableScaleData
EXTRN	??_E?$CSingleton@VCItemManager@@@@UAEPAXI@Z:PROC ; CSingleton<CItemManager>::`vector deleting destructor'
EXTRN	??_ECItemManager@@UAEPAXI@Z:PROC		; CItemManager::`vector deleting destructor'
EXTRN	?Vietnam_ConvertWeaponVnum@@YAKK@Z:PROC		; Vietnam_ConvertWeaponVnum
EXTRN	@__security_check_cookie@4:PROC
EXTRN	__CxxThrowException@8:PROC
EXTRN	___CxxFrameHandler3:PROC
EXTRN	_memcpy:PROC
EXTRN	_memmove:PROC
EXTRN	_memset:PROC
EXTRN	??_7type_info@@6B@:QWORD			; type_info::`vftable'
EXTRN	?USE_VIETNAM_CONVERT_WEAPON_VNUM@@3HA:DWORD	; USE_VIETNAM_CONVERT_WEAPON_VNUM
EXTRN	___security_cookie:DWORD
EXTRN	__fltused:DWORD
;	COMDAT ?_OptionsStorage@?1??__local_stdio_printf_options@@9@4_KA
_BSS	SEGMENT
?_OptionsStorage@?1??__local_stdio_printf_options@@9@4_KA DQ 01H DUP (?) ; `__local_stdio_printf_options'::`2'::_OptionsStorage
_BSS	ENDS
;	COMDAT ?ms_singleton@?$CSingleton@VCLZO@@@@0PAVCLZO@@A
_BSS	SEGMENT
?ms_singleton@?$CSingleton@VCLZO@@@@0PAVCLZO@@A DD 01H DUP (?) ; CSingleton<CLZO>::ms_singleton
_BSS	ENDS
;	COMDAT ?ms_singleton@?$CSingleton@VCEterPackManager@@@@0PAVCEterPackManager@@A
_BSS	SEGMENT
?ms_singleton@?$CSingleton@VCEterPackManager@@@@0PAVCEterPackManager@@A DD 01H DUP (?) ; CSingleton<CEterPackManager>::ms_singleton
_BSS	ENDS
;	COMDAT ?ms_singleton@?$CSingleton@VCResourceManager@@@@0PAVCResourceManager@@A
_BSS	SEGMENT
?ms_singleton@?$CSingleton@VCResourceManager@@@@0PAVCResourceManager@@A DD 01H DUP (?) ; CSingleton<CResourceManager>::ms_singleton
_BSS	ENDS
;	COMDAT ?ms_singleton@?$CSingleton@VCItemManager@@@@0PAVCItemManager@@A
_BSS	SEGMENT
?ms_singleton@?$CSingleton@VCItemManager@@@@0PAVCItemManager@@A DD 01H DUP (?) ; CSingleton<CItemManager>::ms_singleton
_BSS	ENDS
;	COMDAT __real@3f847ae140000000
CONST	SEGMENT
__real@3f847ae140000000 DQ 03f847ae140000000r	; 0.01
CONST	ENDS
;	COMDAT __real@3f800000
CONST	SEGMENT
__real@3f800000 DD 03f800000r			; 1
CONST	ENDS
;	COMDAT ??_R4?$CSingleton@VCItemManager@@@@6B@
rdata$r	SEGMENT
??_R4?$CSingleton@VCItemManager@@@@6B@ DD 00H		; CSingleton<CItemManager>::`RTTI Complete Object Locator'
	DD	00H
	DD	00H
	DD	FLAT:??_R0?AV?$CSingleton@VCItemManager@@@@@8
	DD	FLAT:??_R3?$CSingleton@VCItemManager@@@@8
rdata$r	ENDS
;	COMDAT ??_R2?$CSingleton@VCItemManager@@@@8
rdata$r	SEGMENT
??_R2?$CSingleton@VCItemManager@@@@8 DD FLAT:??_R1A@?0A@EA@?$CSingleton@VCItemManager@@@@8 ; CSingleton<CItemManager>::`RTTI Base Class Array'
rdata$r	ENDS
;	COMDAT ??_R3?$CSingleton@VCItemManager@@@@8
rdata$r	SEGMENT
??_R3?$CSingleton@VCItemManager@@@@8 DD 00H		; CSingleton<CItemManager>::`RTTI Class Hierarchy Descriptor'
	DD	00H
	DD	01H
	DD	FLAT:??_R2?$CSingleton@VCItemManager@@@@8
rdata$r	ENDS
;	COMDAT ??_R0?AV?$CSingleton@VCItemManager@@@@@8
data$rs	SEGMENT
??_R0?AV?$CSingleton@VCItemManager@@@@@8 DD FLAT:??_7type_info@@6B@ ; CSingleton<CItemManager> `RTTI Type Descriptor'
	DD	00H
	DB	'.?AV?$CSingleton@VCItemManager@@@@', 00H
data$rs	ENDS
;	COMDAT ??_R1A@?0A@EA@?$CSingleton@VCItemManager@@@@8
rdata$r	SEGMENT
??_R1A@?0A@EA@?$CSingleton@VCItemManager@@@@8 DD FLAT:??_R0?AV?$CSingleton@VCItemManager@@@@@8 ; CSingleton<CItemManager>::`RTTI Base Class Descriptor at (0,-1,0,64)'
	DD	00H
	DD	00H
	DD	0ffffffffH
	DD	00H
	DD	040H
	DD	FLAT:??_R3?$CSingleton@VCItemManager@@@@8
rdata$r	ENDS
;	COMDAT ??_R1A@?0A@EA@CItemManager@@8
rdata$r	SEGMENT
??_R1A@?0A@EA@CItemManager@@8 DD FLAT:??_R0?AVCItemManager@@@8 ; CItemManager::`RTTI Base Class Descriptor at (0,-1,0,64)'
	DD	01H
	DD	00H
	DD	0ffffffffH
	DD	00H
	DD	040H
	DD	FLAT:??_R3CItemManager@@8
rdata$r	ENDS
;	COMDAT ??_R2CItemManager@@8
rdata$r	SEGMENT
??_R2CItemManager@@8 DD FLAT:??_R1A@?0A@EA@CItemManager@@8 ; CItemManager::`RTTI Base Class Array'
	DD	FLAT:??_R1A@?0A@EA@?$CSingleton@VCItemManager@@@@8
rdata$r	ENDS
;	COMDAT ??_R3CItemManager@@8
rdata$r	SEGMENT
??_R3CItemManager@@8 DD 00H				; CItemManager::`RTTI Class Hierarchy Descriptor'
	DD	00H
	DD	02H
	DD	FLAT:??_R2CItemManager@@8
rdata$r	ENDS
;	COMDAT ??_R0?AVCItemManager@@@8
data$rs	SEGMENT
??_R0?AVCItemManager@@@8 DD FLAT:??_7type_info@@6B@	; CItemManager `RTTI Type Descriptor'
	DD	00H
	DB	'.?AVCItemManager@@', 00H
data$rs	ENDS
;	COMDAT ??_R4CItemManager@@6B@
rdata$r	SEGMENT
??_R4CItemManager@@6B@ DD 00H				; CItemManager::`RTTI Complete Object Locator'
	DD	00H
	DD	00H
	DD	FLAT:??_R0?AVCItemManager@@@8
	DD	FLAT:??_R3CItemManager@@8
rdata$r	ENDS
;	COMDAT ??_C@_0BA@FOIKENOD@vector?5too?5long@
CONST	SEGMENT
??_C@_0BA@FOIKENOD@vector?5too?5long@ DB 'vector too long', 00H ; `string'
CONST	ENDS
;	COMDAT ??_C@_0DF@DOEGMGNI@?5CItemManager?3?3LoadAuraScale?$CI?$CFs@
CONST	SEGMENT
??_C@_0DF@DOEGMGNI@?5CItemManager?3?3LoadAuraScale?$CI?$CFs@ DB ' CItemMa'
	DB	'nager::LoadAuraScale(%s) - Error on line %d', 0aH, 00H ; `string'
CONST	ENDS
;	COMDAT ??_C@_0FK@BGOPJJIB@CItemManager?3?3LoadShiningTable?$CI@
CONST	SEGMENT
??_C@_0FK@BGOPJJIB@CItemManager?3?3LoadShiningTable?$CI@ DB 'CItemManager'
	DB	'::LoadShiningTable(%s) - LoadShiningTable in %d', 0aH, ' - Ro'
	DB	'wSize: %d MaxRowSize: %d', 00H		; `string'
CONST	ENDS
;	COMDAT ??_C@_0M@BIDPEPDP@JOB_WOLFMAN@
CONST	SEGMENT
??_C@_0M@BIDPEPDP@JOB_WOLFMAN@ DB 'JOB_WOLFMAN', 00H	; `string'
CONST	ENDS
;	COMDAT ??_C@_0L@FBDFJGPA@JOB_SHAMAN@
CONST	SEGMENT
??_C@_0L@FBDFJGPA@JOB_SHAMAN@ DB 'JOB_SHAMAN', 00H	; `string'
CONST	ENDS
;	COMDAT ??_C@_08IJIBKCOK@JOB_SURA@
CONST	SEGMENT
??_C@_08IJIBKCOK@JOB_SURA@ DB 'JOB_SURA', 00H		; `string'
CONST	ENDS
;	COMDAT ??_C@_0N@IAFGBDIL@JOB_ASSASSIN@
CONST	SEGMENT
??_C@_0N@IAFGBDIL@JOB_ASSASSIN@ DB 'JOB_ASSASSIN', 00H	; `string'
CONST	ENDS
;	COMDAT ??_C@_0DF@BOLLEAGK@?5CItemManager?3?3LoadItemScale?$CI?$CFs@
CONST	SEGMENT
??_C@_0DF@BOLLEAGK@?5CItemManager?3?3LoadItemScale?$CI?$CFs@ DB ' CItemMa'
	DB	'nager::LoadItemScale(%s) - Error on line %d', 0aH, 00H ; `string'
CONST	ENDS
;	COMDAT ??_C@_0BD@KPPKEKHD@icon?1item?1?$CF05d?4tga@
CONST	SEGMENT
??_C@_0BD@KPPKEKHD@icon?1item?1?$CF05d?4tga@ DB 'icon/item/%05d.tga', 00H ; `string'
CONST	ENDS
;	COMDAT ??_C@_0DH@PMBKMONN@CPythonItem?3?3LoadItemTable?3?5inv@
CONST	SEGMENT
??_C@_0DH@PMBKMONN@CPythonItem?3?3LoadItemTable?3?5inv@ DB 'CPythonItem::'
	DB	'LoadItemTable: invalid item proto type %s', 00H ; `string'
CONST	ENDS
;	COMDAT ??_C@_0FE@FEBCGCHP@CPythonItem?3?3LoadItemTable?3?5inv@
CONST	SEGMENT
??_C@_0FE@FEBCGCHP@CPythonItem?3?3LoadItemTable?3?5inv@ DB 'CPythonItem::'
	DB	'LoadItemTable: invalid item_proto[%s] STRIDE[%d] != sizeof(SI'
	DB	'temTable)', 00H				; `string'
CONST	ENDS
;	COMDAT ??_C@_0DP@NBGHGGP@CPythonItem?3?3LoadItemTable?3?5inv@
CONST	SEGMENT
??_C@_0DP@NBGHGGP@CPythonItem?3?3LoadItemTable?3?5inv@ DB 'CPythonItem::L'
	DB	'oadItemTable: invalid item_proto[%s] VERSION[%d]', 00H ; `string'
CONST	ENDS
;	COMDAT ??_C@_0DJ@OBCJLLMB@CItemManager?3?3LoadItemDesc?$CIc_sz@
CONST	SEGMENT
??_C@_0DJ@OBCJLLMB@CItemManager?3?3LoadItemDesc?$CIc_sz@ DB 'CItemManager'
	DB	'::LoadItemDesc(c_szFileName=%s) - Load Error', 00H ; `string'
CONST	ENDS
;	COMDAT ??_C@_04CGMHACBB@AURA@
CONST	SEGMENT
??_C@_04CGMHACBB@AURA@ DB 'AURA', 00H			; `string'
CONST	ENDS
;	COMDAT ??_C@_0CC@GKBFKKKF@d?3?1ymir?5work?1item?1weapon?1?$CF?45d?4g@
CONST	SEGMENT
??_C@_0CC@GKBFKKKF@d?3?1ymir?5work?1item?1weapon?1?$CF?45d?4g@ DB 'd:/ymi'
	DB	'r work/item/weapon/%.5d.gr2', 00H		; `string'
CONST	ENDS
;	COMDAT ??_C@_0BD@MGMLGJGK@icon?1item?1?$CF?45d?4tga@
CONST	SEGMENT
??_C@_0BD@MGMLGJGK@icon?1item?1?$CF?45d?4tga@ DB 'icon/item/%.5d.tga', 00H ; `string'
CONST	ENDS
;	COMDAT ??_C@_0DF@BBNNBFGM@?5CItemManager?3?3LoadItemList?$CI?$CFs?$CJ@
CONST	SEGMENT
??_C@_0DF@BBNNBFGM@?5CItemManager?3?3LoadItemList?$CI?$CFs?$CJ@ DB ' CIte'
	DB	'mManager::LoadItemList(%s) - StrangeLine in %d', 0aH, 00H ; `string'
CONST	ENDS
;	COMDAT ??_C@_01GPOEFGEJ@?7@
CONST	SEGMENT
??_C@_01GPOEFGEJ@?7@ DB 09H, 00H			; `string'
CONST	ENDS
;	COMDAT ??_C@_0DF@GPLOHCFJ@?5CItemManager?3?3GetItemDataPoint@
CONST	SEGMENT
??_C@_0DF@GPLOHCFJ@?5CItemManager?3?3GetItemDataPoint@ DB ' CItemManager:'
	DB	':GetItemDataPointer - FIND ERROR [%d]', 0aH, 00H ; `string'
CONST	ENDS
;	COMDAT ??_C@_0DB@OJKGMCEF@?5CItemManager?3?3SelectItemData?5?9@
CONST	SEGMENT
??_C@_0DB@OJKGMCEF@?5CItemManager?3?3SelectItemData?5?9@ DB ' CItemManage'
	DB	'r::SelectItemData - FIND ERROR [%d]', 0aH, 00H ; `string'
CONST	ENDS
_DATA	SEGMENT
?s_adwItemProtoKey@@3PAKA DD 02a4a1H			; s_adwItemProtoKey
	DD	045415aaH
	DD	0185a8be7H
	DD	01aad6abH
_DATA	ENDS
;	COMDAT ??_7CItemManager@@6B@
CONST	SEGMENT
??_7CItemManager@@6B@ DD FLAT:??_R4CItemManager@@6B@	; CItemManager::`vftable'
	DD	FLAT:??_ECItemManager@@UAEPAXI@Z
CONST	ENDS
;	COMDAT ??_7?$CSingleton@VCItemManager@@@@6B@
CONST	SEGMENT
??_7?$CSingleton@VCItemManager@@@@6B@ DD FLAT:??_R4?$CSingleton@VCItemManager@@@@6B@ ; CSingleton<CItemManager>::`vftable'
	DD	FLAT:??_E?$CSingleton@VCItemManager@@@@UAEPAXI@Z
CONST	ENDS
;	COMDAT ??_R1A@?0A@EA@bad_array_new_length@std@@8
rdata$r	SEGMENT
??_R1A@?0A@EA@bad_array_new_length@std@@8 DD FLAT:??_R0?AVbad_array_new_length@std@@@8 ; std::bad_array_new_length::`RTTI Base Class Descriptor at (0,-1,0,64)'
	DD	02H
	DD	00H
	DD	0ffffffffH
	DD	00H
	DD	040H
	DD	FLAT:??_R3bad_array_new_length@std@@8
rdata$r	ENDS
;	COMDAT ??_R2bad_array_new_length@std@@8
rdata$r	SEGMENT
??_R2bad_array_new_length@std@@8 DD FLAT:??_R1A@?0A@EA@bad_array_new_length@std@@8 ; std::bad_array_new_length::`RTTI Base Class Array'
	DD	FLAT:??_R1A@?0A@EA@bad_alloc@std@@8
	DD	FLAT:??_R1A@?0A@EA@exception@std@@8
rdata$r	ENDS
;	COMDAT ??_R3bad_array_new_length@std@@8
rdata$r	SEGMENT
??_R3bad_array_new_length@std@@8 DD 00H			; std::bad_array_new_length::`RTTI Class Hierarchy Descriptor'
	DD	00H
	DD	03H
	DD	FLAT:??_R2bad_array_new_length@std@@8
rdata$r	ENDS
;	COMDAT ??_R4bad_array_new_length@std@@6B@
rdata$r	SEGMENT
??_R4bad_array_new_length@std@@6B@ DD 00H		; std::bad_array_new_length::`RTTI Complete Object Locator'
	DD	00H
	DD	00H
	DD	FLAT:??_R0?AVbad_array_new_length@std@@@8
	DD	FLAT:??_R3bad_array_new_length@std@@8
rdata$r	ENDS
;	COMDAT ??_R1A@?0A@EA@bad_alloc@std@@8
rdata$r	SEGMENT
??_R1A@?0A@EA@bad_alloc@std@@8 DD FLAT:??_R0?AVbad_alloc@std@@@8 ; std::bad_alloc::`RTTI Base Class Descriptor at (0,-1,0,64)'
	DD	01H
	DD	00H
	DD	0ffffffffH
	DD	00H
	DD	040H
	DD	FLAT:??_R3bad_alloc@std@@8
rdata$r	ENDS
;	COMDAT ??_R2bad_alloc@std@@8
rdata$r	SEGMENT
??_R2bad_alloc@std@@8 DD FLAT:??_R1A@?0A@EA@bad_alloc@std@@8 ; std::bad_alloc::`RTTI Base Class Array'
	DD	FLAT:??_R1A@?0A@EA@exception@std@@8
rdata$r	ENDS
;	COMDAT ??_R3bad_alloc@std@@8
rdata$r	SEGMENT
??_R3bad_alloc@std@@8 DD 00H				; std::bad_alloc::`RTTI Class Hierarchy Descriptor'
	DD	00H
	DD	02H
	DD	FLAT:??_R2bad_alloc@std@@8
rdata$r	ENDS
;	COMDAT ??_R4bad_alloc@std@@6B@
rdata$r	SEGMENT
??_R4bad_alloc@std@@6B@ DD 00H				; std::bad_alloc::`RTTI Complete Object Locator'
	DD	00H
	DD	00H
	DD	FLAT:??_R0?AVbad_alloc@std@@@8
	DD	FLAT:??_R3bad_alloc@std@@8
rdata$r	ENDS
;	COMDAT ??_R1A@?0A@EA@exception@std@@8
rdata$r	SEGMENT
??_R1A@?0A@EA@exception@std@@8 DD FLAT:??_R0?AVexception@std@@@8 ; std::exception::`RTTI Base Class Descriptor at (0,-1,0,64)'
	DD	00H
	DD	00H
	DD	0ffffffffH
	DD	00H
	DD	040H
	DD	FLAT:??_R3exception@std@@8
rdata$r	ENDS
;	COMDAT ??_R2exception@std@@8
rdata$r	SEGMENT
??_R2exception@std@@8 DD FLAT:??_R1A@?0A@EA@exception@std@@8 ; std::exception::`RTTI Base Class Array'
rdata$r	ENDS
;	COMDAT ??_R3exception@std@@8
rdata$r	SEGMENT
??_R3exception@std@@8 DD 00H				; std::exception::`RTTI Class Hierarchy Descriptor'
	DD	00H
	DD	01H
	DD	FLAT:??_R2exception@std@@8
rdata$r	ENDS
;	COMDAT ??_R4exception@std@@6B@
rdata$r	SEGMENT
??_R4exception@std@@6B@ DD 00H				; std::exception::`RTTI Complete Object Locator'
	DD	00H
	DD	00H
	DD	FLAT:??_R0?AVexception@std@@@8
	DD	FLAT:??_R3exception@std@@8
rdata$r	ENDS
;	COMDAT ??_C@_0BI@CFPLBAOH@invalid?5string?5position@
CONST	SEGMENT
??_C@_0BI@CFPLBAOH@invalid?5string?5position@ DB 'invalid string position'
	DB	00H						; `string'
CONST	ENDS
;	COMDAT ??_C@_00CNPNBAHC@@
CONST	SEGMENT
??_C@_00CNPNBAHC@@ DB 00H				; `string'
CONST	ENDS
;	COMDAT ??_C@_0BB@GCADKGJO@map?1set?5too?5long@
CONST	SEGMENT
??_C@_0BB@GCADKGJO@map?1set?5too?5long@ DB 'map/set too long', 00H ; `string'
CONST	ENDS
;	COMDAT ??_C@_0BA@JFNIOLAK@string?5too?5long@
CONST	SEGMENT
??_C@_0BA@JFNIOLAK@string?5too?5long@ DB 'string too long', 00H ; `string'
CONST	ENDS
;	COMDAT __CT??_R0?AVexception@std@@@8??0exception@std@@QAE@ABV01@@Z12
xdata$x	SEGMENT
__CT??_R0?AVexception@std@@@8??0exception@std@@QAE@ABV01@@Z12 DD 00H
	DD	FLAT:??_R0?AVexception@std@@@8
	DD	00H
	DD	0ffffffffH
	ORG $+4
	DD	0cH
	DD	FLAT:??0exception@std@@QAE@ABV01@@Z
xdata$x	ENDS
;	COMDAT ??_R0?AVexception@std@@@8
data$r	SEGMENT
??_R0?AVexception@std@@@8 DD FLAT:??_7type_info@@6B@	; std::exception `RTTI Type Descriptor'
	DD	00H
	DB	'.?AVexception@std@@', 00H
data$r	ENDS
;	COMDAT __CT??_R0?AVbad_alloc@std@@@8??0bad_alloc@std@@QAE@ABV01@@Z12
xdata$x	SEGMENT
__CT??_R0?AVbad_alloc@std@@@8??0bad_alloc@std@@QAE@ABV01@@Z12 DD 010H
	DD	FLAT:??_R0?AVbad_alloc@std@@@8
	DD	00H
	DD	0ffffffffH
	ORG $+4
	DD	0cH
	DD	FLAT:??0bad_alloc@std@@QAE@ABV01@@Z
xdata$x	ENDS
;	COMDAT ??_R0?AVbad_alloc@std@@@8
data$r	SEGMENT
??_R0?AVbad_alloc@std@@@8 DD FLAT:??_7type_info@@6B@	; std::bad_alloc `RTTI Type Descriptor'
	DD	00H
	DB	'.?AVbad_alloc@std@@', 00H
data$r	ENDS
;	COMDAT __CT??_R0?AVbad_array_new_length@std@@@8??0bad_array_new_length@std@@QAE@ABV01@@Z12
xdata$x	SEGMENT
__CT??_R0?AVbad_array_new_length@std@@@8??0bad_array_new_length@std@@QAE@ABV01@@Z12 DD 00H
	DD	FLAT:??_R0?AVbad_array_new_length@std@@@8
	DD	00H
	DD	0ffffffffH
	ORG $+4
	DD	0cH
	DD	FLAT:??0bad_array_new_length@std@@QAE@ABV01@@Z
xdata$x	ENDS
;	COMDAT ??_R0?AVbad_array_new_length@std@@@8
data$r	SEGMENT
??_R0?AVbad_array_new_length@std@@@8 DD FLAT:??_7type_info@@6B@ ; std::bad_array_new_length `RTTI Type Descriptor'
	DD	00H
	DB	'.?AVbad_array_new_length@std@@', 00H
data$r	ENDS
;	COMDAT __CTA3?AVbad_array_new_length@std@@
xdata$x	SEGMENT
__CTA3?AVbad_array_new_length@std@@ DD 03H
	DD	FLAT:__CT??_R0?AVbad_array_new_length@std@@@8??0bad_array_new_length@std@@QAE@ABV01@@Z12
	DD	FLAT:__CT??_R0?AVbad_alloc@std@@@8??0bad_alloc@std@@QAE@ABV01@@Z12
	DD	FLAT:__CT??_R0?AVexception@std@@@8??0exception@std@@QAE@ABV01@@Z12
xdata$x	ENDS
;	COMDAT __TI3?AVbad_array_new_length@std@@
xdata$x	SEGMENT
__TI3?AVbad_array_new_length@std@@ DD 00H
	DD	FLAT:??1bad_array_new_length@std@@UAE@XZ
	DD	00H
	DD	FLAT:__CTA3?AVbad_array_new_length@std@@
xdata$x	ENDS
;	COMDAT ??_C@_0BF@KINCDENJ@bad?5array?5new?5length@
CONST	SEGMENT
??_C@_0BF@KINCDENJ@bad?5array?5new?5length@ DB 'bad array new length', 00H ; `string'
CONST	ENDS
;	COMDAT ??_7bad_array_new_length@std@@6B@
CONST	SEGMENT
??_7bad_array_new_length@std@@6B@ DD FLAT:??_R4bad_array_new_length@std@@6B@ ; std::bad_array_new_length::`vftable'
	DD	FLAT:??_Ebad_array_new_length@std@@UAEPAXI@Z
	DD	FLAT:?what@exception@std@@UBEPBDXZ
CONST	ENDS
;	COMDAT ??_7bad_alloc@std@@6B@
CONST	SEGMENT
??_7bad_alloc@std@@6B@ DD FLAT:??_R4bad_alloc@std@@6B@	; std::bad_alloc::`vftable'
	DD	FLAT:??_Ebad_alloc@std@@UAEPAXI@Z
	DD	FLAT:?what@exception@std@@UBEPBDXZ
CONST	ENDS
;	COMDAT ??_C@_0BC@EOODALEL@Unknown?5exception@
CONST	SEGMENT
??_C@_0BC@EOODALEL@Unknown?5exception@ DB 'Unknown exception', 00H ; `string'
CONST	ENDS
;	COMDAT ??_7exception@std@@6B@
CONST	SEGMENT
??_7exception@std@@6B@ DD FLAT:??_R4exception@std@@6B@	; std::exception::`vftable'
	DD	FLAT:??_Eexception@std@@UAEPAXI@Z
	DD	FLAT:?what@exception@std@@UBEPBDXZ
CONST	ENDS
;	COMDAT xdata$x
xdata$x	SEGMENT
__unwindtable$??$?0U?$pair@$$CBKK@std@@@?$_Tree_temp_node@V?$allocator@U?$_Tree_node@U?$pair@$$CBKK@std@@PAX@std@@@std@@@std@@QAE@AAV?$allocator@U?$_Tree_node@U?$pair@$$CBKK@std@@PAX@std@@@1@PAU?$_Tree_node@U?$pair@$$CBKK@std@@PAX@1@$$QAU?$pair@$$CBKK@1@@Z DD 0ffffffffH
	DD	FLAT:__unwindfunclet$??$?0U?$pair@$$CBKK@std@@@?$_Tree_temp_node@V?$allocator@U?$_Tree_node@U?$pair@$$CBKK@std@@PAX@std@@@std@@@std@@QAE@AAV?$allocator@U?$_Tree_node@U?$pair@$$CBKK@std@@PAX@std@@@1@PAU?$_Tree_node@U?$pair@$$CBKK@std@@PAX@1@$$QAU?$pair@$$CBKK@1@@Z$1
__ehfuncinfo$??$?0U?$pair@$$CBKK@std@@@?$_Tree_temp_node@V?$allocator@U?$_Tree_node@U?$pair@$$CBKK@std@@PAX@std@@@std@@@std@@QAE@AAV?$allocator@U?$_Tree_node@U?$pair@$$CBKK@std@@PAX@std@@@1@PAU?$_Tree_node@U?$pair@$$CBKK@std@@PAX@1@$$QAU?$pair@$$CBKK@1@@Z DD 019930522H
	DD	01H
	DD	FLAT:__unwindtable$??$?0U?$pair@$$CBKK@std@@@?$_Tree_temp_node@V?$allocator@U?$_Tree_node@U?$pair@$$CBKK@std@@PAX@std@@@std@@@std@@QAE@AAV?$allocator@U?$_Tree_node@U?$pair@$$CBKK@std@@PAX@std@@@1@PAU?$_Tree_node@U?$pair@$$CBKK@std@@PAX@1@$$QAU?$pair@$$CBKK@1@@Z
	DD	2 DUP(00H)
	DD	2 DUP(00H)
	DD	00H
	DD	01H
xdata$x	ENDS
;	COMDAT xdata$x
xdata$x	SEGMENT
__unwindtable$??0?$_Tree_temp_node_alloc@V?$allocator@U?$_Tree_node@U?$pair@$$CBKK@std@@PAX@std@@@std@@@std@@QAE@AAV?$allocator@U?$_Tree_node@U?$pair@$$CBKK@std@@PAX@std@@@1@@Z DD 0ffffffffH
	DD	FLAT:__unwindfunclet$??0?$_Tree_temp_node_alloc@V?$allocator@U?$_Tree_node@U?$pair@$$CBKK@std@@PAX@std@@@std@@@std@@QAE@AAV?$allocator@U?$_Tree_node@U?$pair@$$CBKK@std@@PAX@std@@@1@@Z$0
__ehfuncinfo$??0?$_Tree_temp_node_alloc@V?$allocator@U?$_Tree_node@U?$pair@$$CBKK@std@@PAX@std@@@std@@@std@@QAE@AAV?$allocator@U?$_Tree_node@U?$pair@$$CBKK@std@@PAX@std@@@1@@Z DD 019930522H
	DD	01H
	DD	FLAT:__unwindtable$??0?$_Tree_temp_node_alloc@V?$allocator@U?$_Tree_node@U?$pair@$$CBKK@std@@PAX@std@@@std@@@std@@QAE@AAV?$allocator@U?$_Tree_node@U?$pair@$$CBKK@std@@PAX@std@@@1@@Z
	DD	2 DUP(00H)
	DD	2 DUP(00H)
	DD	00H
	DD	01H
xdata$x	ENDS
;	COMDAT xdata$x
xdata$x	SEGMENT
__unwindtable$??$?0U?$pair@$$CBKPAVCItemData@@@std@@@?$_Tree_temp_node@V?$allocator@U?$_Tree_node@U?$pair@$$CBKPAVCItemData@@@std@@PAX@std@@@std@@@std@@QAE@AAV?$allocator@U?$_Tree_node@U?$pair@$$CBKPAVCItemData@@@std@@PAX@std@@@1@PAU?$_Tree_node@U?$pair@$$CBKPAVCItemData@@@std@@PAX@1@$$QAU?$pair@$$CBKPAVCItemData@@@1@@Z DD 0ffffffffH
	DD	FLAT:__unwindfunclet$??$?0U?$pair@$$CBKPAVCItemData@@@std@@@?$_Tree_temp_node@V?$allocator@U?$_Tree_node@U?$pair@$$CBKPAVCItemData@@@std@@PAX@std@@@std@@@std@@QAE@AAV?$allocator@U?$_Tree_node@U?$pair@$$CBKPAVCItemData@@@std@@PAX@std@@@1@PAU?$_Tree_node@U?$pair@$$CBKPAVCItemData@@@std@@PAX@1@$$QAU?$pair@$$CBKPAVCItemData@@@1@@Z$1
__ehfuncinfo$??$?0U?$pair@$$CBKPAVCItemData@@@std@@@?$_Tree_temp_node@V?$allocator@U?$_Tree_node@U?$pair@$$CBKPAVCItemData@@@std@@PAX@std@@@std@@@std@@QAE@AAV?$allocator@U?$_Tree_node@U?$pair@$$CBKPAVCItemData@@@std@@PAX@std@@@1@PAU?$_Tree_node@U?$pair@$$CBKPAVCItemData@@@std@@PAX@1@$$QAU?$pair@$$CBKPAVCItemData@@@1@@Z DD 019930522H
	DD	01H
	DD	FLAT:__unwindtable$??$?0U?$pair@$$CBKPAVCItemData@@@std@@@?$_Tree_temp_node@V?$allocator@U?$_Tree_node@U?$pair@$$CBKPAVCItemData@@@std@@PAX@std@@@std@@@std@@QAE@AAV?$allocator@U?$_Tree_node@U?$pair@$$CBKPAVCItemData@@@std@@PAX@std@@@1@PAU?$_Tree_node@U?$pair@$$CBKPAVCItemData@@@std@@PAX@1@$$QAU?$pair@$$CBKPAVCItemData@@@1@@Z
	DD	2 DUP(00H)
	DD	2 DUP(00H)
	DD	00H
	DD	01H
xdata$x	ENDS
;	COMDAT xdata$x
xdata$x	SEGMENT
__unwindtable$??0?$_Tree_temp_node_alloc@V?$allocator@U?$_Tree_node@U?$pair@$$CBKPAVCItemData@@@std@@PAX@std@@@std@@@std@@QAE@AAV?$allocator@U?$_Tree_node@U?$pair@$$CBKPAVCItemData@@@std@@PAX@std@@@1@@Z DD 0ffffffffH
	DD	FLAT:__unwindfunclet$??0?$_Tree_temp_node_alloc@V?$allocator@U?$_Tree_node@U?$pair@$$CBKPAVCItemData@@@std@@PAX@std@@@std@@@std@@QAE@AAV?$allocator@U?$_Tree_node@U?$pair@$$CBKPAVCItemData@@@std@@PAX@std@@@1@@Z$0
__ehfuncinfo$??0?$_Tree_temp_node_alloc@V?$allocator@U?$_Tree_node@U?$pair@$$CBKPAVCItemData@@@std@@PAX@std@@@std@@@std@@QAE@AAV?$allocator@U?$_Tree_node@U?$pair@$$CBKPAVCItemData@@@std@@PAX@std@@@1@@Z DD 019930522H
	DD	01H
	DD	FLAT:__unwindtable$??0?$_Tree_temp_node_alloc@V?$allocator@U?$_Tree_node@U?$pair@$$CBKPAVCItemData@@@std@@PAX@std@@@std@@@std@@QAE@AAV?$allocator@U?$_Tree_node@U?$pair@$$CBKPAVCItemData@@@std@@PAX@std@@@1@@Z
	DD	2 DUP(00H)
	DD	2 DUP(00H)
	DD	00H
	DD	01H
xdata$x	ENDS
;	COMDAT xdata$x
xdata$x	SEGMENT
__unwindtable$??$_Emplace@U?$pair@$$CBKK@std@@@?$_Tree@V?$_Tmap_traits@KKU?$less@K@std@@V?$allocator@U?$pair@$$CBKK@std@@@2@$0A@@std@@@std@@IAE?AU?$pair@PAU?$_Tree_node@U?$pair@$$CBKK@std@@PAX@std@@_N@1@$$QAU?$pair@$$CBKK@1@@Z DD 0ffffffffH
	DD	FLAT:__unwindfunclet$??$_Emplace@U?$pair@$$CBKK@std@@@?$_Tree@V?$_Tmap_traits@KKU?$less@K@std@@V?$allocator@U?$pair@$$CBKK@std@@@2@$0A@@std@@@std@@IAE?AU?$pair@PAU?$_Tree_node@U?$pair@$$CBKK@std@@PAX@std@@_N@1@$$QAU?$pair@$$CBKK@1@@Z$2
__ehfuncinfo$??$_Emplace@U?$pair@$$CBKK@std@@@?$_Tree@V?$_Tmap_traits@KKU?$less@K@std@@V?$allocator@U?$pair@$$CBKK@std@@@2@$0A@@std@@@std@@IAE?AU?$pair@PAU?$_Tree_node@U?$pair@$$CBKK@std@@PAX@std@@_N@1@$$QAU?$pair@$$CBKK@1@@Z DD 019930522H
	DD	01H
	DD	FLAT:__unwindtable$??$_Emplace@U?$pair@$$CBKK@std@@@?$_Tree@V?$_Tmap_traits@KKU?$less@K@std@@V?$allocator@U?$pair@$$CBKK@std@@@2@$0A@@std@@@std@@IAE?AU?$pair@PAU?$_Tree_node@U?$pair@$$CBKK@std@@PAX@std@@_N@1@$$QAU?$pair@$$CBKK@1@@Z
	DD	2 DUP(00H)
	DD	2 DUP(00H)
	DD	00H
	DD	01H
xdata$x	ENDS
;	COMDAT xdata$x
xdata$x	SEGMENT
__unwindtable$??$_Emplace@U?$pair@$$CBKPAVCItemData@@@std@@@?$_Tree@V?$_Tmap_traits@KPAVCItemData@@U?$less@K@std@@V?$allocator@U?$pair@$$CBKPAVCItemData@@@std@@@3@$0A@@std@@@std@@IAE?AU?$pair@PAU?$_Tree_node@U?$pair@$$CBKPAVCItemData@@@std@@PAX@std@@_N@1@$$QAU?$pair@$$CBKPAVCItemData@@@1@@Z DD 0ffffffffH
	DD	FLAT:__unwindfunclet$??$_Emplace@U?$pair@$$CBKPAVCItemData@@@std@@@?$_Tree@V?$_Tmap_traits@KPAVCItemData@@U?$less@K@std@@V?$allocator@U?$pair@$$CBKPAVCItemData@@@std@@@3@$0A@@std@@@std@@IAE?AU?$pair@PAU?$_Tree_node@U?$pair@$$CBKPAVCItemData@@@std@@PAX@std@@_N@1@$$QAU?$pair@$$CBKPAVCItemData@@@1@@Z$2
__ehfuncinfo$??$_Emplace@U?$pair@$$CBKPAVCItemData@@@std@@@?$_Tree@V?$_Tmap_traits@KPAVCItemData@@U?$less@K@std@@V?$allocator@U?$pair@$$CBKPAVCItemData@@@std@@@3@$0A@@std@@@std@@IAE?AU?$pair@PAU?$_Tree_node@U?$pair@$$CBKPAVCItemData@@@std@@PAX@std@@_N@1@$$QAU?$pair@$$CBKPAVCItemData@@@1@@Z DD 019930522H
	DD	01H
	DD	FLAT:__unwindtable$??$_Emplace@U?$pair@$$CBKPAVCItemData@@@std@@@?$_Tree@V?$_Tmap_traits@KPAVCItemData@@U?$less@K@std@@V?$allocator@U?$pair@$$CBKPAVCItemData@@@std@@@3@$0A@@std@@@std@@IAE?AU?$pair@PAU?$_Tree_node@U?$pair@$$CBKPAVCItemData@@@std@@PAX@std@@_N@1@$$QAU?$pair@$$CBKPAVCItemData@@@1@@Z
	DD	2 DUP(00H)
	DD	2 DUP(00H)
	DD	00H
	DD	01H
xdata$x	ENDS
;	COMDAT xdata$x
xdata$x	SEGMENT
__unwindtable$??$insert@$0A@$0A@@?$_Tree@V?$_Tmap_traits@KKU?$less@K@std@@V?$allocator@U?$pair@$$CBKK@std@@@2@$0A@@std@@@std@@QAE?AU?$pair@V?$_Tree_iterator@V?$_Tree_val@U?$_Tree_simple_types@U?$pair@$$CBKK@std@@@std@@@std@@@std@@_N@1@$$QAU?$pair@$$CBKK@1@@Z DD 0ffffffffH
	DD	FLAT:__unwindfunclet$??$insert@$0A@$0A@@?$_Tree@V?$_Tmap_traits@KKU?$less@K@std@@V?$allocator@U?$pair@$$CBKK@std@@@2@$0A@@std@@@std@@QAE?AU?$pair@V?$_Tree_iterator@V?$_Tree_val@U?$_Tree_simple_types@U?$pair@$$CBKK@std@@@std@@@std@@@std@@_N@1@$$QAU?$pair@$$CBKK@1@@Z$2
__ehfuncinfo$??$insert@$0A@$0A@@?$_Tree@V?$_Tmap_traits@KKU?$less@K@std@@V?$allocator@U?$pair@$$CBKK@std@@@2@$0A@@std@@@std@@QAE?AU?$pair@V?$_Tree_iterator@V?$_Tree_val@U?$_Tree_simple_types@U?$pair@$$CBKK@std@@@std@@@std@@@std@@_N@1@$$QAU?$pair@$$CBKK@1@@Z DD 019930522H
	DD	01H
	DD	FLAT:__unwindtable$??$insert@$0A@$0A@@?$_Tree@V?$_Tmap_traits@KKU?$less@K@std@@V?$allocator@U?$pair@$$CBKK@std@@@2@$0A@@std@@@std@@QAE?AU?$pair@V?$_Tree_iterator@V?$_Tree_val@U?$_Tree_simple_types@U?$pair@$$CBKK@std@@@std@@@std@@@std@@_N@1@$$QAU?$pair@$$CBKK@1@@Z
	DD	2 DUP(00H)
	DD	2 DUP(00H)
	DD	00H
	DD	01H
xdata$x	ENDS
;	COMDAT xdata$x
xdata$x	SEGMENT
__unwindtable$??$insert@$0A@$0A@@?$_Tree@V?$_Tmap_traits@KPAVCItemData@@U?$less@K@std@@V?$allocator@U?$pair@$$CBKPAVCItemData@@@std@@@3@$0A@@std@@@std@@QAE?AU?$pair@V?$_Tree_iterator@V?$_Tree_val@U?$_Tree_simple_types@U?$pair@$$CBKPAVCItemData@@@std@@@std@@@std@@@std@@_N@1@$$QAU?$pair@$$CBKPAVCItemData@@@1@@Z DD 0ffffffffH
	DD	FLAT:__unwindfunclet$??$insert@$0A@$0A@@?$_Tree@V?$_Tmap_traits@KPAVCItemData@@U?$less@K@std@@V?$allocator@U?$pair@$$CBKPAVCItemData@@@std@@@3@$0A@@std@@@std@@QAE?AU?$pair@V?$_Tree_iterator@V?$_Tree_val@U?$_Tree_simple_types@U?$pair@$$CBKPAVCItemData@@@std@@@std@@@std@@@std@@_N@1@$$QAU?$pair@$$CBKPAVCItemData@@@1@@Z$2
__ehfuncinfo$??$insert@$0A@$0A@@?$_Tree@V?$_Tmap_traits@KPAVCItemData@@U?$less@K@std@@V?$allocator@U?$pair@$$CBKPAVCItemData@@@std@@@3@$0A@@std@@@std@@QAE?AU?$pair@V?$_Tree_iterator@V?$_Tree_val@U?$_Tree_simple_types@U?$pair@$$CBKPAVCItemData@@@std@@@std@@@std@@@std@@_N@1@$$QAU?$pair@$$CBKPAVCItemData@@@1@@Z DD 019930522H
	DD	01H
	DD	FLAT:__unwindtable$??$insert@$0A@$0A@@?$_Tree@V?$_Tmap_traits@KPAVCItemData@@U?$less@K@std@@V?$allocator@U?$pair@$$CBKPAVCItemData@@@std@@@3@$0A@@std@@@std@@QAE?AU?$pair@V?$_Tree_iterator@V?$_Tree_val@U?$_Tree_simple_types@U?$pair@$$CBKPAVCItemData@@@std@@@std@@@std@@@std@@_N@1@$$QAU?$pair@$$CBKPAVCItemData@@@1@@Z
	DD	2 DUP(00H)
	DD	2 DUP(00H)
	DD	00H
	DD	01H
xdata$x	ENDS
;	COMDAT xdata$x
xdata$x	SEGMENT
__unwindtable$?LoadShiningTable@CItemManager@@QAE_NPBD@Z DD 0ffffffffH
	DD	FLAT:__unwindfunclet$?LoadShiningTable@CItemManager@@QAE_NPBD@Z$0
	DD	00H
	DD	FLAT:__unwindfunclet$?LoadShiningTable@CItemManager@@QAE_NPBD@Z$1
	DD	01H
	DD	FLAT:__unwindfunclet$?LoadShiningTable@CItemManager@@QAE_NPBD@Z$2
__ehfuncinfo$?LoadShiningTable@CItemManager@@QAE_NPBD@Z DD 019930522H
	DD	03H
	DD	FLAT:__unwindtable$?LoadShiningTable@CItemManager@@QAE_NPBD@Z
	DD	2 DUP(00H)
	DD	2 DUP(00H)
	DD	00H
	DD	01H
xdata$x	ENDS
;	COMDAT xdata$x
xdata$x	SEGMENT
__unwindtable$?LoadItemScale@CItemManager@@QAE_NPBD@Z DD 0ffffffffH
	DD	FLAT:__unwindfunclet$?LoadItemScale@CItemManager@@QAE_NPBD@Z$0
	DD	00H
	DD	FLAT:__unwindfunclet$?LoadItemScale@CItemManager@@QAE_NPBD@Z$1
	DD	01H
	DD	FLAT:__unwindfunclet$?LoadItemScale@CItemManager@@QAE_NPBD@Z$2
__ehfuncinfo$?LoadItemScale@CItemManager@@QAE_NPBD@Z DD 019930522H
	DD	03H
	DD	FLAT:__unwindtable$?LoadItemScale@CItemManager@@QAE_NPBD@Z
	DD	2 DUP(00H)
	DD	2 DUP(00H)
	DD	00H
	DD	01H
xdata$x	ENDS
;	COMDAT xdata$x
xdata$x	SEGMENT
__unwindtable$?LoadItemTable@CItemManager@@QAE_NPBD@Z DD 0ffffffffH
	DD	FLAT:__unwindfunclet$?LoadItemTable@CItemManager@@QAE_NPBD@Z$0
	DD	00H
	DD	FLAT:__unwindfunclet$?LoadItemTable@CItemManager@@QAE_NPBD@Z$1
	DD	01H
	DD	FLAT:__unwindfunclet$?LoadItemTable@CItemManager@@QAE_NPBD@Z$2
	DD	02H
	DD	FLAT:__unwindfunclet$?LoadItemTable@CItemManager@@QAE_NPBD@Z$6
__ehfuncinfo$?LoadItemTable@CItemManager@@QAE_NPBD@Z DD 019930522H
	DD	04H
	DD	FLAT:__unwindtable$?LoadItemTable@CItemManager@@QAE_NPBD@Z
	DD	2 DUP(00H)
	DD	2 DUP(00H)
	DD	00H
	DD	01H
xdata$x	ENDS
;	COMDAT xdata$x
xdata$x	SEGMENT
__unwindtable$?LoadItemList@CItemManager@@QAE_NPBD@Z DD 0ffffffffH
	DD	FLAT:__unwindfunclet$?LoadItemList@CItemManager@@QAE_NPBD@Z$0
	DD	00H
	DD	FLAT:__unwindfunclet$?LoadItemList@CItemManager@@QAE_NPBD@Z$1
	DD	01H
	DD	FLAT:__unwindfunclet$?LoadItemList@CItemManager@@QAE_NPBD@Z$2
__ehfuncinfo$?LoadItemList@CItemManager@@QAE_NPBD@Z DD 019930522H
	DD	03H
	DD	FLAT:__unwindtable$?LoadItemList@CItemManager@@QAE_NPBD@Z
	DD	2 DUP(00H)
	DD	2 DUP(00H)
	DD	00H
	DD	01H
xdata$x	ENDS
;	COMDAT xdata$x
xdata$x	SEGMENT
__ehfuncinfo$?LoadItemDesc@CItemManager@@QAE_NPBD@Z DD 019930522H
	DD	05H
	DD	FLAT:__unwindtable$?LoadItemDesc@CItemManager@@QAE_NPBD@Z
	DD	2 DUP(00H)
	DD	2 DUP(00H)
	DD	00H
	DD	01H
__unwindtable$?LoadItemDesc@CItemManager@@QAE_NPBD@Z DD 0ffffffffH
	DD	FLAT:__unwindfunclet$?LoadItemDesc@CItemManager@@QAE_NPBD@Z$0
	DD	00H
	DD	FLAT:__unwindfunclet$?LoadItemDesc@CItemManager@@QAE_NPBD@Z$1
	DD	01H
	DD	FLAT:__unwindfunclet$?LoadItemDesc@CItemManager@@QAE_NPBD@Z$2
	DD	02H
	DD	FLAT:__unwindfunclet$?LoadItemDesc@CItemManager@@QAE_NPBD@Z$3
	DD	03H
	DD	FLAT:__unwindfunclet$?LoadItemDesc@CItemManager@@QAE_NPBD@Z$4
xdata$x	ENDS
;	COMDAT xdata$x
xdata$x	SEGMENT
__ehfuncinfo$??1CItemManager@@UAE@XZ DD 019930522H
	DD	00H
	DD	00H
	DD	2 DUP(00H)
	DD	2 DUP(00H)
	DD	00H
	DD	05H
xdata$x	ENDS
;	COMDAT xdata$x
xdata$x	SEGMENT
__unwindtable$??0CItemManager@@QAE@XZ DD 0ffffffffH
	DD	FLAT:__unwindfunclet$??0CItemManager@@QAE@XZ$0
__ehfuncinfo$??0CItemManager@@QAE@XZ DD 019930522H
	DD	01H
	DD	FLAT:__unwindtable$??0CItemManager@@QAE@XZ
	DD	2 DUP(00H)
	DD	2 DUP(00H)
	DD	00H
	DD	01H
xdata$x	ENDS
;	COMDAT xdata$x
xdata$x	SEGMENT
__unwindtable$?LoadAuraScale@CItemManager@@QAE_NPBD@Z DD 0ffffffffH
	DD	FLAT:__unwindfunclet$?LoadAuraScale@CItemManager@@QAE_NPBD@Z$0
	DD	00H
	DD	FLAT:__unwindfunclet$?LoadAuraScale@CItemManager@@QAE_NPBD@Z$1
	DD	01H
	DD	FLAT:__unwindfunclet$?LoadAuraScale@CItemManager@@QAE_NPBD@Z$2
__ehfuncinfo$?LoadAuraScale@CItemManager@@QAE_NPBD@Z DD 019930522H
	DD	03H
	DD	FLAT:__unwindtable$?LoadAuraScale@CItemManager@@QAE_NPBD@Z
	DD	2 DUP(00H)
	DD	2 DUP(00H)
	DD	00H
	DD	01H
xdata$x	ENDS
; Function compile flags: /Ogtp
; File D:\visual studio 2019\visual studio 2019\VC\Tools\MSVC\14.29.30133\include\xutility
;	COMDAT ??$_Copy_memmove@PAPAVCItemData@@PAPAV1@@std@@YAPAPAVCItemData@@PAPAV1@00@Z
_TEXT	SEGMENT
__First$ = 8						; size = 4
__Last$ = 12						; size = 4
__Dest$ = 16						; size = 4
??$_Copy_memmove@PAPAVCItemData@@PAPAV1@@std@@YAPAPAVCItemData@@PAPAV1@00@Z PROC ; std::_Copy_memmove<CItemData * *,CItemData * *>, COMDAT

; 4058 : _OutCtgIt _Copy_memmove(_CtgIt _First, _CtgIt _Last, _OutCtgIt _Dest) {

  00000	55		 push	 ebp
  00001	8b ec		 mov	 ebp, esp

; 4059 :     auto _FirstPtr              = _To_address(_First);
; 4060 :     auto _LastPtr               = _To_address(_Last);
; 4061 :     auto _DestPtr               = _To_address(_Dest);
; 4062 :     const char* const _First_ch = const_cast<const char*>(reinterpret_cast<const volatile char*>(_FirstPtr));
; 4063 :     const char* const _Last_ch  = const_cast<const char*>(reinterpret_cast<const volatile char*>(_LastPtr));
; 4064 :     char* const _Dest_ch        = const_cast<char*>(reinterpret_cast<const volatile char*>(_DestPtr));
; 4065 :     const auto _Count           = static_cast<size_t>(_Last_ch - _First_ch);

  00003	8b 45 08	 mov	 eax, DWORD PTR __First$[ebp]
  00006	56		 push	 esi

; 4066 :     _CSTD memmove(_Dest_ch, _First_ch, _Count);

  00007	8b 75 10	 mov	 esi, DWORD PTR __Dest$[ebp]
  0000a	57		 push	 edi
  0000b	8b 7d 0c	 mov	 edi, DWORD PTR __Last$[ebp]
  0000e	2b f8		 sub	 edi, eax
  00010	57		 push	 edi
  00011	50		 push	 eax
  00012	56		 push	 esi
  00013	e8 00 00 00 00	 call	 _memmove
  00018	83 c4 0c	 add	 esp, 12			; 0000000cH

; 4067 :     if constexpr (is_pointer_v<_OutCtgIt>) {
; 4068 :         return reinterpret_cast<_OutCtgIt>(_Dest_ch + _Count);

  0001b	8d 04 37	 lea	 eax, DWORD PTR [edi+esi]
  0001e	5f		 pop	 edi
  0001f	5e		 pop	 esi

; 4069 :     } else {
; 4070 :         return _Dest + (_LastPtr - _FirstPtr);
; 4071 :     }
; 4072 : }

  00020	5d		 pop	 ebp
  00021	c3		 ret	 0
??$_Copy_memmove@PAPAVCItemData@@PAPAV1@@std@@YAPAPAVCItemData@@PAPAV1@00@Z ENDP ; std::_Copy_memmove<CItemData * *,CItemData * *>
_TEXT	ENDS
; Function compile flags: /Ogtp
; File D:\visual studio 2019\visual studio 2019\VC\Tools\MSVC\14.29.30133\include\xmemory
;	COMDAT ??1?$_Alloc_construct_ptr@V?$allocator@U?$_Tree_node@U?$pair@$$CBKK@std@@PAX@std@@@std@@@std@@QAE@XZ
_TEXT	SEGMENT
??1?$_Alloc_construct_ptr@V?$allocator@U?$_Tree_node@U?$pair@$$CBKK@std@@PAX@std@@@std@@@std@@QAE@XZ PROC ; std::_Alloc_construct_ptr<std::allocator<std::_Tree_node<std::pair<unsigned long const ,unsigned long>,void *> > >::~_Alloc_construct_ptr<std::allocator<std::_Tree_node<std::pair<unsigned long const ,unsigned long>,void *> > >, COMDAT
; _this$ = ecx

; 970  :         if (_Ptr) {

  00000	8b 41 04	 mov	 eax, DWORD PTR [ecx+4]
  00003	85 c0		 test	 eax, eax
  00005	74 0b		 je	 SHORT $LN8@Alloc_cons

; 255  :         ::operator delete(_Ptr, _Bytes);

  00007	6a 18		 push	 24			; 00000018H
  00009	50		 push	 eax
  0000a	e8 00 00 00 00	 call	 ??3@YAXPAXI@Z		; operator delete
  0000f	83 c4 08	 add	 esp, 8
$LN8@Alloc_cons:

; 971  :             _Al.deallocate(_Ptr, 1);
; 972  :         }
; 973  :     }

  00012	c3		 ret	 0
??1?$_Alloc_construct_ptr@V?$allocator@U?$_Tree_node@U?$pair@$$CBKK@std@@PAX@std@@@std@@@std@@QAE@XZ ENDP ; std::_Alloc_construct_ptr<std::allocator<std::_Tree_node<std::pair<unsigned long const ,unsigned long>,void *> > >::~_Alloc_construct_ptr<std::allocator<std::_Tree_node<std::pair<unsigned long const ,unsigned long>,void *> > >
_TEXT	ENDS
; Function compile flags: /Ogtp
; File D:\visual studio 2019\visual studio 2019\VC\Tools\MSVC\14.29.30133\include\xmemory
;	COMDAT ??1?$_Alloc_construct_ptr@V?$allocator@U?$_Tree_node@U?$pair@$$CBKPAVCItemData@@@std@@PAX@std@@@std@@@std@@QAE@XZ
_TEXT	SEGMENT
??1?$_Alloc_construct_ptr@V?$allocator@U?$_Tree_node@U?$pair@$$CBKPAVCItemData@@@std@@PAX@std@@@std@@@std@@QAE@XZ PROC ; std::_Alloc_construct_ptr<std::allocator<std::_Tree_node<std::pair<unsigned long const ,CItemData *>,void *> > >::~_Alloc_construct_ptr<std::allocator<std::_Tree_node<std::pair<unsigned long const ,CItemData *>,void *> > >, COMDAT
; _this$ = ecx

; 970  :         if (_Ptr) {

  00000	8b 41 04	 mov	 eax, DWORD PTR [ecx+4]
  00003	85 c0		 test	 eax, eax
  00005	74 0b		 je	 SHORT $LN8@Alloc_cons

; 255  :         ::operator delete(_Ptr, _Bytes);

  00007	6a 18		 push	 24			; 00000018H
  00009	50		 push	 eax
  0000a	e8 00 00 00 00	 call	 ??3@YAXPAXI@Z		; operator delete
  0000f	83 c4 08	 add	 esp, 8
$LN8@Alloc_cons:

; 971  :             _Al.deallocate(_Ptr, 1);
; 972  :         }
; 973  :     }

  00012	c3		 ret	 0
??1?$_Alloc_construct_ptr@V?$allocator@U?$_Tree_node@U?$pair@$$CBKPAVCItemData@@@std@@PAX@std@@@std@@@std@@QAE@XZ ENDP ; std::_Alloc_construct_ptr<std::allocator<std::_Tree_node<std::pair<unsigned long const ,CItemData *>,void *> > >::~_Alloc_construct_ptr<std::allocator<std::_Tree_node<std::pair<unsigned long const ,CItemData *>,void *> > >
_TEXT	ENDS
; Function compile flags: /Ogtp
; File D:\visual studio 2019\visual studio 2019\VC\Tools\MSVC\14.29.30133\include\xmemory
; File D:\visual studio 2019\visual studio 2019\VC\Tools\MSVC\14.29.30133\include\xstring
; File D:\visual studio 2019\visual studio 2019\VC\Tools\MSVC\14.29.30133\include\xmemory
; File D:\visual studio 2019\visual studio 2019\VC\Tools\MSVC\14.29.30133\include\xstring
; File D:\visual studio 2019\visual studio 2019\VC\Tools\MSVC\14.29.30133\include\xmemory
;	COMDAT ??$_Uninitialized_move@PAV?$basic_string@DU?$char_traits@D@std@@V?$allocator@D@2@@std@@V?$allocator@V?$basic_string@DU?$char_traits@D@std@@V?$allocator@D@2@@std@@@2@@std@@YAPAV?$basic_string@DU?$char_traits@D@std@@V?$allocator@D@2@@0@QAV10@0PAV10@AAV?$allocator@V?$basic_string@DU?$char_traits@D@std@@V?$allocator@D@2@@std@@@0@@Z
_TEXT	SEGMENT
__First$ = 8						; size = 4
__Last$ = 12						; size = 4
__Dest$ = 16						; size = 4
__Al$ = 20						; size = 4
??$_Uninitialized_move@PAV?$basic_string@DU?$char_traits@D@std@@V?$allocator@D@2@@std@@V?$allocator@V?$basic_string@DU?$char_traits@D@std@@V?$allocator@D@2@@std@@@2@@std@@YAPAV?$basic_string@DU?$char_traits@D@std@@V?$allocator@D@2@@0@QAV10@0PAV10@AAV?$allocator@V?$basic_string@DU?$char_traits@D@std@@V?$allocator@D@2@@std@@@0@@Z PROC ; std::_Uninitialized_move<std::basic_string<char,std::char_traits<char>,std::allocator<char> > *,std::allocator<std::basic_string<char,std::char_traits<char>,std::allocator<char> > > >, COMDAT

; 1699 :     const _InIt _First, const _InIt _Last, _Alloc_ptr_t<_Alloc> _Dest, _Alloc& _Al) {

  00000	55		 push	 ebp
  00001	8b ec		 mov	 ebp, esp

; 1700 :     // move [_First, _Last) to raw _Dest, using _Al
; 1701 :     // note: only called internally from elsewhere in the STL
; 1702 :     using _Ptrval     = typename _Alloc::value_type*;
; 1703 :     auto _UFirst      = _Get_unwrapped(_First);
; 1704 :     const auto _ULast = _Get_unwrapped(_Last);
; 1705 :     if constexpr (conjunction_v<bool_constant<_Ptr_move_cat<decltype(_UFirst), _Ptrval>::_Really_trivial>,
; 1706 :                       _Uses_default_construct<_Alloc, _Ptrval, decltype(_STD move(*_UFirst))>>) {
; 1707 : #ifdef __cpp_lib_constexpr_dynamic_alloc
; 1708 :         if (!_STD is_constant_evaluated())
; 1709 : #endif // __cpp_lib_constexpr_dynamic_alloc
; 1710 :         {
; 1711 :             _Copy_memmove(_UFirst, _ULast, _Unfancy(_Dest));
; 1712 :             return _Dest + (_ULast - _UFirst);
; 1713 :         }
; 1714 :     }
; 1715 : 
; 1716 :     _Uninitialized_backout_al<_Alloc> _Backout{_Dest, _Al};
; 1717 :     for (; _UFirst != _ULast; ++_UFirst) {

  00003	8b 45 08	 mov	 eax, DWORD PTR __First$[ebp]
  00006	8b 55 0c	 mov	 edx, DWORD PTR __Last$[ebp]
  00009	56		 push	 esi

; 1609 :         : _First(_Dest), _Last(_Dest), _Al(_Al_) {}

  0000a	8b 75 10	 mov	 esi, DWORD PTR __Dest$[ebp]

; 1700 :     // move [_First, _Last) to raw _Dest, using _Al
; 1701 :     // note: only called internally from elsewhere in the STL
; 1702 :     using _Ptrval     = typename _Alloc::value_type*;
; 1703 :     auto _UFirst      = _Get_unwrapped(_First);
; 1704 :     const auto _ULast = _Get_unwrapped(_Last);
; 1705 :     if constexpr (conjunction_v<bool_constant<_Ptr_move_cat<decltype(_UFirst), _Ptrval>::_Really_trivial>,
; 1706 :                       _Uses_default_construct<_Alloc, _Ptrval, decltype(_STD move(*_UFirst))>>) {
; 1707 : #ifdef __cpp_lib_constexpr_dynamic_alloc
; 1708 :         if (!_STD is_constant_evaluated())
; 1709 : #endif // __cpp_lib_constexpr_dynamic_alloc
; 1710 :         {
; 1711 :             _Copy_memmove(_UFirst, _ULast, _Unfancy(_Dest));
; 1712 :             return _Dest + (_ULast - _UFirst);
; 1713 :         }
; 1714 :     }
; 1715 : 
; 1716 :     _Uninitialized_backout_al<_Alloc> _Backout{_Dest, _Al};
; 1717 :     for (; _UFirst != _ULast; ++_UFirst) {

  0000d	3b c2		 cmp	 eax, edx
  0000f	74 4f		 je	 SHORT $LN3@Uninitiali

; 1609 :         : _First(_Dest), _Last(_Dest), _Al(_Al_) {}

  00011	8b ce		 mov	 ecx, esi
  00013	2b c8		 sub	 ecx, eax
  00015	66 66 66 0f 1f
	84 00 00 00 00
	00		 npad	 11
$LL4@Uninitiali:
; File D:\visual studio 2019\visual studio 2019\VC\Tools\MSVC\14.29.30133\include\xstring

; 2313 :         _CONSTEXPR20_CONTAINER _Bxty() noexcept : _Ptr() {} // user-provided, for fancy pointers

  00020	c7 06 00 00 00
	00		 mov	 DWORD PTR [esi], 0

; 2322 :     size_type _Mysize = 0; // current length of string

  00026	c7 46 10 00 00
	00 00		 mov	 DWORD PTR [esi+16], 0

; 2323 :     size_type _Myres  = 0; // current storage reserved for string

  0002d	c7 44 01 14 00
	00 00 00	 mov	 DWORD PTR [ecx+eax+20], 0

; 2835 :         _CSTD memcpy(_My_data_mem, _Right_data_mem, _Memcpy_val_size);

  00035	0f 10 00	 movups	 xmm0, XMMWORD PTR [eax]
  00038	0f 11 06	 movups	 XMMWORD PTR [esi], xmm0
  0003b	f3 0f 7e 40 10	 movq	 xmm0, QWORD PTR [eax+16]
  00040	66 0f d6 46 10	 movq	 QWORD PTR [esi+16], xmm0
; File D:\visual studio 2019\visual studio 2019\VC\Tools\MSVC\14.29.30133\include\xmemory

; 1621 :         ++_Last;

  00045	83 c6 18	 add	 esi, 24			; 00000018H
; File D:\visual studio 2019\visual studio 2019\VC\Tools\MSVC\14.29.30133\include\xstring

; 4562 :         _My_data._Mysize = 0;

  00048	c7 40 10 00 00
	00 00		 mov	 DWORD PTR [eax+16], 0

; 4563 : 
; 4564 : #ifdef __cpp_lib_constexpr_string
; 4565 :         if (_STD is_constant_evaluated()) {
; 4566 :             _My_data._Myres        = _BUF_SIZE; // SSO disabled in constexpr context
; 4567 :             auto& _Al              = _Getal();
; 4568 :             const pointer _New_ptr = _Al.allocate(_BUF_SIZE + 1); // throws
; 4569 :             _My_data._Bx._Ptr      = _New_ptr;
; 4570 : 
; 4571 :             _Elem* const _Raw_new = _Unfancy(_New_ptr);
; 4572 :             _Traits::assign(_Raw_new, _BUF_SIZE + 1, _Elem());
; 4573 :         } else
; 4574 : #endif // __cpp_lib_constexpr_string
; 4575 :         {
; 4576 :             _My_data._Myres = _BUF_SIZE - 1;

  0004f	c7 40 14 0f 00
	00 00		 mov	 DWORD PTR [eax+20], 15	; 0000000fH

; 4577 :             // the _Traits::assign is last so the codegen doesn't think the char write can alias this
; 4578 :             _Traits::assign(_My_data._Bx._Buf[0], _Elem());

  00056	c6 00 00	 mov	 BYTE PTR [eax], 0
; File D:\visual studio 2019\visual studio 2019\VC\Tools\MSVC\14.29.30133\include\xmemory

; 1621 :         ++_Last;

  00059	83 c0 18	 add	 eax, 24			; 00000018H

; 1700 :     // move [_First, _Last) to raw _Dest, using _Al
; 1701 :     // note: only called internally from elsewhere in the STL
; 1702 :     using _Ptrval     = typename _Alloc::value_type*;
; 1703 :     auto _UFirst      = _Get_unwrapped(_First);
; 1704 :     const auto _ULast = _Get_unwrapped(_Last);
; 1705 :     if constexpr (conjunction_v<bool_constant<_Ptr_move_cat<decltype(_UFirst), _Ptrval>::_Really_trivial>,
; 1706 :                       _Uses_default_construct<_Alloc, _Ptrval, decltype(_STD move(*_UFirst))>>) {
; 1707 : #ifdef __cpp_lib_constexpr_dynamic_alloc
; 1708 :         if (!_STD is_constant_evaluated())
; 1709 : #endif // __cpp_lib_constexpr_dynamic_alloc
; 1710 :         {
; 1711 :             _Copy_memmove(_UFirst, _ULast, _Unfancy(_Dest));
; 1712 :             return _Dest + (_ULast - _UFirst);
; 1713 :         }
; 1714 :     }
; 1715 : 
; 1716 :     _Uninitialized_backout_al<_Alloc> _Backout{_Dest, _Al};
; 1717 :     for (; _UFirst != _ULast; ++_UFirst) {

  0005c	3b c2		 cmp	 eax, edx
  0005e	75 c0		 jne	 SHORT $LL4@Uninitiali
$LN3@Uninitiali:

; 1615 :         _Destroy_range(_First, _Last, _Al);

  00060	ff 75 14	 push	 DWORD PTR __Al$[ebp]
  00063	56		 push	 esi
  00064	56		 push	 esi
  00065	e8 00 00 00 00	 call	 ??$_Destroy_range@V?$allocator@V?$basic_string@DU?$char_traits@D@std@@V?$allocator@D@2@@std@@@std@@@std@@YAXPAV?$basic_string@DU?$char_traits@D@std@@V?$allocator@D@2@@0@QAV10@AAV?$allocator@V?$basic_string@DU?$char_traits@D@std@@V?$allocator@D@2@@std@@@0@@Z ; std::_Destroy_range<std::allocator<std::basic_string<char,std::char_traits<char>,std::allocator<char> > > >
  0006a	83 c4 0c	 add	 esp, 12			; 0000000cH

; 1718 :         _Backout._Emplace_back(_STD move(*_UFirst));
; 1719 :     }
; 1720 : 
; 1721 :     return _Backout._Release();

  0006d	8b c6		 mov	 eax, esi
  0006f	5e		 pop	 esi

; 1722 : }

  00070	5d		 pop	 ebp
  00071	c3		 ret	 0
??$_Uninitialized_move@PAV?$basic_string@DU?$char_traits@D@std@@V?$allocator@D@2@@std@@V?$allocator@V?$basic_string@DU?$char_traits@D@std@@V?$allocator@D@2@@std@@@2@@std@@YAPAV?$basic_string@DU?$char_traits@D@std@@V?$allocator@D@2@@0@QAV10@0PAV10@AAV?$allocator@V?$basic_string@DU?$char_traits@D@std@@V?$allocator@D@2@@std@@@0@@Z ENDP ; std::_Uninitialized_move<std::basic_string<char,std::char_traits<char>,std::allocator<char> > *,std::allocator<std::basic_string<char,std::char_traits<char>,std::allocator<char> > > >
_TEXT	ENDS
; Function compile flags: /Ogtp
; File D:\visual studio 2019\visual studio 2019\VC\Tools\MSVC\14.29.30133\include\xtree
; File D:\visual studio 2019\visual studio 2019\VC\Tools\MSVC\14.29.30133\include\xstddef
; File D:\visual studio 2019\visual studio 2019\VC\Tools\MSVC\14.29.30133\include\xtree
; File D:\visual studio 2019\visual studio 2019\VC\Tools\MSVC\14.29.30133\include\xstddef
; File D:\visual studio 2019\visual studio 2019\VC\Tools\MSVC\14.29.30133\include\xtree
;	COMDAT ??$_Find_lower_bound@K@?$_Tree@V?$_Tmap_traits@KPAVCItemData@@U?$less@K@std@@V?$allocator@U?$pair@$$CBKPAVCItemData@@@std@@@3@$0A@@std@@@std@@IBE?AU?$_Tree_find_result@PAU?$_Tree_node@U?$pair@$$CBKPAVCItemData@@@std@@PAX@std@@@1@ABK@Z
_TEXT	SEGMENT
___$ReturnUdt$ = 8					; size = 4
__Keyval$ = 12						; size = 4
??$_Find_lower_bound@K@?$_Tree@V?$_Tmap_traits@KPAVCItemData@@U?$less@K@std@@V?$allocator@U?$pair@$$CBKPAVCItemData@@@std@@@3@$0A@@std@@@std@@IBE?AU?$_Tree_find_result@PAU?$_Tree_node@U?$pair@$$CBKPAVCItemData@@@std@@PAX@std@@@1@ABK@Z PROC ; std::_Tree<std::_Tmap_traits<unsigned long,CItemData *,std::less<unsigned long>,std::allocator<std::pair<unsigned long const ,CItemData *> >,0> >::_Find_lower_bound<unsigned long>, COMDAT
; _this$ = ecx

; 1595 :     _Tree_find_result<_Nodeptr> _Find_lower_bound(const _Keyty& _Keyval) const {

  00000	55		 push	 ebp
  00001	8b ec		 mov	 ebp, esp

; 1596 :         const auto _Scary = _Get_scary();
; 1597 :         _Tree_find_result<_Nodeptr> _Result{{_Scary->_Myhead->_Parent, _Tree_child::_Right}, _Scary->_Myhead};

  00003	8b 09		 mov	 ecx, DWORD PTR [ecx]
  00005	8b 55 08	 mov	 edx, DWORD PTR ___$ReturnUdt$[ebp]
  00008	8b 41 04	 mov	 eax, DWORD PTR [ecx+4]
  0000b	89 02		 mov	 DWORD PTR [edx], eax
  0000d	c7 42 04 00 00
	00 00		 mov	 DWORD PTR [edx+4], 0
  00014	89 4a 08	 mov	 DWORD PTR [edx+8], ecx

; 1598 :         _Nodeptr _Trynode = _Result._Location._Parent;
; 1599 :         while (!_Trynode->_Isnil) {

  00017	80 78 0d 00	 cmp	 BYTE PTR [eax+13], 0
  0001b	75 28		 jne	 SHORT $LN12@Find_lower
; File D:\visual studio 2019\visual studio 2019\VC\Tools\MSVC\14.29.30133\include\xstddef

; 117  :         return _Left < _Right;

  0001d	8b 4d 0c	 mov	 ecx, DWORD PTR __Keyval$[ebp]
  00020	56		 push	 esi
  00021	8b 31		 mov	 esi, DWORD PTR [ecx]
$LL2@Find_lower:
; File D:\visual studio 2019\visual studio 2019\VC\Tools\MSVC\14.29.30133\include\xtree

; 1600 :             _Result._Location._Parent = _Trynode;

  00023	89 02		 mov	 DWORD PTR [edx], eax
; File D:\visual studio 2019\visual studio 2019\VC\Tools\MSVC\14.29.30133\include\xstddef

; 117  :         return _Left < _Right;

  00025	39 70 10	 cmp	 DWORD PTR [eax+16], esi
; File D:\visual studio 2019\visual studio 2019\VC\Tools\MSVC\14.29.30133\include\xtree

; 1601 :             if (_DEBUG_LT_PRED(_Getcomp(), _Traits::_Kfn(_Trynode->_Myval), _Keyval)) {

  00028	73 07		 jae	 SHORT $LN4@Find_lower

; 1602 :                 _Result._Location._Child = _Tree_child::_Right;
; 1603 :                 _Trynode                 = _Trynode->_Right;

  0002a	8b 40 08	 mov	 eax, DWORD PTR [eax+8]
  0002d	33 c9		 xor	 ecx, ecx

; 1604 :             } else {

  0002f	eb 0a		 jmp	 SHORT $LN5@Find_lower
$LN4@Find_lower:

; 1605 :                 _Result._Location._Child = _Tree_child::_Left;
; 1606 :                 _Result._Bound           = _Trynode;

  00031	89 42 08	 mov	 DWORD PTR [edx+8], eax

; 1607 :                 _Trynode                 = _Trynode->_Left;

  00034	b9 01 00 00 00	 mov	 ecx, 1
  00039	8b 00		 mov	 eax, DWORD PTR [eax]
$LN5@Find_lower:

; 1598 :         _Nodeptr _Trynode = _Result._Location._Parent;
; 1599 :         while (!_Trynode->_Isnil) {

  0003b	89 4a 04	 mov	 DWORD PTR [edx+4], ecx
  0003e	80 78 0d 00	 cmp	 BYTE PTR [eax+13], 0
  00042	74 df		 je	 SHORT $LL2@Find_lower

; 1608 :             }
; 1609 :         }
; 1610 : 
; 1611 :         return _Result;

  00044	5e		 pop	 esi
$LN12@Find_lower:

; 1612 :     }

  00045	8b c2		 mov	 eax, edx
  00047	5d		 pop	 ebp
  00048	c2 08 00	 ret	 8
??$_Find_lower_bound@K@?$_Tree@V?$_Tmap_traits@KPAVCItemData@@U?$less@K@std@@V?$allocator@U?$pair@$$CBKPAVCItemData@@@std@@@3@$0A@@std@@@std@@IBE?AU?$_Tree_find_result@PAU?$_Tree_node@U?$pair@$$CBKPAVCItemData@@@std@@PAX@std@@@1@ABK@Z ENDP ; std::_Tree<std::_Tmap_traits<unsigned long,CItemData *,std::less<unsigned long>,std::allocator<std::pair<unsigned long const ,CItemData *> >,0> >::_Find_lower_bound<unsigned long>
_TEXT	ENDS
; Function compile flags: /Ogtp
; File D:\visual studio 2019\visual studio 2019\VC\Tools\MSVC\14.29.30133\include\xtree
; File D:\visual studio 2019\visual studio 2019\VC\Tools\MSVC\14.29.30133\include\utility
; File D:\visual studio 2019\visual studio 2019\VC\Tools\MSVC\14.29.30133\include\xmemory
; File D:\visual studio 2019\visual studio 2019\VC\Tools\MSVC\14.29.30133\include\xtree
;	COMDAT ??$_Erase_tree@V?$allocator@U?$_Tree_node@U?$pair@$$CBKK@std@@PAX@std@@@std@@@?$_Tree_val@U?$_Tree_simple_types@U?$pair@$$CBKK@std@@@std@@@std@@QAEXAAV?$allocator@U?$_Tree_node@U?$pair@$$CBKK@std@@PAX@std@@@1@PAU?$_Tree_node@U?$pair@$$CBKK@std@@PAX@1@@Z
_TEXT	SEGMENT
__Al$ = 8						; size = 4
__Rootnode$ = 12					; size = 4
??$_Erase_tree@V?$allocator@U?$_Tree_node@U?$pair@$$CBKK@std@@PAX@std@@@std@@@?$_Tree_val@U?$_Tree_simple_types@U?$pair@$$CBKK@std@@@std@@@std@@QAEXAAV?$allocator@U?$_Tree_node@U?$pair@$$CBKK@std@@PAX@std@@@1@PAU?$_Tree_node@U?$pair@$$CBKK@std@@PAX@1@@Z PROC ; std::_Tree_val<std::_Tree_simple_types<std::pair<unsigned long const ,unsigned long> > >::_Erase_tree<std::allocator<std::_Tree_node<std::pair<unsigned long const ,unsigned long>,void *> > >, COMDAT
; _this$ = ecx

; 742  :     void _Erase_tree(_Alnode& _Al, _Nodeptr _Rootnode) noexcept {

  00000	55		 push	 ebp
  00001	8b ec		 mov	 ebp, esp
  00003	53		 push	 ebx
  00004	56		 push	 esi

; 743  :         while (!_Rootnode->_Isnil) { // free subtrees, then node

  00005	8b 75 0c	 mov	 esi, DWORD PTR __Rootnode$[ebp]
  00008	8b d9		 mov	 ebx, ecx
  0000a	80 7e 0d 00	 cmp	 BYTE PTR [esi+13], 0
  0000e	75 25		 jne	 SHORT $LN3@Erase_tree
  00010	57		 push	 edi
  00011	8b 7d 08	 mov	 edi, DWORD PTR __Al$[ebp]
$LL2@Erase_tree:

; 744  :             _Erase_tree(_Al, _Rootnode->_Right);

  00014	ff 76 08	 push	 DWORD PTR [esi+8]
  00017	8b cb		 mov	 ecx, ebx
  00019	57		 push	 edi
  0001a	e8 00 00 00 00	 call	 ??$_Erase_tree@V?$allocator@U?$_Tree_node@U?$pair@$$CBKK@std@@PAX@std@@@std@@@?$_Tree_val@U?$_Tree_simple_types@U?$pair@$$CBKK@std@@@std@@@std@@QAEXAAV?$allocator@U?$_Tree_node@U?$pair@$$CBKK@std@@PAX@std@@@1@PAU?$_Tree_node@U?$pair@$$CBKK@std@@PAX@1@@Z ; std::_Tree_val<std::_Tree_simple_types<std::pair<unsigned long const ,unsigned long> > >::_Erase_tree<std::allocator<std::_Tree_node<std::pair<unsigned long const ,unsigned long>,void *> > >
; File D:\visual studio 2019\visual studio 2019\VC\Tools\MSVC\14.29.30133\include\utility

; 602  :     _Ty _Old_val = static_cast<_Ty&&>(_Val);

  0001f	8b c6		 mov	 eax, esi

; 603  :     _Val         = static_cast<_Other&&>(_New_val);

  00021	8b 36		 mov	 esi, DWORD PTR [esi]
; File D:\visual studio 2019\visual studio 2019\VC\Tools\MSVC\14.29.30133\include\xmemory

; 255  :         ::operator delete(_Ptr, _Bytes);

  00023	6a 18		 push	 24			; 00000018H
  00025	50		 push	 eax
  00026	e8 00 00 00 00	 call	 ??3@YAXPAXI@Z		; operator delete
  0002b	83 c4 08	 add	 esp, 8
; File D:\visual studio 2019\visual studio 2019\VC\Tools\MSVC\14.29.30133\include\xtree

; 743  :         while (!_Rootnode->_Isnil) { // free subtrees, then node

  0002e	80 7e 0d 00	 cmp	 BYTE PTR [esi+13], 0
  00032	74 e0		 je	 SHORT $LL2@Erase_tree
  00034	5f		 pop	 edi
$LN3@Erase_tree:
  00035	5e		 pop	 esi

; 745  :             _Alnode::value_type::_Freenode(_Al, _STD exchange(_Rootnode, _Rootnode->_Left));
; 746  :         }
; 747  :     }

  00036	5b		 pop	 ebx
  00037	5d		 pop	 ebp
  00038	c2 08 00	 ret	 8
??$_Erase_tree@V?$allocator@U?$_Tree_node@U?$pair@$$CBKK@std@@PAX@std@@@std@@@?$_Tree_val@U?$_Tree_simple_types@U?$pair@$$CBKK@std@@@std@@@std@@QAEXAAV?$allocator@U?$_Tree_node@U?$pair@$$CBKK@std@@PAX@std@@@1@PAU?$_Tree_node@U?$pair@$$CBKK@std@@PAX@1@@Z ENDP ; std::_Tree_val<std::_Tree_simple_types<std::pair<unsigned long const ,unsigned long> > >::_Erase_tree<std::allocator<std::_Tree_node<std::pair<unsigned long const ,unsigned long>,void *> > >
_TEXT	ENDS
; Function compile flags: /Ogtp
; File D:\visual studio 2019\visual studio 2019\VC\Tools\MSVC\14.29.30133\include\xtree
; File D:\visual studio 2019\visual studio 2019\VC\Tools\MSVC\14.29.30133\include\xstddef
; File D:\visual studio 2019\visual studio 2019\VC\Tools\MSVC\14.29.30133\include\xtree
; File D:\visual studio 2019\visual studio 2019\VC\Tools\MSVC\14.29.30133\include\xstddef
; File D:\visual studio 2019\visual studio 2019\VC\Tools\MSVC\14.29.30133\include\xtree
;	COMDAT ??$_Find_lower_bound@K@?$_Tree@V?$_Tmap_traits@KKU?$less@K@std@@V?$allocator@U?$pair@$$CBKK@std@@@2@$0A@@std@@@std@@IBE?AU?$_Tree_find_result@PAU?$_Tree_node@U?$pair@$$CBKK@std@@PAX@std@@@1@ABK@Z
_TEXT	SEGMENT
___$ReturnUdt$ = 8					; size = 4
__Keyval$ = 12						; size = 4
??$_Find_lower_bound@K@?$_Tree@V?$_Tmap_traits@KKU?$less@K@std@@V?$allocator@U?$pair@$$CBKK@std@@@2@$0A@@std@@@std@@IBE?AU?$_Tree_find_result@PAU?$_Tree_node@U?$pair@$$CBKK@std@@PAX@std@@@1@ABK@Z PROC ; std::_Tree<std::_Tmap_traits<unsigned long,unsigned long,std::less<unsigned long>,std::allocator<std::pair<unsigned long const ,unsigned long> >,0> >::_Find_lower_bound<unsigned long>, COMDAT
; _this$ = ecx

; 1595 :     _Tree_find_result<_Nodeptr> _Find_lower_bound(const _Keyty& _Keyval) const {

  00000	55		 push	 ebp
  00001	8b ec		 mov	 ebp, esp

; 1596 :         const auto _Scary = _Get_scary();
; 1597 :         _Tree_find_result<_Nodeptr> _Result{{_Scary->_Myhead->_Parent, _Tree_child::_Right}, _Scary->_Myhead};

  00003	8b 09		 mov	 ecx, DWORD PTR [ecx]
  00005	8b 55 08	 mov	 edx, DWORD PTR ___$ReturnUdt$[ebp]
  00008	8b 41 04	 mov	 eax, DWORD PTR [ecx+4]
  0000b	89 02		 mov	 DWORD PTR [edx], eax
  0000d	c7 42 04 00 00
	00 00		 mov	 DWORD PTR [edx+4], 0
  00014	89 4a 08	 mov	 DWORD PTR [edx+8], ecx

; 1598 :         _Nodeptr _Trynode = _Result._Location._Parent;
; 1599 :         while (!_Trynode->_Isnil) {

  00017	80 78 0d 00	 cmp	 BYTE PTR [eax+13], 0
  0001b	75 28		 jne	 SHORT $LN12@Find_lower
; File D:\visual studio 2019\visual studio 2019\VC\Tools\MSVC\14.29.30133\include\xstddef

; 117  :         return _Left < _Right;

  0001d	8b 4d 0c	 mov	 ecx, DWORD PTR __Keyval$[ebp]
  00020	56		 push	 esi
  00021	8b 31		 mov	 esi, DWORD PTR [ecx]
$LL2@Find_lower:
; File D:\visual studio 2019\visual studio 2019\VC\Tools\MSVC\14.29.30133\include\xtree

; 1600 :             _Result._Location._Parent = _Trynode;

  00023	89 02		 mov	 DWORD PTR [edx], eax
; File D:\visual studio 2019\visual studio 2019\VC\Tools\MSVC\14.29.30133\include\xstddef

; 117  :         return _Left < _Right;

  00025	39 70 10	 cmp	 DWORD PTR [eax+16], esi
; File D:\visual studio 2019\visual studio 2019\VC\Tools\MSVC\14.29.30133\include\xtree

; 1601 :             if (_DEBUG_LT_PRED(_Getcomp(), _Traits::_Kfn(_Trynode->_Myval), _Keyval)) {

  00028	73 07		 jae	 SHORT $LN4@Find_lower

; 1602 :                 _Result._Location._Child = _Tree_child::_Right;
; 1603 :                 _Trynode                 = _Trynode->_Right;

  0002a	8b 40 08	 mov	 eax, DWORD PTR [eax+8]
  0002d	33 c9		 xor	 ecx, ecx

; 1604 :             } else {

  0002f	eb 0a		 jmp	 SHORT $LN5@Find_lower
$LN4@Find_lower:

; 1605 :                 _Result._Location._Child = _Tree_child::_Left;
; 1606 :                 _Result._Bound           = _Trynode;

  00031	89 42 08	 mov	 DWORD PTR [edx+8], eax

; 1607 :                 _Trynode                 = _Trynode->_Left;

  00034	b9 01 00 00 00	 mov	 ecx, 1
  00039	8b 00		 mov	 eax, DWORD PTR [eax]
$LN5@Find_lower:

; 1598 :         _Nodeptr _Trynode = _Result._Location._Parent;
; 1599 :         while (!_Trynode->_Isnil) {

  0003b	89 4a 04	 mov	 DWORD PTR [edx+4], ecx
  0003e	80 78 0d 00	 cmp	 BYTE PTR [eax+13], 0
  00042	74 df		 je	 SHORT $LL2@Find_lower

; 1608 :             }
; 1609 :         }
; 1610 : 
; 1611 :         return _Result;

  00044	5e		 pop	 esi
$LN12@Find_lower:

; 1612 :     }

  00045	8b c2		 mov	 eax, edx
  00047	5d		 pop	 ebp
  00048	c2 08 00	 ret	 8
??$_Find_lower_bound@K@?$_Tree@V?$_Tmap_traits@KKU?$less@K@std@@V?$allocator@U?$pair@$$CBKK@std@@@2@$0A@@std@@@std@@IBE?AU?$_Tree_find_result@PAU?$_Tree_node@U?$pair@$$CBKK@std@@PAX@std@@@1@ABK@Z ENDP ; std::_Tree<std::_Tmap_traits<unsigned long,unsigned long,std::less<unsigned long>,std::allocator<std::pair<unsigned long const ,unsigned long> >,0> >::_Find_lower_bound<unsigned long>
_TEXT	ENDS
; Function compile flags: /Ogtp
; File D:\visual studio 2019\visual studio 2019\VC\Tools\MSVC\14.29.30133\include\xmemory
; File D:\visual studio 2019\visual studio 2019\VC\Tools\MSVC\14.29.30133\include\xstring
; File D:\visual studio 2019\visual studio 2019\VC\Tools\MSVC\14.29.30133\include\xmemory
; File D:\visual studio 2019\visual studio 2019\VC\Tools\MSVC\14.29.30133\include\xstring
; File D:\visual studio 2019\visual studio 2019\VC\Tools\MSVC\14.29.30133\include\xmemory
; File D:\visual studio 2019\visual studio 2019\VC\Tools\MSVC\14.29.30133\include\xstring
; File D:\visual studio 2019\visual studio 2019\VC\Tools\MSVC\14.29.30133\include\xmemory
;	COMDAT ??$_Destroy_range@V?$allocator@V?$basic_string@DU?$char_traits@D@std@@V?$allocator@D@2@@std@@@std@@@std@@YAXPAV?$basic_string@DU?$char_traits@D@std@@V?$allocator@D@2@@0@QAV10@AAV?$allocator@V?$basic_string@DU?$char_traits@D@std@@V?$allocator@D@2@@std@@@0@@Z
_TEXT	SEGMENT
__First$ = 8						; size = 4
__Last$ = 12						; size = 4
__Al$ = 16						; size = 4
??$_Destroy_range@V?$allocator@V?$basic_string@DU?$char_traits@D@std@@V?$allocator@D@2@@std@@@std@@@std@@YAXPAV?$basic_string@DU?$char_traits@D@std@@V?$allocator@D@2@@0@QAV10@AAV?$allocator@V?$basic_string@DU?$char_traits@D@std@@V?$allocator@D@2@@std@@@0@@Z PROC ; std::_Destroy_range<std::allocator<std::basic_string<char,std::char_traits<char>,std::allocator<char> > > >, COMDAT

; 900  :     _Alloc_ptr_t<_Alloc> _First, const _Alloc_ptr_t<_Alloc> _Last, _Alloc& _Al) noexcept {

  00000	55		 push	 ebp
  00001	8b ec		 mov	 ebp, esp
  00003	56		 push	 esi

; 904  :         for (; _First != _Last; ++_First) {

  00004	8b 75 08	 mov	 esi, DWORD PTR __First$[ebp]
  00007	57		 push	 edi
  00008	8b 7d 0c	 mov	 edi, DWORD PTR __Last$[ebp]
  0000b	3b f7		 cmp	 esi, edi
  0000d	74 48		 je	 SHORT $LN45@Destroy_ra
  0000f	90		 npad	 1
$LL4@Destroy_ra:
; File D:\visual studio 2019\visual studio 2019\VC\Tools\MSVC\14.29.30133\include\xstring

; 2286 :         return _BUF_SIZE <= _Myres;

  00010	8b 4e 14	 mov	 ecx, DWORD PTR [esi+20]
  00013	83 f9 10	 cmp	 ecx, 16			; 00000010H

; 4584 :         if (_Mypair._Myval2._Large_string_engaged()) {

  00016	72 27		 jb	 SHORT $LN23@Destroy_ra
; File D:\visual studio 2019\visual studio 2019\VC\Tools\MSVC\14.29.30133\include\xmemory

; 797  :         _Deallocate<_New_alignof<_Ty>>(_Ptr, sizeof(_Ty) * _Count);

  00018	8b 06		 mov	 eax, DWORD PTR [esi]
; File D:\visual studio 2019\visual studio 2019\VC\Tools\MSVC\14.29.30133\include\xstring

; 4588 :             _Al.deallocate(_Ptr, _Mypair._Myval2._Myres + 1);

  0001a	41		 inc	 ecx
; File D:\visual studio 2019\visual studio 2019\VC\Tools\MSVC\14.29.30133\include\xmemory

; 251  :         if (_Bytes >= _Big_allocation_threshold) { // boost the alignment of big allocations to help autovectorization

  0001b	81 f9 00 10 00
	00		 cmp	 ecx, 4096		; 00001000H
  00021	72 12		 jb	 SHORT $LN33@Destroy_ra

; 150  :     const uintptr_t _Ptr_container   = _Ptr_user[-1];

  00023	8b 50 fc	 mov	 edx, DWORD PTR [eax-4]
  00026	83 c1 23	 add	 ecx, 35			; 00000023H

; 151  : 
; 152  :     // If the following asserts, it likely means that we are performing
; 153  :     // an aligned delete on memory coming from an unaligned allocation.
; 154  :     _STL_ASSERT(_Ptr_user[-2] == _Big_allocation_sentinel, "invalid argument");
; 155  : 
; 156  :     // Extra paranoia on aligned allocation/deallocation; ensure _Ptr_container is
; 157  :     // in range [_Min_back_shift, _Non_user_size]
; 158  : #ifdef _DEBUG
; 159  :     constexpr uintptr_t _Min_back_shift = 2 * sizeof(void*);
; 160  : #else // ^^^ _DEBUG ^^^ // vvv !_DEBUG vvv
; 161  :     constexpr uintptr_t _Min_back_shift = sizeof(void*);
; 162  : #endif // _DEBUG
; 163  :     const uintptr_t _Back_shift = reinterpret_cast<uintptr_t>(_Ptr) - _Ptr_container;

  00029	2b c2		 sub	 eax, edx

; 164  :     _STL_VERIFY(_Back_shift >= _Min_back_shift && _Back_shift <= _Non_user_size, "invalid argument");

  0002b	83 c0 fc	 add	 eax, -4			; fffffffcH
  0002e	83 f8 1f	 cmp	 eax, 31			; 0000001fH
  00031	77 28		 ja	 SHORT $LN30@Destroy_ra

; 165  :     _Ptr = reinterpret_cast<void*>(_Ptr_container);

  00033	8b c2		 mov	 eax, edx
$LN33@Destroy_ra:

; 255  :         ::operator delete(_Ptr, _Bytes);

  00035	51		 push	 ecx
  00036	50		 push	 eax
  00037	e8 00 00 00 00	 call	 ??3@YAXPAXI@Z		; operator delete
  0003c	83 c4 08	 add	 esp, 8
$LN23@Destroy_ra:
; File D:\visual studio 2019\visual studio 2019\VC\Tools\MSVC\14.29.30133\include\xstring

; 4599 :             _Mypair._Myval2._Mysize = 0;

  0003f	c7 46 10 00 00
	00 00		 mov	 DWORD PTR [esi+16], 0

; 4600 :             _Mypair._Myval2._Myres  = _BUF_SIZE - 1;

  00046	c7 46 14 0f 00
	00 00		 mov	 DWORD PTR [esi+20], 15	; 0000000fH

; 4601 :             // the _Traits::assign is last so the codegen doesn't think the char write can alias this
; 4602 :             _Traits::assign(_Mypair._Myval2._Bx._Buf[0], _Elem());

  0004d	c6 06 00	 mov	 BYTE PTR [esi], 0
; File D:\visual studio 2019\visual studio 2019\VC\Tools\MSVC\14.29.30133\include\xmemory

; 904  :         for (; _First != _Last; ++_First) {

  00050	83 c6 18	 add	 esi, 24			; 00000018H
  00053	3b f7		 cmp	 esi, edi
  00055	75 b9		 jne	 SHORT $LL4@Destroy_ra
$LN45@Destroy_ra:
  00057	5f		 pop	 edi

; 905  :             allocator_traits<_Alloc>::destroy(_Al, _Unfancy(_First));
; 906  :         }
; 907  :     }
; 908  : }

  00058	5e		 pop	 esi
  00059	5d		 pop	 ebp
  0005a	c3		 ret	 0
$LN30@Destroy_ra:

; 164  :     _STL_VERIFY(_Back_shift >= _Min_back_shift && _Back_shift <= _Non_user_size, "invalid argument");

  0005b	e8 00 00 00 00	 call	 __invalid_parameter_noinfo_noreturn
$LN46@Destroy_ra:
  00060	cc		 int	 3
??$_Destroy_range@V?$allocator@V?$basic_string@DU?$char_traits@D@std@@V?$allocator@D@2@@std@@@std@@@std@@YAXPAV?$basic_string@DU?$char_traits@D@std@@V?$allocator@D@2@@0@QAV10@AAV?$allocator@V?$basic_string@DU?$char_traits@D@std@@V?$allocator@D@2@@std@@@0@@Z ENDP ; std::_Destroy_range<std::allocator<std::basic_string<char,std::char_traits<char>,std::allocator<char> > > >
_TEXT	ENDS
; Function compile flags: /Ogtp
; File D:\visual studio 2019\visual studio 2019\VC\Tools\MSVC\14.29.30133\include\vector
; File D:\visual studio 2019\visual studio 2019\VC\Tools\MSVC\14.29.30133\include\xmemory
; File D:\visual studio 2019\visual studio 2019\VC\Tools\MSVC\14.29.30133\include\vector
; File D:\visual studio 2019\visual studio 2019\VC\Tools\MSVC\14.29.30133\include\xmemory
; File D:\visual studio 2019\visual studio 2019\VC\Tools\MSVC\14.29.30133\include\vector
; File D:\visual studio 2019\visual studio 2019\VC\Tools\MSVC\14.29.30133\include\xstring
; File D:\visual studio 2019\visual studio 2019\VC\Tools\MSVC\14.29.30133\include\vector
; File D:\visual studio 2019\visual studio 2019\VC\Tools\MSVC\14.29.30133\include\xstring
; File D:\visual studio 2019\visual studio 2019\VC\Tools\MSVC\14.29.30133\include\vector
; File D:\visual studio 2019\visual studio 2019\VC\Tools\MSVC\14.29.30133\include\xmemory
; File D:\visual studio 2019\visual studio 2019\VC\Tools\MSVC\14.29.30133\include\vector
; File D:\visual studio 2019\visual studio 2019\VC\Tools\MSVC\14.29.30133\include\xmemory
; File D:\visual studio 2019\visual studio 2019\VC\Tools\MSVC\14.29.30133\include\vector
; File D:\visual studio 2019\visual studio 2019\VC\Tools\MSVC\14.29.30133\include\xmemory
; File D:\visual studio 2019\visual studio 2019\VC\Tools\MSVC\14.29.30133\include\vector
;	COMDAT ??$_Emplace_reallocate@V?$basic_string@DU?$char_traits@D@std@@V?$allocator@D@2@@std@@@?$vector@V?$basic_string@DU?$char_traits@D@std@@V?$allocator@D@2@@std@@V?$allocator@V?$basic_string@DU?$char_traits@D@std@@V?$allocator@D@2@@std@@@2@@std@@QAEPAV?$basic_string@DU?$char_traits@D@std@@V?$allocator@D@2@@1@QAV21@$$QAV21@@Z
_TEXT	SEGMENT
__Oldsize$1$ = -8					; size = 4
_this$1$ = -4						; size = 4
__Whereoff$1$ = -4					; size = 4
__Whereptr$ = 8						; size = 4
_<_Val_0>$ = 12						; size = 4
??$_Emplace_reallocate@V?$basic_string@DU?$char_traits@D@std@@V?$allocator@D@2@@std@@@?$vector@V?$basic_string@DU?$char_traits@D@std@@V?$allocator@D@2@@std@@V?$allocator@V?$basic_string@DU?$char_traits@D@std@@V?$allocator@D@2@@std@@@2@@std@@QAEPAV?$basic_string@DU?$char_traits@D@std@@V?$allocator@D@2@@1@QAV21@$$QAV21@@Z PROC ; std::vector<std::basic_string<char,std::char_traits<char>,std::allocator<char> >,std::allocator<std::basic_string<char,std::char_traits<char>,std::allocator<char> > > >::_Emplace_reallocate<std::basic_string<char,std::char_traits<char>,std::allocator<char> > >, COMDAT
; _this$ = ecx

; 752  :     _CONSTEXPR20_CONTAINER pointer _Emplace_reallocate(const pointer _Whereptr, _Valty&&... _Val) {

  00000	55		 push	 ebp
  00001	8b ec		 mov	 ebp, esp
  00003	83 ec 08	 sub	 esp, 8

; 753  :         // reallocate and insert by perfectly forwarding _Val at _Whereptr
; 754  :         _Alty& _Al        = _Getal();
; 755  :         auto& _My_data    = _Mypair._Myval2;
; 756  :         pointer& _Myfirst = _My_data._Myfirst;
; 757  :         pointer& _Mylast  = _My_data._Mylast;
; 758  : 
; 759  :         _STL_INTERNAL_CHECK(_Mylast == _My_data._Myend); // check that we have no unused capacity
; 760  : 
; 761  :         const auto _Whereoff = static_cast<size_type>(_Whereptr - _Myfirst);

  00006	8b 55 08	 mov	 edx, DWORD PTR __Whereptr$[ebp]
  00009	b8 ab aa aa 2a	 mov	 eax, 715827883		; 2aaaaaabH
  0000e	53		 push	 ebx
  0000f	56		 push	 esi
  00010	8b f1		 mov	 esi, ecx
  00012	57		 push	 edi
  00013	8b 3e		 mov	 edi, DWORD PTR [esi]
  00015	2b d7		 sub	 edx, edi

; 762  :         const auto _Oldsize  = static_cast<size_type>(_Mylast - _Myfirst);

  00017	8b 4e 04	 mov	 ecx, DWORD PTR [esi+4]
  0001a	f7 ea		 imul	 edx
  0001c	2b cf		 sub	 ecx, edi
  0001e	c1 fa 02	 sar	 edx, 2
  00021	8b c2		 mov	 eax, edx
  00023	c1 e8 1f	 shr	 eax, 31			; 0000001fH
  00026	03 c2		 add	 eax, edx
  00028	89 45 fc	 mov	 DWORD PTR __Whereoff$1$[ebp], eax
  0002b	b8 ab aa aa 2a	 mov	 eax, 715827883		; 2aaaaaabH
  00030	f7 e9		 imul	 ecx
  00032	c1 fa 02	 sar	 edx, 2
  00035	8b c2		 mov	 eax, edx
  00037	c1 e8 1f	 shr	 eax, 31			; 0000001fH
  0003a	03 c2		 add	 eax, edx
  0003c	89 45 f8	 mov	 DWORD PTR __Oldsize$1$[ebp], eax

; 763  : 
; 764  :         if (_Oldsize == max_size()) {

  0003f	3d aa aa aa 0a	 cmp	 eax, 178956970		; 0aaaaaaaH
  00044	0f 84 71 01 00
	00		 je	 $LN93@Emplace_re

; 1546 :         return static_cast<size_type>(_My_data._Myend - _My_data._Myfirst);

  0004a	8b 4e 08	 mov	 ecx, DWORD PTR [esi+8]

; 766  :         }
; 767  : 
; 768  :         const size_type _Newsize     = _Oldsize + 1;

  0004d	8d 58 01	 lea	 ebx, DWORD PTR [eax+1]

; 1546 :         return static_cast<size_type>(_My_data._Myend - _My_data._Myfirst);

  00050	2b cf		 sub	 ecx, edi
  00052	b8 ab aa aa 2a	 mov	 eax, 715827883		; 2aaaaaabH
  00057	f7 e9		 imul	 ecx

; 1675 :         if (_Oldcapacity > _Max - _Oldcapacity / 2) {

  00059	b8 aa aa aa 0a	 mov	 eax, 178956970		; 0aaaaaaaH

; 1546 :         return static_cast<size_type>(_My_data._Myend - _My_data._Myfirst);

  0005e	c1 fa 02	 sar	 edx, 2
  00061	8b ca		 mov	 ecx, edx
  00063	c1 e9 1f	 shr	 ecx, 31			; 0000001fH
  00066	03 ca		 add	 ecx, edx

; 1675 :         if (_Oldcapacity > _Max - _Oldcapacity / 2) {

  00068	8b d1		 mov	 edx, ecx
  0006a	d1 ea		 shr	 edx, 1
  0006c	2b c2		 sub	 eax, edx
  0006e	3b c8		 cmp	 ecx, eax
  00070	76 12		 jbe	 SHORT $LN12@Emplace_re

; 1676 :             return _Max; // geometric growth would overflow

  00072	bf f0 ff ff ff	 mov	 edi, -16		; fffffff0H
; File D:\visual studio 2019\visual studio 2019\VC\Tools\MSVC\14.29.30133\include\xmemory

; 229  :             return _Allocate_manually_vector_aligned<_Traits>(_Bytes);

  00077	57		 push	 edi
  00078	e8 00 00 00 00	 call	 ??$_Allocate_manually_vector_aligned@U_Default_allocate_traits@std@@@std@@YAPAXI@Z ; std::_Allocate_manually_vector_aligned<std::_Default_allocate_traits>
  0007d	83 c4 04	 add	 esp, 4
  00080	8b d8		 mov	 ebx, eax
  00082	eb 44		 jmp	 SHORT $LN23@Emplace_re
$LN12@Emplace_re:
; File D:\visual studio 2019\visual studio 2019\VC\Tools\MSVC\14.29.30133\include\vector

; 1679 :         const size_type _Geometric = _Oldcapacity + _Oldcapacity / 2;

  00084	8d 04 0a	 lea	 eax, DWORD PTR [edx+ecx]
; File D:\visual studio 2019\visual studio 2019\VC\Tools\MSVC\14.29.30133\include\xmemory

; 60   :         if (_Count > _Max_possible) {

  00087	8b cb		 mov	 ecx, ebx
  00089	3b c3		 cmp	 eax, ebx
  0008b	0f 43 c8	 cmovae	 ecx, eax
  0008e	81 f9 aa aa aa
	0a		 cmp	 ecx, 178956970		; 0aaaaaaaH
  00094	0f 87 26 01 00
	00		 ja	 $LN94@Emplace_re

; 62   :         }
; 63   :     }
; 64   : 
; 65   :     return _Count * _Ty_size;

  0009a	8d 3c 49	 lea	 edi, DWORD PTR [ecx+ecx*2]
  0009d	c1 e7 03	 shl	 edi, 3

; 228  :         if (_Bytes >= _Big_allocation_threshold) { // boost the alignment of big allocations to help autovectorization

  000a0	81 ff 00 10 00
	00		 cmp	 edi, 4096		; 00001000H
  000a6	72 0d		 jb	 SHORT $LN24@Emplace_re

; 229  :             return _Allocate_manually_vector_aligned<_Traits>(_Bytes);

  000a8	57		 push	 edi
  000a9	e8 00 00 00 00	 call	 ??$_Allocate_manually_vector_aligned@U_Default_allocate_traits@std@@@std@@YAPAXI@Z ; std::_Allocate_manually_vector_aligned<std::_Default_allocate_traits>
  000ae	83 c4 04	 add	 esp, 4
  000b1	8b d8		 mov	 ebx, eax
  000b3	eb 13		 jmp	 SHORT $LN23@Emplace_re
$LN24@Emplace_re:

; 230  :         }
; 231  :     }
; 232  : #endif // defined(_M_IX86) || defined(_M_X64)
; 233  : 
; 234  :     if (_Bytes != 0) {

  000b5	85 ff		 test	 edi, edi
  000b7	74 0d		 je	 SHORT $LN25@Emplace_re

; 79   :         return ::operator new(_Bytes);

  000b9	57		 push	 edi
  000ba	e8 00 00 00 00	 call	 ??2@YAPAXI@Z		; operator new
  000bf	83 c4 04	 add	 esp, 4

; 235  :         return _Traits::_Allocate(_Bytes);

  000c2	8b d8		 mov	 ebx, eax
  000c4	eb 02		 jmp	 SHORT $LN23@Emplace_re
$LN25@Emplace_re:

; 236  :     }
; 237  : 
; 238  :     return nullptr;

  000c6	33 db		 xor	 ebx, ebx
$LN23@Emplace_re:
; File D:\visual studio 2019\visual studio 2019\VC\Tools\MSVC\14.29.30133\include\vector

; 776  :         _Alty_traits::construct(_Al, _Unfancy(_Newvec + _Whereoff), _STD forward<_Valty>(_Val)...);

  000c8	8b 45 fc	 mov	 eax, DWORD PTR __Whereoff$1$[ebp]
  000cb	8d 04 40	 lea	 eax, DWORD PTR [eax+eax*2]
  000ce	8d 0c c3	 lea	 ecx, DWORD PTR [ebx+eax*8]
; File D:\visual studio 2019\visual studio 2019\VC\Tools\MSVC\14.29.30133\include\xstring

; 2835 :         _CSTD memcpy(_My_data_mem, _Right_data_mem, _Memcpy_val_size);

  000d1	8b 45 0c	 mov	 eax, DWORD PTR _<_Val_0>$[ebp]

; 2313 :         _CONSTEXPR20_CONTAINER _Bxty() noexcept : _Ptr() {} // user-provided, for fancy pointers

  000d4	c7 01 00 00 00
	00		 mov	 DWORD PTR [ecx], 0

; 2322 :     size_type _Mysize = 0; // current length of string

  000da	c7 41 10 00 00
	00 00		 mov	 DWORD PTR [ecx+16], 0

; 2323 :     size_type _Myres  = 0; // current storage reserved for string

  000e1	c7 41 14 00 00
	00 00		 mov	 DWORD PTR [ecx+20], 0

; 2835 :         _CSTD memcpy(_My_data_mem, _Right_data_mem, _Memcpy_val_size);

  000e8	0f 10 00	 movups	 xmm0, XMMWORD PTR [eax]
; File D:\visual studio 2019\visual studio 2019\VC\Tools\MSVC\14.29.30133\include\vector

; 776  :         _Alty_traits::construct(_Al, _Unfancy(_Newvec + _Whereoff), _STD forward<_Valty>(_Val)...);

  000eb	89 4d fc	 mov	 DWORD PTR _this$1$[ebp], ecx
; File D:\visual studio 2019\visual studio 2019\VC\Tools\MSVC\14.29.30133\include\xstring

; 2835 :         _CSTD memcpy(_My_data_mem, _Right_data_mem, _Memcpy_val_size);

  000ee	0f 11 01	 movups	 XMMWORD PTR [ecx], xmm0
  000f1	f3 0f 7e 40 10	 movq	 xmm0, QWORD PTR [eax+16]
  000f6	66 0f d6 41 10	 movq	 QWORD PTR [ecx+16], xmm0

; 4562 :         _My_data._Mysize = 0;

  000fb	c7 40 10 00 00
	00 00		 mov	 DWORD PTR [eax+16], 0

; 4563 : 
; 4564 : #ifdef __cpp_lib_constexpr_string
; 4565 :         if (_STD is_constant_evaluated()) {
; 4566 :             _My_data._Myres        = _BUF_SIZE; // SSO disabled in constexpr context
; 4567 :             auto& _Al              = _Getal();
; 4568 :             const pointer _New_ptr = _Al.allocate(_BUF_SIZE + 1); // throws
; 4569 :             _My_data._Bx._Ptr      = _New_ptr;
; 4570 : 
; 4571 :             _Elem* const _Raw_new = _Unfancy(_New_ptr);
; 4572 :             _Traits::assign(_Raw_new, _BUF_SIZE + 1, _Elem());
; 4573 :         } else
; 4574 : #endif // __cpp_lib_constexpr_string
; 4575 :         {
; 4576 :             _My_data._Myres = _BUF_SIZE - 1;

  00102	c7 40 14 0f 00
	00 00		 mov	 DWORD PTR [eax+20], 15	; 0000000fH

; 4577 :             // the _Traits::assign is last so the codegen doesn't think the char write can alias this
; 4578 :             _Traits::assign(_My_data._Bx._Buf[0], _Elem());

  00109	c6 00 00	 mov	 BYTE PTR [eax], 0
; File D:\visual studio 2019\visual studio 2019\VC\Tools\MSVC\14.29.30133\include\vector

; 779  :         if (_Whereptr == _Mylast) { // at back, provide strong guarantee

  0010c	8b 56 04	 mov	 edx, DWORD PTR [esi+4]
  0010f	8b 45 08	 mov	 eax, DWORD PTR __Whereptr$[ebp]
  00112	8b 0e		 mov	 ecx, DWORD PTR [esi]
  00114	3b c2		 cmp	 eax, edx
  00116	75 04		 jne	 SHORT $LN4@Emplace_re

; 1651 :         _Uninitialized_move(_First, _Last, _Dest, _Getal());

  00118	8b c3		 mov	 eax, ebx

; 780  :             _Umove_if_noexcept(_Myfirst, _Mylast, _Newvec);
; 781  :         } else { // provide basic guarantee

  0011a	eb 18		 jmp	 SHORT $LN5@Emplace_re
$LN4@Emplace_re:

; 1646 :         return _Uninitialized_move(_First, _Last, _Dest, _Getal());

  0011c	56		 push	 esi
  0011d	53		 push	 ebx
  0011e	50		 push	 eax
  0011f	51		 push	 ecx
  00120	e8 00 00 00 00	 call	 ??$_Uninitialized_move@PAV?$basic_string@DU?$char_traits@D@std@@V?$allocator@D@2@@std@@V?$allocator@V?$basic_string@DU?$char_traits@D@std@@V?$allocator@D@2@@std@@@2@@std@@YAPAV?$basic_string@DU?$char_traits@D@std@@V?$allocator@D@2@@0@QAV10@0PAV10@AAV?$allocator@V?$basic_string@DU?$char_traits@D@std@@V?$allocator@D@2@@std@@@0@@Z ; std::_Uninitialized_move<std::basic_string<char,std::char_traits<char>,std::allocator<char> > *,std::allocator<std::basic_string<char,std::char_traits<char>,std::allocator<char> > > >

; 782  :             _Umove(_Myfirst, _Whereptr, _Newvec);
; 783  :             _Constructed_first = _Newvec;
; 784  :             _Umove(_Whereptr, _Mylast, _Newvec + _Whereoff + 1);

  00125	8b 45 fc	 mov	 eax, DWORD PTR _this$1$[ebp]

; 1646 :         return _Uninitialized_move(_First, _Last, _Dest, _Getal());

  00128	83 c4 10	 add	 esp, 16			; 00000010H
  0012b	8b 4d 08	 mov	 ecx, DWORD PTR __Whereptr$[ebp]

; 782  :             _Umove(_Myfirst, _Whereptr, _Newvec);
; 783  :             _Constructed_first = _Newvec;
; 784  :             _Umove(_Whereptr, _Mylast, _Newvec + _Whereoff + 1);

  0012e	83 c0 18	 add	 eax, 24			; 00000018H

; 1646 :         return _Uninitialized_move(_First, _Last, _Dest, _Getal());

  00131	8b 56 04	 mov	 edx, DWORD PTR [esi+4]
$LN5@Emplace_re:

; 782  :             _Umove(_Myfirst, _Whereptr, _Newvec);
; 783  :             _Constructed_first = _Newvec;
; 784  :             _Umove(_Whereptr, _Mylast, _Newvec + _Whereoff + 1);

  00134	56		 push	 esi
  00135	50		 push	 eax
  00136	52		 push	 edx
  00137	51		 push	 ecx
  00138	e8 00 00 00 00	 call	 ??$_Uninitialized_move@PAV?$basic_string@DU?$char_traits@D@std@@V?$allocator@D@2@@std@@V?$allocator@V?$basic_string@DU?$char_traits@D@std@@V?$allocator@D@2@@std@@@2@@std@@YAPAV?$basic_string@DU?$char_traits@D@std@@V?$allocator@D@2@@0@QAV10@0PAV10@AAV?$allocator@V?$basic_string@DU?$char_traits@D@std@@V?$allocator@D@2@@std@@@0@@Z ; std::_Uninitialized_move<std::basic_string<char,std::char_traits<char>,std::allocator<char> > *,std::allocator<std::basic_string<char,std::char_traits<char>,std::allocator<char> > > >

; 1732 :         if (_Myfirst) { // destroy and deallocate old array

  0013d	8b 0e		 mov	 ecx, DWORD PTR [esi]

; 782  :             _Umove(_Myfirst, _Whereptr, _Newvec);
; 783  :             _Constructed_first = _Newvec;
; 784  :             _Umove(_Whereptr, _Mylast, _Newvec + _Whereoff + 1);

  0013f	83 c4 10	 add	 esp, 16			; 00000010H

; 1732 :         if (_Myfirst) { // destroy and deallocate old array

  00142	85 c9		 test	 ecx, ecx
  00144	74 4f		 je	 SHORT $LN74@Emplace_re

; 1667 :         _Destroy_range(_First, _Last, _Getal());

  00146	56		 push	 esi
  00147	ff 76 04	 push	 DWORD PTR [esi+4]
  0014a	51		 push	 ecx
  0014b	e8 00 00 00 00	 call	 ??$_Destroy_range@V?$allocator@V?$basic_string@DU?$char_traits@D@std@@V?$allocator@D@2@@std@@@std@@@std@@YAXPAV?$basic_string@DU?$char_traits@D@std@@V?$allocator@D@2@@0@QAV10@AAV?$allocator@V?$basic_string@DU?$char_traits@D@std@@V?$allocator@D@2@@std@@@0@@Z ; std::_Destroy_range<std::allocator<std::basic_string<char,std::char_traits<char>,std::allocator<char> > > >

; 1734 :             _Getal().deallocate(_Myfirst, static_cast<size_type>(_Myend - _Myfirst));

  00150	8b 4e 08	 mov	 ecx, DWORD PTR [esi+8]
  00153	b8 ab aa aa 2a	 mov	 eax, 715827883		; 2aaaaaabH
  00158	2b 0e		 sub	 ecx, DWORD PTR [esi]

; 1667 :         _Destroy_range(_First, _Last, _Getal());

  0015a	83 c4 0c	 add	 esp, 12			; 0000000cH

; 1734 :             _Getal().deallocate(_Myfirst, static_cast<size_type>(_Myend - _Myfirst));

  0015d	f7 e9		 imul	 ecx
  0015f	c1 fa 02	 sar	 edx, 2
  00162	8b c2		 mov	 eax, edx
  00164	c1 e8 1f	 shr	 eax, 31			; 0000001fH
  00167	03 c2		 add	 eax, edx
; File D:\visual studio 2019\visual studio 2019\VC\Tools\MSVC\14.29.30133\include\xmemory

; 797  :         _Deallocate<_New_alignof<_Ty>>(_Ptr, sizeof(_Ty) * _Count);

  00169	8d 0c 40	 lea	 ecx, DWORD PTR [eax+eax*2]

; 251  :         if (_Bytes >= _Big_allocation_threshold) { // boost the alignment of big allocations to help autovectorization

  0016c	8b 06		 mov	 eax, DWORD PTR [esi]

; 797  :         _Deallocate<_New_alignof<_Ty>>(_Ptr, sizeof(_Ty) * _Count);

  0016e	c1 e1 03	 shl	 ecx, 3

; 251  :         if (_Bytes >= _Big_allocation_threshold) { // boost the alignment of big allocations to help autovectorization

  00171	81 f9 00 10 00
	00		 cmp	 ecx, 4096		; 00001000H
  00177	72 12		 jb	 SHORT $LN84@Emplace_re

; 150  :     const uintptr_t _Ptr_container   = _Ptr_user[-1];

  00179	8b 50 fc	 mov	 edx, DWORD PTR [eax-4]
  0017c	83 c1 23	 add	 ecx, 35			; 00000023H

; 151  : 
; 152  :     // If the following asserts, it likely means that we are performing
; 153  :     // an aligned delete on memory coming from an unaligned allocation.
; 154  :     _STL_ASSERT(_Ptr_user[-2] == _Big_allocation_sentinel, "invalid argument");
; 155  : 
; 156  :     // Extra paranoia on aligned allocation/deallocation; ensure _Ptr_container is
; 157  :     // in range [_Min_back_shift, _Non_user_size]
; 158  : #ifdef _DEBUG
; 159  :     constexpr uintptr_t _Min_back_shift = 2 * sizeof(void*);
; 160  : #else // ^^^ _DEBUG ^^^ // vvv !_DEBUG vvv
; 161  :     constexpr uintptr_t _Min_back_shift = sizeof(void*);
; 162  : #endif // _DEBUG
; 163  :     const uintptr_t _Back_shift = reinterpret_cast<uintptr_t>(_Ptr) - _Ptr_container;

  0017f	2b c2		 sub	 eax, edx

; 164  :     _STL_VERIFY(_Back_shift >= _Min_back_shift && _Back_shift <= _Non_user_size, "invalid argument");

  00181	83 c0 fc	 add	 eax, -4			; fffffffcH
  00184	83 f8 1f	 cmp	 eax, 31			; 0000001fH
  00187	77 2d		 ja	 SHORT $LN81@Emplace_re

; 165  :     _Ptr = reinterpret_cast<void*>(_Ptr_container);

  00189	8b c2		 mov	 eax, edx
$LN84@Emplace_re:

; 255  :         ::operator delete(_Ptr, _Bytes);

  0018b	51		 push	 ecx
  0018c	50		 push	 eax
  0018d	e8 00 00 00 00	 call	 ??3@YAXPAXI@Z		; operator delete
  00192	83 c4 08	 add	 esp, 8
$LN74@Emplace_re:
; File D:\visual studio 2019\visual studio 2019\VC\Tools\MSVC\14.29.30133\include\vector

; 1738 :         _Mylast  = _Newvec + _Newsize;

  00195	8b 45 f8	 mov	 eax, DWORD PTR __Oldsize$1$[ebp]
  00198	40		 inc	 eax
  00199	89 1e		 mov	 DWORD PTR [esi], ebx
  0019b	8d 0c 40	 lea	 ecx, DWORD PTR [eax+eax*2]

; 785  :         }
; 786  :         _CATCH_ALL
; 787  :         _Destroy(_Constructed_first, _Constructed_last);
; 788  :         _Al.deallocate(_Newvec, _Newcapacity);
; 789  :         _RERAISE;
; 790  :         _CATCH_END
; 791  : 
; 792  :         _Change_array(_Newvec, _Newsize, _Newcapacity);
; 793  :         return _Newvec + _Whereoff;

  0019e	8b 45 fc	 mov	 eax, DWORD PTR _this$1$[ebp]

; 1738 :         _Mylast  = _Newvec + _Newsize;

  001a1	8d 0c cb	 lea	 ecx, DWORD PTR [ebx+ecx*8]
  001a4	89 4e 04	 mov	 DWORD PTR [esi+4], ecx

; 1739 :         _Myend   = _Newvec + _Newcapacity;

  001a7	8d 0c 1f	 lea	 ecx, DWORD PTR [edi+ebx]

; 785  :         }
; 786  :         _CATCH_ALL
; 787  :         _Destroy(_Constructed_first, _Constructed_last);
; 788  :         _Al.deallocate(_Newvec, _Newcapacity);
; 789  :         _RERAISE;
; 790  :         _CATCH_END
; 791  : 
; 792  :         _Change_array(_Newvec, _Newsize, _Newcapacity);
; 793  :         return _Newvec + _Whereoff;

  001aa	5f		 pop	 edi

; 1739 :         _Myend   = _Newvec + _Newcapacity;

  001ab	89 4e 08	 mov	 DWORD PTR [esi+8], ecx

; 785  :         }
; 786  :         _CATCH_ALL
; 787  :         _Destroy(_Constructed_first, _Constructed_last);
; 788  :         _Al.deallocate(_Newvec, _Newcapacity);
; 789  :         _RERAISE;
; 790  :         _CATCH_END
; 791  : 
; 792  :         _Change_array(_Newvec, _Newsize, _Newcapacity);
; 793  :         return _Newvec + _Whereoff;

  001ae	5e		 pop	 esi
  001af	5b		 pop	 ebx

; 794  :     }

  001b0	8b e5		 mov	 esp, ebp
  001b2	5d		 pop	 ebp
  001b3	c2 08 00	 ret	 8
$LN81@Emplace_re:
; File D:\visual studio 2019\visual studio 2019\VC\Tools\MSVC\14.29.30133\include\xmemory

; 164  :     _STL_VERIFY(_Back_shift >= _Min_back_shift && _Back_shift <= _Non_user_size, "invalid argument");

  001b6	e8 00 00 00 00	 call	 __invalid_parameter_noinfo_noreturn
$LN93@Emplace_re:
; File D:\visual studio 2019\visual studio 2019\VC\Tools\MSVC\14.29.30133\include\vector

; 765  :             _Xlength();

  001bb	e8 00 00 00 00	 call	 ?_Xlength@?$vector@V?$basic_string@DU?$char_traits@D@std@@V?$allocator@D@2@@std@@V?$allocator@V?$basic_string@DU?$char_traits@D@std@@V?$allocator@D@2@@std@@@2@@std@@CAXXZ ; std::vector<std::basic_string<char,std::char_traits<char>,std::allocator<char> >,std::allocator<std::basic_string<char,std::char_traits<char>,std::allocator<char> > > >::_Xlength
$LN94@Emplace_re:
; File D:\visual studio 2019\visual studio 2019\VC\Tools\MSVC\14.29.30133\include\xmemory

; 61   :             _Throw_bad_array_new_length(); // multiply overflow

  001c0	e8 00 00 00 00	 call	 ?_Throw_bad_array_new_length@std@@YAXXZ ; std::_Throw_bad_array_new_length
$LN91@Emplace_re:
  001c5	cc		 int	 3
??$_Emplace_reallocate@V?$basic_string@DU?$char_traits@D@std@@V?$allocator@D@2@@std@@@?$vector@V?$basic_string@DU?$char_traits@D@std@@V?$allocator@D@2@@std@@V?$allocator@V?$basic_string@DU?$char_traits@D@std@@V?$allocator@D@2@@std@@@2@@std@@QAEPAV?$basic_string@DU?$char_traits@D@std@@V?$allocator@D@2@@1@QAV21@$$QAV21@@Z ENDP ; std::vector<std::basic_string<char,std::char_traits<char>,std::allocator<char> >,std::allocator<std::basic_string<char,std::char_traits<char>,std::allocator<char> > > >::_Emplace_reallocate<std::basic_string<char,std::char_traits<char>,std::allocator<char> > >
_TEXT	ENDS
; Function compile flags: /Ogtp
; File D:\visual studio 2019\visual studio 2019\VC\Tools\MSVC\14.29.30133\include\xtree
; File D:\visual studio 2019\visual studio 2019\VC\Tools\MSVC\14.29.30133\include\utility
; File D:\visual studio 2019\visual studio 2019\VC\Tools\MSVC\14.29.30133\include\xmemory
; File D:\visual studio 2019\visual studio 2019\VC\Tools\MSVC\14.29.30133\include\xtree
;	COMDAT ??$_Erase_tree@V?$allocator@U?$_Tree_node@U?$pair@$$CBKPAVCItemData@@@std@@PAX@std@@@std@@@?$_Tree_val@U?$_Tree_simple_types@U?$pair@$$CBKPAVCItemData@@@std@@@std@@@std@@QAEXAAV?$allocator@U?$_Tree_node@U?$pair@$$CBKPAVCItemData@@@std@@PAX@std@@@1@PAU?$_Tree_node@U?$pair@$$CBKPAVCItemData@@@std@@PAX@1@@Z
_TEXT	SEGMENT
__Al$ = 8						; size = 4
__Rootnode$ = 12					; size = 4
??$_Erase_tree@V?$allocator@U?$_Tree_node@U?$pair@$$CBKPAVCItemData@@@std@@PAX@std@@@std@@@?$_Tree_val@U?$_Tree_simple_types@U?$pair@$$CBKPAVCItemData@@@std@@@std@@@std@@QAEXAAV?$allocator@U?$_Tree_node@U?$pair@$$CBKPAVCItemData@@@std@@PAX@std@@@1@PAU?$_Tree_node@U?$pair@$$CBKPAVCItemData@@@std@@PAX@1@@Z PROC ; std::_Tree_val<std::_Tree_simple_types<std::pair<unsigned long const ,CItemData *> > >::_Erase_tree<std::allocator<std::_Tree_node<std::pair<unsigned long const ,CItemData *>,void *> > >, COMDAT
; _this$ = ecx

; 742  :     void _Erase_tree(_Alnode& _Al, _Nodeptr _Rootnode) noexcept {

  00000	55		 push	 ebp
  00001	8b ec		 mov	 ebp, esp
  00003	53		 push	 ebx
  00004	56		 push	 esi

; 743  :         while (!_Rootnode->_Isnil) { // free subtrees, then node

  00005	8b 75 0c	 mov	 esi, DWORD PTR __Rootnode$[ebp]
  00008	8b d9		 mov	 ebx, ecx
  0000a	80 7e 0d 00	 cmp	 BYTE PTR [esi+13], 0
  0000e	75 25		 jne	 SHORT $LN3@Erase_tree
  00010	57		 push	 edi
  00011	8b 7d 08	 mov	 edi, DWORD PTR __Al$[ebp]
$LL2@Erase_tree:

; 744  :             _Erase_tree(_Al, _Rootnode->_Right);

  00014	ff 76 08	 push	 DWORD PTR [esi+8]
  00017	8b cb		 mov	 ecx, ebx
  00019	57		 push	 edi
  0001a	e8 00 00 00 00	 call	 ??$_Erase_tree@V?$allocator@U?$_Tree_node@U?$pair@$$CBKPAVCItemData@@@std@@PAX@std@@@std@@@?$_Tree_val@U?$_Tree_simple_types@U?$pair@$$CBKPAVCItemData@@@std@@@std@@@std@@QAEXAAV?$allocator@U?$_Tree_node@U?$pair@$$CBKPAVCItemData@@@std@@PAX@std@@@1@PAU?$_Tree_node@U?$pair@$$CBKPAVCItemData@@@std@@PAX@1@@Z ; std::_Tree_val<std::_Tree_simple_types<std::pair<unsigned long const ,CItemData *> > >::_Erase_tree<std::allocator<std::_Tree_node<std::pair<unsigned long const ,CItemData *>,void *> > >
; File D:\visual studio 2019\visual studio 2019\VC\Tools\MSVC\14.29.30133\include\utility

; 602  :     _Ty _Old_val = static_cast<_Ty&&>(_Val);

  0001f	8b c6		 mov	 eax, esi

; 603  :     _Val         = static_cast<_Other&&>(_New_val);

  00021	8b 36		 mov	 esi, DWORD PTR [esi]
; File D:\visual studio 2019\visual studio 2019\VC\Tools\MSVC\14.29.30133\include\xmemory

; 255  :         ::operator delete(_Ptr, _Bytes);

  00023	6a 18		 push	 24			; 00000018H
  00025	50		 push	 eax
  00026	e8 00 00 00 00	 call	 ??3@YAXPAXI@Z		; operator delete
  0002b	83 c4 08	 add	 esp, 8
; File D:\visual studio 2019\visual studio 2019\VC\Tools\MSVC\14.29.30133\include\xtree

; 743  :         while (!_Rootnode->_Isnil) { // free subtrees, then node

  0002e	80 7e 0d 00	 cmp	 BYTE PTR [esi+13], 0
  00032	74 e0		 je	 SHORT $LL2@Erase_tree
  00034	5f		 pop	 edi
$LN3@Erase_tree:
  00035	5e		 pop	 esi

; 745  :             _Alnode::value_type::_Freenode(_Al, _STD exchange(_Rootnode, _Rootnode->_Left));
; 746  :         }
; 747  :     }

  00036	5b		 pop	 ebx
  00037	5d		 pop	 ebp
  00038	c2 08 00	 ret	 8
??$_Erase_tree@V?$allocator@U?$_Tree_node@U?$pair@$$CBKPAVCItemData@@@std@@PAX@std@@@std@@@?$_Tree_val@U?$_Tree_simple_types@U?$pair@$$CBKPAVCItemData@@@std@@@std@@@std@@QAEXAAV?$allocator@U?$_Tree_node@U?$pair@$$CBKPAVCItemData@@@std@@PAX@std@@@1@PAU?$_Tree_node@U?$pair@$$CBKPAVCItemData@@@std@@PAX@1@@Z ENDP ; std::_Tree_val<std::_Tree_simple_types<std::pair<unsigned long const ,CItemData *> > >::_Erase_tree<std::allocator<std::_Tree_node<std::pair<unsigned long const ,CItemData *>,void *> > >
_TEXT	ENDS
; Function compile flags: /Ogtp
; File D:\visual studio 2019\visual studio 2019\VC\Tools\MSVC\14.29.30133\include\vector
; File D:\visual studio 2019\visual studio 2019\VC\Tools\MSVC\14.29.30133\include\xmemory
; File D:\visual studio 2019\visual studio 2019\VC\Tools\MSVC\14.29.30133\include\vector
; File D:\visual studio 2019\visual studio 2019\VC\Tools\MSVC\14.29.30133\include\xmemory
; File D:\visual studio 2019\visual studio 2019\VC\Tools\MSVC\14.29.30133\include\vector
; File D:\visual studio 2019\visual studio 2019\VC\Tools\MSVC\14.29.30133\include\xmemory
; File D:\visual studio 2019\visual studio 2019\VC\Tools\MSVC\14.29.30133\include\vector
; File D:\visual studio 2019\visual studio 2019\VC\Tools\MSVC\14.29.30133\include\xmemory
; File D:\visual studio 2019\visual studio 2019\VC\Tools\MSVC\14.29.30133\include\vector
; File D:\visual studio 2019\visual studio 2019\VC\Tools\MSVC\14.29.30133\include\xmemory
; File D:\visual studio 2019\visual studio 2019\VC\Tools\MSVC\14.29.30133\include\vector
; File D:\visual studio 2019\visual studio 2019\VC\Tools\MSVC\14.29.30133\include\xmemory
; File D:\visual studio 2019\visual studio 2019\VC\Tools\MSVC\14.29.30133\include\vector
; File D:\visual studio 2019\visual studio 2019\VC\Tools\MSVC\14.29.30133\include\xmemory
; File D:\visual studio 2019\visual studio 2019\VC\Tools\MSVC\14.29.30133\include\vector
; File D:\visual studio 2019\visual studio 2019\VC\Tools\MSVC\14.29.30133\include\xmemory
; File D:\visual studio 2019\visual studio 2019\VC\Tools\MSVC\14.29.30133\include\vector
; File D:\visual studio 2019\visual studio 2019\VC\Tools\MSVC\14.29.30133\include\xmemory
; File D:\visual studio 2019\visual studio 2019\VC\Tools\MSVC\14.29.30133\include\vector
;	COMDAT ??$_Emplace_reallocate@ABQAVCItemData@@@?$vector@PAVCItemData@@V?$allocator@PAVCItemData@@@std@@@std@@QAEPAPAVCItemData@@QAPAV2@ABQAV2@@Z
_TEXT	SEGMENT
__Newsize$1$ = -8					; size = 4
tv641 = -4						; size = 4
__Whereoff$1$ = -4					; size = 4
__Whereptr$ = 8						; size = 4
_<_Val_0>$ = 12						; size = 4
??$_Emplace_reallocate@ABQAVCItemData@@@?$vector@PAVCItemData@@V?$allocator@PAVCItemData@@@std@@@std@@QAEPAPAVCItemData@@QAPAV2@ABQAV2@@Z PROC ; std::vector<CItemData *,std::allocator<CItemData *> >::_Emplace_reallocate<CItemData * const &>, COMDAT
; _this$ = ecx

; 752  :     _CONSTEXPR20_CONTAINER pointer _Emplace_reallocate(const pointer _Whereptr, _Valty&&... _Val) {

  00000	55		 push	 ebp
  00001	8b ec		 mov	 ebp, esp
  00003	83 ec 08	 sub	 esp, 8

; 753  :         // reallocate and insert by perfectly forwarding _Val at _Whereptr
; 754  :         _Alty& _Al        = _Getal();
; 755  :         auto& _My_data    = _Mypair._Myval2;
; 756  :         pointer& _Myfirst = _My_data._Myfirst;
; 757  :         pointer& _Mylast  = _My_data._Mylast;
; 758  : 
; 759  :         _STL_INTERNAL_CHECK(_Mylast == _My_data._Myend); // check that we have no unused capacity
; 760  : 
; 761  :         const auto _Whereoff = static_cast<size_type>(_Whereptr - _Myfirst);

  00006	8b 45 08	 mov	 eax, DWORD PTR __Whereptr$[ebp]
  00009	53		 push	 ebx
  0000a	56		 push	 esi
  0000b	8b f1		 mov	 esi, ecx
  0000d	57		 push	 edi
  0000e	8b 0e		 mov	 ecx, DWORD PTR [esi]
  00010	2b c1		 sub	 eax, ecx
  00012	c1 f8 02	 sar	 eax, 2
  00015	89 45 fc	 mov	 DWORD PTR __Whereoff$1$[ebp], eax

; 762  :         const auto _Oldsize  = static_cast<size_type>(_Mylast - _Myfirst);

  00018	8b 46 04	 mov	 eax, DWORD PTR [esi+4]
  0001b	2b c1		 sub	 eax, ecx
  0001d	c1 f8 02	 sar	 eax, 2

; 763  : 
; 764  :         if (_Oldsize == max_size()) {

  00020	3d ff ff ff 3f	 cmp	 eax, 1073741823		; 3fffffffH
  00025	0f 84 06 01 00
	00		 je	 $LN96@Emplace_re

; 1546 :         return static_cast<size_type>(_My_data._Myend - _My_data._Myfirst);

  0002b	8b 56 08	 mov	 edx, DWORD PTR [esi+8]

; 766  :         }
; 767  : 
; 768  :         const size_type _Newsize     = _Oldsize + 1;

  0002e	8d 78 01	 lea	 edi, DWORD PTR [eax+1]

; 1546 :         return static_cast<size_type>(_My_data._Myend - _My_data._Myfirst);

  00031	2b d1		 sub	 edx, ecx

; 766  :         }
; 767  : 
; 768  :         const size_type _Newsize     = _Oldsize + 1;

  00033	89 7d f8	 mov	 DWORD PTR __Newsize$1$[ebp], edi

; 1546 :         return static_cast<size_type>(_My_data._Myend - _My_data._Myfirst);

  00036	c1 fa 02	 sar	 edx, 2

; 1675 :         if (_Oldcapacity > _Max - _Oldcapacity / 2) {

  00039	b8 ff ff ff 3f	 mov	 eax, 1073741823		; 3fffffffH
  0003e	8b ca		 mov	 ecx, edx
  00040	d1 e9		 shr	 ecx, 1
  00042	2b c1		 sub	 eax, ecx
  00044	3b d0		 cmp	 edx, eax
  00046	76 12		 jbe	 SHORT $LN12@Emplace_re

; 1676 :             return _Max; // geometric growth would overflow

  00048	bb fc ff ff ff	 mov	 ebx, -4			; fffffffcH
; File D:\visual studio 2019\visual studio 2019\VC\Tools\MSVC\14.29.30133\include\xmemory

; 229  :             return _Allocate_manually_vector_aligned<_Traits>(_Bytes);

  0004d	53		 push	 ebx
  0004e	e8 00 00 00 00	 call	 ??$_Allocate_manually_vector_aligned@U_Default_allocate_traits@std@@@std@@YAPAXI@Z ; std::_Allocate_manually_vector_aligned<std::_Default_allocate_traits>
  00053	83 c4 04	 add	 esp, 4
  00056	8b f8		 mov	 edi, eax
  00058	eb 41		 jmp	 SHORT $LN23@Emplace_re
$LN12@Emplace_re:
; File D:\visual studio 2019\visual studio 2019\VC\Tools\MSVC\14.29.30133\include\vector

; 1679 :         const size_type _Geometric = _Oldcapacity + _Oldcapacity / 2;

  0005a	8d 04 11	 lea	 eax, DWORD PTR [ecx+edx]
; File D:\visual studio 2019\visual studio 2019\VC\Tools\MSVC\14.29.30133\include\xmemory

; 60   :         if (_Count > _Max_possible) {

  0005d	8b df		 mov	 ebx, edi
  0005f	3b c7		 cmp	 eax, edi
  00061	0f 43 d8	 cmovae	 ebx, eax
  00064	81 fb ff ff ff
	3f		 cmp	 ebx, 1073741823		; 3fffffffH
  0006a	0f 87 c6 00 00
	00		 ja	 $LN97@Emplace_re

; 62   :         }
; 63   :     }
; 64   : 
; 65   :     return _Count * _Ty_size;

  00070	c1 e3 02	 shl	 ebx, 2

; 228  :         if (_Bytes >= _Big_allocation_threshold) { // boost the alignment of big allocations to help autovectorization

  00073	81 fb 00 10 00
	00		 cmp	 ebx, 4096		; 00001000H
  00079	72 0d		 jb	 SHORT $LN24@Emplace_re

; 229  :             return _Allocate_manually_vector_aligned<_Traits>(_Bytes);

  0007b	53		 push	 ebx
  0007c	e8 00 00 00 00	 call	 ??$_Allocate_manually_vector_aligned@U_Default_allocate_traits@std@@@std@@YAPAXI@Z ; std::_Allocate_manually_vector_aligned<std::_Default_allocate_traits>
  00081	83 c4 04	 add	 esp, 4
  00084	8b f8		 mov	 edi, eax
  00086	eb 13		 jmp	 SHORT $LN23@Emplace_re
$LN24@Emplace_re:

; 230  :         }
; 231  :     }
; 232  : #endif // defined(_M_IX86) || defined(_M_X64)
; 233  : 
; 234  :     if (_Bytes != 0) {

  00088	85 db		 test	 ebx, ebx
  0008a	74 0d		 je	 SHORT $LN25@Emplace_re

; 79   :         return ::operator new(_Bytes);

  0008c	53		 push	 ebx
  0008d	e8 00 00 00 00	 call	 ??2@YAPAXI@Z		; operator new
  00092	83 c4 04	 add	 esp, 4

; 235  :         return _Traits::_Allocate(_Bytes);

  00095	8b f8		 mov	 edi, eax
  00097	eb 02		 jmp	 SHORT $LN23@Emplace_re
$LN25@Emplace_re:

; 236  :     }
; 237  : 
; 238  :     return nullptr;

  00099	33 ff		 xor	 edi, edi
$LN23@Emplace_re:
; File D:\visual studio 2019\visual studio 2019\VC\Tools\MSVC\14.29.30133\include\vector

; 776  :         _Alty_traits::construct(_Al, _Unfancy(_Newvec + _Whereoff), _STD forward<_Valty>(_Val)...);

  0009b	8b 45 fc	 mov	 eax, DWORD PTR __Whereoff$1$[ebp]
  0009e	8d 0c 87	 lea	 ecx, DWORD PTR [edi+eax*4]
  000a1	8b 45 0c	 mov	 eax, DWORD PTR _<_Val_0>$[ebp]
  000a4	89 4d fc	 mov	 DWORD PTR tv641[ebp], ecx
  000a7	8b 00		 mov	 eax, DWORD PTR [eax]
  000a9	89 01		 mov	 DWORD PTR [ecx], eax

; 777  :         _Constructed_first = _Newvec + _Whereoff;
; 778  : 
; 779  :         if (_Whereptr == _Mylast) { // at back, provide strong guarantee

  000ab	8b 4e 04	 mov	 ecx, DWORD PTR [esi+4]
  000ae	8b 45 08	 mov	 eax, DWORD PTR __Whereptr$[ebp]
  000b1	8b 16		 mov	 edx, DWORD PTR [esi]
  000b3	3b c1		 cmp	 eax, ecx
  000b5	75 04		 jne	 SHORT $LN4@Emplace_re
; File D:\visual studio 2019\visual studio 2019\VC\Tools\MSVC\14.29.30133\include\xmemory

; 1711 :             _Copy_memmove(_UFirst, _ULast, _Unfancy(_Dest));

  000b7	8b c7		 mov	 eax, edi
; File D:\visual studio 2019\visual studio 2019\VC\Tools\MSVC\14.29.30133\include\vector

; 781  :         } else { // provide basic guarantee

  000b9	eb 17		 jmp	 SHORT $LN60@Emplace_re
$LN4@Emplace_re:
; File D:\visual studio 2019\visual studio 2019\VC\Tools\MSVC\14.29.30133\include\xmemory

; 1711 :             _Copy_memmove(_UFirst, _ULast, _Unfancy(_Dest));

  000bb	57		 push	 edi
  000bc	50		 push	 eax
  000bd	52		 push	 edx
  000be	e8 00 00 00 00	 call	 ??$_Copy_memmove@PAPAVCItemData@@PAPAV1@@std@@YAPAPAVCItemData@@PAPAV1@00@Z ; std::_Copy_memmove<CItemData * *,CItemData * *>
; File D:\visual studio 2019\visual studio 2019\VC\Tools\MSVC\14.29.30133\include\vector

; 784  :             _Umove(_Whereptr, _Mylast, _Newvec + _Whereoff + 1);

  000c3	8b 45 fc	 mov	 eax, DWORD PTR tv641[ebp]
; File D:\visual studio 2019\visual studio 2019\VC\Tools\MSVC\14.29.30133\include\xmemory

; 1711 :             _Copy_memmove(_UFirst, _ULast, _Unfancy(_Dest));

  000c6	83 c4 0c	 add	 esp, 12			; 0000000cH
  000c9	8b 55 08	 mov	 edx, DWORD PTR __Whereptr$[ebp]
; File D:\visual studio 2019\visual studio 2019\VC\Tools\MSVC\14.29.30133\include\vector

; 784  :             _Umove(_Whereptr, _Mylast, _Newvec + _Whereoff + 1);

  000cc	83 c0 04	 add	 eax, 4
; File D:\visual studio 2019\visual studio 2019\VC\Tools\MSVC\14.29.30133\include\xmemory

; 1711 :             _Copy_memmove(_UFirst, _ULast, _Unfancy(_Dest));

  000cf	8b 4e 04	 mov	 ecx, DWORD PTR [esi+4]
$LN60@Emplace_re:
; File D:\visual studio 2019\visual studio 2019\VC\Tools\MSVC\14.29.30133\include\vector

; 784  :             _Umove(_Whereptr, _Mylast, _Newvec + _Whereoff + 1);

  000d2	50		 push	 eax
  000d3	51		 push	 ecx
  000d4	52		 push	 edx
  000d5	e8 00 00 00 00	 call	 ??$_Copy_memmove@PAPAVCItemData@@PAPAV1@@std@@YAPAPAVCItemData@@PAPAV1@00@Z ; std::_Copy_memmove<CItemData * *,CItemData * *>

; 1732 :         if (_Myfirst) { // destroy and deallocate old array

  000da	8b 06		 mov	 eax, DWORD PTR [esi]

; 784  :             _Umove(_Whereptr, _Mylast, _Newvec + _Whereoff + 1);

  000dc	83 c4 0c	 add	 esp, 12			; 0000000cH

; 1732 :         if (_Myfirst) { // destroy and deallocate old array

  000df	85 c0		 test	 eax, eax
  000e1	74 2c		 je	 SHORT $LN78@Emplace_re

; 1733 :             _Destroy(_Myfirst, _Mylast);
; 1734 :             _Getal().deallocate(_Myfirst, static_cast<size_type>(_Myend - _Myfirst));

  000e3	8b 4e 08	 mov	 ecx, DWORD PTR [esi+8]
  000e6	2b c8		 sub	 ecx, eax
; File D:\visual studio 2019\visual studio 2019\VC\Tools\MSVC\14.29.30133\include\xmemory

; 797  :         _Deallocate<_New_alignof<_Ty>>(_Ptr, sizeof(_Ty) * _Count);

  000e8	83 e1 fc	 and	 ecx, -4			; fffffffcH

; 251  :         if (_Bytes >= _Big_allocation_threshold) { // boost the alignment of big allocations to help autovectorization

  000eb	81 f9 00 10 00
	00		 cmp	 ecx, 4096		; 00001000H
  000f1	72 12		 jb	 SHORT $LN88@Emplace_re

; 150  :     const uintptr_t _Ptr_container   = _Ptr_user[-1];

  000f3	8b 50 fc	 mov	 edx, DWORD PTR [eax-4]
  000f6	83 c1 23	 add	 ecx, 35			; 00000023H

; 151  : 
; 152  :     // If the following asserts, it likely means that we are performing
; 153  :     // an aligned delete on memory coming from an unaligned allocation.
; 154  :     _STL_ASSERT(_Ptr_user[-2] == _Big_allocation_sentinel, "invalid argument");
; 155  : 
; 156  :     // Extra paranoia on aligned allocation/deallocation; ensure _Ptr_container is
; 157  :     // in range [_Min_back_shift, _Non_user_size]
; 158  : #ifdef _DEBUG
; 159  :     constexpr uintptr_t _Min_back_shift = 2 * sizeof(void*);
; 160  : #else // ^^^ _DEBUG ^^^ // vvv !_DEBUG vvv
; 161  :     constexpr uintptr_t _Min_back_shift = sizeof(void*);
; 162  : #endif // _DEBUG
; 163  :     const uintptr_t _Back_shift = reinterpret_cast<uintptr_t>(_Ptr) - _Ptr_container;

  000f9	2b c2		 sub	 eax, edx

; 164  :     _STL_VERIFY(_Back_shift >= _Min_back_shift && _Back_shift <= _Non_user_size, "invalid argument");

  000fb	83 c0 fc	 add	 eax, -4			; fffffffcH
  000fe	83 f8 1f	 cmp	 eax, 31			; 0000001fH
  00101	77 29		 ja	 SHORT $LN85@Emplace_re

; 165  :     _Ptr = reinterpret_cast<void*>(_Ptr_container);

  00103	8b c2		 mov	 eax, edx
$LN88@Emplace_re:

; 255  :         ::operator delete(_Ptr, _Bytes);

  00105	51		 push	 ecx
  00106	50		 push	 eax
  00107	e8 00 00 00 00	 call	 ??3@YAXPAXI@Z		; operator delete
  0010c	83 c4 08	 add	 esp, 8
$LN78@Emplace_re:
; File D:\visual studio 2019\visual studio 2019\VC\Tools\MSVC\14.29.30133\include\vector

; 1738 :         _Mylast  = _Newvec + _Newsize;

  0010f	8b 45 f8	 mov	 eax, DWORD PTR __Newsize$1$[ebp]
  00112	89 3e		 mov	 DWORD PTR [esi], edi
  00114	8d 0c 87	 lea	 ecx, DWORD PTR [edi+eax*4]

; 785  :         }
; 786  :         _CATCH_ALL
; 787  :         _Destroy(_Constructed_first, _Constructed_last);
; 788  :         _Al.deallocate(_Newvec, _Newcapacity);
; 789  :         _RERAISE;
; 790  :         _CATCH_END
; 791  : 
; 792  :         _Change_array(_Newvec, _Newsize, _Newcapacity);
; 793  :         return _Newvec + _Whereoff;

  00117	8b 45 fc	 mov	 eax, DWORD PTR tv641[ebp]

; 1738 :         _Mylast  = _Newvec + _Newsize;

  0011a	89 4e 04	 mov	 DWORD PTR [esi+4], ecx

; 1739 :         _Myend   = _Newvec + _Newcapacity;

  0011d	8d 0c 3b	 lea	 ecx, DWORD PTR [ebx+edi]

; 785  :         }
; 786  :         _CATCH_ALL
; 787  :         _Destroy(_Constructed_first, _Constructed_last);
; 788  :         _Al.deallocate(_Newvec, _Newcapacity);
; 789  :         _RERAISE;
; 790  :         _CATCH_END
; 791  : 
; 792  :         _Change_array(_Newvec, _Newsize, _Newcapacity);
; 793  :         return _Newvec + _Whereoff;

  00120	5f		 pop	 edi

; 1739 :         _Myend   = _Newvec + _Newcapacity;

  00121	89 4e 08	 mov	 DWORD PTR [esi+8], ecx

; 785  :         }
; 786  :         _CATCH_ALL
; 787  :         _Destroy(_Constructed_first, _Constructed_last);
; 788  :         _Al.deallocate(_Newvec, _Newcapacity);
; 789  :         _RERAISE;
; 790  :         _CATCH_END
; 791  : 
; 792  :         _Change_array(_Newvec, _Newsize, _Newcapacity);
; 793  :         return _Newvec + _Whereoff;

  00124	5e		 pop	 esi
  00125	5b		 pop	 ebx

; 794  :     }

  00126	8b e5		 mov	 esp, ebp
  00128	5d		 pop	 ebp
  00129	c2 08 00	 ret	 8
$LN85@Emplace_re:
; File D:\visual studio 2019\visual studio 2019\VC\Tools\MSVC\14.29.30133\include\xmemory

; 164  :     _STL_VERIFY(_Back_shift >= _Min_back_shift && _Back_shift <= _Non_user_size, "invalid argument");

  0012c	e8 00 00 00 00	 call	 __invalid_parameter_noinfo_noreturn
$LN96@Emplace_re:
; File D:\visual studio 2019\visual studio 2019\VC\Tools\MSVC\14.29.30133\include\vector

; 765  :             _Xlength();

  00131	e8 00 00 00 00	 call	 ?_Xlength@?$vector@PAVCItemData@@V?$allocator@PAVCItemData@@@std@@@std@@CAXXZ ; std::vector<CItemData *,std::allocator<CItemData *> >::_Xlength
$LN97@Emplace_re:
; File D:\visual studio 2019\visual studio 2019\VC\Tools\MSVC\14.29.30133\include\xmemory

; 61   :             _Throw_bad_array_new_length(); // multiply overflow

  00136	e8 00 00 00 00	 call	 ?_Throw_bad_array_new_length@std@@YAXXZ ; std::_Throw_bad_array_new_length
$LN94@Emplace_re:
  0013b	cc		 int	 3
??$_Emplace_reallocate@ABQAVCItemData@@@?$vector@PAVCItemData@@V?$allocator@PAVCItemData@@@std@@@std@@QAEPAPAVCItemData@@QAPAV2@ABQAV2@@Z ENDP ; std::vector<CItemData *,std::allocator<CItemData *> >::_Emplace_reallocate<CItemData * const &>
_TEXT	ENDS
; Function compile flags: /Ogtp
;	COMDAT ??1?$map@KKU?$less@K@std@@V?$allocator@U?$pair@$$CBKK@std@@@2@@std@@QAE@XZ
_TEXT	SEGMENT
??1?$map@KKU?$less@K@std@@V?$allocator@U?$pair@$$CBKK@std@@@2@@std@@QAE@XZ PROC ; std::map<unsigned long,unsigned long,std::less<unsigned long>,std::allocator<std::pair<unsigned long const ,unsigned long> > >::~map<unsigned long,unsigned long,std::less<unsigned long>,std::allocator<std::pair<unsigned long const ,unsigned long> > >, COMDAT
; _this$ = ecx
  00000	e9 00 00 00 00	 jmp	 ??1?$_Tree@V?$_Tmap_traits@KKU?$less@K@std@@V?$allocator@U?$pair@$$CBKK@std@@@2@$0A@@std@@@std@@QAE@XZ ; std::_Tree<std::_Tmap_traits<unsigned long,unsigned long,std::less<unsigned long>,std::allocator<std::pair<unsigned long const ,unsigned long> >,0> >::~_Tree<std::_Tmap_traits<unsigned long,unsigned long,std::less<unsigned long>,std::allocator<std::pair<unsigned long const ,unsigned long> >,0> >
??1?$map@KKU?$less@K@std@@V?$allocator@U?$pair@$$CBKK@std@@@2@@std@@QAE@XZ ENDP ; std::map<unsigned long,unsigned long,std::less<unsigned long>,std::allocator<std::pair<unsigned long const ,unsigned long> > >::~map<unsigned long,unsigned long,std::less<unsigned long>,std::allocator<std::pair<unsigned long const ,unsigned long> > >
_TEXT	ENDS
; Function compile flags: /Ogtp
; File D:\visual studio 2019\visual studio 2019\VC\Tools\MSVC\14.29.30133\include\xtree
;	COMDAT ?_Insert_node@?$_Tree_val@U?$_Tree_simple_types@U?$pair@$$CBKK@std@@@std@@@std@@QAEPAU?$_Tree_node@U?$pair@$$CBKK@std@@PAX@2@U?$_Tree_id@PAU?$_Tree_node@U?$pair@$$CBKK@std@@PAX@std@@@2@QAU32@@Z
_TEXT	SEGMENT
__Head$1$ = -8						; size = 4
_this$1$ = -4						; size = 4
__Loc$ = 8						; size = 8
__Newnode$ = 16						; size = 4
?_Insert_node@?$_Tree_val@U?$_Tree_simple_types@U?$pair@$$CBKK@std@@@std@@@std@@QAEPAU?$_Tree_node@U?$pair@$$CBKK@std@@PAX@2@U?$_Tree_id@PAU?$_Tree_node@U?$pair@$$CBKK@std@@PAX@std@@@2@QAU32@@Z PROC ; std::_Tree_val<std::_Tree_simple_types<std::pair<unsigned long const ,unsigned long> > >::_Insert_node, COMDAT
; _this$ = ecx

; 644  :     _Nodeptr _Insert_node(const _Tree_id<_Nodeptr> _Loc, const _Nodeptr _Newnode) noexcept {

  00000	55		 push	 ebp
  00001	8b ec		 mov	 ebp, esp
  00003	83 ec 08	 sub	 esp, 8

; 645  :         ++_Mysize;
; 646  :         const auto _Head  = _Myhead;
; 647  :         _Newnode->_Parent = _Loc._Parent;

  00006	8b 55 08	 mov	 edx, DWORD PTR __Loc$[ebp]
  00009	8b c1		 mov	 eax, ecx
  0000b	89 45 fc	 mov	 DWORD PTR _this$1$[ebp], eax
  0000e	8b 08		 mov	 ecx, DWORD PTR [eax]
  00010	ff 40 04	 inc	 DWORD PTR [eax+4]
  00013	8b 45 10	 mov	 eax, DWORD PTR __Newnode$[ebp]
  00016	89 4d f8	 mov	 DWORD PTR __Head$1$[ebp], ecx
  00019	89 50 04	 mov	 DWORD PTR [eax+4], edx

; 648  :         if (_Loc._Parent == _Head) { // first node in tree, just set head values

  0001c	3b d1		 cmp	 edx, ecx
  0001e	75 12		 jne	 SHORT $LN5@Insert_nod

; 649  :             _Head->_Left     = _Newnode;

  00020	89 01		 mov	 DWORD PTR [ecx], eax

; 650  :             _Head->_Parent   = _Newnode;

  00022	89 41 04	 mov	 DWORD PTR [ecx+4], eax

; 651  :             _Head->_Right    = _Newnode;

  00025	89 41 08	 mov	 DWORD PTR [ecx+8], eax

; 652  :             _Newnode->_Color = _Black; // the root is black

  00028	c6 40 0c 01	 mov	 BYTE PTR [eax+12], 1

; 711  :     }

  0002c	8b e5		 mov	 esp, ebp
  0002e	5d		 pop	 ebp
  0002f	c2 0c 00	 ret	 12			; 0000000cH
$LN5@Insert_nod:

; 653  :             return _Newnode;
; 654  :         }
; 655  : 
; 656  :         _STL_INTERNAL_CHECK(_Loc._Child != _Tree_child::_Unused);
; 657  :         if (_Loc._Child == _Tree_child::_Right) { // add to right of _Loc._Parent

  00032	83 7d 0c 00	 cmp	 DWORD PTR __Loc$[ebp+4], 0
  00036	75 0d		 jne	 SHORT $LN6@Insert_nod

; 658  :             _STL_INTERNAL_CHECK(_Loc._Parent->_Right->_Isnil);
; 659  :             _Loc._Parent->_Right = _Newnode;

  00038	89 42 08	 mov	 DWORD PTR [edx+8], eax

; 660  :             if (_Loc._Parent == _Head->_Right) { // remember rightmost node

  0003b	3b 51 08	 cmp	 edx, DWORD PTR [ecx+8]
  0003e	75 0d		 jne	 SHORT $LN9@Insert_nod

; 661  :                 _Head->_Right = _Newnode;

  00040	89 41 08	 mov	 DWORD PTR [ecx+8], eax

; 662  :             }
; 663  :         } else { // add to left of _Loc._Parent

  00043	eb 08		 jmp	 SHORT $LN9@Insert_nod
$LN6@Insert_nod:

; 664  :             _STL_INTERNAL_CHECK(_Loc._Parent->_Left->_Isnil);
; 665  :             _Loc._Parent->_Left = _Newnode;

  00045	89 02		 mov	 DWORD PTR [edx], eax

; 666  :             if (_Loc._Parent == _Head->_Left) { // remember leftmost node

  00047	3b 11		 cmp	 edx, DWORD PTR [ecx]
  00049	75 02		 jne	 SHORT $LN9@Insert_nod

; 667  :                 _Head->_Left = _Newnode;

  0004b	89 01		 mov	 DWORD PTR [ecx], eax
$LN9@Insert_nod:

; 668  :             }
; 669  :         }
; 670  : 
; 671  :         for (_Nodeptr _Pnode = _Newnode; _Pnode->_Parent->_Color == _Red;) {

  0004d	8b d0		 mov	 edx, eax
  0004f	8b 40 04	 mov	 eax, DWORD PTR [eax+4]
  00052	80 78 0c 00	 cmp	 BYTE PTR [eax+12], 0
  00056	0f 85 99 01 00
	00		 jne	 $LN3@Insert_nod
  0005c	53		 push	 ebx
  0005d	56		 push	 esi
  0005e	57		 push	 edi
  0005f	90		 npad	 1
$LL2@Insert_nod:

; 672  :             if (_Pnode->_Parent == _Pnode->_Parent->_Parent->_Left) { // fixup red-red in left subtree

  00060	8b 4a 04	 mov	 ecx, DWORD PTR [edx+4]
  00063	8d 7a 04	 lea	 edi, DWORD PTR [edx+4]
  00066	8b 71 04	 mov	 esi, DWORD PTR [ecx+4]
  00069	8d 59 04	 lea	 ebx, DWORD PTR [ecx+4]
  0006c	8b 06		 mov	 eax, DWORD PTR [esi]
  0006e	3b c8		 cmp	 ecx, eax
  00070	0f 85 ba 00 00
	00		 jne	 $LN10@Insert_nod

; 673  :                 const auto _Parent_sibling = _Pnode->_Parent->_Parent->_Right;

  00076	8b 46 08	 mov	 eax, DWORD PTR [esi+8]

; 674  :                 if (_Parent_sibling->_Color == _Red) { // parent's sibling has two red children, blacken both

  00079	80 78 0c 00	 cmp	 BYTE PTR [eax+12], 0
  0007d	0f 84 b3 00 00
	00		 je	 $LN53@Insert_nod

; 675  :                     _Pnode->_Parent->_Color          = _Black;
; 676  :                     _Parent_sibling->_Color          = _Black;
; 677  :                     _Pnode->_Parent->_Parent->_Color = _Red;
; 678  :                     _Pnode                           = _Pnode->_Parent->_Parent;
; 679  :                 } else { // parent's sibling has red and black children
; 680  :                     if (_Pnode == _Pnode->_Parent->_Right) { // rotate right child to left

  00083	8b 71 08	 mov	 esi, DWORD PTR [ecx+8]
  00086	3b d6		 cmp	 edx, esi
  00088	75 47		 jne	 SHORT $LN51@Insert_nod

; 460  :         _Wherenode->_Right = _Pnode->_Left;

  0008a	8b 06		 mov	 eax, DWORD PTR [esi]

; 681  :                         _Pnode = _Pnode->_Parent;

  0008c	8b d1		 mov	 edx, ecx

; 460  :         _Wherenode->_Right = _Pnode->_Left;

  0008e	89 42 08	 mov	 DWORD PTR [edx+8], eax

; 461  : 
; 462  :         if (!_Pnode->_Left->_Isnil) {

  00091	8b 06		 mov	 eax, DWORD PTR [esi]
  00093	80 78 0d 00	 cmp	 BYTE PTR [eax+13], 0
  00097	75 03		 jne	 SHORT $LN20@Insert_nod

; 463  :             _Pnode->_Left->_Parent = _Wherenode;

  00099	89 50 04	 mov	 DWORD PTR [eax+4], edx
$LN20@Insert_nod:

; 464  :         }
; 465  : 
; 466  :         _Pnode->_Parent = _Wherenode->_Parent;

  0009c	8b 03		 mov	 eax, DWORD PTR [ebx]
  0009e	89 46 04	 mov	 DWORD PTR [esi+4], eax

; 467  : 
; 468  :         if (_Wherenode == _Myhead->_Parent) {

  000a1	8b 45 fc	 mov	 eax, DWORD PTR _this$1$[ebp]
  000a4	8b 00		 mov	 eax, DWORD PTR [eax]
  000a6	3b 50 04	 cmp	 edx, DWORD PTR [eax+4]
  000a9	75 0b		 jne	 SHORT $LN21@Insert_nod

; 469  :             _Myhead->_Parent = _Pnode;

  000ab	89 70 04	 mov	 DWORD PTR [eax+4], esi

; 477  :         _Wherenode->_Parent = _Pnode;

  000ae	8b fb		 mov	 edi, ebx
  000b0	89 16		 mov	 DWORD PTR [esi], edx
  000b2	89 33		 mov	 DWORD PTR [ebx], esi
  000b4	eb 1d		 jmp	 SHORT $LN49@Insert_nod
$LN21@Insert_nod:

; 470  :         } else if (_Wherenode == _Wherenode->_Parent->_Left) {

  000b6	8b 03		 mov	 eax, DWORD PTR [ebx]
  000b8	3b 10		 cmp	 edx, DWORD PTR [eax]
  000ba	75 0a		 jne	 SHORT $LN23@Insert_nod

; 471  :             _Wherenode->_Parent->_Left = _Pnode;

  000bc	89 30		 mov	 DWORD PTR [eax], esi

; 477  :         _Wherenode->_Parent = _Pnode;

  000be	8b fb		 mov	 edi, ebx
  000c0	89 16		 mov	 DWORD PTR [esi], edx
  000c2	89 33		 mov	 DWORD PTR [ebx], esi
  000c4	eb 0d		 jmp	 SHORT $LN49@Insert_nod
$LN23@Insert_nod:

; 473  :             _Wherenode->_Parent->_Right = _Pnode;

  000c6	89 70 08	 mov	 DWORD PTR [eax+8], esi

; 477  :         _Wherenode->_Parent = _Pnode;

  000c9	8b fb		 mov	 edi, ebx
  000cb	89 16		 mov	 DWORD PTR [esi], edx
  000cd	89 33		 mov	 DWORD PTR [ebx], esi
  000cf	eb 02		 jmp	 SHORT $LN49@Insert_nod
$LN51@Insert_nod:
  000d1	8b f1		 mov	 esi, ecx
$LN49@Insert_nod:

; 682  :                         _Lrotate(_Pnode);
; 683  :                     }
; 684  : 
; 685  :                     _Pnode->_Parent->_Color          = _Black; // propagate red up

  000d3	c6 46 0c 01	 mov	 BYTE PTR [esi+12], 1

; 686  :                     _Pnode->_Parent->_Parent->_Color = _Red;

  000d7	8b 07		 mov	 eax, DWORD PTR [edi]
  000d9	8b 40 04	 mov	 eax, DWORD PTR [eax+4]
  000dc	c6 40 0c 00	 mov	 BYTE PTR [eax+12], 0

; 687  :                     _Rrotate(_Pnode->_Parent->_Parent);

  000e0	8b 07		 mov	 eax, DWORD PTR [edi]
  000e2	8b 48 04	 mov	 ecx, DWORD PTR [eax+4]

; 481  :         _Nodeptr _Pnode   = _Wherenode->_Left;

  000e5	8b 31		 mov	 esi, DWORD PTR [ecx]

; 482  :         _Wherenode->_Left = _Pnode->_Right;

  000e7	8b 46 08	 mov	 eax, DWORD PTR [esi+8]
  000ea	89 01		 mov	 DWORD PTR [ecx], eax

; 483  : 
; 484  :         if (!_Pnode->_Right->_Isnil) {

  000ec	8b 46 08	 mov	 eax, DWORD PTR [esi+8]
  000ef	80 78 0d 00	 cmp	 BYTE PTR [eax+13], 0
  000f3	75 03		 jne	 SHORT $LN27@Insert_nod

; 485  :             _Pnode->_Right->_Parent = _Wherenode;

  000f5	89 48 04	 mov	 DWORD PTR [eax+4], ecx
$LN27@Insert_nod:

; 486  :         }
; 487  : 
; 488  :         _Pnode->_Parent = _Wherenode->_Parent;

  000f8	8b 41 04	 mov	 eax, DWORD PTR [ecx+4]
  000fb	89 46 04	 mov	 DWORD PTR [esi+4], eax

; 489  : 
; 490  :         if (_Wherenode == _Myhead->_Parent) {

  000fe	8b 45 fc	 mov	 eax, DWORD PTR _this$1$[ebp]
  00101	8b 00		 mov	 eax, DWORD PTR [eax]
  00103	3b 48 04	 cmp	 ecx, DWORD PTR [eax+4]
  00106	75 0b		 jne	 SHORT $LN28@Insert_nod

; 491  :             _Myhead->_Parent = _Pnode;

  00108	89 70 04	 mov	 DWORD PTR [eax+4], esi

; 496  :         }
; 497  : 
; 498  :         _Pnode->_Right      = _Wherenode;

  0010b	89 4e 08	 mov	 DWORD PTR [esi+8], ecx

; 688  :                 }
; 689  :             } else { // fixup red-red in right subtree

  0010e	e9 cc 00 00 00	 jmp	 $LN52@Insert_nod
$LN28@Insert_nod:

; 492  :         } else if (_Wherenode == _Wherenode->_Parent->_Right) {

  00113	8b 41 04	 mov	 eax, DWORD PTR [ecx+4]
  00116	3b 48 08	 cmp	 ecx, DWORD PTR [eax+8]
  00119	75 0b		 jne	 SHORT $LN30@Insert_nod

; 493  :             _Wherenode->_Parent->_Right = _Pnode;

  0011b	89 70 08	 mov	 DWORD PTR [eax+8], esi

; 496  :         }
; 497  : 
; 498  :         _Pnode->_Right      = _Wherenode;

  0011e	89 4e 08	 mov	 DWORD PTR [esi+8], ecx

; 688  :                 }
; 689  :             } else { // fixup red-red in right subtree

  00121	e9 b9 00 00 00	 jmp	 $LN52@Insert_nod
$LN30@Insert_nod:

; 495  :             _Wherenode->_Parent->_Left = _Pnode;

  00126	89 30		 mov	 DWORD PTR [eax], esi

; 496  :         }
; 497  : 
; 498  :         _Pnode->_Right      = _Wherenode;

  00128	89 4e 08	 mov	 DWORD PTR [esi+8], ecx

; 688  :                 }
; 689  :             } else { // fixup red-red in right subtree

  0012b	e9 af 00 00 00	 jmp	 $LN52@Insert_nod
$LN10@Insert_nod:

; 690  :                 const auto _Parent_sibling = _Pnode->_Parent->_Parent->_Left;
; 691  :                 if (_Parent_sibling->_Color == _Red) { // parent's sibling has two red children, blacken both

  00130	80 78 0c 00	 cmp	 BYTE PTR [eax+12], 0
  00134	75 1b		 jne	 SHORT $LN15@Insert_nod
$LN53@Insert_nod:

; 668  :             }
; 669  :         }
; 670  : 
; 671  :         for (_Nodeptr _Pnode = _Newnode; _Pnode->_Parent->_Color == _Red;) {

  00136	c6 41 0c 01	 mov	 BYTE PTR [ecx+12], 1
  0013a	c6 40 0c 01	 mov	 BYTE PTR [eax+12], 1
  0013e	8b 07		 mov	 eax, DWORD PTR [edi]
  00140	8b 40 04	 mov	 eax, DWORD PTR [eax+4]
  00143	c6 40 0c 00	 mov	 BYTE PTR [eax+12], 0
  00147	8b 07		 mov	 eax, DWORD PTR [edi]
  00149	8b 50 04	 mov	 edx, DWORD PTR [eax+4]
  0014c	e9 91 00 00 00	 jmp	 $LN46@Insert_nod
$LN15@Insert_nod:

; 692  :                     _Pnode->_Parent->_Color          = _Black;
; 693  :                     _Parent_sibling->_Color          = _Black;
; 694  :                     _Pnode->_Parent->_Parent->_Color = _Red;
; 695  :                     _Pnode                           = _Pnode->_Parent->_Parent;
; 696  :                 } else { // parent's sibling has red and black children
; 697  :                     if (_Pnode == _Pnode->_Parent->_Left) { // rotate left child to right

  00151	8b 01		 mov	 eax, DWORD PTR [ecx]
  00153	3b d0		 cmp	 edx, eax
  00155	75 3e		 jne	 SHORT $LN39@Insert_nod

; 698  :                         _Pnode = _Pnode->_Parent;

  00157	8b d1		 mov	 edx, ecx

; 481  :         _Nodeptr _Pnode   = _Wherenode->_Left;

  00159	8b c8		 mov	 ecx, eax

; 482  :         _Wherenode->_Left = _Pnode->_Right;

  0015b	8b 41 08	 mov	 eax, DWORD PTR [ecx+8]
  0015e	89 02		 mov	 DWORD PTR [edx], eax

; 483  : 
; 484  :         if (!_Pnode->_Right->_Isnil) {

  00160	8b 41 08	 mov	 eax, DWORD PTR [ecx+8]
  00163	80 78 0d 00	 cmp	 BYTE PTR [eax+13], 0
  00167	75 03		 jne	 SHORT $LN34@Insert_nod

; 485  :             _Pnode->_Right->_Parent = _Wherenode;

  00169	89 50 04	 mov	 DWORD PTR [eax+4], edx
$LN34@Insert_nod:

; 486  :         }
; 487  : 
; 488  :         _Pnode->_Parent = _Wherenode->_Parent;

  0016c	8b 03		 mov	 eax, DWORD PTR [ebx]
  0016e	89 41 04	 mov	 DWORD PTR [ecx+4], eax

; 489  : 
; 490  :         if (_Wherenode == _Myhead->_Parent) {

  00171	8b 45 fc	 mov	 eax, DWORD PTR _this$1$[ebp]
  00174	8b 00		 mov	 eax, DWORD PTR [eax]
  00176	3b 50 04	 cmp	 edx, DWORD PTR [eax+4]
  00179	75 05		 jne	 SHORT $LN35@Insert_nod

; 491  :             _Myhead->_Parent = _Pnode;

  0017b	89 48 04	 mov	 DWORD PTR [eax+4], ecx
  0017e	eb 0e		 jmp	 SHORT $LN38@Insert_nod
$LN35@Insert_nod:

; 492  :         } else if (_Wherenode == _Wherenode->_Parent->_Right) {

  00180	8b 03		 mov	 eax, DWORD PTR [ebx]
  00182	3b 50 08	 cmp	 edx, DWORD PTR [eax+8]
  00185	75 05		 jne	 SHORT $LN37@Insert_nod

; 493  :             _Wherenode->_Parent->_Right = _Pnode;

  00187	89 48 08	 mov	 DWORD PTR [eax+8], ecx

; 494  :         } else {

  0018a	eb 02		 jmp	 SHORT $LN38@Insert_nod
$LN37@Insert_nod:

; 495  :             _Wherenode->_Parent->_Left = _Pnode;

  0018c	89 08		 mov	 DWORD PTR [eax], ecx
$LN38@Insert_nod:

; 496  :         }
; 497  : 
; 498  :         _Pnode->_Right      = _Wherenode;

  0018e	89 51 08	 mov	 DWORD PTR [ecx+8], edx

; 499  :         _Wherenode->_Parent = _Pnode;

  00191	8b fb		 mov	 edi, ebx
  00193	89 0b		 mov	 DWORD PTR [ebx], ecx
$LN39@Insert_nod:

; 699  :                         _Rrotate(_Pnode);
; 700  :                     }
; 701  : 
; 702  :                     _Pnode->_Parent->_Color          = _Black; // propagate red up

  00195	c6 41 0c 01	 mov	 BYTE PTR [ecx+12], 1

; 703  :                     _Pnode->_Parent->_Parent->_Color = _Red;

  00199	8b 07		 mov	 eax, DWORD PTR [edi]
  0019b	8b 40 04	 mov	 eax, DWORD PTR [eax+4]
  0019e	c6 40 0c 00	 mov	 BYTE PTR [eax+12], 0

; 704  :                     _Lrotate(_Pnode->_Parent->_Parent);

  001a2	8b 07		 mov	 eax, DWORD PTR [edi]
  001a4	8b 48 04	 mov	 ecx, DWORD PTR [eax+4]

; 459  :         _Nodeptr _Pnode    = _Wherenode->_Right;

  001a7	8b 71 08	 mov	 esi, DWORD PTR [ecx+8]

; 460  :         _Wherenode->_Right = _Pnode->_Left;

  001aa	8b 06		 mov	 eax, DWORD PTR [esi]
  001ac	89 41 08	 mov	 DWORD PTR [ecx+8], eax

; 461  : 
; 462  :         if (!_Pnode->_Left->_Isnil) {

  001af	8b 06		 mov	 eax, DWORD PTR [esi]
  001b1	80 78 0d 00	 cmp	 BYTE PTR [eax+13], 0
  001b5	75 03		 jne	 SHORT $LN41@Insert_nod

; 463  :             _Pnode->_Left->_Parent = _Wherenode;

  001b7	89 48 04	 mov	 DWORD PTR [eax+4], ecx
$LN41@Insert_nod:

; 464  :         }
; 465  : 
; 466  :         _Pnode->_Parent = _Wherenode->_Parent;

  001ba	8b 41 04	 mov	 eax, DWORD PTR [ecx+4]
  001bd	89 46 04	 mov	 DWORD PTR [esi+4], eax

; 467  : 
; 468  :         if (_Wherenode == _Myhead->_Parent) {

  001c0	8b 45 fc	 mov	 eax, DWORD PTR _this$1$[ebp]
  001c3	8b 00		 mov	 eax, DWORD PTR [eax]
  001c5	3b 48 04	 cmp	 ecx, DWORD PTR [eax+4]
  001c8	75 05		 jne	 SHORT $LN42@Insert_nod

; 469  :             _Myhead->_Parent = _Pnode;

  001ca	89 70 04	 mov	 DWORD PTR [eax+4], esi
  001cd	eb 0e		 jmp	 SHORT $LN45@Insert_nod
$LN42@Insert_nod:

; 470  :         } else if (_Wherenode == _Wherenode->_Parent->_Left) {

  001cf	8b 41 04	 mov	 eax, DWORD PTR [ecx+4]
  001d2	3b 08		 cmp	 ecx, DWORD PTR [eax]
  001d4	75 04		 jne	 SHORT $LN44@Insert_nod

; 471  :             _Wherenode->_Parent->_Left = _Pnode;

  001d6	89 30		 mov	 DWORD PTR [eax], esi

; 472  :         } else {

  001d8	eb 03		 jmp	 SHORT $LN45@Insert_nod
$LN44@Insert_nod:

; 473  :             _Wherenode->_Parent->_Right = _Pnode;

  001da	89 70 08	 mov	 DWORD PTR [eax+8], esi
$LN45@Insert_nod:

; 474  :         }
; 475  : 
; 476  :         _Pnode->_Left       = _Wherenode;

  001dd	89 0e		 mov	 DWORD PTR [esi], ecx
$LN52@Insert_nod:

; 668  :             }
; 669  :         }
; 670  : 
; 671  :         for (_Nodeptr _Pnode = _Newnode; _Pnode->_Parent->_Color == _Red;) {

  001df	89 71 04	 mov	 DWORD PTR [ecx+4], esi
$LN46@Insert_nod:
  001e2	8b 42 04	 mov	 eax, DWORD PTR [edx+4]
  001e5	80 78 0c 00	 cmp	 BYTE PTR [eax+12], 0
  001e9	0f 84 71 fe ff
	ff		 je	 $LL2@Insert_nod
  001ef	8b 4d f8	 mov	 ecx, DWORD PTR __Head$1$[ebp]
  001f2	5f		 pop	 edi
  001f3	5e		 pop	 esi
  001f4	5b		 pop	 ebx
$LN3@Insert_nod:

; 705  :                 }
; 706  :             }
; 707  :         }
; 708  : 
; 709  :         _Head->_Parent->_Color = _Black; // root is always black

  001f5	8b 41 04	 mov	 eax, DWORD PTR [ecx+4]
  001f8	c6 40 0c 01	 mov	 BYTE PTR [eax+12], 1

; 710  :         return _Newnode;

  001fc	8b 45 10	 mov	 eax, DWORD PTR __Newnode$[ebp]

; 711  :     }

  001ff	8b e5		 mov	 esp, ebp
  00201	5d		 pop	 ebp
  00202	c2 0c 00	 ret	 12			; 0000000cH
?_Insert_node@?$_Tree_val@U?$_Tree_simple_types@U?$pair@$$CBKK@std@@@std@@@std@@QAEPAU?$_Tree_node@U?$pair@$$CBKK@std@@PAX@2@U?$_Tree_id@PAU?$_Tree_node@U?$pair@$$CBKK@std@@PAX@std@@@2@QAU32@@Z ENDP ; std::_Tree_val<std::_Tree_simple_types<std::pair<unsigned long const ,unsigned long> > >::_Insert_node
_TEXT	ENDS
; Function compile flags: /Ogtp
; File D:\visual studio 2019\visual studio 2019\VC\Tools\MSVC\14.29.30133\include\xtree
; File D:\visual studio 2019\visual studio 2019\VC\Tools\MSVC\14.29.30133\include\utility
; File D:\visual studio 2019\visual studio 2019\VC\Tools\MSVC\14.29.30133\include\xmemory
; File D:\visual studio 2019\visual studio 2019\VC\Tools\MSVC\14.29.30133\include\xtree
; File D:\visual studio 2019\visual studio 2019\VC\Tools\MSVC\14.29.30133\include\xmemory
; File D:\visual studio 2019\visual studio 2019\VC\Tools\MSVC\14.29.30133\include\xtree
;	COMDAT ??1?$_Tree@V?$_Tmap_traits@KKU?$less@K@std@@V?$allocator@U?$pair@$$CBKK@std@@@2@$0A@@std@@@std@@QAE@XZ
_TEXT	SEGMENT
??1?$_Tree@V?$_Tmap_traits@KKU?$less@K@std@@V?$allocator@U?$pair@$$CBKK@std@@@2@$0A@@std@@@std@@QAE@XZ PROC ; std::_Tree<std::_Tmap_traits<unsigned long,unsigned long,std::less<unsigned long>,std::allocator<std::pair<unsigned long const ,unsigned long> >,0> >::~_Tree<std::_Tmap_traits<unsigned long,unsigned long,std::less<unsigned long>,std::allocator<std::pair<unsigned long const ,unsigned long> >,0> >, COMDAT
; _this$ = ecx

; 1084 :     ~_Tree() noexcept {

  00000	56		 push	 esi
  00001	57		 push	 edi
  00002	8b f9		 mov	 edi, ecx

; 752  :         _Erase_tree(_Al, _Myhead->_Parent);

  00004	8b 07		 mov	 eax, DWORD PTR [edi]
  00006	8b 70 04	 mov	 esi, DWORD PTR [eax+4]

; 743  :         while (!_Rootnode->_Isnil) { // free subtrees, then node

  00009	80 7e 0d 00	 cmp	 BYTE PTR [esi+13], 0
  0000d	75 23		 jne	 SHORT $LN7@Tree
  0000f	90		 npad	 1
$LL6@Tree:

; 744  :             _Erase_tree(_Al, _Rootnode->_Right);

  00010	ff 76 08	 push	 DWORD PTR [esi+8]
  00013	8b cf		 mov	 ecx, edi
  00015	57		 push	 edi
  00016	e8 00 00 00 00	 call	 ??$_Erase_tree@V?$allocator@U?$_Tree_node@U?$pair@$$CBKK@std@@PAX@std@@@std@@@?$_Tree_val@U?$_Tree_simple_types@U?$pair@$$CBKK@std@@@std@@@std@@QAEXAAV?$allocator@U?$_Tree_node@U?$pair@$$CBKK@std@@PAX@std@@@1@PAU?$_Tree_node@U?$pair@$$CBKK@std@@PAX@1@@Z ; std::_Tree_val<std::_Tree_simple_types<std::pair<unsigned long const ,unsigned long> > >::_Erase_tree<std::allocator<std::_Tree_node<std::pair<unsigned long const ,unsigned long>,void *> > >
; File D:\visual studio 2019\visual studio 2019\VC\Tools\MSVC\14.29.30133\include\utility

; 602  :     _Ty _Old_val = static_cast<_Ty&&>(_Val);

  0001b	8b c6		 mov	 eax, esi

; 603  :     _Val         = static_cast<_Other&&>(_New_val);

  0001d	8b 36		 mov	 esi, DWORD PTR [esi]
; File D:\visual studio 2019\visual studio 2019\VC\Tools\MSVC\14.29.30133\include\xmemory

; 255  :         ::operator delete(_Ptr, _Bytes);

  0001f	6a 18		 push	 24			; 00000018H
  00021	50		 push	 eax
  00022	e8 00 00 00 00	 call	 ??3@YAXPAXI@Z		; operator delete
  00027	83 c4 08	 add	 esp, 8
; File D:\visual studio 2019\visual studio 2019\VC\Tools\MSVC\14.29.30133\include\xtree

; 743  :         while (!_Rootnode->_Isnil) { // free subtrees, then node

  0002a	80 7e 0d 00	 cmp	 BYTE PTR [esi+13], 0
  0002e	74 e0		 je	 SHORT $LL6@Tree
; File D:\visual studio 2019\visual studio 2019\VC\Tools\MSVC\14.29.30133\include\xmemory

; 165  :     _Ptr = reinterpret_cast<void*>(_Ptr_container);

  00030	8b 07		 mov	 eax, DWORD PTR [edi]
$LN7@Tree:

; 255  :         ::operator delete(_Ptr, _Bytes);

  00032	6a 18		 push	 24			; 00000018H
  00034	50		 push	 eax
  00035	e8 00 00 00 00	 call	 ??3@YAXPAXI@Z		; operator delete
  0003a	83 c4 08	 add	 esp, 8
  0003d	5f		 pop	 edi
  0003e	5e		 pop	 esi
; File D:\visual studio 2019\visual studio 2019\VC\Tools\MSVC\14.29.30133\include\xtree

; 1091 :     }

  0003f	c3		 ret	 0
??1?$_Tree@V?$_Tmap_traits@KKU?$less@K@std@@V?$allocator@U?$pair@$$CBKK@std@@@2@$0A@@std@@@std@@QAE@XZ ENDP ; std::_Tree<std::_Tmap_traits<unsigned long,unsigned long,std::less<unsigned long>,std::allocator<std::pair<unsigned long const ,unsigned long> >,0> >::~_Tree<std::_Tmap_traits<unsigned long,unsigned long,std::less<unsigned long>,std::allocator<std::pair<unsigned long const ,unsigned long> >,0> >
_TEXT	ENDS
; Function compile flags: /Ogtp
; File C:\Users\ALEXANDER\Desktop\Cliente\COPY_FISH_WON_NEW\Binario\Client\GameLib\ItemManager.cpp
;	COMDAT ?GetHashCode@@YAKPBD@Z
_TEXT	SEGMENT
_pString$ = 8						; size = 4
?GetHashCode@@YAKPBD@Z PROC				; GetHashCode, COMDAT

; 259  : {

  00000	55		 push	 ebp
  00001	8b ec		 mov	 ebp, esp
  00003	53		 push	 ebx

; 260  : 	   unsigned long i,len;
; 261  : 	   unsigned long ch;
; 262  : 	   unsigned long result;
; 263  : 
; 264  : 	   len     = strlen( pString );

  00004	8b 5d 08	 mov	 ebx, DWORD PTR _pString$[ebp]
  00007	8b cb		 mov	 ecx, ebx
  00009	56		 push	 esi
  0000a	57		 push	 edi
  0000b	8d 51 01	 lea	 edx, DWORD PTR [ecx+1]
  0000e	66 90		 npad	 2
$LL12@GetHashCod:
  00010	8a 01		 mov	 al, BYTE PTR [ecx]
  00012	41		 inc	 ecx
  00013	84 c0		 test	 al, al
  00015	75 f9		 jne	 SHORT $LL12@GetHashCod

; 265  : 	   result = 5381;

  00017	bf 05 15 00 00	 mov	 edi, 5381		; 00001505H
  0001c	be 00 00 00 00	 mov	 esi, 0
  00021	2b ca		 sub	 ecx, edx

; 266  : 	   for( i=0; i<len; i++ )

  00023	74 12		 je	 SHORT $LN13@GetHashCod
$LL8@GetHashCod:

; 267  : 	   {
; 268  : 	   	   ch = (unsigned long)pString[i];

  00025	0f be 14 1e	 movsx	 edx, BYTE PTR [esi+ebx]

; 269  : 	   	   result = ((result<< 5) + result) + ch; // hash * 33 + ch

  00029	8b c7		 mov	 eax, edi
  0002b	c1 e0 05	 shl	 eax, 5
  0002e	46		 inc	 esi
  0002f	03 f8		 add	 edi, eax
  00031	03 fa		 add	 edi, edx
  00033	3b f1		 cmp	 esi, ecx
  00035	72 ee		 jb	 SHORT $LL8@GetHashCod
$LN13@GetHashCod:

; 270  : 	   }
; 271  : 
; 272  : 	   return result;
; 273  : }

  00037	8b c7		 mov	 eax, edi
  00039	5f		 pop	 edi
  0003a	5e		 pop	 esi
  0003b	5b		 pop	 ebx
  0003c	5d		 pop	 ebp
  0003d	c3		 ret	 0
?GetHashCode@@YAKPBD@Z ENDP				; GetHashCode
_TEXT	ENDS
; Function compile flags: /Ogtp
; File C:\Users\ALEXANDER\Desktop\Cliente\COPY_FISH_WON_NEW\Binario\Client\GameLib\ItemManager.cpp
; File D:\visual studio 2019\visual studio 2019\VC\Tools\MSVC\14.29.30133\include\xstring
; File C:\Users\ALEXANDER\Desktop\Cliente\COPY_FISH_WON_NEW\Binario\Client\GameLib\ItemManager.cpp
; File D:\visual studio 2019\visual studio 2019\VC\Tools\MSVC\14.29.30133\include\xstring
; File D:\visual studio 2019\visual studio 2019\VC\Tools\MSVC\14.29.30133\include\xmemory
; File D:\visual studio 2019\visual studio 2019\VC\Tools\MSVC\14.29.30133\include\xstring
; File D:\visual studio 2019\visual studio 2019\VC\Tools\MSVC\14.29.30133\include\xmemory
; File D:\visual studio 2019\visual studio 2019\VC\Tools\MSVC\14.29.30133\include\xstring
; File C:\Users\ALEXANDER\Desktop\Cliente\COPY_FISH_WON_NEW\Binario\Client\GameLib\ItemManager.cpp
; File D:\visual studio 2019\visual studio 2019\VC\Tools\MSVC\14.29.30133\include\xstring
; File C:\Users\ALEXANDER\Desktop\Cliente\COPY_FISH_WON_NEW\Binario\Client\GameLib\ItemManager.cpp
; File D:\visual studio 2019\visual studio 2019\VC\Tools\MSVC\14.29.30133\include\xstring
; File D:\visual studio 2019\visual studio 2019\VC\Tools\MSVC\14.29.30133\include\xmemory
; File D:\visual studio 2019\visual studio 2019\VC\Tools\MSVC\14.29.30133\include\xstring
; File D:\visual studio 2019\visual studio 2019\VC\Tools\MSVC\14.29.30133\include\xmemory
; File C:\Users\ALEXANDER\Desktop\Cliente\COPY_FISH_WON_NEW\Binario\Client\GameLib\ItemManager.cpp
; File D:\visual studio 2019\visual studio 2019\VC\Tools\MSVC\14.29.30133\include\xmemory
; File C:\Users\ALEXANDER\Desktop\Cliente\COPY_FISH_WON_NEW\Binario\Client\GameLib\ItemManager.cpp
;	COMDAT ?__SnapString@@YAABV?$basic_string@DU?$char_traits@D@std@@V?$allocator@D@2@@std@@ABV12@AAV12@@Z
_TEXT	SEGMENT
$T1 = -28						; size = 24
__$ArrayPad$ = -4					; size = 4
_c_rstSrc$ = 8						; size = 4
_rstTemp$ = 12						; size = 4
?__SnapString@@YAABV?$basic_string@DU?$char_traits@D@std@@V?$allocator@D@2@@std@@ABV12@AAV12@@Z PROC ; __SnapString, COMDAT

; 199  : {

  00000	55		 push	 ebp
  00001	8b ec		 mov	 ebp, esp
  00003	83 ec 1c	 sub	 esp, 28			; 0000001cH
  00006	a1 00 00 00 00	 mov	 eax, DWORD PTR ___security_cookie
  0000b	33 c5		 xor	 eax, ebp
  0000d	89 45 fc	 mov	 DWORD PTR __$ArrayPad$[ebp], eax
  00010	8b 55 08	 mov	 edx, DWORD PTR _c_rstSrc$[ebp]
  00013	53		 push	 ebx
  00014	56		 push	 esi
  00015	8b 75 0c	 mov	 esi, DWORD PTR _rstTemp$[ebp]

; 200  : 	UINT uSrcLen=c_rstSrc.length();

  00018	8b 5a 10	 mov	 ebx, DWORD PTR [edx+16]

; 201  : 	if (uSrcLen<2)

  0001b	83 fb 02	 cmp	 ebx, 2
  0001e	0f 82 09 01 00
	00		 jb	 $LN130@SnapString
; File D:\visual studio 2019\visual studio 2019\VC\Tools\MSVC\14.29.30133\include\xstring

; 2286 :         return _BUF_SIZE <= _Myres;

  00024	8b 4a 14	 mov	 ecx, DWORD PTR [edx+20]

; 2272 :         const value_type* _Result = _Bx._Buf;

  00027	8b c2		 mov	 eax, edx

; 2286 :         return _BUF_SIZE <= _Myres;

  00029	83 f9 10	 cmp	 ecx, 16			; 00000010H

; 2273 :         if (_Large_string_engaged()) {

  0002c	72 02		 jb	 SHORT $LN128@SnapString

; 2274 :             _Result = _Unfancy(_Bx._Ptr);

  0002e	8b 02		 mov	 eax, DWORD PTR [edx]
$LN128@SnapString:
; File C:\Users\ALEXANDER\Desktop\Cliente\COPY_FISH_WON_NEW\Binario\Client\GameLib\ItemManager.cpp

; 204  : 	if (c_rstSrc[0]!='"')

  00030	80 38 22	 cmp	 BYTE PTR [eax], 34	; 00000022H
  00033	0f 85 f4 00 00
	00		 jne	 $LN130@SnapString
; File D:\visual studio 2019\visual studio 2019\VC\Tools\MSVC\14.29.30133\include\xstring

; 2273 :         if (_Large_string_engaged()) {

  00039	c7 45 e4 00 00
	00 00		 mov	 DWORD PTR $T1[ebp], 0
  00040	c7 45 f4 00 00
	00 00		 mov	 DWORD PTR $T1[ebp+16], 0
  00047	c7 45 f8 0f 00
	00 00		 mov	 DWORD PTR $T1[ebp+20], 15 ; 0000000fH

; 2286 :         return _BUF_SIZE <= _Myres;

  0004e	57		 push	 edi
  0004f	83 f9 10	 cmp	 ecx, 16			; 00000010H

; 2273 :         if (_Large_string_engaged()) {

  00052	72 19		 jb	 SHORT $LN129@SnapString

; 2274 :             _Result = _Unfancy(_Bx._Ptr);

  00054	8b 02		 mov	 eax, DWORD PTR [edx]
  00056	8d 4b ff	 lea	 ecx, DWORD PTR [ebx-1]
  00059	8b f9		 mov	 edi, ecx
  0005b	8b d0		 mov	 edx, eax
  0005d	80 7c 18 ff 22	 cmp	 BYTE PTR [eax+ebx-1], 34 ; 00000022H
  00062	0f 45 fb	 cmovne	 edi, ebx
  00065	4f		 dec	 edi
  00066	3b cf		 cmp	 ecx, edi
  00068	0f 42 f9	 cmovb	 edi, ecx
  0006b	eb 13		 jmp	 SHORT $LN48@SnapString
$LN129@SnapString:
  0006d	80 7c 1a ff 22	 cmp	 BYTE PTR [edx+ebx-1], 34 ; 00000022H
  00072	8d 7b ff	 lea	 edi, DWORD PTR [ebx-1]
  00075	8b c7		 mov	 eax, edi
  00077	0f 45 fb	 cmovne	 edi, ebx
  0007a	4f		 dec	 edi
  0007b	3b c7		 cmp	 eax, edi
  0007d	0f 42 f8	 cmovb	 edi, eax
$LN48@SnapString:

; 3190 :         return assign(_Right._Mypair._Myval2._Myptr() + _Roff, _Count);

  00080	57		 push	 edi
  00081	8d 42 01	 lea	 eax, DWORD PTR [edx+1]
  00084	50		 push	 eax
  00085	8d 4d e4	 lea	 ecx, DWORD PTR $T1[ebp]
  00088	e8 00 00 00 00	 call	 ?assign@?$basic_string@DU?$char_traits@D@std@@V?$allocator@D@2@@std@@QAEAAV12@QBDI@Z ; std::basic_string<char,std::char_traits<char>,std::allocator<char> >::assign

; 2816 :         if (this != _STD addressof(_Right)) {

  0008d	8d 45 e4	 lea	 eax, DWORD PTR $T1[ebp]
  00090	5f		 pop	 edi
  00091	3b f0		 cmp	 esi, eax
  00093	74 56		 je	 SHORT $LN97@SnapString

; 2286 :         return _BUF_SIZE <= _Myres;

  00095	8b 4e 14	 mov	 ecx, DWORD PTR [esi+20]
  00098	83 f9 10	 cmp	 ecx, 16			; 00000010H

; 4584 :         if (_Mypair._Myval2._Large_string_engaged()) {

  0009b	72 2b		 jb	 SHORT $LN69@SnapString
; File D:\visual studio 2019\visual studio 2019\VC\Tools\MSVC\14.29.30133\include\xmemory

; 797  :         _Deallocate<_New_alignof<_Ty>>(_Ptr, sizeof(_Ty) * _Count);

  0009d	8b 06		 mov	 eax, DWORD PTR [esi]
; File D:\visual studio 2019\visual studio 2019\VC\Tools\MSVC\14.29.30133\include\xstring

; 4588 :             _Al.deallocate(_Ptr, _Mypair._Myval2._Myres + 1);

  0009f	41		 inc	 ecx
; File D:\visual studio 2019\visual studio 2019\VC\Tools\MSVC\14.29.30133\include\xmemory

; 251  :         if (_Bytes >= _Big_allocation_threshold) { // boost the alignment of big allocations to help autovectorization

  000a0	81 f9 00 10 00
	00		 cmp	 ecx, 4096		; 00001000H
  000a6	72 16		 jb	 SHORT $LN79@SnapString

; 150  :     const uintptr_t _Ptr_container   = _Ptr_user[-1];

  000a8	8b 50 fc	 mov	 edx, DWORD PTR [eax-4]
  000ab	83 c1 23	 add	 ecx, 35			; 00000023H

; 151  : 
; 152  :     // If the following asserts, it likely means that we are performing
; 153  :     // an aligned delete on memory coming from an unaligned allocation.
; 154  :     _STL_ASSERT(_Ptr_user[-2] == _Big_allocation_sentinel, "invalid argument");
; 155  : 
; 156  :     // Extra paranoia on aligned allocation/deallocation; ensure _Ptr_container is
; 157  :     // in range [_Min_back_shift, _Non_user_size]
; 158  : #ifdef _DEBUG
; 159  :     constexpr uintptr_t _Min_back_shift = 2 * sizeof(void*);
; 160  : #else // ^^^ _DEBUG ^^^ // vvv !_DEBUG vvv
; 161  :     constexpr uintptr_t _Min_back_shift = sizeof(void*);
; 162  : #endif // _DEBUG
; 163  :     const uintptr_t _Back_shift = reinterpret_cast<uintptr_t>(_Ptr) - _Ptr_container;

  000ae	2b c2		 sub	 eax, edx

; 164  :     _STL_VERIFY(_Back_shift >= _Min_back_shift && _Back_shift <= _Non_user_size, "invalid argument");

  000b0	83 c0 fc	 add	 eax, -4			; fffffffcH
  000b3	83 f8 1f	 cmp	 eax, 31			; 0000001fH
  000b6	0f 87 83 00 00
	00		 ja	 $LN118@SnapString

; 165  :     _Ptr = reinterpret_cast<void*>(_Ptr_container);

  000bc	8b c2		 mov	 eax, edx
$LN79@SnapString:

; 255  :         ::operator delete(_Ptr, _Bytes);

  000be	51		 push	 ecx
  000bf	50		 push	 eax
  000c0	e8 00 00 00 00	 call	 ??3@YAXPAXI@Z		; operator delete
  000c5	83 c4 08	 add	 esp, 8
$LN69@SnapString:
; File D:\visual studio 2019\visual studio 2019\VC\Tools\MSVC\14.29.30133\include\xstring

; 2835 :         _CSTD memcpy(_My_data_mem, _Right_data_mem, _Memcpy_val_size);

  000c8	0f 10 45 e4	 movups	 xmm0, XMMWORD PTR $T1[ebp]
; File C:\Users\ALEXANDER\Desktop\Cliente\COPY_FISH_WON_NEW\Binario\Client\GameLib\ItemManager.cpp

; 214  : 	return rstTemp;

  000cc	8b c6		 mov	 eax, esi
; File D:\visual studio 2019\visual studio 2019\VC\Tools\MSVC\14.29.30133\include\xstring

; 2835 :         _CSTD memcpy(_My_data_mem, _Right_data_mem, _Memcpy_val_size);

  000ce	0f 11 06	 movups	 XMMWORD PTR [esi], xmm0
  000d1	f3 0f 7e 45 f4	 movq	 xmm0, QWORD PTR $T1[ebp+16]
  000d6	66 0f d6 46 10	 movq	 QWORD PTR [esi+16], xmm0
  000db	5e		 pop	 esi
; File C:\Users\ALEXANDER\Desktop\Cliente\COPY_FISH_WON_NEW\Binario\Client\GameLib\ItemManager.cpp

; 215  : }

  000dc	5b		 pop	 ebx
  000dd	8b 4d fc	 mov	 ecx, DWORD PTR __$ArrayPad$[ebp]
  000e0	33 cd		 xor	 ecx, ebp
  000e2	e8 00 00 00 00	 call	 @__security_check_cookie@4
  000e7	8b e5		 mov	 esp, ebp
  000e9	5d		 pop	 ebp
  000ea	c3		 ret	 0
$LN97@SnapString:
; File D:\visual studio 2019\visual studio 2019\VC\Tools\MSVC\14.29.30133\include\xstring

; 2286 :         return _BUF_SIZE <= _Myres;

  000eb	8b 55 f8	 mov	 edx, DWORD PTR $T1[ebp+20]
  000ee	83 fa 10	 cmp	 edx, 16			; 00000010H

; 4584 :         if (_Mypair._Myval2._Large_string_engaged()) {

  000f1	72 28		 jb	 SHORT $LN111@SnapString
; File D:\visual studio 2019\visual studio 2019\VC\Tools\MSVC\14.29.30133\include\xmemory

; 797  :         _Deallocate<_New_alignof<_Ty>>(_Ptr, sizeof(_Ty) * _Count);

  000f3	8b 4d e4	 mov	 ecx, DWORD PTR $T1[ebp]
; File D:\visual studio 2019\visual studio 2019\VC\Tools\MSVC\14.29.30133\include\xstring

; 4588 :             _Al.deallocate(_Ptr, _Mypair._Myval2._Myres + 1);

  000f6	42		 inc	 edx
; File D:\visual studio 2019\visual studio 2019\VC\Tools\MSVC\14.29.30133\include\xmemory

; 797  :         _Deallocate<_New_alignof<_Ty>>(_Ptr, sizeof(_Ty) * _Count);

  000f7	8b c1		 mov	 eax, ecx

; 251  :         if (_Bytes >= _Big_allocation_threshold) { // boost the alignment of big allocations to help autovectorization

  000f9	81 fa 00 10 00
	00		 cmp	 edx, 4096		; 00001000H
  000ff	72 10		 jb	 SHORT $LN121@SnapString

; 150  :     const uintptr_t _Ptr_container   = _Ptr_user[-1];

  00101	8b 49 fc	 mov	 ecx, DWORD PTR [ecx-4]
  00104	83 c2 23	 add	 edx, 35			; 00000023H
  00107	2b c1		 sub	 eax, ecx

; 164  :     _STL_VERIFY(_Back_shift >= _Min_back_shift && _Back_shift <= _Non_user_size, "invalid argument");

  00109	83 c0 fc	 add	 eax, -4			; fffffffcH
  0010c	83 f8 1f	 cmp	 eax, 31			; 0000001fH
  0010f	77 2e		 ja	 SHORT $LN118@SnapString
$LN121@SnapString:

; 255  :         ::operator delete(_Ptr, _Bytes);

  00111	52		 push	 edx
  00112	51		 push	 ecx
  00113	e8 00 00 00 00	 call	 ??3@YAXPAXI@Z		; operator delete
  00118	83 c4 08	 add	 esp, 8
$LN111@SnapString:
; File C:\Users\ALEXANDER\Desktop\Cliente\COPY_FISH_WON_NEW\Binario\Client\GameLib\ItemManager.cpp

; 214  : 	return rstTemp;

  0011b	8b c6		 mov	 eax, esi
  0011d	5e		 pop	 esi

; 215  : }

  0011e	5b		 pop	 ebx
  0011f	8b 4d fc	 mov	 ecx, DWORD PTR __$ArrayPad$[ebp]
  00122	33 cd		 xor	 ecx, ebp
  00124	e8 00 00 00 00	 call	 @__security_check_cookie@4
  00129	8b e5		 mov	 esp, ebp
  0012b	5d		 pop	 ebp
  0012c	c3		 ret	 0
$LN130@SnapString:
  0012d	8b 4d fc	 mov	 ecx, DWORD PTR __$ArrayPad$[ebp]
  00130	8b c2		 mov	 eax, edx
  00132	5e		 pop	 esi
  00133	33 cd		 xor	 ecx, ebp
  00135	5b		 pop	 ebx
  00136	e8 00 00 00 00	 call	 @__security_check_cookie@4
  0013b	8b e5		 mov	 esp, ebp
  0013d	5d		 pop	 ebp
  0013e	c3		 ret	 0
$LN118@SnapString:
; File D:\visual studio 2019\visual studio 2019\VC\Tools\MSVC\14.29.30133\include\xmemory

; 164  :     _STL_VERIFY(_Back_shift >= _Min_back_shift && _Back_shift <= _Non_user_size, "invalid argument");

  0013f	e8 00 00 00 00	 call	 __invalid_parameter_noinfo_noreturn
$LN132@SnapString:
  00144	cc		 int	 3
?__SnapString@@YAABV?$basic_string@DU?$char_traits@D@std@@V?$allocator@D@2@@std@@ABV12@AAV12@@Z ENDP ; __SnapString
_TEXT	ENDS
; Function compile flags: /Ogtp
; File D:\visual studio 2019\visual studio 2019\VC\Tools\MSVC\14.29.30133\include\xtree
; File D:\visual studio 2019\visual studio 2019\VC\Tools\MSVC\14.29.30133\include\xstddef
; File D:\visual studio 2019\visual studio 2019\VC\Tools\MSVC\14.29.30133\include\xtree
; File D:\visual studio 2019\visual studio 2019\VC\Tools\MSVC\14.29.30133\include\utility
; File D:\visual studio 2019\visual studio 2019\VC\Tools\MSVC\14.29.30133\include\xtree
; File D:\visual studio 2019\visual studio 2019\VC\Tools\MSVC\14.29.30133\include\xmemory
; File D:\visual studio 2019\visual studio 2019\VC\Tools\MSVC\14.29.30133\include\xtree
; File D:\visual studio 2019\visual studio 2019\VC\Tools\MSVC\14.29.30133\include\xmemory
; File D:\visual studio 2019\visual studio 2019\VC\Tools\MSVC\14.29.30133\include\xtree
; File D:\visual studio 2019\visual studio 2019\VC\Tools\MSVC\14.29.30133\include\xmemory
; File D:\visual studio 2019\visual studio 2019\VC\Tools\MSVC\14.29.30133\include\xtree
; File D:\visual studio 2019\visual studio 2019\VC\Tools\MSVC\14.29.30133\include\utility
; File D:\visual studio 2019\visual studio 2019\VC\Tools\MSVC\14.29.30133\include\xtree
;	COMDAT ??$insert@$0A@$0A@@?$_Tree@V?$_Tmap_traits@KPAVCItemData@@U?$less@K@std@@V?$allocator@U?$pair@$$CBKPAVCItemData@@@std@@@3@$0A@@std@@@std@@QAE?AU?$pair@V?$_Tree_iterator@V?$_Tree_val@U?$_Tree_simple_types@U?$pair@$$CBKPAVCItemData@@@std@@@std@@@std@@@std@@_N@1@$$QAU?$pair@$$CBKPAVCItemData@@@1@@Z
_TEXT	SEGMENT
__Loc$2 = -36						; size = 12
$T3 = -24						; size = 12
$T4 = -20						; size = 8
__$EHRec$ = -12						; size = 12
___$ReturnUdt$ = 8					; size = 4
__Val$ = 12						; size = 4
??$insert@$0A@$0A@@?$_Tree@V?$_Tmap_traits@KPAVCItemData@@U?$less@K@std@@V?$allocator@U?$pair@$$CBKPAVCItemData@@@std@@@3@$0A@@std@@@std@@QAE?AU?$pair@V?$_Tree_iterator@V?$_Tree_val@U?$_Tree_simple_types@U?$pair@$$CBKPAVCItemData@@@std@@@std@@@std@@@std@@_N@1@$$QAU?$pair@$$CBKPAVCItemData@@@1@@Z PROC ; std::_Tree<std::_Tmap_traits<unsigned long,CItemData *,std::less<unsigned long>,std::allocator<std::pair<unsigned long const ,CItemData *> >,0> >::insert<0,0>, COMDAT
; _this$ = ecx

; 1238 :     pair<iterator, bool> insert(value_type&& _Val) {

  00000	55		 push	 ebp
  00001	8b ec		 mov	 ebp, esp
  00003	6a ff		 push	 -1
  00005	68 00 00 00 00	 push	 __ehhandler$??$insert@$0A@$0A@@?$_Tree@V?$_Tmap_traits@KPAVCItemData@@U?$less@K@std@@V?$allocator@U?$pair@$$CBKPAVCItemData@@@std@@@3@$0A@@std@@@std@@QAE?AU?$pair@V?$_Tree_iterator@V?$_Tree_val@U?$_Tree_simple_types@U?$pair@$$CBKPAVCItemData@@@std@@@std@@@std@@@std@@_N@1@$$QAU?$pair@$$CBKPAVCItemData@@@1@@Z
  0000a	64 a1 00 00 00
	00		 mov	 eax, DWORD PTR fs:0
  00010	50		 push	 eax
  00011	83 ec 18	 sub	 esp, 24			; 00000018H
  00014	53		 push	 ebx
  00015	56		 push	 esi
  00016	57		 push	 edi
  00017	a1 00 00 00 00	 mov	 eax, DWORD PTR ___security_cookie
  0001c	33 c5		 xor	 eax, ebp
  0001e	50		 push	 eax
  0001f	8d 45 f4	 lea	 eax, DWORD PTR __$EHRec$[ebp]
  00022	64 a3 00 00 00
	00		 mov	 DWORD PTR fs:0, eax
  00028	8b f9		 mov	 edi, ecx

; 1006 :             _Loc                = _Find_lower_bound(_Keyval);

  0002a	8b 5d 0c	 mov	 ebx, DWORD PTR __Val$[ebp]
  0002d	8d 45 e8	 lea	 eax, DWORD PTR $T3[ebp]
  00030	53		 push	 ebx
  00031	50		 push	 eax
  00032	e8 00 00 00 00	 call	 ??$_Find_lower_bound@K@?$_Tree@V?$_Tmap_traits@KPAVCItemData@@U?$less@K@std@@V?$allocator@U?$pair@$$CBKPAVCItemData@@@std@@@3@$0A@@std@@@std@@IBE?AU?$_Tree_find_result@PAU?$_Tree_node@U?$pair@$$CBKPAVCItemData@@@std@@PAX@std@@@1@ABK@Z ; std::_Tree<std::_Tmap_traits<unsigned long,CItemData *,std::less<unsigned long>,std::allocator<std::pair<unsigned long const ,CItemData *> >,0> >::_Find_lower_bound<unsigned long>
  00037	8b 48 08	 mov	 ecx, DWORD PTR [eax+8]
  0003a	f3 0f 7e 00	 movq	 xmm0, QWORD PTR [eax]
  0003e	66 0f d6 45 dc	 movq	 QWORD PTR __Loc$2[ebp], xmm0

; 1591 :         return !_Bound->_Isnil && !_DEBUG_LT_PRED(_Getcomp(), _Keyval, _Traits::_Kfn(_Bound->_Myval));

  00043	80 79 0d 00	 cmp	 BYTE PTR [ecx+13], 0
  00047	75 0b		 jne	 SHORT $LN4@insert
; File D:\visual studio 2019\visual studio 2019\VC\Tools\MSVC\14.29.30133\include\xstddef

; 117  :         return _Left < _Right;

  00049	8b 03		 mov	 eax, DWORD PTR [ebx]
  0004b	3b 41 10	 cmp	 eax, DWORD PTR [ecx+16]
; File D:\visual studio 2019\visual studio 2019\VC\Tools\MSVC\14.29.30133\include\xtree

; 1591 :         return !_Bound->_Isnil && !_DEBUG_LT_PRED(_Getcomp(), _Keyval, _Traits::_Kfn(_Bound->_Myval));

  0004e	72 04		 jb	 SHORT $LN4@insert
; File D:\visual studio 2019\visual studio 2019\VC\Tools\MSVC\14.29.30133\include\utility

; 186  :         : first(_STD forward<_Other1>(_Val1)), second(_STD forward<_Other2>(_Val2)) {}

  00050	32 d2		 xor	 dl, dl
; File D:\visual studio 2019\visual studio 2019\VC\Tools\MSVC\14.29.30133\include\xtree

; 1008 :                 return {_Loc._Bound, false};

  00052	eb 51		 jmp	 SHORT $LN79@insert
$LN4@insert:

; 1615 :         if (max_size() == _Get_scary()->_Mysize) {

  00054	81 7f 04 aa aa
	aa 0a		 cmp	 DWORD PTR [edi+4], 178956970 ; 0aaaaaaaH
  0005b	74 64		 je	 SHORT $LN94@insert

; 1012 :             _Inserted = _Tree_temp_node<_Alnode>(_Getal(), _Scary->_Myhead, _STD forward<_Valtys>(_Vals)...)._Release();

  0005d	8b 37		 mov	 esi, DWORD PTR [edi]
; File D:\visual studio 2019\visual studio 2019\VC\Tools\MSVC\14.29.30133\include\xmemory

; 958  :     _CONSTEXPR20_DYNALLOC explicit _Alloc_construct_ptr(_Alloc& _Al_) : _Al(_Al_), _Ptr(nullptr) {}

  0005f	89 7d ec	 mov	 DWORD PTR $T4[ebp], edi

; 79   :         return ::operator new(_Bytes);

  00062	6a 18		 push	 24			; 00000018H
; File D:\visual studio 2019\visual studio 2019\VC\Tools\MSVC\14.29.30133\include\xtree

; 783  :     explicit _Tree_temp_node_alloc(_Alnode& _Al_) : _Alloc_construct_ptr<_Alnode>(_Al_) {

  00064	c7 45 fc 00 00
	00 00		 mov	 DWORD PTR __$EHRec$[ebp+8], 0
; File D:\visual studio 2019\visual studio 2019\VC\Tools\MSVC\14.29.30133\include\xmemory

; 965  :         _Ptr = nullptr; // if allocate throws, prevents double-free

  0006b	c7 45 f0 00 00
	00 00		 mov	 DWORD PTR $T4[ebp+4], 0

; 79   :         return ::operator new(_Bytes);

  00072	e8 00 00 00 00	 call	 ??2@YAPAXI@Z		; operator new
; File D:\visual studio 2019\visual studio 2019\VC\Tools\MSVC\14.29.30133\include\xtree

; 805  :         _Alnode_traits::construct(this->_Al, _STD addressof(this->_Ptr->_Myval), _STD forward<_Valtys>(_Vals)...);

  00077	8b 0b		 mov	 ecx, DWORD PTR [ebx]
; File D:\visual studio 2019\visual studio 2019\VC\Tools\MSVC\14.29.30133\include\xmemory

; 79   :         return ::operator new(_Bytes);

  00079	83 c4 04	 add	 esp, 4
; File D:\visual studio 2019\visual studio 2019\VC\Tools\MSVC\14.29.30133\include\xtree

; 805  :         _Alnode_traits::construct(this->_Al, _STD addressof(this->_Ptr->_Myval), _STD forward<_Valtys>(_Vals)...);

  0007c	8b 53 04	 mov	 edx, DWORD PTR [ebx+4]
  0007f	89 48 10	 mov	 DWORD PTR [eax+16], ecx

; 1031 :         return {_Scary->_Insert_node(_Loc._Location, _Inserted), true};

  00082	8b cf		 mov	 ecx, edi
  00084	50		 push	 eax
  00085	ff 75 e0	 push	 DWORD PTR __Loc$2[ebp+4]

; 805  :         _Alnode_traits::construct(this->_Al, _STD addressof(this->_Ptr->_Myval), _STD forward<_Valtys>(_Vals)...);

  00088	89 50 14	 mov	 DWORD PTR [eax+20], edx

; 1031 :         return {_Scary->_Insert_node(_Loc._Location, _Inserted), true};

  0008b	ff 75 dc	 push	 DWORD PTR __Loc$2[ebp]

; 806  :         _Construct_in_place(this->_Ptr->_Left, _Myhead);

  0008e	89 30		 mov	 DWORD PTR [eax], esi

; 807  :         _Construct_in_place(this->_Ptr->_Parent, _Myhead);

  00090	89 70 04	 mov	 DWORD PTR [eax+4], esi

; 808  :         _Construct_in_place(this->_Ptr->_Right, _Myhead);

  00093	89 70 08	 mov	 DWORD PTR [eax+8], esi

; 809  :         this->_Ptr->_Color = _Red;

  00096	66 c7 40 0c 00
	00		 mov	 WORD PTR [eax+12], 0

; 1031 :         return {_Scary->_Insert_node(_Loc._Location, _Inserted), true};

  0009c	e8 00 00 00 00	 call	 ?_Insert_node@?$_Tree_val@U?$_Tree_simple_types@U?$pair@$$CBKPAVCItemData@@@std@@@std@@@std@@QAEPAU?$_Tree_node@U?$pair@$$CBKPAVCItemData@@@std@@PAX@2@U?$_Tree_id@PAU?$_Tree_node@U?$pair@$$CBKPAVCItemData@@@std@@PAX@std@@@2@QAU32@@Z ; std::_Tree_val<std::_Tree_simple_types<std::pair<unsigned long const ,CItemData *> > >::_Insert_node
; File D:\visual studio 2019\visual studio 2019\VC\Tools\MSVC\14.29.30133\include\utility

; 186  :         : first(_STD forward<_Other1>(_Val1)), second(_STD forward<_Other2>(_Val2)) {}

  000a1	8b c8		 mov	 ecx, eax
  000a3	b2 01		 mov	 dl, 1
$LN79@insert:
  000a5	8b 45 08	 mov	 eax, DWORD PTR ___$ReturnUdt$[ebp]
  000a8	89 08		 mov	 DWORD PTR [eax], ecx
  000aa	88 50 04	 mov	 BYTE PTR [eax+4], dl
; File D:\visual studio 2019\visual studio 2019\VC\Tools\MSVC\14.29.30133\include\xtree

; 1241 :     }

  000ad	8b 4d f4	 mov	 ecx, DWORD PTR __$EHRec$[ebp]
  000b0	64 89 0d 00 00
	00 00		 mov	 DWORD PTR fs:0, ecx
  000b7	59		 pop	 ecx
  000b8	5f		 pop	 edi
  000b9	5e		 pop	 esi
  000ba	5b		 pop	 ebx
  000bb	8b e5		 mov	 esp, ebp
  000bd	5d		 pop	 ebp
  000be	c2 08 00	 ret	 8
$LN94@insert:

; 1616 :             _Throw_tree_length_error();

  000c1	e8 00 00 00 00	 call	 ?_Throw_tree_length_error@std@@YAXXZ ; std::_Throw_tree_length_error
$LN92@insert:
  000c6	cc		 int	 3
_TEXT	ENDS
;	COMDAT text$x
text$x	SEGMENT
__unwindfunclet$??$insert@$0A@$0A@@?$_Tree@V?$_Tmap_traits@KPAVCItemData@@U?$less@K@std@@V?$allocator@U?$pair@$$CBKPAVCItemData@@@std@@@3@$0A@@std@@@std@@QAE?AU?$pair@V?$_Tree_iterator@V?$_Tree_val@U?$_Tree_simple_types@U?$pair@$$CBKPAVCItemData@@@std@@@std@@@std@@@std@@_N@1@$$QAU?$pair@$$CBKPAVCItemData@@@1@@Z$2:
  00000	8d 4d ec	 lea	 ecx, DWORD PTR $T4[ebp]
  00003	e9 00 00 00 00	 jmp	 ??1?$_Alloc_construct_ptr@V?$allocator@U?$_Tree_node@U?$pair@$$CBKPAVCItemData@@@std@@PAX@std@@@std@@@std@@QAE@XZ ; std::_Alloc_construct_ptr<std::allocator<std::_Tree_node<std::pair<unsigned long const ,CItemData *>,void *> > >::~_Alloc_construct_ptr<std::allocator<std::_Tree_node<std::pair<unsigned long const ,CItemData *>,void *> > >
  00008	cc		 int	 3
  00009	cc		 int	 3
  0000a	cc		 int	 3
  0000b	cc		 int	 3
  0000c	cc		 int	 3
__ehhandler$??$insert@$0A@$0A@@?$_Tree@V?$_Tmap_traits@KPAVCItemData@@U?$less@K@std@@V?$allocator@U?$pair@$$CBKPAVCItemData@@@std@@@3@$0A@@std@@@std@@QAE?AU?$pair@V?$_Tree_iterator@V?$_Tree_val@U?$_Tree_simple_types@U?$pair@$$CBKPAVCItemData@@@std@@@std@@@std@@@std@@_N@1@$$QAU?$pair@$$CBKPAVCItemData@@@1@@Z:
  0000d	90		 npad	 1
  0000e	90		 npad	 1
  0000f	8b 54 24 08	 mov	 edx, DWORD PTR [esp+8]
  00013	8d 42 0c	 lea	 eax, DWORD PTR [edx+12]
  00016	8b 4a d8	 mov	 ecx, DWORD PTR [edx-40]
  00019	33 c8		 xor	 ecx, eax
  0001b	e8 00 00 00 00	 call	 @__security_check_cookie@4
  00020	b8 00 00 00 00	 mov	 eax, OFFSET __ehfuncinfo$??$insert@$0A@$0A@@?$_Tree@V?$_Tmap_traits@KPAVCItemData@@U?$less@K@std@@V?$allocator@U?$pair@$$CBKPAVCItemData@@@std@@@3@$0A@@std@@@std@@QAE?AU?$pair@V?$_Tree_iterator@V?$_Tree_val@U?$_Tree_simple_types@U?$pair@$$CBKPAVCItemData@@@std@@@std@@@std@@@std@@_N@1@$$QAU?$pair@$$CBKPAVCItemData@@@1@@Z
  00025	e9 00 00 00 00	 jmp	 ___CxxFrameHandler3
text$x	ENDS
??$insert@$0A@$0A@@?$_Tree@V?$_Tmap_traits@KPAVCItemData@@U?$less@K@std@@V?$allocator@U?$pair@$$CBKPAVCItemData@@@std@@@3@$0A@@std@@@std@@QAE?AU?$pair@V?$_Tree_iterator@V?$_Tree_val@U?$_Tree_simple_types@U?$pair@$$CBKPAVCItemData@@@std@@@std@@@std@@@std@@_N@1@$$QAU?$pair@$$CBKPAVCItemData@@@1@@Z ENDP ; std::_Tree<std::_Tmap_traits<unsigned long,CItemData *,std::less<unsigned long>,std::allocator<std::pair<unsigned long const ,CItemData *> >,0> >::insert<0,0>
; Function compile flags: /Ogtp
;	COMDAT ??_GCItemManager@@UAEPAXI@Z
_TEXT	SEGMENT
___flags$ = 8						; size = 4
??_GCItemManager@@UAEPAXI@Z PROC			; CItemManager::`scalar deleting destructor', COMDAT
; _this$ = ecx
  00000	55		 push	 ebp
  00001	8b ec		 mov	 ebp, esp
  00003	56		 push	 esi
  00004	8b f1		 mov	 esi, ecx
  00006	e8 00 00 00 00	 call	 ??1CItemManager@@UAE@XZ	; CItemManager::~CItemManager
  0000b	f6 45 08 01	 test	 BYTE PTR ___flags$[ebp], 1
  0000f	74 0b		 je	 SHORT $LN4@scalar
  00011	6a 1c		 push	 28			; 0000001cH
  00013	56		 push	 esi
  00014	e8 00 00 00 00	 call	 ??3@YAXPAXI@Z		; operator delete
  00019	83 c4 08	 add	 esp, 8
$LN4@scalar:
  0001c	8b c6		 mov	 eax, esi
  0001e	5e		 pop	 esi
  0001f	5d		 pop	 ebp
  00020	c2 04 00	 ret	 4
??_GCItemManager@@UAEPAXI@Z ENDP			; CItemManager::`scalar deleting destructor'
_TEXT	ENDS
; Function compile flags: /Ogtp
; File D:\visual studio 2019\visual studio 2019\VC\Tools\MSVC\14.29.30133\include\vector
;	COMDAT ?_Xlength@?$vector@PAVCItemData@@V?$allocator@PAVCItemData@@@std@@@std@@CAXXZ
_TEXT	SEGMENT
?_Xlength@?$vector@PAVCItemData@@V?$allocator@PAVCItemData@@@std@@@std@@CAXXZ PROC ; std::vector<CItemData *,std::allocator<CItemData *> >::_Xlength, COMDAT

; 1761 :         _Xlength_error("vector too long");

  00000	68 00 00 00 00	 push	 OFFSET ??_C@_0BA@FOIKENOD@vector?5too?5long@
  00005	e8 00 00 00 00	 call	 ?_Xlength_error@std@@YAXPBD@Z ; std::_Xlength_error
$LN3@Xlength:
  0000a	cc		 int	 3
?_Xlength@?$vector@PAVCItemData@@V?$allocator@PAVCItemData@@@std@@@std@@CAXXZ ENDP ; std::vector<CItemData *,std::allocator<CItemData *> >::_Xlength
_TEXT	ENDS
; Function compile flags: /Ogtp
; File D:\visual studio 2019\visual studio 2019\VC\Tools\MSVC\14.29.30133\include\xtree
;	COMDAT ?_Insert_node@?$_Tree_val@U?$_Tree_simple_types@U?$pair@$$CBKPAVCItemData@@@std@@@std@@@std@@QAEPAU?$_Tree_node@U?$pair@$$CBKPAVCItemData@@@std@@PAX@2@U?$_Tree_id@PAU?$_Tree_node@U?$pair@$$CBKPAVCItemData@@@std@@PAX@std@@@2@QAU32@@Z
_TEXT	SEGMENT
__Head$1$ = -8						; size = 4
_this$1$ = -4						; size = 4
__Loc$ = 8						; size = 8
__Newnode$ = 16						; size = 4
?_Insert_node@?$_Tree_val@U?$_Tree_simple_types@U?$pair@$$CBKPAVCItemData@@@std@@@std@@@std@@QAEPAU?$_Tree_node@U?$pair@$$CBKPAVCItemData@@@std@@PAX@2@U?$_Tree_id@PAU?$_Tree_node@U?$pair@$$CBKPAVCItemData@@@std@@PAX@std@@@2@QAU32@@Z PROC ; std::_Tree_val<std::_Tree_simple_types<std::pair<unsigned long const ,CItemData *> > >::_Insert_node, COMDAT
; _this$ = ecx

; 644  :     _Nodeptr _Insert_node(const _Tree_id<_Nodeptr> _Loc, const _Nodeptr _Newnode) noexcept {

  00000	55		 push	 ebp
  00001	8b ec		 mov	 ebp, esp
  00003	83 ec 08	 sub	 esp, 8

; 645  :         ++_Mysize;
; 646  :         const auto _Head  = _Myhead;
; 647  :         _Newnode->_Parent = _Loc._Parent;

  00006	8b 55 08	 mov	 edx, DWORD PTR __Loc$[ebp]
  00009	8b c1		 mov	 eax, ecx
  0000b	89 45 fc	 mov	 DWORD PTR _this$1$[ebp], eax
  0000e	8b 08		 mov	 ecx, DWORD PTR [eax]
  00010	ff 40 04	 inc	 DWORD PTR [eax+4]
  00013	8b 45 10	 mov	 eax, DWORD PTR __Newnode$[ebp]
  00016	89 4d f8	 mov	 DWORD PTR __Head$1$[ebp], ecx
  00019	89 50 04	 mov	 DWORD PTR [eax+4], edx

; 648  :         if (_Loc._Parent == _Head) { // first node in tree, just set head values

  0001c	3b d1		 cmp	 edx, ecx
  0001e	75 12		 jne	 SHORT $LN5@Insert_nod

; 649  :             _Head->_Left     = _Newnode;

  00020	89 01		 mov	 DWORD PTR [ecx], eax

; 650  :             _Head->_Parent   = _Newnode;

  00022	89 41 04	 mov	 DWORD PTR [ecx+4], eax

; 651  :             _Head->_Right    = _Newnode;

  00025	89 41 08	 mov	 DWORD PTR [ecx+8], eax

; 652  :             _Newnode->_Color = _Black; // the root is black

  00028	c6 40 0c 01	 mov	 BYTE PTR [eax+12], 1

; 711  :     }

  0002c	8b e5		 mov	 esp, ebp
  0002e	5d		 pop	 ebp
  0002f	c2 0c 00	 ret	 12			; 0000000cH
$LN5@Insert_nod:

; 653  :             return _Newnode;
; 654  :         }
; 655  : 
; 656  :         _STL_INTERNAL_CHECK(_Loc._Child != _Tree_child::_Unused);
; 657  :         if (_Loc._Child == _Tree_child::_Right) { // add to right of _Loc._Parent

  00032	83 7d 0c 00	 cmp	 DWORD PTR __Loc$[ebp+4], 0
  00036	75 0d		 jne	 SHORT $LN6@Insert_nod

; 658  :             _STL_INTERNAL_CHECK(_Loc._Parent->_Right->_Isnil);
; 659  :             _Loc._Parent->_Right = _Newnode;

  00038	89 42 08	 mov	 DWORD PTR [edx+8], eax

; 660  :             if (_Loc._Parent == _Head->_Right) { // remember rightmost node

  0003b	3b 51 08	 cmp	 edx, DWORD PTR [ecx+8]
  0003e	75 0d		 jne	 SHORT $LN9@Insert_nod

; 661  :                 _Head->_Right = _Newnode;

  00040	89 41 08	 mov	 DWORD PTR [ecx+8], eax

; 662  :             }
; 663  :         } else { // add to left of _Loc._Parent

  00043	eb 08		 jmp	 SHORT $LN9@Insert_nod
$LN6@Insert_nod:

; 664  :             _STL_INTERNAL_CHECK(_Loc._Parent->_Left->_Isnil);
; 665  :             _Loc._Parent->_Left = _Newnode;

  00045	89 02		 mov	 DWORD PTR [edx], eax

; 666  :             if (_Loc._Parent == _Head->_Left) { // remember leftmost node

  00047	3b 11		 cmp	 edx, DWORD PTR [ecx]
  00049	75 02		 jne	 SHORT $LN9@Insert_nod

; 667  :                 _Head->_Left = _Newnode;

  0004b	89 01		 mov	 DWORD PTR [ecx], eax
$LN9@Insert_nod:

; 668  :             }
; 669  :         }
; 670  : 
; 671  :         for (_Nodeptr _Pnode = _Newnode; _Pnode->_Parent->_Color == _Red;) {

  0004d	8b d0		 mov	 edx, eax
  0004f	8b 40 04	 mov	 eax, DWORD PTR [eax+4]
  00052	80 78 0c 00	 cmp	 BYTE PTR [eax+12], 0
  00056	0f 85 99 01 00
	00		 jne	 $LN3@Insert_nod
  0005c	53		 push	 ebx
  0005d	56		 push	 esi
  0005e	57		 push	 edi
  0005f	90		 npad	 1
$LL2@Insert_nod:

; 672  :             if (_Pnode->_Parent == _Pnode->_Parent->_Parent->_Left) { // fixup red-red in left subtree

  00060	8b 4a 04	 mov	 ecx, DWORD PTR [edx+4]
  00063	8d 7a 04	 lea	 edi, DWORD PTR [edx+4]
  00066	8b 71 04	 mov	 esi, DWORD PTR [ecx+4]
  00069	8d 59 04	 lea	 ebx, DWORD PTR [ecx+4]
  0006c	8b 06		 mov	 eax, DWORD PTR [esi]
  0006e	3b c8		 cmp	 ecx, eax
  00070	0f 85 ba 00 00
	00		 jne	 $LN10@Insert_nod

; 673  :                 const auto _Parent_sibling = _Pnode->_Parent->_Parent->_Right;

  00076	8b 46 08	 mov	 eax, DWORD PTR [esi+8]

; 674  :                 if (_Parent_sibling->_Color == _Red) { // parent's sibling has two red children, blacken both

  00079	80 78 0c 00	 cmp	 BYTE PTR [eax+12], 0
  0007d	0f 84 b3 00 00
	00		 je	 $LN53@Insert_nod

; 675  :                     _Pnode->_Parent->_Color          = _Black;
; 676  :                     _Parent_sibling->_Color          = _Black;
; 677  :                     _Pnode->_Parent->_Parent->_Color = _Red;
; 678  :                     _Pnode                           = _Pnode->_Parent->_Parent;
; 679  :                 } else { // parent's sibling has red and black children
; 680  :                     if (_Pnode == _Pnode->_Parent->_Right) { // rotate right child to left

  00083	8b 71 08	 mov	 esi, DWORD PTR [ecx+8]
  00086	3b d6		 cmp	 edx, esi
  00088	75 47		 jne	 SHORT $LN51@Insert_nod

; 460  :         _Wherenode->_Right = _Pnode->_Left;

  0008a	8b 06		 mov	 eax, DWORD PTR [esi]

; 681  :                         _Pnode = _Pnode->_Parent;

  0008c	8b d1		 mov	 edx, ecx

; 460  :         _Wherenode->_Right = _Pnode->_Left;

  0008e	89 42 08	 mov	 DWORD PTR [edx+8], eax

; 461  : 
; 462  :         if (!_Pnode->_Left->_Isnil) {

  00091	8b 06		 mov	 eax, DWORD PTR [esi]
  00093	80 78 0d 00	 cmp	 BYTE PTR [eax+13], 0
  00097	75 03		 jne	 SHORT $LN20@Insert_nod

; 463  :             _Pnode->_Left->_Parent = _Wherenode;

  00099	89 50 04	 mov	 DWORD PTR [eax+4], edx
$LN20@Insert_nod:

; 464  :         }
; 465  : 
; 466  :         _Pnode->_Parent = _Wherenode->_Parent;

  0009c	8b 03		 mov	 eax, DWORD PTR [ebx]
  0009e	89 46 04	 mov	 DWORD PTR [esi+4], eax

; 467  : 
; 468  :         if (_Wherenode == _Myhead->_Parent) {

  000a1	8b 45 fc	 mov	 eax, DWORD PTR _this$1$[ebp]
  000a4	8b 00		 mov	 eax, DWORD PTR [eax]
  000a6	3b 50 04	 cmp	 edx, DWORD PTR [eax+4]
  000a9	75 0b		 jne	 SHORT $LN21@Insert_nod

; 469  :             _Myhead->_Parent = _Pnode;

  000ab	89 70 04	 mov	 DWORD PTR [eax+4], esi

; 477  :         _Wherenode->_Parent = _Pnode;

  000ae	8b fb		 mov	 edi, ebx
  000b0	89 16		 mov	 DWORD PTR [esi], edx
  000b2	89 33		 mov	 DWORD PTR [ebx], esi
  000b4	eb 1d		 jmp	 SHORT $LN49@Insert_nod
$LN21@Insert_nod:

; 470  :         } else if (_Wherenode == _Wherenode->_Parent->_Left) {

  000b6	8b 03		 mov	 eax, DWORD PTR [ebx]
  000b8	3b 10		 cmp	 edx, DWORD PTR [eax]
  000ba	75 0a		 jne	 SHORT $LN23@Insert_nod

; 471  :             _Wherenode->_Parent->_Left = _Pnode;

  000bc	89 30		 mov	 DWORD PTR [eax], esi

; 477  :         _Wherenode->_Parent = _Pnode;

  000be	8b fb		 mov	 edi, ebx
  000c0	89 16		 mov	 DWORD PTR [esi], edx
  000c2	89 33		 mov	 DWORD PTR [ebx], esi
  000c4	eb 0d		 jmp	 SHORT $LN49@Insert_nod
$LN23@Insert_nod:

; 473  :             _Wherenode->_Parent->_Right = _Pnode;

  000c6	89 70 08	 mov	 DWORD PTR [eax+8], esi

; 477  :         _Wherenode->_Parent = _Pnode;

  000c9	8b fb		 mov	 edi, ebx
  000cb	89 16		 mov	 DWORD PTR [esi], edx
  000cd	89 33		 mov	 DWORD PTR [ebx], esi
  000cf	eb 02		 jmp	 SHORT $LN49@Insert_nod
$LN51@Insert_nod:
  000d1	8b f1		 mov	 esi, ecx
$LN49@Insert_nod:

; 682  :                         _Lrotate(_Pnode);
; 683  :                     }
; 684  : 
; 685  :                     _Pnode->_Parent->_Color          = _Black; // propagate red up

  000d3	c6 46 0c 01	 mov	 BYTE PTR [esi+12], 1

; 686  :                     _Pnode->_Parent->_Parent->_Color = _Red;

  000d7	8b 07		 mov	 eax, DWORD PTR [edi]
  000d9	8b 40 04	 mov	 eax, DWORD PTR [eax+4]
  000dc	c6 40 0c 00	 mov	 BYTE PTR [eax+12], 0

; 687  :                     _Rrotate(_Pnode->_Parent->_Parent);

  000e0	8b 07		 mov	 eax, DWORD PTR [edi]
  000e2	8b 48 04	 mov	 ecx, DWORD PTR [eax+4]

; 481  :         _Nodeptr _Pnode   = _Wherenode->_Left;

  000e5	8b 31		 mov	 esi, DWORD PTR [ecx]

; 482  :         _Wherenode->_Left = _Pnode->_Right;

  000e7	8b 46 08	 mov	 eax, DWORD PTR [esi+8]
  000ea	89 01		 mov	 DWORD PTR [ecx], eax

; 483  : 
; 484  :         if (!_Pnode->_Right->_Isnil) {

  000ec	8b 46 08	 mov	 eax, DWORD PTR [esi+8]
  000ef	80 78 0d 00	 cmp	 BYTE PTR [eax+13], 0
  000f3	75 03		 jne	 SHORT $LN27@Insert_nod

; 485  :             _Pnode->_Right->_Parent = _Wherenode;

  000f5	89 48 04	 mov	 DWORD PTR [eax+4], ecx
$LN27@Insert_nod:

; 486  :         }
; 487  : 
; 488  :         _Pnode->_Parent = _Wherenode->_Parent;

  000f8	8b 41 04	 mov	 eax, DWORD PTR [ecx+4]
  000fb	89 46 04	 mov	 DWORD PTR [esi+4], eax

; 489  : 
; 490  :         if (_Wherenode == _Myhead->_Parent) {

  000fe	8b 45 fc	 mov	 eax, DWORD PTR _this$1$[ebp]
  00101	8b 00		 mov	 eax, DWORD PTR [eax]
  00103	3b 48 04	 cmp	 ecx, DWORD PTR [eax+4]
  00106	75 0b		 jne	 SHORT $LN28@Insert_nod

; 491  :             _Myhead->_Parent = _Pnode;

  00108	89 70 04	 mov	 DWORD PTR [eax+4], esi

; 496  :         }
; 497  : 
; 498  :         _Pnode->_Right      = _Wherenode;

  0010b	89 4e 08	 mov	 DWORD PTR [esi+8], ecx

; 688  :                 }
; 689  :             } else { // fixup red-red in right subtree

  0010e	e9 cc 00 00 00	 jmp	 $LN52@Insert_nod
$LN28@Insert_nod:

; 492  :         } else if (_Wherenode == _Wherenode->_Parent->_Right) {

  00113	8b 41 04	 mov	 eax, DWORD PTR [ecx+4]
  00116	3b 48 08	 cmp	 ecx, DWORD PTR [eax+8]
  00119	75 0b		 jne	 SHORT $LN30@Insert_nod

; 493  :             _Wherenode->_Parent->_Right = _Pnode;

  0011b	89 70 08	 mov	 DWORD PTR [eax+8], esi

; 496  :         }
; 497  : 
; 498  :         _Pnode->_Right      = _Wherenode;

  0011e	89 4e 08	 mov	 DWORD PTR [esi+8], ecx

; 688  :                 }
; 689  :             } else { // fixup red-red in right subtree

  00121	e9 b9 00 00 00	 jmp	 $LN52@Insert_nod
$LN30@Insert_nod:

; 495  :             _Wherenode->_Parent->_Left = _Pnode;

  00126	89 30		 mov	 DWORD PTR [eax], esi

; 496  :         }
; 497  : 
; 498  :         _Pnode->_Right      = _Wherenode;

  00128	89 4e 08	 mov	 DWORD PTR [esi+8], ecx

; 688  :                 }
; 689  :             } else { // fixup red-red in right subtree

  0012b	e9 af 00 00 00	 jmp	 $LN52@Insert_nod
$LN10@Insert_nod:

; 690  :                 const auto _Parent_sibling = _Pnode->_Parent->_Parent->_Left;
; 691  :                 if (_Parent_sibling->_Color == _Red) { // parent's sibling has two red children, blacken both

  00130	80 78 0c 00	 cmp	 BYTE PTR [eax+12], 0
  00134	75 1b		 jne	 SHORT $LN15@Insert_nod
$LN53@Insert_nod:

; 668  :             }
; 669  :         }
; 670  : 
; 671  :         for (_Nodeptr _Pnode = _Newnode; _Pnode->_Parent->_Color == _Red;) {

  00136	c6 41 0c 01	 mov	 BYTE PTR [ecx+12], 1
  0013a	c6 40 0c 01	 mov	 BYTE PTR [eax+12], 1
  0013e	8b 07		 mov	 eax, DWORD PTR [edi]
  00140	8b 40 04	 mov	 eax, DWORD PTR [eax+4]
  00143	c6 40 0c 00	 mov	 BYTE PTR [eax+12], 0
  00147	8b 07		 mov	 eax, DWORD PTR [edi]
  00149	8b 50 04	 mov	 edx, DWORD PTR [eax+4]
  0014c	e9 91 00 00 00	 jmp	 $LN46@Insert_nod
$LN15@Insert_nod:

; 692  :                     _Pnode->_Parent->_Color          = _Black;
; 693  :                     _Parent_sibling->_Color          = _Black;
; 694  :                     _Pnode->_Parent->_Parent->_Color = _Red;
; 695  :                     _Pnode                           = _Pnode->_Parent->_Parent;
; 696  :                 } else { // parent's sibling has red and black children
; 697  :                     if (_Pnode == _Pnode->_Parent->_Left) { // rotate left child to right

  00151	8b 01		 mov	 eax, DWORD PTR [ecx]
  00153	3b d0		 cmp	 edx, eax
  00155	75 3e		 jne	 SHORT $LN39@Insert_nod

; 698  :                         _Pnode = _Pnode->_Parent;

  00157	8b d1		 mov	 edx, ecx

; 481  :         _Nodeptr _Pnode   = _Wherenode->_Left;

  00159	8b c8		 mov	 ecx, eax

; 482  :         _Wherenode->_Left = _Pnode->_Right;

  0015b	8b 41 08	 mov	 eax, DWORD PTR [ecx+8]
  0015e	89 02		 mov	 DWORD PTR [edx], eax

; 483  : 
; 484  :         if (!_Pnode->_Right->_Isnil) {

  00160	8b 41 08	 mov	 eax, DWORD PTR [ecx+8]
  00163	80 78 0d 00	 cmp	 BYTE PTR [eax+13], 0
  00167	75 03		 jne	 SHORT $LN34@Insert_nod

; 485  :             _Pnode->_Right->_Parent = _Wherenode;

  00169	89 50 04	 mov	 DWORD PTR [eax+4], edx
$LN34@Insert_nod:

; 486  :         }
; 487  : 
; 488  :         _Pnode->_Parent = _Wherenode->_Parent;

  0016c	8b 03		 mov	 eax, DWORD PTR [ebx]
  0016e	89 41 04	 mov	 DWORD PTR [ecx+4], eax

; 489  : 
; 490  :         if (_Wherenode == _Myhead->_Parent) {

  00171	8b 45 fc	 mov	 eax, DWORD PTR _this$1$[ebp]
  00174	8b 00		 mov	 eax, DWORD PTR [eax]
  00176	3b 50 04	 cmp	 edx, DWORD PTR [eax+4]
  00179	75 05		 jne	 SHORT $LN35@Insert_nod

; 491  :             _Myhead->_Parent = _Pnode;

  0017b	89 48 04	 mov	 DWORD PTR [eax+4], ecx
  0017e	eb 0e		 jmp	 SHORT $LN38@Insert_nod
$LN35@Insert_nod:

; 492  :         } else if (_Wherenode == _Wherenode->_Parent->_Right) {

  00180	8b 03		 mov	 eax, DWORD PTR [ebx]
  00182	3b 50 08	 cmp	 edx, DWORD PTR [eax+8]
  00185	75 05		 jne	 SHORT $LN37@Insert_nod

; 493  :             _Wherenode->_Parent->_Right = _Pnode;

  00187	89 48 08	 mov	 DWORD PTR [eax+8], ecx

; 494  :         } else {

  0018a	eb 02		 jmp	 SHORT $LN38@Insert_nod
$LN37@Insert_nod:

; 495  :             _Wherenode->_Parent->_Left = _Pnode;

  0018c	89 08		 mov	 DWORD PTR [eax], ecx
$LN38@Insert_nod:

; 496  :         }
; 497  : 
; 498  :         _Pnode->_Right      = _Wherenode;

  0018e	89 51 08	 mov	 DWORD PTR [ecx+8], edx

; 499  :         _Wherenode->_Parent = _Pnode;

  00191	8b fb		 mov	 edi, ebx
  00193	89 0b		 mov	 DWORD PTR [ebx], ecx
$LN39@Insert_nod:

; 699  :                         _Rrotate(_Pnode);
; 700  :                     }
; 701  : 
; 702  :                     _Pnode->_Parent->_Color          = _Black; // propagate red up

  00195	c6 41 0c 01	 mov	 BYTE PTR [ecx+12], 1

; 703  :                     _Pnode->_Parent->_Parent->_Color = _Red;

  00199	8b 07		 mov	 eax, DWORD PTR [edi]
  0019b	8b 40 04	 mov	 eax, DWORD PTR [eax+4]
  0019e	c6 40 0c 00	 mov	 BYTE PTR [eax+12], 0

; 704  :                     _Lrotate(_Pnode->_Parent->_Parent);

  001a2	8b 07		 mov	 eax, DWORD PTR [edi]
  001a4	8b 48 04	 mov	 ecx, DWORD PTR [eax+4]

; 459  :         _Nodeptr _Pnode    = _Wherenode->_Right;

  001a7	8b 71 08	 mov	 esi, DWORD PTR [ecx+8]

; 460  :         _Wherenode->_Right = _Pnode->_Left;

  001aa	8b 06		 mov	 eax, DWORD PTR [esi]
  001ac	89 41 08	 mov	 DWORD PTR [ecx+8], eax

; 461  : 
; 462  :         if (!_Pnode->_Left->_Isnil) {

  001af	8b 06		 mov	 eax, DWORD PTR [esi]
  001b1	80 78 0d 00	 cmp	 BYTE PTR [eax+13], 0
  001b5	75 03		 jne	 SHORT $LN41@Insert_nod

; 463  :             _Pnode->_Left->_Parent = _Wherenode;

  001b7	89 48 04	 mov	 DWORD PTR [eax+4], ecx
$LN41@Insert_nod:

; 464  :         }
; 465  : 
; 466  :         _Pnode->_Parent = _Wherenode->_Parent;

  001ba	8b 41 04	 mov	 eax, DWORD PTR [ecx+4]
  001bd	89 46 04	 mov	 DWORD PTR [esi+4], eax

; 467  : 
; 468  :         if (_Wherenode == _Myhead->_Parent) {

  001c0	8b 45 fc	 mov	 eax, DWORD PTR _this$1$[ebp]
  001c3	8b 00		 mov	 eax, DWORD PTR [eax]
  001c5	3b 48 04	 cmp	 ecx, DWORD PTR [eax+4]
  001c8	75 05		 jne	 SHORT $LN42@Insert_nod

; 469  :             _Myhead->_Parent = _Pnode;

  001ca	89 70 04	 mov	 DWORD PTR [eax+4], esi
  001cd	eb 0e		 jmp	 SHORT $LN45@Insert_nod
$LN42@Insert_nod:

; 470  :         } else if (_Wherenode == _Wherenode->_Parent->_Left) {

  001cf	8b 41 04	 mov	 eax, DWORD PTR [ecx+4]
  001d2	3b 08		 cmp	 ecx, DWORD PTR [eax]
  001d4	75 04		 jne	 SHORT $LN44@Insert_nod

; 471  :             _Wherenode->_Parent->_Left = _Pnode;

  001d6	89 30		 mov	 DWORD PTR [eax], esi

; 472  :         } else {

  001d8	eb 03		 jmp	 SHORT $LN45@Insert_nod
$LN44@Insert_nod:

; 473  :             _Wherenode->_Parent->_Right = _Pnode;

  001da	89 70 08	 mov	 DWORD PTR [eax+8], esi
$LN45@Insert_nod:

; 474  :         }
; 475  : 
; 476  :         _Pnode->_Left       = _Wherenode;

  001dd	89 0e		 mov	 DWORD PTR [esi], ecx
$LN52@Insert_nod:

; 668  :             }
; 669  :         }
; 670  : 
; 671  :         for (_Nodeptr _Pnode = _Newnode; _Pnode->_Parent->_Color == _Red;) {

  001df	89 71 04	 mov	 DWORD PTR [ecx+4], esi
$LN46@Insert_nod:
  001e2	8b 42 04	 mov	 eax, DWORD PTR [edx+4]
  001e5	80 78 0c 00	 cmp	 BYTE PTR [eax+12], 0
  001e9	0f 84 71 fe ff
	ff		 je	 $LL2@Insert_nod
  001ef	8b 4d f8	 mov	 ecx, DWORD PTR __Head$1$[ebp]
  001f2	5f		 pop	 edi
  001f3	5e		 pop	 esi
  001f4	5b		 pop	 ebx
$LN3@Insert_nod:

; 705  :                 }
; 706  :             }
; 707  :         }
; 708  : 
; 709  :         _Head->_Parent->_Color = _Black; // root is always black

  001f5	8b 41 04	 mov	 eax, DWORD PTR [ecx+4]
  001f8	c6 40 0c 01	 mov	 BYTE PTR [eax+12], 1

; 710  :         return _Newnode;

  001fc	8b 45 10	 mov	 eax, DWORD PTR __Newnode$[ebp]

; 711  :     }

  001ff	8b e5		 mov	 esp, ebp
  00201	5d		 pop	 ebp
  00202	c2 0c 00	 ret	 12			; 0000000cH
?_Insert_node@?$_Tree_val@U?$_Tree_simple_types@U?$pair@$$CBKPAVCItemData@@@std@@@std@@@std@@QAEPAU?$_Tree_node@U?$pair@$$CBKPAVCItemData@@@std@@PAX@2@U?$_Tree_id@PAU?$_Tree_node@U?$pair@$$CBKPAVCItemData@@@std@@PAX@std@@@2@QAU32@@Z ENDP ; std::_Tree_val<std::_Tree_simple_types<std::pair<unsigned long const ,CItemData *> > >::_Insert_node
_TEXT	ENDS
; Function compile flags: /Ogtp
; File D:\visual studio 2019\visual studio 2019\VC\Tools\MSVC\14.29.30133\include\xtree
; File D:\visual studio 2019\visual studio 2019\VC\Tools\MSVC\14.29.30133\include\utility
; File D:\visual studio 2019\visual studio 2019\VC\Tools\MSVC\14.29.30133\include\xmemory
; File D:\visual studio 2019\visual studio 2019\VC\Tools\MSVC\14.29.30133\include\xtree
; File D:\visual studio 2019\visual studio 2019\VC\Tools\MSVC\14.29.30133\include\xmemory
; File D:\visual studio 2019\visual studio 2019\VC\Tools\MSVC\14.29.30133\include\xtree
;	COMDAT ??1?$_Tree@V?$_Tmap_traits@KPAVCItemData@@U?$less@K@std@@V?$allocator@U?$pair@$$CBKPAVCItemData@@@std@@@3@$0A@@std@@@std@@QAE@XZ
_TEXT	SEGMENT
??1?$_Tree@V?$_Tmap_traits@KPAVCItemData@@U?$less@K@std@@V?$allocator@U?$pair@$$CBKPAVCItemData@@@std@@@3@$0A@@std@@@std@@QAE@XZ PROC ; std::_Tree<std::_Tmap_traits<unsigned long,CItemData *,std::less<unsigned long>,std::allocator<std::pair<unsigned long const ,CItemData *> >,0> >::~_Tree<std::_Tmap_traits<unsigned long,CItemData *,std::less<unsigned long>,std::allocator<std::pair<unsigned long const ,CItemData *> >,0> >, COMDAT
; _this$ = ecx

; 1084 :     ~_Tree() noexcept {

  00000	56		 push	 esi
  00001	57		 push	 edi
  00002	8b f9		 mov	 edi, ecx

; 752  :         _Erase_tree(_Al, _Myhead->_Parent);

  00004	8b 07		 mov	 eax, DWORD PTR [edi]
  00006	8b 70 04	 mov	 esi, DWORD PTR [eax+4]

; 743  :         while (!_Rootnode->_Isnil) { // free subtrees, then node

  00009	80 7e 0d 00	 cmp	 BYTE PTR [esi+13], 0
  0000d	75 23		 jne	 SHORT $LN7@Tree
  0000f	90		 npad	 1
$LL6@Tree:

; 744  :             _Erase_tree(_Al, _Rootnode->_Right);

  00010	ff 76 08	 push	 DWORD PTR [esi+8]
  00013	8b cf		 mov	 ecx, edi
  00015	57		 push	 edi
  00016	e8 00 00 00 00	 call	 ??$_Erase_tree@V?$allocator@U?$_Tree_node@U?$pair@$$CBKPAVCItemData@@@std@@PAX@std@@@std@@@?$_Tree_val@U?$_Tree_simple_types@U?$pair@$$CBKPAVCItemData@@@std@@@std@@@std@@QAEXAAV?$allocator@U?$_Tree_node@U?$pair@$$CBKPAVCItemData@@@std@@PAX@std@@@1@PAU?$_Tree_node@U?$pair@$$CBKPAVCItemData@@@std@@PAX@1@@Z ; std::_Tree_val<std::_Tree_simple_types<std::pair<unsigned long const ,CItemData *> > >::_Erase_tree<std::allocator<std::_Tree_node<std::pair<unsigned long const ,CItemData *>,void *> > >
; File D:\visual studio 2019\visual studio 2019\VC\Tools\MSVC\14.29.30133\include\utility

; 602  :     _Ty _Old_val = static_cast<_Ty&&>(_Val);

  0001b	8b c6		 mov	 eax, esi

; 603  :     _Val         = static_cast<_Other&&>(_New_val);

  0001d	8b 36		 mov	 esi, DWORD PTR [esi]
; File D:\visual studio 2019\visual studio 2019\VC\Tools\MSVC\14.29.30133\include\xmemory

; 255  :         ::operator delete(_Ptr, _Bytes);

  0001f	6a 18		 push	 24			; 00000018H
  00021	50		 push	 eax
  00022	e8 00 00 00 00	 call	 ??3@YAXPAXI@Z		; operator delete
  00027	83 c4 08	 add	 esp, 8
; File D:\visual studio 2019\visual studio 2019\VC\Tools\MSVC\14.29.30133\include\xtree

; 743  :         while (!_Rootnode->_Isnil) { // free subtrees, then node

  0002a	80 7e 0d 00	 cmp	 BYTE PTR [esi+13], 0
  0002e	74 e0		 je	 SHORT $LL6@Tree
; File D:\visual studio 2019\visual studio 2019\VC\Tools\MSVC\14.29.30133\include\xmemory

; 165  :     _Ptr = reinterpret_cast<void*>(_Ptr_container);

  00030	8b 07		 mov	 eax, DWORD PTR [edi]
$LN7@Tree:

; 255  :         ::operator delete(_Ptr, _Bytes);

  00032	6a 18		 push	 24			; 00000018H
  00034	50		 push	 eax
  00035	e8 00 00 00 00	 call	 ??3@YAXPAXI@Z		; operator delete
  0003a	83 c4 08	 add	 esp, 8
  0003d	5f		 pop	 edi
  0003e	5e		 pop	 esi
; File D:\visual studio 2019\visual studio 2019\VC\Tools\MSVC\14.29.30133\include\xtree

; 1091 :     }

  0003f	c3		 ret	 0
??1?$_Tree@V?$_Tmap_traits@KPAVCItemData@@U?$less@K@std@@V?$allocator@U?$pair@$$CBKPAVCItemData@@@std@@@3@$0A@@std@@@std@@QAE@XZ ENDP ; std::_Tree<std::_Tmap_traits<unsigned long,CItemData *,std::less<unsigned long>,std::allocator<std::pair<unsigned long const ,CItemData *> >,0> >::~_Tree<std::_Tmap_traits<unsigned long,CItemData *,std::less<unsigned long>,std::allocator<std::pair<unsigned long const ,CItemData *> >,0> >
_TEXT	ENDS
; Function compile flags: /Ogtp
; File C:\Users\ALEXANDER\Desktop\Cliente\COPY_FISH_WON_NEW\Binario\Client\GameLib\ItemManager.cpp
; File D:\visual studio 2019\visual studio 2019\VC\Tools\MSVC\14.29.30133\include\vector
; File C:\Users\ALEXANDER\Desktop\Cliente\COPY_FISH_WON_NEW\Binario\Client\GameLib\ItemManager.cpp
; File D:\visual studio 2019\visual studio 2019\VC\Tools\MSVC\14.29.30133\include\vector
; File C:\Users\ALEXANDER\Desktop\Cliente\COPY_FISH_WON_NEW\Binario\Client\GameLib\ItemManager.cpp
; File D:\visual studio 2019\visual studio 2019\VC\Tools\MSVC\14.29.30133\include\xstring
; File C:\Users\ALEXANDER\Desktop\Cliente\COPY_FISH_WON_NEW\Binario\Client\GameLib\ItemManager.cpp
; File D:\visual studio 2019\visual studio 2019\VC\Tools\MSVC\14.29.30133\include\vector
; File C:\Users\ALEXANDER\Desktop\Cliente\COPY_FISH_WON_NEW\Binario\Client\GameLib\ItemManager.cpp
; File D:\visual studio 2019\visual studio 2019\VC\Tools\MSVC\14.29.30133\include\vector
; File D:\visual studio 2019\visual studio 2019\VC\Tools\MSVC\14.29.30133\include\xstring
; File C:\Users\ALEXANDER\Desktop\Cliente\COPY_FISH_WON_NEW\Binario\Client\GameLib\ItemManager.cpp
; File D:\visual studio 2019\visual studio 2019\VC\Tools\MSVC\14.29.30133\include\vector
; File C:\Users\ALEXANDER\Desktop\Cliente\COPY_FISH_WON_NEW\Binario\Client\GameLib\ItemManager.cpp
; File D:\visual studio 2019\visual studio 2019\VC\Tools\MSVC\14.29.30133\include\vector
; File D:\visual studio 2019\visual studio 2019\VC\Tools\MSVC\14.29.30133\include\xmemory
; File D:\visual studio 2019\visual studio 2019\VC\Tools\MSVC\14.29.30133\include\xstring
; File D:\visual studio 2019\visual studio 2019\VC\Tools\MSVC\14.29.30133\include\xmemory
; File D:\visual studio 2019\visual studio 2019\VC\Tools\MSVC\14.29.30133\include\xstring
; File D:\visual studio 2019\visual studio 2019\VC\Tools\MSVC\14.29.30133\include\xmemory
; File D:\visual studio 2019\visual studio 2019\VC\Tools\MSVC\14.29.30133\include\xstring
; File D:\visual studio 2019\visual studio 2019\VC\Tools\MSVC\14.29.30133\include\xmemory
; File D:\visual studio 2019\visual studio 2019\VC\Tools\MSVC\14.29.30133\include\vector
; File D:\visual studio 2019\visual studio 2019\VC\Tools\MSVC\14.29.30133\include\xmemory
; File D:\visual studio 2019\visual studio 2019\VC\Tools\MSVC\14.29.30133\include\vector
; File C:\Users\ALEXANDER\Desktop\Cliente\COPY_FISH_WON_NEW\Binario\Client\GameLib\ItemManager.cpp
; File D:\visual studio 2019\visual studio 2019\VC\Tools\MSVC\14.29.30133\include\xmemory
; File C:\Users\ALEXANDER\Desktop\Cliente\COPY_FISH_WON_NEW\Binario\Client\GameLib\ItemManager.cpp
;	COMDAT ?LoadShiningTable@CItemManager@@QAE_NPBD@Z
_TEXT	SEGMENT
_textFileLoader$ = -392					; size = 16
_szShiningTable$GSCopy$1$ = -376			; size = 4
_pItemData$1$ = -372					; size = 4
_this$GSCopy$1$ = -368					; size = 4
_pData$ = -364						; size = 4
_i$1$ = -360						; size = 4
_i$2 = -356						; size = 1
_TokenVector$ = -352					; size = 12
_File$ = -340						; size = 324
__$ArrayPad$ = -16					; size = 4
__$EHRec$ = -12						; size = 12
_szShiningTable$ = 8					; size = 4
?LoadShiningTable@CItemManager@@QAE_NPBD@Z PROC		; CItemManager::LoadShiningTable, COMDAT
; _this$ = ecx

; 476  : {

  00000	55		 push	 ebp
  00001	8b ec		 mov	 ebp, esp
  00003	6a ff		 push	 -1
  00005	68 00 00 00 00	 push	 __ehhandler$?LoadShiningTable@CItemManager@@QAE_NPBD@Z
  0000a	64 a1 00 00 00
	00		 mov	 eax, DWORD PTR fs:0
  00010	50		 push	 eax
  00011	81 ec 7c 01 00
	00		 sub	 esp, 380		; 0000017cH
  00017	a1 00 00 00 00	 mov	 eax, DWORD PTR ___security_cookie
  0001c	33 c5		 xor	 eax, ebp
  0001e	89 45 f0	 mov	 DWORD PTR __$ArrayPad$[ebp], eax
  00021	53		 push	 ebx
  00022	56		 push	 esi
  00023	57		 push	 edi
  00024	50		 push	 eax
  00025	8d 45 f4	 lea	 eax, DWORD PTR __$EHRec$[ebp]
  00028	64 a3 00 00 00
	00		 mov	 DWORD PTR fs:0, eax
  0002e	89 8d 90 fe ff
	ff		 mov	 DWORD PTR _this$GSCopy$1$[ebp], ecx
  00034	8b 7d 08	 mov	 edi, DWORD PTR _szShiningTable$[ebp]

; 477  : 	CMappedFile File;

  00037	8d 8d ac fe ff
	ff		 lea	 ecx, DWORD PTR _File$[ebp]
  0003d	89 bd 88 fe ff
	ff		 mov	 DWORD PTR _szShiningTable$GSCopy$1$[ebp], edi
  00043	e8 00 00 00 00	 call	 ??0CMappedFile@@QAE@XZ	; CMappedFile::CMappedFile

; 478  : 	LPCVOID pData;
; 479  : 
; 480  : 	if (!CEterPackManager::Instance().Get(File, szShiningTable, &pData))

  00048	8b 0d 00 00 00
	00		 mov	 ecx, DWORD PTR ?ms_singleton@?$CSingleton@VCEterPackManager@@@@0PAVCEterPackManager@@A ; CSingleton<CEterPackManager>::ms_singleton
  0004e	8d 85 94 fe ff
	ff		 lea	 eax, DWORD PTR _pData$[ebp]
  00054	50		 push	 eax
  00055	57		 push	 edi
  00056	8d 85 ac fe ff
	ff		 lea	 eax, DWORD PTR _File$[ebp]
  0005c	c7 45 fc 00 00
	00 00		 mov	 DWORD PTR __$EHRec$[ebp+8], 0
  00063	50		 push	 eax
  00064	e8 00 00 00 00	 call	 ?Get@CEterPackManager@@QAE_NAAVCMappedFile@@PBDPAPBX@Z ; CEterPackManager::Get
  00069	84 c0		 test	 al, al
  0006b	75 07		 jne	 SHORT $LN8@LoadShinin
  0006d	32 db		 xor	 bl, bl
  0006f	e9 5b 02 00 00	 jmp	 $LN18@LoadShinin
$LN8@LoadShinin:

; 481  : 		return false;
; 482  : 
; 483  : 	CMemoryTextFileLoader textFileLoader;

  00074	8d 8d 78 fe ff
	ff		 lea	 ecx, DWORD PTR _textFileLoader$[ebp]
  0007a	e8 00 00 00 00	 call	 ??0CMemoryTextFileLoader@@QAE@XZ ; CMemoryTextFileLoader::CMemoryTextFileLoader

; 484  : 	textFileLoader.Bind(File.Size(), pData);

  0007f	ff b5 94 fe ff
	ff		 push	 DWORD PTR _pData$[ebp]
  00085	8d 8d ac fe ff
	ff		 lea	 ecx, DWORD PTR _File$[ebp]
  0008b	c6 45 fc 01	 mov	 BYTE PTR __$EHRec$[ebp+8], 1
  0008f	e8 00 00 00 00	 call	 ?Size@CMappedFile@@QAEKXZ ; CMappedFile::Size
  00094	50		 push	 eax
  00095	8d 8d 78 fe ff
	ff		 lea	 ecx, DWORD PTR _textFileLoader$[ebp]
  0009b	e8 00 00 00 00	 call	 ?Bind@CMemoryTextFileLoader@@QAEXHPBX@Z ; CMemoryTextFileLoader::Bind
; File D:\visual studio 2019\visual studio 2019\VC\Tools\MSVC\14.29.30133\include\vector

; 390  :     _CONSTEXPR20_CONTAINER _Vector_val() noexcept : _Myfirst(), _Mylast(), _Myend() {}

  000a0	c7 85 a0 fe ff
	ff 00 00 00 00	 mov	 DWORD PTR _TokenVector$[ebp], 0
  000aa	c7 85 a4 fe ff
	ff 00 00 00 00	 mov	 DWORD PTR _TokenVector$[ebp+4], 0
  000b4	c7 85 a8 fe ff
	ff 00 00 00 00	 mov	 DWORD PTR _TokenVector$[ebp+8], 0
; File C:\Users\ALEXANDER\Desktop\Cliente\COPY_FISH_WON_NEW\Binario\Client\GameLib\ItemManager.cpp

; 487  : 	for (DWORD i = 0; i < textFileLoader.GetLineCount(); ++i)

  000be	33 db		 xor	 ebx, ebx
  000c0	c6 45 fc 02	 mov	 BYTE PTR __$EHRec$[ebp+8], 2
  000c4	8d 8d 78 fe ff
	ff		 lea	 ecx, DWORD PTR _textFileLoader$[ebp]
  000ca	89 9d 98 fe ff
	ff		 mov	 DWORD PTR _i$1$[ebp], ebx
  000d0	e8 00 00 00 00	 call	 ?GetLineCount@CMemoryTextFileLoader@@QAEKXZ ; CMemoryTextFileLoader::GetLineCount
  000d5	85 c0		 test	 eax, eax
  000d7	0f 84 1b 01 00
	00		 je	 $LN3@LoadShinin
  000dd	0f 1f 00	 npad	 3
$LL4@LoadShinin:

; 488  : 	{
; 489  : 		if (!textFileLoader.SplitLine(i, &TokenVector, "\t"))

  000e0	68 00 00 00 00	 push	 OFFSET ??_C@_01GPOEFGEJ@?7@
  000e5	8d 85 a0 fe ff
	ff		 lea	 eax, DWORD PTR _TokenVector$[ebp]
  000eb	50		 push	 eax
  000ec	53		 push	 ebx
  000ed	8d 8d 78 fe ff
	ff		 lea	 ecx, DWORD PTR _textFileLoader$[ebp]
  000f3	e8 00 00 00 00	 call	 ?SplitLine@CMemoryTextFileLoader@@QAE_NKPAV?$vector@V?$basic_string@DU?$char_traits@D@std@@V?$allocator@D@2@@std@@V?$allocator@V?$basic_string@DU?$char_traits@D@std@@V?$allocator@D@2@@std@@@2@@std@@PBD@Z ; CMemoryTextFileLoader::SplitLine
  000f8	84 c0		 test	 al, al
  000fa	0f 84 de 00 00
	00		 je	 $LN2@LoadShinin
; File D:\visual studio 2019\visual studio 2019\VC\Tools\MSVC\14.29.30133\include\vector

; 1536 :         return static_cast<size_type>(_My_data._Mylast - _My_data._Myfirst);

  00100	8b 8d a4 fe ff
	ff		 mov	 ecx, DWORD PTR _TokenVector$[ebp+4]
  00106	b8 ab aa aa 2a	 mov	 eax, 715827883		; 2aaaaaabH
  0010b	8b b5 a0 fe ff
	ff		 mov	 esi, DWORD PTR _TokenVector$[ebp]
  00111	2b ce		 sub	 ecx, esi
  00113	f7 e9		 imul	 ecx
  00115	c1 fa 02	 sar	 edx, 2
  00118	8b c2		 mov	 eax, edx
  0011a	c1 e8 1f	 shr	 eax, 31			; 0000001fH
  0011d	03 c2		 add	 eax, edx
; File C:\Users\ALEXANDER\Desktop\Cliente\COPY_FISH_WON_NEW\Binario\Client\GameLib\ItemManager.cpp

; 492  : 		if (TokenVector.size() > (1 + CItemData::ITEM_SHINING_MAX_COUNT))

  0011f	83 f8 06	 cmp	 eax, 6
  00122	76 18		 jbe	 SHORT $LN10@LoadShinin

; 493  : 		{
; 494  : 			TraceError("CItemManager::LoadShiningTable(%s) - LoadShiningTable in %d\n - RowSize: %d MaxRowSize: %d", szShiningTable, i, TokenVector.size(), CItemData::ITEM_SHINING_MAX_COUNT);

  00124	6a 05		 push	 5
  00126	50		 push	 eax
  00127	53		 push	 ebx
  00128	57		 push	 edi
  00129	68 00 00 00 00	 push	 OFFSET ??_C@_0FK@BGOPJJIB@CItemManager?3?3LoadShiningTable?$CI@
  0012e	e8 00 00 00 00	 call	 ?TraceError@@YAXPBDZZ	; TraceError
  00133	8b b5 a0 fe ff
	ff		 mov	 esi, DWORD PTR _TokenVector$[ebp]
  00139	83 c4 14	 add	 esp, 20			; 00000014H
$LN10@LoadShinin:
; File D:\visual studio 2019\visual studio 2019\VC\Tools\MSVC\14.29.30133\include\xstring

; 2286 :         return _BUF_SIZE <= _Myres;

  0013c	83 7e 14 10	 cmp	 DWORD PTR [esi+20], 16	; 00000010H

; 2273 :         if (_Large_string_engaged()) {

  00140	72 02		 jb	 SHORT $LN34@LoadShinin

; 2274 :             _Result = _Unfancy(_Bx._Ptr);

  00142	8b 36		 mov	 esi, DWORD PTR [esi]
$LN34@LoadShinin:
; File C:\Users\ALEXANDER\Desktop\Cliente\COPY_FISH_WON_NEW\Binario\Client\GameLib\ItemManager.cpp

; 498  : 		DWORD dwItemVNum = atoi(c_rstrID.c_str());

  00144	56		 push	 esi
  00145	e8 00 00 00 00	 call	 __atoi64

; 499  : 
; 500  : 		CItemData* pItemData = MakeItemData(dwItemVNum);

  0014a	8b 8d 90 fe ff
	ff		 mov	 ecx, DWORD PTR _this$GSCopy$1$[ebp]
  00150	83 c4 04	 add	 esp, 4
  00153	50		 push	 eax
  00154	e8 00 00 00 00	 call	 ?MakeItemData@CItemManager@@QAEPAVCItemData@@K@Z ; CItemManager::MakeItemData
  00159	89 85 8c fe ff
	ff		 mov	 DWORD PTR _pItemData$1$[ebp], eax

; 501  : 		if (pItemData)

  0015f	85 c0		 test	 eax, eax
  00161	0f 84 77 00 00
	00		 je	 $LN2@LoadShinin

; 502  : 		{
; 503  : 			for (BYTE i = 0; i < CItemData::ITEM_SHINING_MAX_COUNT; i++)

  00167	32 db		 xor	 bl, bl
  00169	33 ff		 xor	 edi, edi
  0016b	88 9d 9c fe ff
	ff		 mov	 BYTE PTR _i$2[ebp], bl
  00171	33 f6		 xor	 esi, esi
$LL7@LoadShinin:
; File D:\visual studio 2019\visual studio 2019\VC\Tools\MSVC\14.29.30133\include\vector

; 1536 :         return static_cast<size_type>(_My_data._Mylast - _My_data._Myfirst);

  00173	8b 8d a4 fe ff
	ff		 mov	 ecx, DWORD PTR _TokenVector$[ebp+4]
  00179	b8 ab aa aa 2a	 mov	 eax, 715827883		; 2aaaaaabH
  0017e	2b 8d a0 fe ff
	ff		 sub	 ecx, DWORD PTR _TokenVector$[ebp]
  00184	f7 e9		 imul	 ecx
  00186	c1 fa 02	 sar	 edx, 2
  00189	8b c2		 mov	 eax, edx
  0018b	c1 e8 1f	 shr	 eax, 31			; 0000001fH
; File C:\Users\ALEXANDER\Desktop\Cliente\COPY_FISH_WON_NEW\Binario\Client\GameLib\ItemManager.cpp

; 505  : 				if (i < (TokenVector.size() - 1))

  0018e	48		 dec	 eax
  0018f	03 c2		 add	 eax, edx
  00191	3b f8		 cmp	 edi, eax
  00193	73 15		 jae	 SHORT $LN12@LoadShinin
; File D:\visual studio 2019\visual studio 2019\VC\Tools\MSVC\14.29.30133\include\vector

; 1556 :         return _My_data._Myfirst[_Pos];

  00195	8b 85 a0 fe ff
	ff		 mov	 eax, DWORD PTR _TokenVector$[ebp]
  0019b	83 c0 18	 add	 eax, 24			; 00000018H
  0019e	03 c6		 add	 eax, esi
; File D:\visual studio 2019\visual studio 2019\VC\Tools\MSVC\14.29.30133\include\xstring

; 2286 :         return _BUF_SIZE <= _Myres;

  001a0	83 78 14 10	 cmp	 DWORD PTR [eax+20], 16	; 00000010H

; 2273 :         if (_Large_string_engaged()) {

  001a4	72 09		 jb	 SHORT $LN5@LoadShinin

; 2274 :             _Result = _Unfancy(_Bx._Ptr);

  001a6	8b 00		 mov	 eax, DWORD PTR [eax]
; File C:\Users\ALEXANDER\Desktop\Cliente\COPY_FISH_WON_NEW\Binario\Client\GameLib\ItemManager.cpp

; 509  : 				}

  001a8	eb 05		 jmp	 SHORT $LN5@LoadShinin
$LN12@LoadShinin:

; 510  : 				else
; 511  : 				{
; 512  : 					pItemData->SetItemShiningTableData(i, "");

  001aa	b8 00 00 00 00	 mov	 eax, OFFSET ??_C@_00CNPNBAHC@@
$LN5@LoadShinin:

; 502  : 		{
; 503  : 			for (BYTE i = 0; i < CItemData::ITEM_SHINING_MAX_COUNT; i++)

  001af	8b 8d 8c fe ff
	ff		 mov	 ecx, DWORD PTR _pItemData$1$[ebp]
  001b5	50		 push	 eax
  001b6	ff b5 9c fe ff
	ff		 push	 DWORD PTR _i$2[ebp]
  001bc	e8 00 00 00 00	 call	 ?SetItemShiningTableData@CItemData@@QAEXEPBD@Z ; CItemData::SetItemShiningTableData
  001c1	fe c3		 inc	 bl
  001c3	47		 inc	 edi
  001c4	83 c6 18	 add	 esi, 24			; 00000018H
  001c7	88 9d 9c fe ff
	ff		 mov	 BYTE PTR _i$2[ebp], bl
  001cd	80 fb 05	 cmp	 bl, 5
  001d0	72 a1		 jb	 SHORT $LL7@LoadShinin
  001d2	8b 9d 98 fe ff
	ff		 mov	 ebx, DWORD PTR _i$1$[ebp]
  001d8	8b bd 88 fe ff
	ff		 mov	 edi, DWORD PTR _szShiningTable$GSCopy$1$[ebp]
$LN2@LoadShinin:

; 487  : 	for (DWORD i = 0; i < textFileLoader.GetLineCount(); ++i)

  001de	43		 inc	 ebx
  001df	8d 8d 78 fe ff
	ff		 lea	 ecx, DWORD PTR _textFileLoader$[ebp]
  001e5	89 9d 98 fe ff
	ff		 mov	 DWORD PTR _i$1$[ebp], ebx
  001eb	e8 00 00 00 00	 call	 ?GetLineCount@CMemoryTextFileLoader@@QAEKXZ ; CMemoryTextFileLoader::GetLineCount
  001f0	3b d8		 cmp	 ebx, eax
  001f2	0f 82 e8 fe ff
	ff		 jb	 $LL4@LoadShinin
$LN3@LoadShinin:
; File D:\visual studio 2019\visual studio 2019\VC\Tools\MSVC\14.29.30133\include\vector

; 1750 :         if (_Myfirst) { // destroy and deallocate old array

  001f8	8b b5 a0 fe ff
	ff		 mov	 esi, DWORD PTR _TokenVector$[ebp]
; File C:\Users\ALEXANDER\Desktop\Cliente\COPY_FISH_WON_NEW\Binario\Client\GameLib\ItemManager.cpp

; 518  : 	return true;

  001fe	b3 01		 mov	 bl, 1
; File D:\visual studio 2019\visual studio 2019\VC\Tools\MSVC\14.29.30133\include\vector

; 1750 :         if (_Myfirst) { // destroy and deallocate old array

  00200	85 f6		 test	 esi, esi
  00202	0f 84 bc 00 00
	00		 je	 $LN52@LoadShinin

; 1751 :             _Destroy(_Myfirst, _Mylast);

  00208	8b bd a4 fe ff
	ff		 mov	 edi, DWORD PTR _TokenVector$[ebp+4]

; 1667 :         _Destroy_range(_First, _Last, _Getal());

  0020e	3b f7		 cmp	 esi, edi
; File D:\visual studio 2019\visual studio 2019\VC\Tools\MSVC\14.29.30133\include\xmemory

; 904  :         for (; _First != _Last; ++_First) {

  00210	74 51		 je	 SHORT $LN58@LoadShinin
$LL59@LoadShinin:
; File D:\visual studio 2019\visual studio 2019\VC\Tools\MSVC\14.29.30133\include\xstring

; 2286 :         return _BUF_SIZE <= _Myres;

  00212	8b 4e 14	 mov	 ecx, DWORD PTR [esi+20]
  00215	83 f9 10	 cmp	 ecx, 16			; 00000010H

; 4584 :         if (_Mypair._Myval2._Large_string_engaged()) {

  00218	72 2b		 jb	 SHORT $LN78@LoadShinin
; File D:\visual studio 2019\visual studio 2019\VC\Tools\MSVC\14.29.30133\include\xmemory

; 797  :         _Deallocate<_New_alignof<_Ty>>(_Ptr, sizeof(_Ty) * _Count);

  0021a	8b 06		 mov	 eax, DWORD PTR [esi]
; File D:\visual studio 2019\visual studio 2019\VC\Tools\MSVC\14.29.30133\include\xstring

; 4588 :             _Al.deallocate(_Ptr, _Mypair._Myval2._Myres + 1);

  0021c	41		 inc	 ecx
; File D:\visual studio 2019\visual studio 2019\VC\Tools\MSVC\14.29.30133\include\xmemory

; 251  :         if (_Bytes >= _Big_allocation_threshold) { // boost the alignment of big allocations to help autovectorization

  0021d	81 f9 00 10 00
	00		 cmp	 ecx, 4096		; 00001000H
  00223	72 16		 jb	 SHORT $LN88@LoadShinin

; 150  :     const uintptr_t _Ptr_container   = _Ptr_user[-1];

  00225	8b 50 fc	 mov	 edx, DWORD PTR [eax-4]
  00228	83 c1 23	 add	 ecx, 35			; 00000023H

; 151  : 
; 152  :     // If the following asserts, it likely means that we are performing
; 153  :     // an aligned delete on memory coming from an unaligned allocation.
; 154  :     _STL_ASSERT(_Ptr_user[-2] == _Big_allocation_sentinel, "invalid argument");
; 155  : 
; 156  :     // Extra paranoia on aligned allocation/deallocation; ensure _Ptr_container is
; 157  :     // in range [_Min_back_shift, _Non_user_size]
; 158  : #ifdef _DEBUG
; 159  :     constexpr uintptr_t _Min_back_shift = 2 * sizeof(void*);
; 160  : #else // ^^^ _DEBUG ^^^ // vvv !_DEBUG vvv
; 161  :     constexpr uintptr_t _Min_back_shift = sizeof(void*);
; 162  : #endif // _DEBUG
; 163  :     const uintptr_t _Back_shift = reinterpret_cast<uintptr_t>(_Ptr) - _Ptr_container;

  0022b	2b c2		 sub	 eax, edx

; 164  :     _STL_VERIFY(_Back_shift >= _Min_back_shift && _Back_shift <= _Non_user_size, "invalid argument");

  0022d	83 c0 fc	 add	 eax, -4			; fffffffcH
  00230	83 f8 1f	 cmp	 eax, 31			; 0000001fH
  00233	0f 87 c1 00 00
	00		 ja	 $LN109@LoadShinin

; 165  :     _Ptr = reinterpret_cast<void*>(_Ptr_container);

  00239	8b c2		 mov	 eax, edx
$LN88@LoadShinin:

; 255  :         ::operator delete(_Ptr, _Bytes);

  0023b	51		 push	 ecx
  0023c	50		 push	 eax
  0023d	e8 00 00 00 00	 call	 ??3@YAXPAXI@Z		; operator delete
  00242	83 c4 08	 add	 esp, 8
$LN78@LoadShinin:
; File D:\visual studio 2019\visual studio 2019\VC\Tools\MSVC\14.29.30133\include\xstring

; 4599 :             _Mypair._Myval2._Mysize = 0;

  00245	c7 46 10 00 00
	00 00		 mov	 DWORD PTR [esi+16], 0

; 4600 :             _Mypair._Myval2._Myres  = _BUF_SIZE - 1;

  0024c	c7 46 14 0f 00
	00 00		 mov	 DWORD PTR [esi+20], 15	; 0000000fH

; 4601 :             // the _Traits::assign is last so the codegen doesn't think the char write can alias this
; 4602 :             _Traits::assign(_Mypair._Myval2._Bx._Buf[0], _Elem());

  00253	c6 06 00	 mov	 BYTE PTR [esi], 0
; File D:\visual studio 2019\visual studio 2019\VC\Tools\MSVC\14.29.30133\include\xmemory

; 904  :         for (; _First != _Last; ++_First) {

  00256	83 c6 18	 add	 esi, 24			; 00000018H
  00259	3b f7		 cmp	 esi, edi
  0025b	75 b5		 jne	 SHORT $LL59@LoadShinin
  0025d	8b b5 a0 fe ff
	ff		 mov	 esi, DWORD PTR _TokenVector$[ebp]
$LN58@LoadShinin:
; File D:\visual studio 2019\visual studio 2019\VC\Tools\MSVC\14.29.30133\include\vector

; 1752 :             _Getal().deallocate(_Myfirst, static_cast<size_type>(_Myend - _Myfirst));

  00263	8b 8d a8 fe ff
	ff		 mov	 ecx, DWORD PTR _TokenVector$[ebp+8]
  00269	b8 ab aa aa 2a	 mov	 eax, 715827883		; 2aaaaaabH
  0026e	2b ce		 sub	 ecx, esi
  00270	f7 e9		 imul	 ecx
  00272	c1 fa 02	 sar	 edx, 2
  00275	8b c2		 mov	 eax, edx
  00277	c1 e8 1f	 shr	 eax, 31			; 0000001fH
  0027a	03 c2		 add	 eax, edx
; File D:\visual studio 2019\visual studio 2019\VC\Tools\MSVC\14.29.30133\include\xmemory

; 797  :         _Deallocate<_New_alignof<_Ty>>(_Ptr, sizeof(_Ty) * _Count);

  0027c	8d 0c 40	 lea	 ecx, DWORD PTR [eax+eax*2]
  0027f	8b c6		 mov	 eax, esi
  00281	c1 e1 03	 shl	 ecx, 3

; 251  :         if (_Bytes >= _Big_allocation_threshold) { // boost the alignment of big allocations to help autovectorization

  00284	81 f9 00 10 00
	00		 cmp	 ecx, 4096		; 00001000H
  0028a	72 10		 jb	 SHORT $LN112@LoadShinin

; 150  :     const uintptr_t _Ptr_container   = _Ptr_user[-1];

  0028c	8b 76 fc	 mov	 esi, DWORD PTR [esi-4]
  0028f	83 c1 23	 add	 ecx, 35			; 00000023H
  00292	2b c6		 sub	 eax, esi

; 164  :     _STL_VERIFY(_Back_shift >= _Min_back_shift && _Back_shift <= _Non_user_size, "invalid argument");

  00294	83 c0 fc	 add	 eax, -4			; fffffffcH
  00297	83 f8 1f	 cmp	 eax, 31			; 0000001fH
  0029a	77 5e		 ja	 SHORT $LN109@LoadShinin
$LN112@LoadShinin:

; 255  :         ::operator delete(_Ptr, _Bytes);

  0029c	51		 push	 ecx
  0029d	56		 push	 esi
  0029e	e8 00 00 00 00	 call	 ??3@YAXPAXI@Z		; operator delete
  002a3	83 c4 08	 add	 esp, 8
; File D:\visual studio 2019\visual studio 2019\VC\Tools\MSVC\14.29.30133\include\vector

; 1754 :             _Myfirst = nullptr;

  002a6	c7 85 a0 fe ff
	ff 00 00 00 00	 mov	 DWORD PTR _TokenVector$[ebp], 0

; 1755 :             _Mylast  = nullptr;

  002b0	c7 85 a4 fe ff
	ff 00 00 00 00	 mov	 DWORD PTR _TokenVector$[ebp+4], 0

; 1756 :             _Myend   = nullptr;

  002ba	c7 85 a8 fe ff
	ff 00 00 00 00	 mov	 DWORD PTR _TokenVector$[ebp+8], 0
$LN52@LoadShinin:
; File C:\Users\ALEXANDER\Desktop\Cliente\COPY_FISH_WON_NEW\Binario\Client\GameLib\ItemManager.cpp

; 518  : 	return true;

  002c4	8d 8d 78 fe ff
	ff		 lea	 ecx, DWORD PTR _textFileLoader$[ebp]
  002ca	e8 00 00 00 00	 call	 ??1CMemoryTextFileLoader@@UAE@XZ ; CMemoryTextFileLoader::~CMemoryTextFileLoader
$LN18@LoadShinin:
  002cf	8d 8d ac fe ff
	ff		 lea	 ecx, DWORD PTR _File$[ebp]
  002d5	e8 00 00 00 00	 call	 ??1CMappedFile@@UAE@XZ	; CMappedFile::~CMappedFile
  002da	8a c3		 mov	 al, bl

; 519  : }

  002dc	8b 4d f4	 mov	 ecx, DWORD PTR __$EHRec$[ebp]
  002df	64 89 0d 00 00
	00 00		 mov	 DWORD PTR fs:0, ecx
  002e6	59		 pop	 ecx
  002e7	5f		 pop	 edi
  002e8	5e		 pop	 esi
  002e9	5b		 pop	 ebx
  002ea	8b 4d f0	 mov	 ecx, DWORD PTR __$ArrayPad$[ebp]
  002ed	33 cd		 xor	 ecx, ebp
  002ef	e8 00 00 00 00	 call	 @__security_check_cookie@4
  002f4	8b e5		 mov	 esp, ebp
  002f6	5d		 pop	 ebp
  002f7	c2 04 00	 ret	 4
$LN109@LoadShinin:
; File D:\visual studio 2019\visual studio 2019\VC\Tools\MSVC\14.29.30133\include\xmemory

; 164  :     _STL_VERIFY(_Back_shift >= _Min_back_shift && _Back_shift <= _Non_user_size, "invalid argument");

  002fa	e8 00 00 00 00	 call	 __invalid_parameter_noinfo_noreturn
$LN130@LoadShinin:
  002ff	cc		 int	 3
_TEXT	ENDS
;	COMDAT text$x
text$x	SEGMENT
__unwindfunclet$?LoadShiningTable@CItemManager@@QAE_NPBD@Z$0:
  00000	8d 8d ac fe ff
	ff		 lea	 ecx, DWORD PTR _File$[ebp]
  00006	e9 00 00 00 00	 jmp	 ??1CMappedFile@@UAE@XZ	; CMappedFile::~CMappedFile
__unwindfunclet$?LoadShiningTable@CItemManager@@QAE_NPBD@Z$1:
  0000b	8d 8d 78 fe ff
	ff		 lea	 ecx, DWORD PTR _textFileLoader$[ebp]
  00011	e9 00 00 00 00	 jmp	 ??1CMemoryTextFileLoader@@UAE@XZ ; CMemoryTextFileLoader::~CMemoryTextFileLoader
__unwindfunclet$?LoadShiningTable@CItemManager@@QAE_NPBD@Z$2:
  00016	8d 8d a0 fe ff
	ff		 lea	 ecx, DWORD PTR _TokenVector$[ebp]
  0001c	e9 00 00 00 00	 jmp	 ??1?$vector@V?$basic_string@DU?$char_traits@D@std@@V?$allocator@D@2@@std@@V?$allocator@V?$basic_string@DU?$char_traits@D@std@@V?$allocator@D@2@@std@@@2@@std@@QAE@XZ ; std::vector<std::basic_string<char,std::char_traits<char>,std::allocator<char> >,std::allocator<std::basic_string<char,std::char_traits<char>,std::allocator<char> > > >::~vector<std::basic_string<char,std::char_traits<char>,std::allocator<char> >,std::allocator<std::basic_string<char,std::char_traits<char>,std::allocator<char> > > >
  00021	cc		 int	 3
  00022	cc		 int	 3
  00023	cc		 int	 3
  00024	cc		 int	 3
  00025	cc		 int	 3
__ehhandler$?LoadShiningTable@CItemManager@@QAE_NPBD@Z:
  00026	90		 npad	 1
  00027	90		 npad	 1
  00028	8b 54 24 08	 mov	 edx, DWORD PTR [esp+8]
  0002c	8d 42 0c	 lea	 eax, DWORD PTR [edx+12]
  0002f	8b 8a 74 fe ff
	ff		 mov	 ecx, DWORD PTR [edx-396]
  00035	33 c8		 xor	 ecx, eax
  00037	e8 00 00 00 00	 call	 @__security_check_cookie@4
  0003c	8b 4a fc	 mov	 ecx, DWORD PTR [edx-4]
  0003f	33 c8		 xor	 ecx, eax
  00041	e8 00 00 00 00	 call	 @__security_check_cookie@4
  00046	b8 00 00 00 00	 mov	 eax, OFFSET __ehfuncinfo$?LoadShiningTable@CItemManager@@QAE_NPBD@Z
  0004b	e9 00 00 00 00	 jmp	 ___CxxFrameHandler3
text$x	ENDS
?LoadShiningTable@CItemManager@@QAE_NPBD@Z ENDP		; CItemManager::LoadShiningTable
; Function compile flags: /Ogtp
; File C:\Users\ALEXANDER\Desktop\Cliente\COPY_FISH_WON_NEW\Binario\Client\GameLib\ItemManager.cpp
; File D:\visual studio 2019\visual studio 2019\VC\Tools\MSVC\14.29.30133\include\vector
; File C:\Users\ALEXANDER\Desktop\Cliente\COPY_FISH_WON_NEW\Binario\Client\GameLib\ItemManager.cpp
; File D:\visual studio 2019\visual studio 2019\VC\Tools\MSVC\14.29.30133\include\vector
; File C:\Users\ALEXANDER\Desktop\Cliente\COPY_FISH_WON_NEW\Binario\Client\GameLib\ItemManager.cpp
; File D:\visual studio 2019\visual studio 2019\VC\Tools\MSVC\14.29.30133\include\xstring
; File D:\visual studio 2019\visual studio 2019\VC\Tools\MSVC\14.29.30133\include\vector
; File D:\visual studio 2019\visual studio 2019\VC\Tools\MSVC\14.29.30133\include\xstring
; File C:\Users\ALEXANDER\Desktop\Cliente\COPY_FISH_WON_NEW\Binario\Client\GameLib\ItemManager.cpp
; File D:\visual studio 2019\visual studio 2019\VC\Tools\MSVC\14.29.30133\include\xstring
; File C:\Users\ALEXANDER\Desktop\Cliente\COPY_FISH_WON_NEW\Binario\Client\GameLib\ItemManager.cpp
; File D:\visual studio 2019\visual studio 2019\VC\Tools\MSVC\14.29.30133\include\xstring
; File C:\Users\ALEXANDER\Desktop\Cliente\COPY_FISH_WON_NEW\Binario\Client\GameLib\ItemManager.cpp
; File D:\visual studio 2019\visual studio 2019\VC\Tools\MSVC\14.29.30133\include\xstring
; File C:\Users\ALEXANDER\Desktop\Cliente\COPY_FISH_WON_NEW\Binario\Client\GameLib\ItemManager.cpp
; File D:\visual studio 2019\visual studio 2019\VC\Tools\MSVC\14.29.30133\include\xstring
; File C:\Users\ALEXANDER\Desktop\Cliente\COPY_FISH_WON_NEW\Binario\Client\GameLib\ItemManager.cpp
; File D:\visual studio 2019\visual studio 2019\VC\Tools\MSVC\14.29.30133\include\xstring
; File C:\Users\ALEXANDER\Desktop\Cliente\COPY_FISH_WON_NEW\Binario\Client\GameLib\ItemManager.cpp
; File D:\visual studio 2019\visual studio 2019\VC\Tools\MSVC\14.29.30133\include\xstring
; File C:\Users\ALEXANDER\Desktop\Cliente\COPY_FISH_WON_NEW\Binario\Client\GameLib\ItemManager.cpp
; File D:\visual studio 2019\visual studio 2019\VC\Tools\MSVC\14.29.30133\include\xstring
; File C:\Users\ALEXANDER\Desktop\Cliente\COPY_FISH_WON_NEW\Binario\Client\GameLib\ItemManager.cpp
; File D:\visual studio 2019\visual studio 2019\VC\Tools\MSVC\14.29.30133\include\xstring
; File C:\Users\ALEXANDER\Desktop\Cliente\COPY_FISH_WON_NEW\Binario\Client\GameLib\ItemManager.cpp
; File D:\visual studio 2019\visual studio 2019\VC\Tools\MSVC\14.29.30133\include\xstring
; File C:\Users\ALEXANDER\Desktop\Cliente\COPY_FISH_WON_NEW\Binario\Client\GameLib\ItemManager.cpp
; File D:\visual studio 2019\visual studio 2019\VC\Tools\MSVC\14.29.30133\include\xstring
; File C:\Users\ALEXANDER\Desktop\Cliente\COPY_FISH_WON_NEW\Binario\Client\GameLib\ItemManager.cpp
; File D:\visual studio 2019\visual studio 2019\VC\Tools\MSVC\14.29.30133\include\xstring
; File C:\Users\ALEXANDER\Desktop\Cliente\COPY_FISH_WON_NEW\Binario\Client\GameLib\ItemManager.cpp
; File D:\visual studio 2019\visual studio 2019\VC\Tools\MSVC\14.29.30133\include\xstring
; File C:\Users\ALEXANDER\Desktop\Cliente\COPY_FISH_WON_NEW\Binario\Client\GameLib\ItemManager.cpp
; File D:\visual studio 2019\visual studio 2019\VC\Tools\MSVC\14.29.30133\include\xstring
; File D:\visual studio 2019\visual studio 2019\VC\Tools\MSVC\14.29.30133\include\vector
; File D:\visual studio 2019\visual studio 2019\VC\Tools\MSVC\14.29.30133\include\xstring
; File C:\Users\ALEXANDER\Desktop\Cliente\COPY_FISH_WON_NEW\Binario\Client\GameLib\ItemManager.cpp
; File D:\visual studio 2019\visual studio 2019\VC\Tools\MSVC\14.29.30133\include\vector
; File C:\Users\ALEXANDER\Desktop\Cliente\COPY_FISH_WON_NEW\Binario\Client\GameLib\ItemManager.cpp
; File D:\visual studio 2019\visual studio 2019\VC\Tools\MSVC\14.29.30133\include\vector
; File D:\visual studio 2019\visual studio 2019\VC\Tools\MSVC\14.29.30133\include\xmemory
; File D:\visual studio 2019\visual studio 2019\VC\Tools\MSVC\14.29.30133\include\xstring
; File D:\visual studio 2019\visual studio 2019\VC\Tools\MSVC\14.29.30133\include\xmemory
; File D:\visual studio 2019\visual studio 2019\VC\Tools\MSVC\14.29.30133\include\xstring
; File D:\visual studio 2019\visual studio 2019\VC\Tools\MSVC\14.29.30133\include\xmemory
; File D:\visual studio 2019\visual studio 2019\VC\Tools\MSVC\14.29.30133\include\xstring
; File D:\visual studio 2019\visual studio 2019\VC\Tools\MSVC\14.29.30133\include\xmemory
; File D:\visual studio 2019\visual studio 2019\VC\Tools\MSVC\14.29.30133\include\vector
; File D:\visual studio 2019\visual studio 2019\VC\Tools\MSVC\14.29.30133\include\xmemory
; File D:\visual studio 2019\visual studio 2019\VC\Tools\MSVC\14.29.30133\include\vector
; File C:\Users\ALEXANDER\Desktop\Cliente\COPY_FISH_WON_NEW\Binario\Client\GameLib\ItemManager.cpp
; File D:\visual studio 2019\visual studio 2019\VC\Tools\MSVC\14.29.30133\include\xmemory
; File C:\Users\ALEXANDER\Desktop\Cliente\COPY_FISH_WON_NEW\Binario\Client\GameLib\ItemManager.cpp
;	COMDAT ?LoadItemScale@CItemManager@@QAE_NPBD@Z
_TEXT	SEGMENT
_textFileLoader$ = -416					; size = 16
_szItemScale$GSCopy$1$ = -400				; size = 4
_fScaleX$2 = -396					; size = 4
_bySex$3 = -392						; size = 1
_bJob$4 = -388						; size = 1
_pData$ = -384						; size = 4
_i$1$ = -380						; size = 4
_this$GSCopy$1$ = -376					; size = 4
__Result$1$ = -372					; size = 4
_fParticleScale$5 = -372				; size = 4
__Result$1$ = -368					; size = 4
_fScaleZ$6 = -368					; size = 4
__Result$1$ = -364					; size = 4
_fScaleY$7 = -364					; size = 4
_dwItemVnum$1$ = -360					; size = 4
_TokenVector$ = -356					; size = 12
_fParticleScale$1$ = -344				; size = 4
__Result$1$ = -344					; size = 4
_File$ = -340						; size = 324
__$ArrayPad$ = -16					; size = 4
__$EHRec$ = -12						; size = 12
_szItemScale$ = 8					; size = 4
?LoadItemScale@CItemManager@@QAE_NPBD@Z PROC		; CItemManager::LoadItemScale, COMDAT
; _this$ = ecx

; 408  : {

  00000	55		 push	 ebp
  00001	8b ec		 mov	 ebp, esp
  00003	6a ff		 push	 -1
  00005	68 00 00 00 00	 push	 __ehhandler$?LoadItemScale@CItemManager@@QAE_NPBD@Z
  0000a	64 a1 00 00 00
	00		 mov	 eax, DWORD PTR fs:0
  00010	50		 push	 eax
  00011	81 ec 94 01 00
	00		 sub	 esp, 404		; 00000194H
  00017	a1 00 00 00 00	 mov	 eax, DWORD PTR ___security_cookie
  0001c	33 c5		 xor	 eax, ebp
  0001e	89 45 f0	 mov	 DWORD PTR __$ArrayPad$[ebp], eax
  00021	53		 push	 ebx
  00022	56		 push	 esi
  00023	57		 push	 edi
  00024	50		 push	 eax
  00025	8d 45 f4	 lea	 eax, DWORD PTR __$EHRec$[ebp]
  00028	64 a3 00 00 00
	00		 mov	 DWORD PTR fs:0, eax
  0002e	89 8d 88 fe ff
	ff		 mov	 DWORD PTR _this$GSCopy$1$[ebp], ecx
  00034	8b 75 08	 mov	 esi, DWORD PTR _szItemScale$[ebp]

; 409  : 	CMappedFile File;

  00037	8d 8d ac fe ff
	ff		 lea	 ecx, DWORD PTR _File$[ebp]
  0003d	89 b5 70 fe ff
	ff		 mov	 DWORD PTR _szItemScale$GSCopy$1$[ebp], esi
  00043	e8 00 00 00 00	 call	 ??0CMappedFile@@QAE@XZ	; CMappedFile::CMappedFile

; 410  : 	LPCVOID pData;
; 411  : 	if (!CEterPackManager::Instance().Get(File, szItemScale, &pData))

  00048	8b 0d 00 00 00
	00		 mov	 ecx, DWORD PTR ?ms_singleton@?$CSingleton@VCEterPackManager@@@@0PAVCEterPackManager@@A ; CSingleton<CEterPackManager>::ms_singleton
  0004e	8d 85 80 fe ff
	ff		 lea	 eax, DWORD PTR _pData$[ebp]
  00054	50		 push	 eax
  00055	56		 push	 esi
  00056	8d 85 ac fe ff
	ff		 lea	 eax, DWORD PTR _File$[ebp]
  0005c	c7 45 fc 00 00
	00 00		 mov	 DWORD PTR __$EHRec$[ebp+8], 0
  00063	50		 push	 eax
  00064	e8 00 00 00 00	 call	 ?Get@CEterPackManager@@QAE_NAAVCMappedFile@@PBDPAPBX@Z ; CEterPackManager::Get
  00069	84 c0		 test	 al, al
  0006b	75 07		 jne	 SHORT $LN8@LoadItemSc
  0006d	32 db		 xor	 bl, bl
  0006f	e9 9e 04 00 00	 jmp	 $LN22@LoadItemSc
$LN8@LoadItemSc:

; 412  : 		return false;
; 413  : 
; 414  : 	CMemoryTextFileLoader textFileLoader;

  00074	8d 8d 60 fe ff
	ff		 lea	 ecx, DWORD PTR _textFileLoader$[ebp]
  0007a	e8 00 00 00 00	 call	 ??0CMemoryTextFileLoader@@QAE@XZ ; CMemoryTextFileLoader::CMemoryTextFileLoader

; 415  : 	textFileLoader.Bind(File.Size(), pData);

  0007f	ff b5 80 fe ff
	ff		 push	 DWORD PTR _pData$[ebp]
  00085	8d 8d ac fe ff
	ff		 lea	 ecx, DWORD PTR _File$[ebp]
  0008b	c6 45 fc 01	 mov	 BYTE PTR __$EHRec$[ebp+8], 1
  0008f	e8 00 00 00 00	 call	 ?Size@CMappedFile@@QAEKXZ ; CMappedFile::Size
  00094	50		 push	 eax
  00095	8d 8d 60 fe ff
	ff		 lea	 ecx, DWORD PTR _textFileLoader$[ebp]
  0009b	e8 00 00 00 00	 call	 ?Bind@CMemoryTextFileLoader@@QAEXHPBX@Z ; CMemoryTextFileLoader::Bind
; File D:\visual studio 2019\visual studio 2019\VC\Tools\MSVC\14.29.30133\include\vector

; 390  :     _CONSTEXPR20_CONTAINER _Vector_val() noexcept : _Myfirst(), _Mylast(), _Myend() {}

  000a0	c7 85 9c fe ff
	ff 00 00 00 00	 mov	 DWORD PTR _TokenVector$[ebp], 0
  000aa	c7 85 a0 fe ff
	ff 00 00 00 00	 mov	 DWORD PTR _TokenVector$[ebp+4], 0
  000b4	c7 85 a4 fe ff
	ff 00 00 00 00	 mov	 DWORD PTR _TokenVector$[ebp+8], 0
; File C:\Users\ALEXANDER\Desktop\Cliente\COPY_FISH_WON_NEW\Binario\Client\GameLib\ItemManager.cpp

; 418  : 	for (DWORD i = 0; i < textFileLoader.GetLineCount(); ++i)

  000be	33 db		 xor	 ebx, ebx
  000c0	c6 45 fc 02	 mov	 BYTE PTR __$EHRec$[ebp+8], 2
  000c4	8d 8d 60 fe ff
	ff		 lea	 ecx, DWORD PTR _textFileLoader$[ebp]
  000ca	89 9d 84 fe ff
	ff		 mov	 DWORD PTR _i$1$[ebp], ebx
  000d0	e8 00 00 00 00	 call	 ?GetLineCount@CMemoryTextFileLoader@@QAEKXZ ; CMemoryTextFileLoader::GetLineCount
  000d5	85 c0		 test	 eax, eax
  000d7	0f 84 5e 03 00
	00		 je	 $LN3@LoadItemSc
  000dd	0f 1f 00	 npad	 3
$LL4@LoadItemSc:

; 419  : 	{
; 420  : 		if (!textFileLoader.SplitLine(i, &TokenVector, "\t"))

  000e0	68 00 00 00 00	 push	 OFFSET ??_C@_01GPOEFGEJ@?7@
  000e5	8d 85 9c fe ff
	ff		 lea	 eax, DWORD PTR _TokenVector$[ebp]
  000eb	50		 push	 eax
  000ec	53		 push	 ebx
  000ed	8d 8d 60 fe ff
	ff		 lea	 ecx, DWORD PTR _textFileLoader$[ebp]
  000f3	e8 00 00 00 00	 call	 ?SplitLine@CMemoryTextFileLoader@@QAE_NKPAV?$vector@V?$basic_string@DU?$char_traits@D@std@@V?$allocator@D@2@@std@@V?$allocator@V?$basic_string@DU?$char_traits@D@std@@V?$allocator@D@2@@std@@@2@@std@@PBD@Z ; CMemoryTextFileLoader::SplitLine
  000f8	84 c0		 test	 al, al
  000fa	0f 84 21 03 00
	00		 je	 $LN2@LoadItemSc
; File D:\visual studio 2019\visual studio 2019\VC\Tools\MSVC\14.29.30133\include\vector

; 1536 :         return static_cast<size_type>(_My_data._Mylast - _My_data._Myfirst);

  00100	8b 95 a0 fe ff
	ff		 mov	 edx, DWORD PTR _TokenVector$[ebp+4]
  00106	8b 8d 9c fe ff
	ff		 mov	 ecx, DWORD PTR _TokenVector$[ebp]
  0010c	2b d1		 sub	 edx, ecx
; File C:\Users\ALEXANDER\Desktop\Cliente\COPY_FISH_WON_NEW\Binario\Client\GameLib\ItemManager.cpp

; 423  : 		if (!(TokenVector.size() == 6 || TokenVector.size() == 7))

  0010e	8d 82 70 ff ff
	ff		 lea	 eax, DWORD PTR [edx-144]
  00114	83 f8 18	 cmp	 eax, 24			; 00000018H
  00117	72 1f		 jb	 SHORT $LN10@LoadItemSc
  00119	8d 82 58 ff ff
	ff		 lea	 eax, DWORD PTR [edx-168]
  0011f	83 f8 18	 cmp	 eax, 24			; 00000018H
  00122	72 14		 jb	 SHORT $LN10@LoadItemSc

; 424  : 		{
; 425  : 			TraceError(" CItemManager::LoadItemScale(%s) - Error on line %d\n", szItemScale, i);

  00124	53		 push	 ebx
  00125	56		 push	 esi
  00126	68 00 00 00 00	 push	 OFFSET ??_C@_0DF@BOLLEAGK@?5CItemManager?3?3LoadItemScale?$CI?$CFs@
  0012b	e8 00 00 00 00	 call	 ?TraceError@@YAXPBDZZ	; TraceError
  00130	83 c4 0c	 add	 esp, 12			; 0000000cH

; 426  : 			continue;

  00133	e9 e9 02 00 00	 jmp	 $LN2@LoadItemSc
$LN10@LoadItemSc:
; File D:\visual studio 2019\visual studio 2019\VC\Tools\MSVC\14.29.30133\include\xstring

; 2286 :         return _BUF_SIZE <= _Myres;

  00138	83 79 14 10	 cmp	 DWORD PTR [ecx+20], 16	; 00000010H
; File D:\visual studio 2019\visual studio 2019\VC\Tools\MSVC\14.29.30133\include\vector

; 1556 :         return _My_data._Myfirst[_Pos];

  0013c	8d 41 30	 lea	 eax, DWORD PTR [ecx+48]
  0013f	89 85 a8 fe ff
	ff		 mov	 DWORD PTR __Result$1$[ebp], eax
  00145	8d 71 18	 lea	 esi, DWORD PTR [ecx+24]
  00148	8d 41 48	 lea	 eax, DWORD PTR [ecx+72]
  0014b	89 85 94 fe ff
	ff		 mov	 DWORD PTR __Result$1$[ebp], eax
  00151	8d 41 60	 lea	 eax, DWORD PTR [ecx+96]
  00154	89 85 90 fe ff
	ff		 mov	 DWORD PTR __Result$1$[ebp], eax
  0015a	8d 41 78	 lea	 eax, DWORD PTR [ecx+120]
  0015d	89 85 8c fe ff
	ff		 mov	 DWORD PTR __Result$1$[ebp], eax
; File D:\visual studio 2019\visual studio 2019\VC\Tools\MSVC\14.29.30133\include\xstring

; 2273 :         if (_Large_string_engaged()) {

  00163	72 02		 jb	 SHORT $LN48@LoadItemSc

; 2274 :             _Result = _Unfancy(_Bx._Ptr);

  00165	8b 09		 mov	 ecx, DWORD PTR [ecx]
$LN48@LoadItemSc:
; File C:\Users\ALEXANDER\Desktop\Cliente\COPY_FISH_WON_NEW\Binario\Client\GameLib\ItemManager.cpp

; 436  : 		DWORD dwItemVnum = atoi(c_rstrID.c_str());

  00167	51		 push	 ecx
  00168	e8 00 00 00 00	 call	 __atoi64
  0016d	83 c4 04	 add	 esp, 4
  00170	8b f8		 mov	 edi, eax
; File D:\visual studio 2019\visual studio 2019\VC\Tools\MSVC\14.29.30133\include\xstring

; 2286 :         return _BUF_SIZE <= _Myres;

  00172	83 7e 14 10	 cmp	 DWORD PTR [esi+20], 16	; 00000010H

; 2273 :         if (_Large_string_engaged()) {

  00176	b9 00 00 00 00	 mov	 ecx, OFFSET ??_C@_0N@IAFGBDIL@JOB_ASSASSIN@
; File C:\Users\ALEXANDER\Desktop\Cliente\COPY_FISH_WON_NEW\Binario\Client\GameLib\ItemManager.cpp

; 436  : 		DWORD dwItemVnum = atoi(c_rstrID.c_str());

  0017b	89 bd 98 fe ff
	ff		 mov	 DWORD PTR _dwItemVnum$1$[ebp], edi
; File D:\visual studio 2019\visual studio 2019\VC\Tools\MSVC\14.29.30133\include\xstring

; 2273 :         if (_Large_string_engaged()) {

  00181	72 33		 jb	 SHORT $LN210@LoadItemSc

; 2274 :             _Result = _Unfancy(_Bx._Ptr);

  00183	8b 06		 mov	 eax, DWORD PTR [esi]
$LL214@LoadItemSc:
  00185	8a 10		 mov	 dl, BYTE PTR [eax]
  00187	3a 11		 cmp	 dl, BYTE PTR [ecx]
  00189	75 1f		 jne	 SHORT $LN215@LoadItemSc
  0018b	84 d2		 test	 dl, dl
  0018d	74 12		 je	 SHORT $LN216@LoadItemSc
  0018f	8a 50 01	 mov	 dl, BYTE PTR [eax+1]
  00192	3a 51 01	 cmp	 dl, BYTE PTR [ecx+1]
  00195	75 13		 jne	 SHORT $LN215@LoadItemSc
  00197	83 c0 02	 add	 eax, 2
  0019a	83 c1 02	 add	 ecx, 2
  0019d	84 d2		 test	 dl, dl
  0019f	75 e4		 jne	 SHORT $LL214@LoadItemSc
$LN216@LoadItemSc:
  001a1	33 c0		 xor	 eax, eax
  001a3	85 c0		 test	 eax, eax
  001a5	0f 94 c3	 sete	 bl
  001a8	eb 40		 jmp	 SHORT $LN213@LoadItemSc
$LN215@LoadItemSc:
  001aa	1b c0		 sbb	 eax, eax
  001ac	83 c8 01	 or	 eax, 1
  001af	85 c0		 test	 eax, eax
  001b1	0f 94 c3	 sete	 bl
  001b4	eb 34		 jmp	 SHORT $LN213@LoadItemSc
$LN210@LoadItemSc:
; File C:\Users\ALEXANDER\Desktop\Cliente\COPY_FISH_WON_NEW\Binario\Client\GameLib\ItemManager.cpp

; 439  : 		if (!strcmp(c_rstrJob.c_str(), "JOB_ASSASSIN")) bJob = NRaceData::JOB_ASSASSIN;

  001b6	8b c6		 mov	 eax, esi
$LL218@LoadItemSc:
  001b8	8a 10		 mov	 dl, BYTE PTR [eax]
  001ba	3a 11		 cmp	 dl, BYTE PTR [ecx]
  001bc	75 1a		 jne	 SHORT $LN219@LoadItemSc
  001be	84 d2		 test	 dl, dl
  001c0	74 12		 je	 SHORT $LN220@LoadItemSc
  001c2	8a 50 01	 mov	 dl, BYTE PTR [eax+1]
  001c5	3a 51 01	 cmp	 dl, BYTE PTR [ecx+1]
  001c8	75 0e		 jne	 SHORT $LN219@LoadItemSc
  001ca	83 c0 02	 add	 eax, 2
  001cd	83 c1 02	 add	 ecx, 2
  001d0	84 d2		 test	 dl, dl
  001d2	75 e4		 jne	 SHORT $LL218@LoadItemSc
$LN220@LoadItemSc:
  001d4	33 c0		 xor	 eax, eax
  001d6	eb 05		 jmp	 SHORT $LN221@LoadItemSc
$LN219@LoadItemSc:
  001d8	1b c0		 sbb	 eax, eax
  001da	83 c8 01	 or	 eax, 1
$LN221@LoadItemSc:
; File D:\visual studio 2019\visual studio 2019\VC\Tools\MSVC\14.29.30133\include\xstring

; 3888 :         return _Mypair._Myval2._Myptr();

  001dd	85 c0		 test	 eax, eax

; 2272 :         const value_type* _Result = _Bx._Buf;

  001df	8b c6		 mov	 eax, esi

; 3888 :         return _Mypair._Myval2._Myptr();

  001e1	0f 94 c3	 sete	 bl

; 2286 :         return _BUF_SIZE <= _Myres;

  001e4	83 7e 14 10	 cmp	 DWORD PTR [esi+20], 16	; 00000010H

; 2273 :         if (_Large_string_engaged()) {

  001e8	72 02		 jb	 SHORT $LN211@LoadItemSc
$LN213@LoadItemSc:

; 2274 :             _Result = _Unfancy(_Bx._Ptr);

  001ea	8b 06		 mov	 eax, DWORD PTR [esi]
$LN211@LoadItemSc:
; File C:\Users\ALEXANDER\Desktop\Cliente\COPY_FISH_WON_NEW\Binario\Client\GameLib\ItemManager.cpp

; 440  : 		if (!strcmp(c_rstrJob.c_str(), "JOB_SURA")) bJob = NRaceData::JOB_SURA;

  001ec	b9 00 00 00 00	 mov	 ecx, OFFSET ??_C@_08IJIBKCOK@JOB_SURA@
$LL222@LoadItemSc:
  001f1	8a 10		 mov	 dl, BYTE PTR [eax]
  001f3	3a 11		 cmp	 dl, BYTE PTR [ecx]
  001f5	75 1a		 jne	 SHORT $LN223@LoadItemSc
  001f7	84 d2		 test	 dl, dl
  001f9	74 12		 je	 SHORT $LN224@LoadItemSc
  001fb	8a 50 01	 mov	 dl, BYTE PTR [eax+1]
  001fe	3a 51 01	 cmp	 dl, BYTE PTR [ecx+1]
  00201	75 0e		 jne	 SHORT $LN223@LoadItemSc
  00203	83 c0 02	 add	 eax, 2
  00206	83 c1 02	 add	 ecx, 2
  00209	84 d2		 test	 dl, dl
  0020b	75 e4		 jne	 SHORT $LL222@LoadItemSc
$LN224@LoadItemSc:
  0020d	33 c0		 xor	 eax, eax
  0020f	eb 05		 jmp	 SHORT $LN225@LoadItemSc
$LN223@LoadItemSc:
  00211	1b c0		 sbb	 eax, eax
  00213	83 c8 01	 or	 eax, 1
$LN225@LoadItemSc:
  00216	85 c0		 test	 eax, eax
  00218	0f b6 db	 movzx	 ebx, bl
  0021b	b8 02 00 00 00	 mov	 eax, 2
  00220	0f 44 d8	 cmove	 ebx, eax
; File D:\visual studio 2019\visual studio 2019\VC\Tools\MSVC\14.29.30133\include\xstring

; 2286 :         return _BUF_SIZE <= _Myres;

  00223	83 7e 14 10	 cmp	 DWORD PTR [esi+20], 16	; 00000010H

; 2272 :         const value_type* _Result = _Bx._Buf;

  00227	8b c6		 mov	 eax, esi

; 2273 :         if (_Large_string_engaged()) {

  00229	72 02		 jb	 SHORT $LN212@LoadItemSc

; 2274 :             _Result = _Unfancy(_Bx._Ptr);

  0022b	8b 06		 mov	 eax, DWORD PTR [esi]
$LN212@LoadItemSc:
; File C:\Users\ALEXANDER\Desktop\Cliente\COPY_FISH_WON_NEW\Binario\Client\GameLib\ItemManager.cpp

; 441  : 		if (!strcmp(c_rstrJob.c_str(), "JOB_SHAMAN")) bJob = NRaceData::JOB_SHAMAN;

  0022d	b9 00 00 00 00	 mov	 ecx, OFFSET ??_C@_0L@FBDFJGPA@JOB_SHAMAN@
$LL226@LoadItemSc:
  00232	8a 10		 mov	 dl, BYTE PTR [eax]
  00234	3a 11		 cmp	 dl, BYTE PTR [ecx]
  00236	75 1a		 jne	 SHORT $LN227@LoadItemSc
  00238	84 d2		 test	 dl, dl
  0023a	74 12		 je	 SHORT $LN228@LoadItemSc
  0023c	8a 50 01	 mov	 dl, BYTE PTR [eax+1]
  0023f	3a 51 01	 cmp	 dl, BYTE PTR [ecx+1]
  00242	75 0e		 jne	 SHORT $LN227@LoadItemSc
  00244	83 c0 02	 add	 eax, 2
  00247	83 c1 02	 add	 ecx, 2
  0024a	84 d2		 test	 dl, dl
  0024c	75 e4		 jne	 SHORT $LL226@LoadItemSc
$LN228@LoadItemSc:
  0024e	33 c0		 xor	 eax, eax
  00250	eb 05		 jmp	 SHORT $LN229@LoadItemSc
$LN227@LoadItemSc:
  00252	1b c0		 sbb	 eax, eax
  00254	83 c8 01	 or	 eax, 1
$LN229@LoadItemSc:
  00257	85 c0		 test	 eax, eax
  00259	0f b6 d3	 movzx	 edx, bl
  0025c	b8 03 00 00 00	 mov	 eax, 3
  00261	0f 44 d0	 cmove	 edx, eax
; File D:\visual studio 2019\visual studio 2019\VC\Tools\MSVC\14.29.30133\include\xstring

; 2286 :         return _BUF_SIZE <= _Myres;

  00264	83 7e 14 10	 cmp	 DWORD PTR [esi+20], 16	; 00000010H

; 2273 :         if (_Large_string_engaged()) {

  00268	72 02		 jb	 SHORT $LN83@LoadItemSc

; 2274 :             _Result = _Unfancy(_Bx._Ptr);

  0026a	8b 36		 mov	 esi, DWORD PTR [esi]
$LN83@LoadItemSc:
; File C:\Users\ALEXANDER\Desktop\Cliente\COPY_FISH_WON_NEW\Binario\Client\GameLib\ItemManager.cpp

; 443  : 		if (!strcmp(c_rstrJob.c_str(), "JOB_WOLFMAN")) bJob = NRaceData::JOB_WOLFMAN;

  0026c	b8 00 00 00 00	 mov	 eax, OFFSET ??_C@_0M@BIDPEPDP@JOB_WOLFMAN@
$LL230@LoadItemSc:
  00271	8a 0e		 mov	 cl, BYTE PTR [esi]
  00273	3a 08		 cmp	 cl, BYTE PTR [eax]
  00275	75 1a		 jne	 SHORT $LN231@LoadItemSc
  00277	84 c9		 test	 cl, cl
  00279	74 12		 je	 SHORT $LN232@LoadItemSc
  0027b	8a 4e 01	 mov	 cl, BYTE PTR [esi+1]
  0027e	3a 48 01	 cmp	 cl, BYTE PTR [eax+1]
  00281	75 0e		 jne	 SHORT $LN231@LoadItemSc
  00283	83 c6 02	 add	 esi, 2
  00286	83 c0 02	 add	 eax, 2
  00289	84 c9		 test	 cl, cl
  0028b	75 e4		 jne	 SHORT $LL230@LoadItemSc
$LN232@LoadItemSc:
  0028d	33 c9		 xor	 ecx, ecx
  0028f	eb 05		 jmp	 SHORT $LN233@LoadItemSc
$LN231@LoadItemSc:
  00291	1b c9		 sbb	 ecx, ecx
  00293	83 c9 01	 or	 ecx, 1
$LN233@LoadItemSc:
  00296	85 c9		 test	 ecx, ecx
  00298	0f b6 c2	 movzx	 eax, dl
  0029b	b9 04 00 00 00	 mov	 ecx, 4
  002a0	0f 44 c1	 cmove	 eax, ecx
  002a3	88 85 7c fe ff
	ff		 mov	 BYTE PTR _bJob$4[ebp], al
; File D:\visual studio 2019\visual studio 2019\VC\Tools\MSVC\14.29.30133\include\xstring

; 2286 :         return _BUF_SIZE <= _Myres;

  002a9	8b 85 a8 fe ff
	ff		 mov	 eax, DWORD PTR __Result$1$[ebp]
  002af	83 78 14 10	 cmp	 DWORD PTR [eax+20], 16	; 00000010H

; 2273 :         if (_Large_string_engaged()) {

  002b3	72 02		 jb	 SHORT $LN90@LoadItemSc

; 2274 :             _Result = _Unfancy(_Bx._Ptr);

  002b5	8b 00		 mov	 eax, DWORD PTR [eax]
$LN90@LoadItemSc:
; File C:\Users\ALEXANDER\Desktop\Cliente\COPY_FISH_WON_NEW\Binario\Client\GameLib\ItemManager.cpp

; 445  : 		BYTE bySex = c_rstrSex[0] == 'M';

  002b7	80 38 4d	 cmp	 BYTE PTR [eax], 77	; 0000004dH
; File D:\visual studio 2019\visual studio 2019\VC\Tools\MSVC\14.29.30133\include\xstring

; 2286 :         return _BUF_SIZE <= _Myres;

  002ba	8b 85 94 fe ff
	ff		 mov	 eax, DWORD PTR __Result$1$[ebp]
; File C:\Users\ALEXANDER\Desktop\Cliente\COPY_FISH_WON_NEW\Binario\Client\GameLib\ItemManager.cpp

; 445  : 		BYTE bySex = c_rstrSex[0] == 'M';

  002c0	0f 94 85 78 fe
	ff ff		 sete	 BYTE PTR _bySex$3[ebp]
; File D:\visual studio 2019\visual studio 2019\VC\Tools\MSVC\14.29.30133\include\xstring

; 2286 :         return _BUF_SIZE <= _Myres;

  002c7	83 78 14 10	 cmp	 DWORD PTR [eax+20], 16	; 00000010H

; 2273 :         if (_Large_string_engaged()) {

  002cb	72 02		 jb	 SHORT $LN97@LoadItemSc

; 2274 :             _Result = _Unfancy(_Bx._Ptr);

  002cd	8b 00		 mov	 eax, DWORD PTR [eax]
$LN97@LoadItemSc:
; File C:\Users\ALEXANDER\Desktop\Cliente\COPY_FISH_WON_NEW\Binario\Client\GameLib\ItemManager.cpp

; 447  : 		float fScaleX = atof(c_rstrScaleX.c_str()) * 0.01f;

  002cf	50		 push	 eax
  002d0	e8 00 00 00 00	 call	 _atof
  002d5	dc 0d 00 00 00
	00		 fmul	 QWORD PTR __real@3f847ae140000000
  002db	83 c4 04	 add	 esp, 4
; File D:\visual studio 2019\visual studio 2019\VC\Tools\MSVC\14.29.30133\include\xstring

; 2286 :         return _BUF_SIZE <= _Myres;

  002de	8b 85 90 fe ff
	ff		 mov	 eax, DWORD PTR __Result$1$[ebp]
  002e4	83 78 14 10	 cmp	 DWORD PTR [eax+20], 16	; 00000010H
; File C:\Users\ALEXANDER\Desktop\Cliente\COPY_FISH_WON_NEW\Binario\Client\GameLib\ItemManager.cpp

; 447  : 		float fScaleX = atof(c_rstrScaleX.c_str()) * 0.01f;

  002e8	d9 9d 74 fe ff
	ff		 fstp	 DWORD PTR _fScaleX$2[ebp]
; File D:\visual studio 2019\visual studio 2019\VC\Tools\MSVC\14.29.30133\include\xstring

; 2273 :         if (_Large_string_engaged()) {

  002ee	72 02		 jb	 SHORT $LN104@LoadItemSc

; 2274 :             _Result = _Unfancy(_Bx._Ptr);

  002f0	8b 00		 mov	 eax, DWORD PTR [eax]
$LN104@LoadItemSc:
; File C:\Users\ALEXANDER\Desktop\Cliente\COPY_FISH_WON_NEW\Binario\Client\GameLib\ItemManager.cpp

; 448  : 		float fScaleY = atof(c_rstrScaleY.c_str()) * 0.01f;

  002f2	50		 push	 eax
  002f3	e8 00 00 00 00	 call	 _atof
  002f8	dc 0d 00 00 00
	00		 fmul	 QWORD PTR __real@3f847ae140000000
  002fe	83 c4 04	 add	 esp, 4
; File D:\visual studio 2019\visual studio 2019\VC\Tools\MSVC\14.29.30133\include\xstring

; 2286 :         return _BUF_SIZE <= _Myres;

  00301	8b 85 8c fe ff
	ff		 mov	 eax, DWORD PTR __Result$1$[ebp]
  00307	83 78 14 10	 cmp	 DWORD PTR [eax+20], 16	; 00000010H
; File C:\Users\ALEXANDER\Desktop\Cliente\COPY_FISH_WON_NEW\Binario\Client\GameLib\ItemManager.cpp

; 448  : 		float fScaleY = atof(c_rstrScaleY.c_str()) * 0.01f;

  0030b	d9 9d 94 fe ff
	ff		 fstp	 DWORD PTR _fScaleY$7[ebp]
; File D:\visual studio 2019\visual studio 2019\VC\Tools\MSVC\14.29.30133\include\xstring

; 2273 :         if (_Large_string_engaged()) {

  00311	72 02		 jb	 SHORT $LN111@LoadItemSc

; 2274 :             _Result = _Unfancy(_Bx._Ptr);

  00313	8b 00		 mov	 eax, DWORD PTR [eax]
$LN111@LoadItemSc:
; File C:\Users\ALEXANDER\Desktop\Cliente\COPY_FISH_WON_NEW\Binario\Client\GameLib\ItemManager.cpp

; 449  : 		float fScaleZ = atof(c_rstrScaleZ.c_str()) * 0.01f;

  00315	50		 push	 eax
  00316	e8 00 00 00 00	 call	 _atof

; 450  : 		float fParticleScale = 1.0f;
; 451  : 		if (TokenVector.size() == 7)

  0031b	8b 85 a0 fe ff
	ff		 mov	 eax, DWORD PTR _TokenVector$[ebp+4]
  00321	83 c4 04	 add	 esp, 4
  00324	dc 0d 00 00 00
	00		 fmul	 QWORD PTR __real@3f847ae140000000
  0032a	8b 8d 9c fe ff
	ff		 mov	 ecx, DWORD PTR _TokenVector$[ebp]
  00330	2b c1		 sub	 eax, ecx
  00332	f3 0f 10 05 00
	00 00 00	 movss	 xmm0, DWORD PTR __real@3f800000
  0033a	2d a8 00 00 00	 sub	 eax, 168		; 000000a8H
  0033f	f3 0f 11 85 a8
	fe ff ff	 movss	 DWORD PTR _fParticleScale$1$[ebp], xmm0
  00347	d9 9d 90 fe ff
	ff		 fstp	 DWORD PTR _fScaleZ$6[ebp]
  0034d	83 f8 18	 cmp	 eax, 24			; 00000018H
  00350	73 30		 jae	 SHORT $LN16@LoadItemSc
; File D:\visual studio 2019\visual studio 2019\VC\Tools\MSVC\14.29.30133\include\xstring

; 2286 :         return _BUF_SIZE <= _Myres;

  00352	83 b9 a4 00 00
	00 10		 cmp	 DWORD PTR [ecx+164], 16	; 00000010H
; File D:\visual studio 2019\visual studio 2019\VC\Tools\MSVC\14.29.30133\include\vector

; 1556 :         return _My_data._Myfirst[_Pos];

  00359	8d 81 90 00 00
	00		 lea	 eax, DWORD PTR [ecx+144]
; File D:\visual studio 2019\visual studio 2019\VC\Tools\MSVC\14.29.30133\include\xstring

; 2273 :         if (_Large_string_engaged()) {

  0035f	72 02		 jb	 SHORT $LN122@LoadItemSc

; 2274 :             _Result = _Unfancy(_Bx._Ptr);

  00361	8b 00		 mov	 eax, DWORD PTR [eax]
$LN122@LoadItemSc:
; File C:\Users\ALEXANDER\Desktop\Cliente\COPY_FISH_WON_NEW\Binario\Client\GameLib\ItemManager.cpp

; 454  : 			fParticleScale = atof(c_rstrParticleScale.c_str());

  00363	50		 push	 eax
  00364	e8 00 00 00 00	 call	 _atof
  00369	d9 9d 8c fe ff
	ff		 fstp	 DWORD PTR _fParticleScale$5[ebp]
  0036f	f3 0f 10 85 8c
	fe ff ff	 movss	 xmm0, DWORD PTR _fParticleScale$5[ebp]
  00377	83 c4 04	 add	 esp, 4
  0037a	f3 0f 11 85 a8
	fe ff ff	 movss	 DWORD PTR _fParticleScale$1$[ebp], xmm0
$LN16@LoadItemSc:

; 455  : 		}
; 456  : 
; 457  : 		CItemData* pItemData = MakeItemData(dwItemVnum);

  00382	8b 8d 88 fe ff
	ff		 mov	 ecx, DWORD PTR _this$GSCopy$1$[ebp]
  00388	57		 push	 edi
  00389	e8 00 00 00 00	 call	 ?MakeItemData@CItemManager@@QAEPAVCItemData@@K@Z ; CItemManager::MakeItemData
  0038e	8b bd 7c fe ff
	ff		 mov	 edi, DWORD PTR _bJob$4[ebp]
  00394	be 05 00 00 00	 mov	 esi, 5
  00399	8b 9d 78 fe ff
	ff		 mov	 ebx, DWORD PTR _bySex$3[ebp]
  0039f	8b 85 98 fe ff
	ff		 mov	 eax, DWORD PTR _dwItemVnum$1$[ebp]
  003a5	66 66 66 0f 1f
	84 00 00 00 00
	00		 npad	 11
$LL7@LoadItemSc:

; 463  : 		{
; 464  : 			pItemData = MakeItemData(dwItemVnum + i);

  003b0	8b 8d 88 fe ff
	ff		 mov	 ecx, DWORD PTR _this$GSCopy$1$[ebp]
  003b6	50		 push	 eax
  003b7	e8 00 00 00 00	 call	 ?MakeItemData@CItemManager@@QAEPAVCItemData@@K@Z ; CItemManager::MakeItemData

; 465  : 			if (pItemData)

  003bc	85 c0		 test	 eax, eax
  003be	74 43		 je	 SHORT $LN5@LoadItemSc

; 466  : 				pItemData->SetItemTableScaleData(bJob, bySex, fScaleX, fScaleY, fScaleZ, fParticleScale);

  003c0	f3 0f 10 85 a8
	fe ff ff	 movss	 xmm0, DWORD PTR _fParticleScale$1$[ebp]
  003c8	83 ec 10	 sub	 esp, 16			; 00000010H
  003cb	8b c8		 mov	 ecx, eax
  003cd	f3 0f 11 44 24
	0c		 movss	 DWORD PTR [esp+12], xmm0
  003d3	f3 0f 10 85 90
	fe ff ff	 movss	 xmm0, DWORD PTR _fScaleZ$6[ebp]
  003db	f3 0f 11 44 24
	08		 movss	 DWORD PTR [esp+8], xmm0
  003e1	f3 0f 10 85 94
	fe ff ff	 movss	 xmm0, DWORD PTR _fScaleY$7[ebp]
  003e9	f3 0f 11 44 24
	04		 movss	 DWORD PTR [esp+4], xmm0
  003ef	f3 0f 10 85 74
	fe ff ff	 movss	 xmm0, DWORD PTR _fScaleX$2[ebp]
  003f7	f3 0f 11 04 24	 movss	 DWORD PTR [esp], xmm0
  003fc	53		 push	 ebx
  003fd	57		 push	 edi
  003fe	e8 00 00 00 00	 call	 ?SetItemTableScaleData@CItemData@@QAEXEEMMMM@Z ; CItemData::SetItemTableScaleData
$LN5@LoadItemSc:

; 458  : 		BYTE bGradeMax = 5;
; 459  : 		// if (pItemData->GetType() == CItemData::ITEM_TYPE_COSTUME && pItemData->GetSubType() == CItemData::COSTUME_AURA)
; 460  : 			// bGradeMax = 6;
; 461  : 
; 462  : 		for (BYTE i = 0; i < bGradeMax; ++i)

  00403	8b 85 98 fe ff
	ff		 mov	 eax, DWORD PTR _dwItemVnum$1$[ebp]
  00409	40		 inc	 eax
  0040a	89 85 98 fe ff
	ff		 mov	 DWORD PTR _dwItemVnum$1$[ebp], eax
  00410	83 ee 01	 sub	 esi, 1
  00413	75 9b		 jne	 SHORT $LL7@LoadItemSc
  00415	8b 9d 84 fe ff
	ff		 mov	 ebx, DWORD PTR _i$1$[ebp]
  0041b	8b b5 70 fe ff
	ff		 mov	 esi, DWORD PTR _szItemScale$GSCopy$1$[ebp]
$LN2@LoadItemSc:

; 418  : 	for (DWORD i = 0; i < textFileLoader.GetLineCount(); ++i)

  00421	43		 inc	 ebx
  00422	8d 8d 60 fe ff
	ff		 lea	 ecx, DWORD PTR _textFileLoader$[ebp]
  00428	89 9d 84 fe ff
	ff		 mov	 DWORD PTR _i$1$[ebp], ebx
  0042e	e8 00 00 00 00	 call	 ?GetLineCount@CMemoryTextFileLoader@@QAEKXZ ; CMemoryTextFileLoader::GetLineCount
  00433	3b d8		 cmp	 ebx, eax
  00435	0f 82 a5 fc ff
	ff		 jb	 $LL4@LoadItemSc
$LN3@LoadItemSc:
; File D:\visual studio 2019\visual studio 2019\VC\Tools\MSVC\14.29.30133\include\vector

; 1750 :         if (_Myfirst) { // destroy and deallocate old array

  0043b	8b b5 9c fe ff
	ff		 mov	 esi, DWORD PTR _TokenVector$[ebp]
; File C:\Users\ALEXANDER\Desktop\Cliente\COPY_FISH_WON_NEW\Binario\Client\GameLib\ItemManager.cpp

; 470  : 	return true;

  00441	b3 01		 mov	 bl, 1
; File D:\visual studio 2019\visual studio 2019\VC\Tools\MSVC\14.29.30133\include\vector

; 1750 :         if (_Myfirst) { // destroy and deallocate old array

  00443	85 f6		 test	 esi, esi
  00445	0f 84 bc 00 00
	00		 je	 $LN129@LoadItemSc

; 1751 :             _Destroy(_Myfirst, _Mylast);

  0044b	8b bd a0 fe ff
	ff		 mov	 edi, DWORD PTR _TokenVector$[ebp+4]

; 1667 :         _Destroy_range(_First, _Last, _Getal());

  00451	3b f7		 cmp	 esi, edi
; File D:\visual studio 2019\visual studio 2019\VC\Tools\MSVC\14.29.30133\include\xmemory

; 904  :         for (; _First != _Last; ++_First) {

  00453	74 51		 je	 SHORT $LN135@LoadItemSc
$LL136@LoadItemSc:
; File D:\visual studio 2019\visual studio 2019\VC\Tools\MSVC\14.29.30133\include\xstring

; 2286 :         return _BUF_SIZE <= _Myres;

  00455	8b 4e 14	 mov	 ecx, DWORD PTR [esi+20]
  00458	83 f9 10	 cmp	 ecx, 16			; 00000010H

; 4584 :         if (_Mypair._Myval2._Large_string_engaged()) {

  0045b	72 2b		 jb	 SHORT $LN155@LoadItemSc
; File D:\visual studio 2019\visual studio 2019\VC\Tools\MSVC\14.29.30133\include\xmemory

; 797  :         _Deallocate<_New_alignof<_Ty>>(_Ptr, sizeof(_Ty) * _Count);

  0045d	8b 06		 mov	 eax, DWORD PTR [esi]
; File D:\visual studio 2019\visual studio 2019\VC\Tools\MSVC\14.29.30133\include\xstring

; 4588 :             _Al.deallocate(_Ptr, _Mypair._Myval2._Myres + 1);

  0045f	41		 inc	 ecx
; File D:\visual studio 2019\visual studio 2019\VC\Tools\MSVC\14.29.30133\include\xmemory

; 251  :         if (_Bytes >= _Big_allocation_threshold) { // boost the alignment of big allocations to help autovectorization

  00460	81 f9 00 10 00
	00		 cmp	 ecx, 4096		; 00001000H
  00466	72 16		 jb	 SHORT $LN165@LoadItemSc

; 150  :     const uintptr_t _Ptr_container   = _Ptr_user[-1];

  00468	8b 50 fc	 mov	 edx, DWORD PTR [eax-4]
  0046b	83 c1 23	 add	 ecx, 35			; 00000023H

; 151  : 
; 152  :     // If the following asserts, it likely means that we are performing
; 153  :     // an aligned delete on memory coming from an unaligned allocation.
; 154  :     _STL_ASSERT(_Ptr_user[-2] == _Big_allocation_sentinel, "invalid argument");
; 155  : 
; 156  :     // Extra paranoia on aligned allocation/deallocation; ensure _Ptr_container is
; 157  :     // in range [_Min_back_shift, _Non_user_size]
; 158  : #ifdef _DEBUG
; 159  :     constexpr uintptr_t _Min_back_shift = 2 * sizeof(void*);
; 160  : #else // ^^^ _DEBUG ^^^ // vvv !_DEBUG vvv
; 161  :     constexpr uintptr_t _Min_back_shift = sizeof(void*);
; 162  : #endif // _DEBUG
; 163  :     const uintptr_t _Back_shift = reinterpret_cast<uintptr_t>(_Ptr) - _Ptr_container;

  0046e	2b c2		 sub	 eax, edx

; 164  :     _STL_VERIFY(_Back_shift >= _Min_back_shift && _Back_shift <= _Non_user_size, "invalid argument");

  00470	83 c0 fc	 add	 eax, -4			; fffffffcH
  00473	83 f8 1f	 cmp	 eax, 31			; 0000001fH
  00476	0f 87 c1 00 00
	00		 ja	 $LN186@LoadItemSc

; 165  :     _Ptr = reinterpret_cast<void*>(_Ptr_container);

  0047c	8b c2		 mov	 eax, edx
$LN165@LoadItemSc:

; 255  :         ::operator delete(_Ptr, _Bytes);

  0047e	51		 push	 ecx
  0047f	50		 push	 eax
  00480	e8 00 00 00 00	 call	 ??3@YAXPAXI@Z		; operator delete
  00485	83 c4 08	 add	 esp, 8
$LN155@LoadItemSc:
; File D:\visual studio 2019\visual studio 2019\VC\Tools\MSVC\14.29.30133\include\xstring

; 4599 :             _Mypair._Myval2._Mysize = 0;

  00488	c7 46 10 00 00
	00 00		 mov	 DWORD PTR [esi+16], 0

; 4600 :             _Mypair._Myval2._Myres  = _BUF_SIZE - 1;

  0048f	c7 46 14 0f 00
	00 00		 mov	 DWORD PTR [esi+20], 15	; 0000000fH

; 4601 :             // the _Traits::assign is last so the codegen doesn't think the char write can alias this
; 4602 :             _Traits::assign(_Mypair._Myval2._Bx._Buf[0], _Elem());

  00496	c6 06 00	 mov	 BYTE PTR [esi], 0
; File D:\visual studio 2019\visual studio 2019\VC\Tools\MSVC\14.29.30133\include\xmemory

; 904  :         for (; _First != _Last; ++_First) {

  00499	83 c6 18	 add	 esi, 24			; 00000018H
  0049c	3b f7		 cmp	 esi, edi
  0049e	75 b5		 jne	 SHORT $LL136@LoadItemSc
  004a0	8b b5 9c fe ff
	ff		 mov	 esi, DWORD PTR _TokenVector$[ebp]
$LN135@LoadItemSc:
; File D:\visual studio 2019\visual studio 2019\VC\Tools\MSVC\14.29.30133\include\vector

; 1752 :             _Getal().deallocate(_Myfirst, static_cast<size_type>(_Myend - _Myfirst));

  004a6	8b 8d a4 fe ff
	ff		 mov	 ecx, DWORD PTR _TokenVector$[ebp+8]
  004ac	b8 ab aa aa 2a	 mov	 eax, 715827883		; 2aaaaaabH
  004b1	2b ce		 sub	 ecx, esi
  004b3	f7 e9		 imul	 ecx
  004b5	c1 fa 02	 sar	 edx, 2
  004b8	8b c2		 mov	 eax, edx
  004ba	c1 e8 1f	 shr	 eax, 31			; 0000001fH
  004bd	03 c2		 add	 eax, edx
; File D:\visual studio 2019\visual studio 2019\VC\Tools\MSVC\14.29.30133\include\xmemory

; 797  :         _Deallocate<_New_alignof<_Ty>>(_Ptr, sizeof(_Ty) * _Count);

  004bf	8d 0c 40	 lea	 ecx, DWORD PTR [eax+eax*2]
  004c2	8b c6		 mov	 eax, esi
  004c4	c1 e1 03	 shl	 ecx, 3

; 251  :         if (_Bytes >= _Big_allocation_threshold) { // boost the alignment of big allocations to help autovectorization

  004c7	81 f9 00 10 00
	00		 cmp	 ecx, 4096		; 00001000H
  004cd	72 10		 jb	 SHORT $LN189@LoadItemSc

; 150  :     const uintptr_t _Ptr_container   = _Ptr_user[-1];

  004cf	8b 76 fc	 mov	 esi, DWORD PTR [esi-4]
  004d2	83 c1 23	 add	 ecx, 35			; 00000023H
  004d5	2b c6		 sub	 eax, esi

; 164  :     _STL_VERIFY(_Back_shift >= _Min_back_shift && _Back_shift <= _Non_user_size, "invalid argument");

  004d7	83 c0 fc	 add	 eax, -4			; fffffffcH
  004da	83 f8 1f	 cmp	 eax, 31			; 0000001fH
  004dd	77 5e		 ja	 SHORT $LN186@LoadItemSc
$LN189@LoadItemSc:

; 255  :         ::operator delete(_Ptr, _Bytes);

  004df	51		 push	 ecx
  004e0	56		 push	 esi
  004e1	e8 00 00 00 00	 call	 ??3@YAXPAXI@Z		; operator delete
  004e6	83 c4 08	 add	 esp, 8
; File D:\visual studio 2019\visual studio 2019\VC\Tools\MSVC\14.29.30133\include\vector

; 1754 :             _Myfirst = nullptr;

  004e9	c7 85 9c fe ff
	ff 00 00 00 00	 mov	 DWORD PTR _TokenVector$[ebp], 0

; 1755 :             _Mylast  = nullptr;

  004f3	c7 85 a0 fe ff
	ff 00 00 00 00	 mov	 DWORD PTR _TokenVector$[ebp+4], 0

; 1756 :             _Myend   = nullptr;

  004fd	c7 85 a4 fe ff
	ff 00 00 00 00	 mov	 DWORD PTR _TokenVector$[ebp+8], 0
$LN129@LoadItemSc:
; File C:\Users\ALEXANDER\Desktop\Cliente\COPY_FISH_WON_NEW\Binario\Client\GameLib\ItemManager.cpp

; 470  : 	return true;

  00507	8d 8d 60 fe ff
	ff		 lea	 ecx, DWORD PTR _textFileLoader$[ebp]
  0050d	e8 00 00 00 00	 call	 ??1CMemoryTextFileLoader@@UAE@XZ ; CMemoryTextFileLoader::~CMemoryTextFileLoader
$LN22@LoadItemSc:
  00512	8d 8d ac fe ff
	ff		 lea	 ecx, DWORD PTR _File$[ebp]
  00518	e8 00 00 00 00	 call	 ??1CMappedFile@@UAE@XZ	; CMappedFile::~CMappedFile
  0051d	8a c3		 mov	 al, bl

; 471  : }

  0051f	8b 4d f4	 mov	 ecx, DWORD PTR __$EHRec$[ebp]
  00522	64 89 0d 00 00
	00 00		 mov	 DWORD PTR fs:0, ecx
  00529	59		 pop	 ecx
  0052a	5f		 pop	 edi
  0052b	5e		 pop	 esi
  0052c	5b		 pop	 ebx
  0052d	8b 4d f0	 mov	 ecx, DWORD PTR __$ArrayPad$[ebp]
  00530	33 cd		 xor	 ecx, ebp
  00532	e8 00 00 00 00	 call	 @__security_check_cookie@4
  00537	8b e5		 mov	 esp, ebp
  00539	5d		 pop	 ebp
  0053a	c2 04 00	 ret	 4
$LN186@LoadItemSc:
; File D:\visual studio 2019\visual studio 2019\VC\Tools\MSVC\14.29.30133\include\xmemory

; 164  :     _STL_VERIFY(_Back_shift >= _Min_back_shift && _Back_shift <= _Non_user_size, "invalid argument");

  0053d	e8 00 00 00 00	 call	 __invalid_parameter_noinfo_noreturn
$LN235@LoadItemSc:
  00542	cc		 int	 3
_TEXT	ENDS
;	COMDAT text$x
text$x	SEGMENT
__unwindfunclet$?LoadItemScale@CItemManager@@QAE_NPBD@Z$0:
  00000	8d 8d ac fe ff
	ff		 lea	 ecx, DWORD PTR _File$[ebp]
  00006	e9 00 00 00 00	 jmp	 ??1CMappedFile@@UAE@XZ	; CMappedFile::~CMappedFile
__unwindfunclet$?LoadItemScale@CItemManager@@QAE_NPBD@Z$1:
  0000b	8d 8d 60 fe ff
	ff		 lea	 ecx, DWORD PTR _textFileLoader$[ebp]
  00011	e9 00 00 00 00	 jmp	 ??1CMemoryTextFileLoader@@UAE@XZ ; CMemoryTextFileLoader::~CMemoryTextFileLoader
__unwindfunclet$?LoadItemScale@CItemManager@@QAE_NPBD@Z$2:
  00016	8d 8d 9c fe ff
	ff		 lea	 ecx, DWORD PTR _TokenVector$[ebp]
  0001c	e9 00 00 00 00	 jmp	 ??1?$vector@V?$basic_string@DU?$char_traits@D@std@@V?$allocator@D@2@@std@@V?$allocator@V?$basic_string@DU?$char_traits@D@std@@V?$allocator@D@2@@std@@@2@@std@@QAE@XZ ; std::vector<std::basic_string<char,std::char_traits<char>,std::allocator<char> >,std::allocator<std::basic_string<char,std::char_traits<char>,std::allocator<char> > > >::~vector<std::basic_string<char,std::char_traits<char>,std::allocator<char> >,std::allocator<std::basic_string<char,std::char_traits<char>,std::allocator<char> > > >
  00021	cc		 int	 3
  00022	cc		 int	 3
  00023	cc		 int	 3
  00024	cc		 int	 3
  00025	cc		 int	 3
__ehhandler$?LoadItemScale@CItemManager@@QAE_NPBD@Z:
  00026	90		 npad	 1
  00027	90		 npad	 1
  00028	8b 54 24 08	 mov	 edx, DWORD PTR [esp+8]
  0002c	8d 42 0c	 lea	 eax, DWORD PTR [edx+12]
  0002f	8b 8a 5c fe ff
	ff		 mov	 ecx, DWORD PTR [edx-420]
  00035	33 c8		 xor	 ecx, eax
  00037	e8 00 00 00 00	 call	 @__security_check_cookie@4
  0003c	8b 4a fc	 mov	 ecx, DWORD PTR [edx-4]
  0003f	33 c8		 xor	 ecx, eax
  00041	e8 00 00 00 00	 call	 @__security_check_cookie@4
  00046	b8 00 00 00 00	 mov	 eax, OFFSET __ehfuncinfo$?LoadItemScale@CItemManager@@QAE_NPBD@Z
  0004b	e9 00 00 00 00	 jmp	 ___CxxFrameHandler3
text$x	ENDS
?LoadItemScale@CItemManager@@QAE_NPBD@Z ENDP		; CItemManager::LoadItemScale
; Function compile flags: /Ogtp
; File C:\Users\ALEXANDER\Desktop\Cliente\COPY_FISH_WON_NEW\Binario\Client\GameLib\ItemManager.cpp
; File D:\visual studio 2019\visual studio 2019\VC\Tools\MSVC\14.29.30133\include\xtree
; File C:\Users\ALEXANDER\Desktop\Cliente\COPY_FISH_WON_NEW\Binario\Client\GameLib\ItemManager.cpp
; File D:\visual studio 2019\visual studio 2019\VC\Tools\MSVC\14.29.30133\include\xtree
; File D:\visual studio 2019\visual studio 2019\VC\Tools\MSVC\14.29.30133\include\xstddef
; File D:\visual studio 2019\visual studio 2019\VC\Tools\MSVC\14.29.30133\include\xtree
; File C:\Users\ALEXANDER\Desktop\Cliente\COPY_FISH_WON_NEW\Binario\Client\GameLib\ItemManager.cpp
; File D:\visual studio 2019\visual studio 2019\VC\Tools\MSVC\14.29.30133\include\utility
; File C:\Users\ALEXANDER\Desktop\Cliente\COPY_FISH_WON_NEW\Binario\Client\GameLib\ItemManager.cpp
; File D:\visual studio 2019\visual studio 2019\VC\Tools\MSVC\14.29.30133\include\utility
; File C:\Users\ALEXANDER\Desktop\Cliente\COPY_FISH_WON_NEW\Binario\Client\GameLib\ItemManager.cpp
;	COMDAT ?MakeItemData@CItemManager@@QAEPAVCItemData@@K@Z
_TEXT	SEGMENT
__Loc$1 = -20						; size = 12
$T2 = -16						; size = 8
$T3 = -8						; size = 8
_dwIndex$ = 8						; size = 4
?MakeItemData@CItemManager@@QAEPAVCItemData@@K@Z PROC	; CItemManager::MakeItemData, COMDAT
; _this$ = ecx

; 84   : {

  00000	55		 push	 ebp
  00001	8b ec		 mov	 ebp, esp
  00003	83 ec 14	 sub	 esp, 20			; 00000014H
  00006	53		 push	 ebx
  00007	57		 push	 edi
; File D:\visual studio 2019\visual studio 2019\VC\Tools\MSVC\14.29.30133\include\xtree

; 1353 :         const _Tree_find_result<_Nodeptr> _Loc = _Find_lower_bound(_Keyval);

  00008	8d 45 08	 lea	 eax, DWORD PTR _dwIndex$[ebp]
  0000b	50		 push	 eax
; File C:\Users\ALEXANDER\Desktop\Cliente\COPY_FISH_WON_NEW\Binario\Client\GameLib\ItemManager.cpp

; 85   : 	TItemMap::iterator f = m_ItemMap.find(dwIndex);

  0000c	8d 79 04	 lea	 edi, DWORD PTR [ecx+4]
; File D:\visual studio 2019\visual studio 2019\VC\Tools\MSVC\14.29.30133\include\xtree

; 1353 :         const _Tree_find_result<_Nodeptr> _Loc = _Find_lower_bound(_Keyval);

  0000f	8d 45 ec	 lea	 eax, DWORD PTR __Loc$1[ebp]
  00012	8b cf		 mov	 ecx, edi
  00014	50		 push	 eax
  00015	e8 00 00 00 00	 call	 ??$_Find_lower_bound@K@?$_Tree@V?$_Tmap_traits@KPAVCItemData@@U?$less@K@std@@V?$allocator@U?$pair@$$CBKPAVCItemData@@@std@@@3@$0A@@std@@@std@@IBE?AU?$_Tree_find_result@PAU?$_Tree_node@U?$pair@$$CBKPAVCItemData@@@std@@PAX@std@@@1@ABK@Z ; std::_Tree<std::_Tmap_traits<unsigned long,CItemData *,std::less<unsigned long>,std::allocator<std::pair<unsigned long const ,CItemData *> >,0> >::_Find_lower_bound<unsigned long>

; 1591 :         return !_Bound->_Isnil && !_DEBUG_LT_PRED(_Getcomp(), _Keyval, _Traits::_Kfn(_Bound->_Myval));

  0001a	8b 45 f4	 mov	 eax, DWORD PTR __Loc$1[ebp+8]
  0001d	8b 5d 08	 mov	 ebx, DWORD PTR _dwIndex$[ebp]
  00020	80 78 0d 00	 cmp	 BYTE PTR [eax+13], 0
  00024	75 14		 jne	 SHORT $LN40@MakeItemDa
; File D:\visual studio 2019\visual studio 2019\VC\Tools\MSVC\14.29.30133\include\xstddef

; 117  :         return _Left < _Right;

  00026	3b 58 10	 cmp	 ebx, DWORD PTR [eax+16]
; File D:\visual studio 2019\visual studio 2019\VC\Tools\MSVC\14.29.30133\include\xtree

; 1591 :         return !_Bound->_Isnil && !_DEBUG_LT_PRED(_Getcomp(), _Keyval, _Traits::_Kfn(_Bound->_Myval));

  00029	72 0f		 jb	 SHORT $LN40@MakeItemDa

; 38   :     _Tree_unchecked_const_iterator(_Nodeptr _Pnode, const _Mytree* _Plist) noexcept : _Ptr(_Pnode) {

  0002b	39 07		 cmp	 DWORD PTR [edi], eax
; File C:\Users\ALEXANDER\Desktop\Cliente\COPY_FISH_WON_NEW\Binario\Client\GameLib\ItemManager.cpp

; 87   : 	if (m_ItemMap.end() == f)

  0002d	74 0b		 je	 SHORT $LN40@MakeItemDa

; 94   : 	}
; 95   : 
; 96   : 	return f->second;

  0002f	8b 40 14	 mov	 eax, DWORD PTR [eax+20]
  00032	5f		 pop	 edi

; 97   : }

  00033	5b		 pop	 ebx
  00034	8b e5		 mov	 esp, ebp
  00036	5d		 pop	 ebp
  00037	c2 04 00	 ret	 4
$LN40@MakeItemDa:
  0003a	56		 push	 esi

; 88   : 	{
; 89   : 		CItemData * pItemData = CItemData::New();

  0003b	e8 00 00 00 00	 call	 ?New@CItemData@@SAPAV1@XZ ; CItemData::New
  00040	8b f0		 mov	 esi, eax
; File D:\visual studio 2019\visual studio 2019\VC\Tools\MSVC\14.29.30133\include\utility

; 186  :         : first(_STD forward<_Other1>(_Val1)), second(_STD forward<_Other2>(_Val2)) {}

  00042	89 5d f8	 mov	 DWORD PTR $T3[ebp], ebx
; File C:\Users\ALEXANDER\Desktop\Cliente\COPY_FISH_WON_NEW\Binario\Client\GameLib\ItemManager.cpp

; 91   : 		m_ItemMap.insert(TItemMap::value_type(dwIndex, pItemData));

  00045	8d 45 f8	 lea	 eax, DWORD PTR $T3[ebp]
; File D:\visual studio 2019\visual studio 2019\VC\Tools\MSVC\14.29.30133\include\utility

; 186  :         : first(_STD forward<_Other1>(_Val1)), second(_STD forward<_Other2>(_Val2)) {}

  00048	89 75 fc	 mov	 DWORD PTR $T3[ebp+4], esi
; File C:\Users\ALEXANDER\Desktop\Cliente\COPY_FISH_WON_NEW\Binario\Client\GameLib\ItemManager.cpp

; 91   : 		m_ItemMap.insert(TItemMap::value_type(dwIndex, pItemData));

  0004b	50		 push	 eax
  0004c	8d 45 f0	 lea	 eax, DWORD PTR $T2[ebp]
  0004f	8b cf		 mov	 ecx, edi
  00051	50		 push	 eax
  00052	e8 00 00 00 00	 call	 ??$insert@$0A@$0A@@?$_Tree@V?$_Tmap_traits@KPAVCItemData@@U?$less@K@std@@V?$allocator@U?$pair@$$CBKPAVCItemData@@@std@@@3@$0A@@std@@@std@@QAE?AU?$pair@V?$_Tree_iterator@V?$_Tree_val@U?$_Tree_simple_types@U?$pair@$$CBKPAVCItemData@@@std@@@std@@@std@@@std@@_N@1@$$QAU?$pair@$$CBKPAVCItemData@@@1@@Z ; std::_Tree<std::_Tmap_traits<unsigned long,CItemData *,std::less<unsigned long>,std::allocator<std::pair<unsigned long const ,CItemData *> >,0> >::insert<0,0>

; 92   : 
; 93   : 		return pItemData;

  00057	8b c6		 mov	 eax, esi
  00059	5e		 pop	 esi
  0005a	5f		 pop	 edi

; 97   : }

  0005b	5b		 pop	 ebx
  0005c	8b e5		 mov	 esp, ebp
  0005e	5d		 pop	 ebp
  0005f	c2 04 00	 ret	 4
?MakeItemData@CItemManager@@QAEPAVCItemData@@K@Z ENDP	; CItemManager::MakeItemData
_TEXT	ENDS
; Function compile flags: /Ogtp
; File C:\Users\ALEXANDER\Desktop\Cliente\COPY_FISH_WON_NEW\Binario\Client\GameLib\ItemManager.cpp
; File C:\Users\ALEXANDER\Desktop\Cliente\COPY_FISH_WON_NEW\Binario\Client\GameLib\ItemData.h
; File C:\Users\ALEXANDER\Desktop\Cliente\COPY_FISH_WON_NEW\Binario\Client\GameLib\ItemManager.cpp
; File D:\visual studio 2019\visual studio 2019\VC\Tools\MSVC\14.29.30133\include\xmemory
; File D:\visual studio 2019\visual studio 2019\VC\Tools\MSVC\14.29.30133\include\xtree
; File D:\visual studio 2019\visual studio 2019\VC\Tools\MSVC\14.29.30133\include\xmemory
; File D:\visual studio 2019\visual studio 2019\VC\Tools\MSVC\14.29.30133\include\xtree
; File C:\Users\ALEXANDER\Desktop\Cliente\COPY_FISH_WON_NEW\Binario\Client\GameLib\ItemManager.cpp
; File D:\visual studio 2019\visual studio 2019\VC\Tools\MSVC\14.29.30133\include\xtree
; File C:\Users\ALEXANDER\Desktop\Cliente\COPY_FISH_WON_NEW\Binario\Client\GameLib\ItemManager.cpp
; File C:\Users\ALEXANDER\Desktop\Cliente\COPY_FISH_WON_NEW\Binario\Client\GameLib\ItemData.h
; File C:\Users\ALEXANDER\Desktop\Cliente\COPY_FISH_WON_NEW\Binario\Client\GameLib\ItemManager.cpp
; File C:\Users\ALEXANDER\Desktop\Cliente\COPY_FISH_WON_NEW\Binario\Client\GameLib\ItemData.h
; File C:\Users\ALEXANDER\Desktop\Cliente\COPY_FISH_WON_NEW\Binario\Client\GameLib\ItemManager.cpp
; File C:\Users\ALEXANDER\Desktop\Cliente\COPY_FISH_WON_NEW\Binario\Client\GameLib\ItemData.h
; File C:\Users\ALEXANDER\Desktop\Cliente\COPY_FISH_WON_NEW\Binario\Client\GameLib\ItemManager.cpp
; File D:\visual studio 2019\visual studio 2019\VC\Tools\MSVC\14.29.30133\include\xtree
; File C:\Users\ALEXANDER\Desktop\Cliente\COPY_FISH_WON_NEW\Binario\Client\GameLib\ItemManager.cpp
; File D:\visual studio 2019\visual studio 2019\VC\Tools\MSVC\14.29.30133\include\xtree
; File D:\visual studio 2019\visual studio 2019\VC\Tools\MSVC\14.29.30133\include\xstddef
; File D:\visual studio 2019\visual studio 2019\VC\Tools\MSVC\14.29.30133\include\xtree
; File C:\Users\ALEXANDER\Desktop\Cliente\COPY_FISH_WON_NEW\Binario\Client\GameLib\ItemManager.cpp
; File D:\visual studio 2019\visual studio 2019\VC\Tools\MSVC\14.29.30133\include\xtree
; File C:\Users\ALEXANDER\Desktop\Cliente\COPY_FISH_WON_NEW\Binario\Client\GameLib\ItemManager.cpp
; File D:\visual studio 2019\visual studio 2019\VC\Tools\MSVC\14.29.30133\include\xtree
; File C:\Users\ALEXANDER\Desktop\Cliente\COPY_FISH_WON_NEW\Binario\Client\GameLib\ItemManager.cpp
; File D:\visual studio 2019\visual studio 2019\VC\Tools\MSVC\14.29.30133\include\xtree
; File D:\visual studio 2019\visual studio 2019\VC\Tools\MSVC\14.29.30133\include\xstddef
; File D:\visual studio 2019\visual studio 2019\VC\Tools\MSVC\14.29.30133\include\xtree
; File C:\Users\ALEXANDER\Desktop\Cliente\COPY_FISH_WON_NEW\Binario\Client\GameLib\ItemManager.cpp
; File D:\visual studio 2019\visual studio 2019\VC\Tools\MSVC\14.29.30133\include\utility
; File C:\Users\ALEXANDER\Desktop\Cliente\COPY_FISH_WON_NEW\Binario\Client\GameLib\ItemManager.cpp
; File D:\visual studio 2019\visual studio 2019\VC\Tools\MSVC\14.29.30133\include\utility
; File C:\Users\ALEXANDER\Desktop\Cliente\COPY_FISH_WON_NEW\Binario\Client\GameLib\ItemManager.cpp
; File D:\visual studio 2019\visual studio 2019\VC\Tools\MSVC\14.29.30133\include\xtree
; File C:\Users\ALEXANDER\Desktop\Cliente\COPY_FISH_WON_NEW\Binario\Client\GameLib\ItemManager.cpp
; File D:\visual studio 2019\visual studio 2019\VC\Tools\MSVC\14.29.30133\include\xtree
; File C:\Users\ALEXANDER\Desktop\Cliente\COPY_FISH_WON_NEW\Binario\Client\GameLib\ItemManager.cpp
; File D:\visual studio 2019\visual studio 2019\VC\Tools\MSVC\14.29.30133\include\xtree
; File D:\visual studio 2019\visual studio 2019\VC\Tools\MSVC\14.29.30133\include\xstddef
; File D:\visual studio 2019\visual studio 2019\VC\Tools\MSVC\14.29.30133\include\xtree
; File C:\Users\ALEXANDER\Desktop\Cliente\COPY_FISH_WON_NEW\Binario\Client\GameLib\ItemManager.cpp
; File D:\visual studio 2019\visual studio 2019\VC\Tools\MSVC\14.29.30133\include\utility
; File C:\Users\ALEXANDER\Desktop\Cliente\COPY_FISH_WON_NEW\Binario\Client\GameLib\ItemManager.cpp
; File D:\visual studio 2019\visual studio 2019\VC\Tools\MSVC\14.29.30133\include\xtree
; File D:\visual studio 2019\visual studio 2019\VC\Tools\MSVC\14.29.30133\include\utility
; File D:\visual studio 2019\visual studio 2019\VC\Tools\MSVC\14.29.30133\include\xtree
; File D:\visual studio 2019\visual studio 2019\VC\Tools\MSVC\14.29.30133\include\xstddef
; File D:\visual studio 2019\visual studio 2019\VC\Tools\MSVC\14.29.30133\include\xtree
; File D:\visual studio 2019\visual studio 2019\VC\Tools\MSVC\14.29.30133\include\xmemory
; File D:\visual studio 2019\visual studio 2019\VC\Tools\MSVC\14.29.30133\include\xtree
; File D:\visual studio 2019\visual studio 2019\VC\Tools\MSVC\14.29.30133\include\xmemory
; File D:\visual studio 2019\visual studio 2019\VC\Tools\MSVC\14.29.30133\include\xtree
; File D:\visual studio 2019\visual studio 2019\VC\Tools\MSVC\14.29.30133\include\xmemory
; File D:\visual studio 2019\visual studio 2019\VC\Tools\MSVC\14.29.30133\include\xtree
; File D:\visual studio 2019\visual studio 2019\VC\Tools\MSVC\14.29.30133\include\utility
; File D:\visual studio 2019\visual studio 2019\VC\Tools\MSVC\14.29.30133\include\xtree
; File C:\Users\ALEXANDER\Desktop\Cliente\COPY_FISH_WON_NEW\Binario\Client\GameLib\ItemManager.cpp
; File D:\visual studio 2019\visual studio 2019\VC\Tools\MSVC\14.29.30133\include\vector
; File C:\Users\ALEXANDER\Desktop\Cliente\COPY_FISH_WON_NEW\Binario\Client\GameLib\ItemManager.cpp
; File D:\visual studio 2019\visual studio 2019\VC\Tools\MSVC\14.29.30133\include\xtree
; File C:\Users\ALEXANDER\Desktop\Cliente\COPY_FISH_WON_NEW\Binario\Client\GameLib\ItemManager.cpp
; File D:\visual studio 2019\visual studio 2019\VC\Tools\MSVC\14.29.30133\include\xtree
; File C:\Users\ALEXANDER\Desktop\Cliente\COPY_FISH_WON_NEW\Binario\Client\GameLib\ItemManager.cpp
;	COMDAT ?LoadItemTable@CItemManager@@QAE_NPBD@Z
_TEXT	SEGMENT
$T2 = -744						; size = 12
$T3 = -732						; size = 8
__Loc$4 = -724						; size = 12
__Loc$5 = -712						; size = 12
__Loc$6 = -700						; size = 12
__Loc$7 = -688						; size = 12
_pvData$ = -676						; size = 4
_zObj$ = -672						; size = 20
$T8 = -652						; size = 8
$T9 = -644						; size = 8
$T10 = -636						; size = 8
_pbData$1$ = -628					; size = 4
$T11 = -624						; size = 4
_dwFourCC$ = -620					; size = 4
_this$1$ = -616						; size = 4
_dwElements$ = -612					; size = 4
tv3253 = -608						; size = 4
tv3252 = -604						; size = 4
_i$1$ = -600						; size = 4
_this$GSCopy$1$ = -596					; size = 4
_dwDataSize$ = -592					; size = 4
_dwVersion$ = -588					; size = 4
tv3251 = -584						; size = 4
_dwStride$ = -580					; size = 4
_itemNameMap$ = -576					; size = 8
_pItemData$12 = -568					; size = 4
$T13 = -568						; size = 4
_dwVnum$14 = -568					; size = 4
_file$ = -564						; size = 324
_t$15 = -240						; size = 156
_szName$ = -84						; size = 65
__$ArrayPad$ = -16					; size = 4
__$EHRec$ = -12						; size = 12
_c_szFileName$ = 8					; size = 4
?LoadItemTable@CItemManager@@QAE_NPBD@Z PROC		; CItemManager::LoadItemTable, COMDAT
; _this$ = ecx

; 276  : {

  00000	55		 push	 ebp
  00001	8b ec		 mov	 ebp, esp
  00003	6a ff		 push	 -1
  00005	68 00 00 00 00	 push	 __ehhandler$?LoadItemTable@CItemManager@@QAE_NPBD@Z
  0000a	64 a1 00 00 00
	00		 mov	 eax, DWORD PTR fs:0
  00010	50		 push	 eax
  00011	81 ec dc 02 00
	00		 sub	 esp, 732		; 000002dcH
  00017	a1 00 00 00 00	 mov	 eax, DWORD PTR ___security_cookie
  0001c	33 c5		 xor	 eax, ebp
  0001e	89 45 f0	 mov	 DWORD PTR __$ArrayPad$[ebp], eax
  00021	53		 push	 ebx
  00022	56		 push	 esi
  00023	57		 push	 edi
  00024	50		 push	 eax
  00025	8d 45 f4	 lea	 eax, DWORD PTR __$EHRec$[ebp]
  00028	64 a3 00 00 00
	00		 mov	 DWORD PTR fs:0, eax
  0002e	8b d9		 mov	 ebx, ecx
  00030	89 9d ac fd ff
	ff		 mov	 DWORD PTR _this$GSCopy$1$[ebp], ebx
  00036	8b 75 08	 mov	 esi, DWORD PTR _c_szFileName$[ebp]

; 277  : 	CMappedFile file;

  00039	8d 8d cc fd ff
	ff		 lea	 ecx, DWORD PTR _file$[ebp]
  0003f	e8 00 00 00 00	 call	 ??0CMappedFile@@QAE@XZ	; CMappedFile::CMappedFile

; 278  : 	LPCVOID pvData;
; 279  : 
; 280  : 	if (!CEterPackManager::Instance().Get(file, c_szFileName, &pvData))

  00044	8b 0d 00 00 00
	00		 mov	 ecx, DWORD PTR ?ms_singleton@?$CSingleton@VCEterPackManager@@@@0PAVCEterPackManager@@A ; CSingleton<CEterPackManager>::ms_singleton
  0004a	8d 85 5c fd ff
	ff		 lea	 eax, DWORD PTR _pvData$[ebp]
  00050	50		 push	 eax
  00051	56		 push	 esi
  00052	8d 85 cc fd ff
	ff		 lea	 eax, DWORD PTR _file$[ebp]
  00058	c7 45 fc 00 00
	00 00		 mov	 DWORD PTR __$EHRec$[ebp+8], 0
  0005f	50		 push	 eax
  00060	e8 00 00 00 00	 call	 ?Get@CEterPackManager@@QAE_NAAVCMappedFile@@PBDPAPBX@Z ; CEterPackManager::Get
  00065	84 c0		 test	 al, al
  00067	74 7b		 je	 SHORT $LN26@LoadItemTa

; 281  : 		return false;
; 282  : 
; 283  : 	DWORD dwFourCC, dwElements, dwDataSize;
; 284  : 	DWORD dwVersion=0;
; 285  : 	DWORD dwStride=0;
; 286  : 
; 287  : 	file.Read(&dwFourCC, sizeof(DWORD));

  00069	6a 04		 push	 4
  0006b	8d 85 94 fd ff
	ff		 lea	 eax, DWORD PTR _dwFourCC$[ebp]
  00071	c7 85 b4 fd ff
	ff 00 00 00 00	 mov	 DWORD PTR _dwVersion$[ebp], 0
  0007b	50		 push	 eax
  0007c	8d 8d cc fd ff
	ff		 lea	 ecx, DWORD PTR _file$[ebp]
  00082	c7 85 bc fd ff
	ff 00 00 00 00	 mov	 DWORD PTR _dwStride$[ebp], 0
  0008c	e8 00 00 00 00	 call	 ?Read@CMappedFile@@QAEHPAXH@Z ; CMappedFile::Read

; 288  : 
; 289  : 	if (dwFourCC == MAKEFOURCC('M', 'I', 'P', 'X'))

  00091	8b 85 94 fd ff
	ff		 mov	 eax, DWORD PTR _dwFourCC$[ebp]
  00097	3d 4d 49 50 58	 cmp	 eax, 1481656653		; 5850494dH
  0009c	0f 85 9e 00 00
	00		 jne	 $LN6@LoadItemTa

; 290  : 	{
; 291  : 		file.Read(&dwVersion, sizeof(DWORD));

  000a2	6a 04		 push	 4
  000a4	8d 85 b4 fd ff
	ff		 lea	 eax, DWORD PTR _dwVersion$[ebp]
  000aa	50		 push	 eax
  000ab	8d 8d cc fd ff
	ff		 lea	 ecx, DWORD PTR _file$[ebp]
  000b1	e8 00 00 00 00	 call	 ?Read@CMappedFile@@QAEHPAXH@Z ; CMappedFile::Read

; 292  : 		file.Read(&dwStride, sizeof(DWORD));

  000b6	6a 04		 push	 4
  000b8	8d 85 bc fd ff
	ff		 lea	 eax, DWORD PTR _dwStride$[ebp]
  000be	50		 push	 eax
  000bf	8d 8d cc fd ff
	ff		 lea	 ecx, DWORD PTR _file$[ebp]
  000c5	e8 00 00 00 00	 call	 ?Read@CMappedFile@@QAEHPAXH@Z ; CMappedFile::Read

; 293  : 
; 294  : 		if (dwVersion != 1)

  000ca	8b 85 b4 fd ff
	ff		 mov	 eax, DWORD PTR _dwVersion$[ebp]
  000d0	83 f8 01	 cmp	 eax, 1
  000d3	74 3c		 je	 SHORT $LN8@LoadItemTa

; 295  : 		{
; 296  : 			TraceError("CPythonItem::LoadItemTable: invalid item_proto[%s] VERSION[%d]", c_szFileName, dwVersion);

  000d5	50		 push	 eax
  000d6	56		 push	 esi
  000d7	68 00 00 00 00	 push	 OFFSET ??_C@_0DP@NBGHGGP@CPythonItem?3?3LoadItemTable?3?5inv@
  000dc	e8 00 00 00 00	 call	 ?TraceError@@YAXPBDZZ	; TraceError
  000e1	83 c4 0c	 add	 esp, 12			; 0000000cH
$LN26@LoadItemTa:
  000e4	32 db		 xor	 bl, bl
$LN27@LoadItemTa:

; 394  : 	return true;

  000e6	8d 8d cc fd ff
	ff		 lea	 ecx, DWORD PTR _file$[ebp]
  000ec	e8 00 00 00 00	 call	 ??1CMappedFile@@UAE@XZ	; CMappedFile::~CMappedFile
  000f1	8a c3		 mov	 al, bl

; 395  : }

  000f3	8b 4d f4	 mov	 ecx, DWORD PTR __$EHRec$[ebp]
  000f6	64 89 0d 00 00
	00 00		 mov	 DWORD PTR fs:0, ecx
  000fd	59		 pop	 ecx
  000fe	5f		 pop	 edi
  000ff	5e		 pop	 esi
  00100	5b		 pop	 ebx
  00101	8b 4d f0	 mov	 ecx, DWORD PTR __$ArrayPad$[ebp]
  00104	33 cd		 xor	 ecx, ebp
  00106	e8 00 00 00 00	 call	 @__security_check_cookie@4
  0010b	8b e5		 mov	 esp, ebp
  0010d	5d		 pop	 ebp
  0010e	c2 04 00	 ret	 4
$LN8@LoadItemTa:
; File C:\Users\ALEXANDER\Desktop\Cliente\COPY_FISH_WON_NEW\Binario\Client\GameLib\ItemData.h

; 748  : 				switch (structSize)

  00111	8b 8d bc fd ff
	ff		 mov	 ecx, DWORD PTR _dwStride$[ebp]
  00117	8b c1		 mov	 eax, ecx
  00119	2d 98 00 00 00	 sub	 eax, 152		; 00000098H
  0011e	74 37		 je	 SHORT $LN10@LoadItemTa
  00120	83 e8 04	 sub	 eax, 4
  00123	74 32		 je	 SHORT $LN10@LoadItemTa
  00125	83 e8 02	 sub	 eax, 2
  00128	74 2d		 je	 SHORT $LN10@LoadItemTa
; File C:\Users\ALEXANDER\Desktop\Cliente\COPY_FISH_WON_NEW\Binario\Client\GameLib\ItemManager.cpp

; 306  : 			TraceError("CPythonItem::LoadItemTable: invalid item_proto[%s] STRIDE[%d] != sizeof(SItemTable)",

  0012a	68 9c 00 00 00	 push	 156			; 0000009cH
  0012f	51		 push	 ecx
  00130	56		 push	 esi
  00131	68 00 00 00 00	 push	 OFFSET ??_C@_0FE@FEBCGCHP@CPythonItem?3?3LoadItemTable?3?5inv@
  00136	e8 00 00 00 00	 call	 ?TraceError@@YAXPBDZZ	; TraceError
  0013b	83 c4 10	 add	 esp, 16			; 00000010H
  0013e	eb a4		 jmp	 SHORT $LN26@LoadItemTa
$LN6@LoadItemTa:

; 307  : 				c_szFileName, dwStride, sizeof(CItemData::TItemTable));
; 308  : 			return false;
; 309  : 		}
; 310  : 	}
; 311  : 	else if (dwFourCC != MAKEFOURCC('M', 'I', 'P', 'T'))

  00140	3d 4d 49 50 54	 cmp	 eax, 1414547789		; 5450494dH
  00145	74 10		 je	 SHORT $LN10@LoadItemTa

; 312  : 	{
; 313  : 		TraceError("CPythonItem::LoadItemTable: invalid item proto type %s", c_szFileName);

  00147	56		 push	 esi
  00148	68 00 00 00 00	 push	 OFFSET ??_C@_0DH@PMBKMONN@CPythonItem?3?3LoadItemTable?3?5inv@
  0014d	e8 00 00 00 00	 call	 ?TraceError@@YAXPBDZZ	; TraceError
  00152	83 c4 08	 add	 esp, 8
  00155	eb 8d		 jmp	 SHORT $LN26@LoadItemTa
$LN10@LoadItemTa:

; 314  : 		return false;
; 315  : 	}
; 316  : 
; 317  : 	file.Read(&dwElements, sizeof(DWORD));

  00157	6a 04		 push	 4
  00159	8d 85 9c fd ff
	ff		 lea	 eax, DWORD PTR _dwElements$[ebp]
  0015f	50		 push	 eax
  00160	8d 8d cc fd ff
	ff		 lea	 ecx, DWORD PTR _file$[ebp]
  00166	e8 00 00 00 00	 call	 ?Read@CMappedFile@@QAEHPAXH@Z ; CMappedFile::Read

; 318  : 	file.Read(&dwDataSize, sizeof(DWORD));

  0016b	6a 04		 push	 4
  0016d	8d 85 b0 fd ff
	ff		 lea	 eax, DWORD PTR _dwDataSize$[ebp]
  00173	50		 push	 eax
  00174	8d 8d cc fd ff
	ff		 lea	 ecx, DWORD PTR _file$[ebp]
  0017a	e8 00 00 00 00	 call	 ?Read@CMappedFile@@QAEHPAXH@Z ; CMappedFile::Read

; 319  : 
; 320  : 	BYTE * pbData = new BYTE[dwDataSize];

  0017f	ff b5 b0 fd ff
	ff		 push	 DWORD PTR _dwDataSize$[ebp]
  00185	e8 00 00 00 00	 call	 ??_U@YAPAXI@Z		; operator new[]
  0018a	83 c4 04	 add	 esp, 4

; 321  : 	file.Read(pbData, dwDataSize);

  0018d	8d 8d cc fd ff
	ff		 lea	 ecx, DWORD PTR _file$[ebp]
  00193	8b f0		 mov	 esi, eax
  00195	89 b5 8c fd ff
	ff		 mov	 DWORD PTR _pbData$1$[ebp], esi
  0019b	ff b5 b0 fd ff
	ff		 push	 DWORD PTR _dwDataSize$[ebp]
  001a1	56		 push	 esi
  001a2	e8 00 00 00 00	 call	 ?Read@CMappedFile@@QAEHPAXH@Z ; CMappedFile::Read

; 322  : 
; 323  : 	/////
; 324  : 
; 325  : 	CLZObject zObj;

  001a7	8d 8d 60 fd ff
	ff		 lea	 ecx, DWORD PTR _zObj$[ebp]
  001ad	e8 00 00 00 00	 call	 ??0CLZObject@@QAE@XZ	; CLZObject::CLZObject

; 326  : 
; 327  : 	if (!CLZO::Instance().Decompress(zObj, pbData, s_adwItemProtoKey))

  001b2	8b 0d 00 00 00
	00		 mov	 ecx, DWORD PTR ?ms_singleton@?$CSingleton@VCLZO@@@@0PAVCLZO@@A ; CSingleton<CLZO>::ms_singleton
  001b8	8d 85 60 fd ff
	ff		 lea	 eax, DWORD PTR _zObj$[ebp]
  001be	68 00 00 00 00	 push	 OFFSET ?s_adwItemProtoKey@@3PAKA
  001c3	56		 push	 esi
  001c4	50		 push	 eax
  001c5	c6 45 fc 01	 mov	 BYTE PTR __$EHRec$[ebp+8], 1
  001c9	e8 00 00 00 00	 call	 ?Decompress@CLZO@@QAE_NAAVCLZObject@@PBEPAK@Z ; CLZO::Decompress
  001ce	84 c0		 test	 al, al
  001d0	75 1b		 jne	 SHORT $LN11@LoadItemTa

; 328  : 	{
; 329  : 		delete [] pbData;

  001d2	56		 push	 esi
  001d3	e8 00 00 00 00	 call	 ??_V@YAXPAX@Z		; operator delete[]
  001d8	83 c4 04	 add	 esp, 4

; 394  : 	return true;

  001db	8d 8d 60 fd ff
	ff		 lea	 ecx, DWORD PTR _zObj$[ebp]
  001e1	32 db		 xor	 bl, bl
  001e3	e8 00 00 00 00	 call	 ??1CLZObject@@QAE@XZ	; CLZObject::~CLZObject
  001e8	e9 f9 fe ff ff	 jmp	 $LN27@LoadItemTa
$LN11@LoadItemTa:
; File D:\visual studio 2019\visual studio 2019\VC\Tools\MSVC\14.29.30133\include\xmemory

; 79   :         return ::operator new(_Bytes);

  001ed	6a 18		 push	 24			; 00000018H
; File D:\visual studio 2019\visual studio 2019\VC\Tools\MSVC\14.29.30133\include\xtree

; 435  :     _Tree_val() noexcept : _Myhead(), _Mysize(0) {}

  001ef	c7 85 c0 fd ff
	ff 00 00 00 00	 mov	 DWORD PTR _itemNameMap$[ebp], 0
  001f9	c7 85 c4 fd ff
	ff 00 00 00 00	 mov	 DWORD PTR _itemNameMap$[ebp+4], 0
; File D:\visual studio 2019\visual studio 2019\VC\Tools\MSVC\14.29.30133\include\xmemory

; 79   :         return ::operator new(_Bytes);

  00203	e8 00 00 00 00	 call	 ??2@YAPAXI@Z		; operator new
  00208	83 c4 04	 add	 esp, 4
; File D:\visual studio 2019\visual studio 2019\VC\Tools\MSVC\14.29.30133\include\xtree

; 345  :         _Construct_in_place(_Pnode->_Left, _Pnode);

  0020b	89 00		 mov	 DWORD PTR [eax], eax

; 346  :         _Construct_in_place(_Pnode->_Parent, _Pnode);

  0020d	89 40 04	 mov	 DWORD PTR [eax+4], eax

; 347  :         _Construct_in_place(_Pnode->_Right, _Pnode);

  00210	89 40 08	 mov	 DWORD PTR [eax+8], eax

; 348  :         _Pnode->_Color = _Black;

  00213	66 c7 40 0c 01
	01		 mov	 WORD PTR [eax+12], 257	; 00000101H

; 1917 :         _Scary->_Myhead = _Node::_Buyheadnode(_Getal());

  00219	89 85 c0 fd ff
	ff		 mov	 DWORD PTR _itemNameMap$[ebp], eax
; File C:\Users\ALEXANDER\Desktop\Cliente\COPY_FISH_WON_NEW\Binario\Client\GameLib\ItemManager.cpp

; 338  : 	for (DWORD i = 0; i < dwElements; ++i)

  0021f	83 bd 9c fd ff
	ff 00		 cmp	 DWORD PTR _dwElements$[ebp], 0
  00226	c6 45 fc 02	 mov	 BYTE PTR __$EHRec$[ebp+8], 2
  0022a	c7 85 a8 fd ff
	ff 00 00 00 00	 mov	 DWORD PTR _i$1$[ebp], 0
  00234	0f 86 40 06 00
	00		 jbe	 $LN3@LoadItemTa
; File D:\visual studio 2019\visual studio 2019\VC\Tools\MSVC\14.29.30133\include\xtree

; 435  :     _Tree_val() noexcept : _Myhead(), _Mysize(0) {}

  0023a	33 f6		 xor	 esi, esi
  0023c	83 c3 04	 add	 ebx, 4
  0023f	33 ff		 xor	 edi, edi
  00241	89 9d 98 fd ff
	ff		 mov	 DWORD PTR _this$1$[ebp], ebx
  00247	89 b5 a0 fd ff
	ff		 mov	 DWORD PTR tv3253[ebp], esi
  0024d	89 bd a4 fd ff
	ff		 mov	 DWORD PTR tv3252[ebp], edi
  00253	89 b5 b8 fd ff
	ff		 mov	 DWORD PTR tv3251[ebp], esi
  00259	0f 1f 80 00 00
	00 00		 npad	 7
$LL4@LoadItemTa:
; File C:\Users\ALEXANDER\Desktop\Cliente\COPY_FISH_WON_NEW\Binario\Client\GameLib\ItemManager.cpp

; 341  : 		CItemData::TItemTable t = {0};

  00260	68 9c 00 00 00	 push	 156			; 0000009cH
  00265	8d 85 10 ff ff
	ff		 lea	 eax, DWORD PTR _t$15[ebp]
  0026b	6a 00		 push	 0
  0026d	50		 push	 eax
  0026e	e8 00 00 00 00	 call	 _memset
; File C:\Users\ALEXANDER\Desktop\Cliente\COPY_FISH_WON_NEW\Binario\Client\GameLib\ItemData.h

; 805  : 				switch (structSize)

  00273	8b 85 bc fd ff
	ff		 mov	 eax, DWORD PTR _dwStride$[ebp]
; File C:\Users\ALEXANDER\Desktop\Cliente\COPY_FISH_WON_NEW\Binario\Client\GameLib\ItemManager.cpp

; 341  : 		CItemData::TItemTable t = {0};

  00279	83 c4 0c	 add	 esp, 12			; 0000000cH
; File C:\Users\ALEXANDER\Desktop\Cliente\COPY_FISH_WON_NEW\Binario\Client\GameLib\ItemData.h

; 805  : 				switch (structSize)

  0027c	2d 98 00 00 00	 sub	 eax, 152		; 00000098H
  00281	0f 84 8d 01 00
	00		 je	 $LN107@LoadItemTa
  00287	83 e8 04	 sub	 eax, 4
  0028a	74 17		 je	 SHORT $LN108@LoadItemTa
  0028c	83 e8 02	 sub	 eax, 2
  0028f	0f 85 e7 02 00
	00		 jne	 $LN69@LoadItemTa

; 816  : 							ITABLE_COPY_INT(dwVnumRange);
; 817  : 						}
; 818  : 						break;
; 819  : 					case sizeof(TItemTable_r158):
; 820  : 						{
; 821  : 							ITABLE_PROCESS(158);

  00295	8b b5 b8 fd ff
	ff		 mov	 esi, DWORD PTR tv3251[ebp]
  0029b	03 b5 60 fd ff
	ff		 add	 esi, DWORD PTR _zObj$[ebp]

; 822  : 							ITABLE_COPY_INT(dwVnumRange);

  002a1	eb 08		 jmp	 SHORT $LN418@LoadItemTa
$LN108@LoadItemTa:

; 811  : 						}
; 812  : 						break;
; 813  : 					case sizeof(TItemTable_r156):
; 814  : 						{
; 815  : 							ITABLE_PROCESS(156);

  002a3	8b b5 60 fd ff
	ff		 mov	 esi, DWORD PTR _zObj$[ebp]
  002a9	03 f7		 add	 esi, edi
$LN418@LoadItemTa:
; File C:\Users\ALEXANDER\Desktop\Cliente\COPY_FISH_WON_NEW\Binario\Client\GameLib\ItemManager.cpp

; 349  : 		DWORD dwVnum = table->dwVnum;

  002ab	8b 06		 mov	 eax, DWORD PTR [esi]
  002ad	89 85 10 ff ff
	ff		 mov	 DWORD PTR _t$15[ebp], eax
  002b3	8d 46 08	 lea	 eax, DWORD PTR [esi+8]
  002b6	6a ff		 push	 -1
  002b8	50		 push	 eax
  002b9	8d 85 18 ff ff
	ff		 lea	 eax, DWORD PTR _t$15[ebp+8]
  002bf	6a 19		 push	 25			; 00000019H
  002c1	50		 push	 eax
  002c2	e8 00 00 00 00	 call	 _strncpy_s
  002c7	6a ff		 push	 -1
  002c9	8d 46 21	 lea	 eax, DWORD PTR [esi+33]
  002cc	50		 push	 eax
  002cd	8d 85 31 ff ff
	ff		 lea	 eax, DWORD PTR _t$15[ebp+33]
  002d3	6a 19		 push	 25			; 00000019H
  002d5	50		 push	 eax
  002d6	e8 00 00 00 00	 call	 _strncpy_s
  002db	8a 46 3a	 mov	 al, BYTE PTR [esi+58]
  002de	83 c4 20	 add	 esp, 32			; 00000020H
  002e1	88 85 4a ff ff
	ff		 mov	 BYTE PTR _t$15[ebp+58], al
  002e7	8a 46 3b	 mov	 al, BYTE PTR [esi+59]
  002ea	88 85 4b ff ff
	ff		 mov	 BYTE PTR _t$15[ebp+59], al
  002f0	8a 46 3c	 mov	 al, BYTE PTR [esi+60]
  002f3	88 85 4c ff ff
	ff		 mov	 BYTE PTR _t$15[ebp+60], al
  002f9	8a 46 3d	 mov	 al, BYTE PTR [esi+61]
  002fc	88 85 4d ff ff
	ff		 mov	 BYTE PTR _t$15[ebp+61], al
  00302	8b 46 3e	 mov	 eax, DWORD PTR [esi+62]
  00305	89 85 4e ff ff
	ff		 mov	 DWORD PTR _t$15[ebp+62], eax
  0030b	8b 46 42	 mov	 eax, DWORD PTR [esi+66]
  0030e	89 85 52 ff ff
	ff		 mov	 DWORD PTR _t$15[ebp+66], eax
  00314	8b 46 46	 mov	 eax, DWORD PTR [esi+70]
  00317	89 85 56 ff ff
	ff		 mov	 DWORD PTR _t$15[ebp+70], eax
  0031d	8b 46 4a	 mov	 eax, DWORD PTR [esi+74]
  00320	89 85 5a ff ff
	ff		 mov	 DWORD PTR _t$15[ebp+74], eax
  00326	8b 46 4e	 mov	 eax, DWORD PTR [esi+78]
  00329	89 85 5e ff ff
	ff		 mov	 DWORD PTR _t$15[ebp+78], eax
  0032f	8b 46 52	 mov	 eax, DWORD PTR [esi+82]
  00332	89 85 62 ff ff
	ff		 mov	 DWORD PTR _t$15[ebp+82], eax
  00338	8a 46 56	 mov	 al, BYTE PTR [esi+86]
  0033b	88 85 66 ff ff
	ff		 mov	 BYTE PTR _t$15[ebp+86], al
  00341	8b 46 57	 mov	 eax, DWORD PTR [esi+87]
  00344	89 85 67 ff ff
	ff		 mov	 DWORD PTR _t$15[ebp+87], eax
  0034a	8a 46 5b	 mov	 al, BYTE PTR [esi+91]
  0034d	88 85 6b ff ff
	ff		 mov	 BYTE PTR _t$15[ebp+91], al
  00353	8b 46 5c	 mov	 eax, DWORD PTR [esi+92]
  00356	89 85 6c ff ff
	ff		 mov	 DWORD PTR _t$15[ebp+92], eax
  0035c	8a 46 60	 mov	 al, BYTE PTR [esi+96]
  0035f	88 85 70 ff ff
	ff		 mov	 BYTE PTR _t$15[ebp+96], al
  00365	8b 46 61	 mov	 eax, DWORD PTR [esi+97]
  00368	89 85 71 ff ff
	ff		 mov	 DWORD PTR _t$15[ebp+97], eax
  0036e	8a 46 65	 mov	 al, BYTE PTR [esi+101]
  00371	88 85 75 ff ff
	ff		 mov	 BYTE PTR _t$15[ebp+101], al
  00377	8b 46 66	 mov	 eax, DWORD PTR [esi+102]
  0037a	89 85 76 ff ff
	ff		 mov	 DWORD PTR _t$15[ebp+102], eax
  00380	8a 46 6a	 mov	 al, BYTE PTR [esi+106]
  00383	88 85 7a ff ff
	ff		 mov	 BYTE PTR _t$15[ebp+106], al
  00389	8b 46 6b	 mov	 eax, DWORD PTR [esi+107]
  0038c	89 85 7b ff ff
	ff		 mov	 DWORD PTR _t$15[ebp+107], eax
  00392	8b 46 6f	 mov	 eax, DWORD PTR [esi+111]
  00395	89 85 7f ff ff
	ff		 mov	 DWORD PTR _t$15[ebp+111], eax
  0039b	8b 46 73	 mov	 eax, DWORD PTR [esi+115]
  0039e	89 45 83	 mov	 DWORD PTR _t$15[ebp+115], eax
  003a1	8b 46 77	 mov	 eax, DWORD PTR [esi+119]
  003a4	89 45 87	 mov	 DWORD PTR _t$15[ebp+119], eax
  003a7	8b 46 7b	 mov	 eax, DWORD PTR [esi+123]
  003aa	89 45 8b	 mov	 DWORD PTR _t$15[ebp+123], eax
  003ad	8b 46 7f	 mov	 eax, DWORD PTR [esi+127]
  003b0	89 45 8f	 mov	 DWORD PTR _t$15[ebp+127], eax
  003b3	8b 86 83 00 00
	00		 mov	 eax, DWORD PTR [esi+131]
  003b9	89 45 93	 mov	 DWORD PTR _t$15[ebp+131], eax
  003bc	8b 86 87 00 00
	00		 mov	 eax, DWORD PTR [esi+135]
  003c2	89 45 97	 mov	 DWORD PTR _t$15[ebp+135], eax
  003c5	8b 86 8b 00 00
	00		 mov	 eax, DWORD PTR [esi+139]
  003cb	89 45 9b	 mov	 DWORD PTR _t$15[ebp+139], eax
  003ce	8b 86 8f 00 00
	00		 mov	 eax, DWORD PTR [esi+143]
  003d4	89 45 9f	 mov	 DWORD PTR _t$15[ebp+143], eax
  003d7	8b 86 93 00 00
	00		 mov	 eax, DWORD PTR [esi+147]
  003dd	89 45 a3	 mov	 DWORD PTR _t$15[ebp+147], eax
  003e0	66 8b 86 97 00
	00 00		 mov	 ax, WORD PTR [esi+151]
  003e7	66 89 45 a7	 mov	 WORD PTR _t$15[ebp+151], ax
  003eb	8a 86 99 00 00
	00		 mov	 al, BYTE PTR [esi+153]
  003f1	88 45 a9	 mov	 BYTE PTR _t$15[ebp+153], al
  003f4	8a 86 9a 00 00
	00		 mov	 al, BYTE PTR [esi+154]
  003fa	88 45 aa	 mov	 BYTE PTR _t$15[ebp+154], al
  003fd	8a 86 9b 00 00
	00		 mov	 al, BYTE PTR [esi+155]
  00403	88 45 ab	 mov	 BYTE PTR _t$15[ebp+155], al
  00406	8b 46 04	 mov	 eax, DWORD PTR [esi+4]
  00409	89 85 14 ff ff
	ff		 mov	 DWORD PTR _t$15[ebp+4], eax
  0040f	e9 68 01 00 00	 jmp	 $LN69@LoadItemTa
$LN107@LoadItemTa:
; File C:\Users\ALEXANDER\Desktop\Cliente\COPY_FISH_WON_NEW\Binario\Client\GameLib\ItemData.h

; 809  : 							ITABLE_PROCESS(152);

  00414	03 b5 60 fd ff
	ff		 add	 esi, DWORD PTR _zObj$[ebp]
  0041a	6a ff		 push	 -1
  0041c	8b 06		 mov	 eax, DWORD PTR [esi]
  0041e	89 85 10 ff ff
	ff		 mov	 DWORD PTR _t$15[ebp], eax
  00424	8d 46 04	 lea	 eax, DWORD PTR [esi+4]
  00427	50		 push	 eax
  00428	8d 85 18 ff ff
	ff		 lea	 eax, DWORD PTR _t$15[ebp+8]
  0042e	6a 19		 push	 25			; 00000019H
  00430	50		 push	 eax
  00431	e8 00 00 00 00	 call	 _strncpy_s
  00436	6a ff		 push	 -1
  00438	8d 46 1d	 lea	 eax, DWORD PTR [esi+29]
  0043b	50		 push	 eax
  0043c	8d 85 31 ff ff
	ff		 lea	 eax, DWORD PTR _t$15[ebp+33]
  00442	6a 19		 push	 25			; 00000019H
  00444	50		 push	 eax
  00445	e8 00 00 00 00	 call	 _strncpy_s
  0044a	8a 46 36	 mov	 al, BYTE PTR [esi+54]
  0044d	83 c4 20	 add	 esp, 32			; 00000020H
  00450	88 85 4a ff ff
	ff		 mov	 BYTE PTR _t$15[ebp+58], al
  00456	8a 46 37	 mov	 al, BYTE PTR [esi+55]
  00459	88 85 4b ff ff
	ff		 mov	 BYTE PTR _t$15[ebp+59], al
  0045f	8a 46 38	 mov	 al, BYTE PTR [esi+56]
  00462	88 85 4c ff ff
	ff		 mov	 BYTE PTR _t$15[ebp+60], al
  00468	8a 46 39	 mov	 al, BYTE PTR [esi+57]
  0046b	88 85 4d ff ff
	ff		 mov	 BYTE PTR _t$15[ebp+61], al
  00471	8b 46 3a	 mov	 eax, DWORD PTR [esi+58]
  00474	89 85 4e ff ff
	ff		 mov	 DWORD PTR _t$15[ebp+62], eax
  0047a	8b 46 3e	 mov	 eax, DWORD PTR [esi+62]
  0047d	89 85 52 ff ff
	ff		 mov	 DWORD PTR _t$15[ebp+66], eax
  00483	8b 46 42	 mov	 eax, DWORD PTR [esi+66]
  00486	89 85 56 ff ff
	ff		 mov	 DWORD PTR _t$15[ebp+70], eax
  0048c	8b 46 46	 mov	 eax, DWORD PTR [esi+70]
  0048f	89 85 5a ff ff
	ff		 mov	 DWORD PTR _t$15[ebp+74], eax
  00495	8b 46 4a	 mov	 eax, DWORD PTR [esi+74]
  00498	89 85 5e ff ff
	ff		 mov	 DWORD PTR _t$15[ebp+78], eax
  0049e	8b 46 4e	 mov	 eax, DWORD PTR [esi+78]
  004a1	89 85 62 ff ff
	ff		 mov	 DWORD PTR _t$15[ebp+82], eax
  004a7	8a 46 52	 mov	 al, BYTE PTR [esi+82]
  004aa	88 85 66 ff ff
	ff		 mov	 BYTE PTR _t$15[ebp+86], al
  004b0	8b 46 53	 mov	 eax, DWORD PTR [esi+83]
  004b3	89 85 67 ff ff
	ff		 mov	 DWORD PTR _t$15[ebp+87], eax
  004b9	8a 46 57	 mov	 al, BYTE PTR [esi+87]
  004bc	88 85 6b ff ff
	ff		 mov	 BYTE PTR _t$15[ebp+91], al
  004c2	8b 46 58	 mov	 eax, DWORD PTR [esi+88]
  004c5	89 85 6c ff ff
	ff		 mov	 DWORD PTR _t$15[ebp+92], eax
  004cb	8a 46 5c	 mov	 al, BYTE PTR [esi+92]
  004ce	88 85 70 ff ff
	ff		 mov	 BYTE PTR _t$15[ebp+96], al
  004d4	8b 46 5d	 mov	 eax, DWORD PTR [esi+93]
  004d7	89 85 71 ff ff
	ff		 mov	 DWORD PTR _t$15[ebp+97], eax
  004dd	8a 46 61	 mov	 al, BYTE PTR [esi+97]
  004e0	88 85 75 ff ff
	ff		 mov	 BYTE PTR _t$15[ebp+101], al
  004e6	8b 46 62	 mov	 eax, DWORD PTR [esi+98]
  004e9	89 85 76 ff ff
	ff		 mov	 DWORD PTR _t$15[ebp+102], eax
  004ef	8a 46 66	 mov	 al, BYTE PTR [esi+102]
  004f2	88 85 7a ff ff
	ff		 mov	 BYTE PTR _t$15[ebp+106], al
  004f8	8b 46 67	 mov	 eax, DWORD PTR [esi+103]
  004fb	89 85 7b ff ff
	ff		 mov	 DWORD PTR _t$15[ebp+107], eax
  00501	8b 46 6b	 mov	 eax, DWORD PTR [esi+107]
  00504	89 85 7f ff ff
	ff		 mov	 DWORD PTR _t$15[ebp+111], eax
  0050a	8b 46 6f	 mov	 eax, DWORD PTR [esi+111]
  0050d	89 45 83	 mov	 DWORD PTR _t$15[ebp+115], eax
  00510	8b 46 73	 mov	 eax, DWORD PTR [esi+115]
  00513	89 45 87	 mov	 DWORD PTR _t$15[ebp+119], eax
  00516	8b 46 77	 mov	 eax, DWORD PTR [esi+119]
  00519	89 45 8b	 mov	 DWORD PTR _t$15[ebp+123], eax
  0051c	8b 46 7b	 mov	 eax, DWORD PTR [esi+123]
  0051f	89 45 8f	 mov	 DWORD PTR _t$15[ebp+127], eax
  00522	8b 46 7f	 mov	 eax, DWORD PTR [esi+127]
  00525	89 45 93	 mov	 DWORD PTR _t$15[ebp+131], eax
  00528	8b 86 83 00 00
	00		 mov	 eax, DWORD PTR [esi+131]
  0052e	89 45 97	 mov	 DWORD PTR _t$15[ebp+135], eax
  00531	8b 86 87 00 00
	00		 mov	 eax, DWORD PTR [esi+135]
  00537	89 45 9b	 mov	 DWORD PTR _t$15[ebp+139], eax
  0053a	8b 86 8b 00 00
	00		 mov	 eax, DWORD PTR [esi+139]
  00540	89 45 9f	 mov	 DWORD PTR _t$15[ebp+143], eax
  00543	8b 86 8f 00 00
	00		 mov	 eax, DWORD PTR [esi+143]
  00549	89 45 a3	 mov	 DWORD PTR _t$15[ebp+147], eax
  0054c	66 8b 86 93 00
	00 00		 mov	 ax, WORD PTR [esi+147]
  00553	66 89 45 a7	 mov	 WORD PTR _t$15[ebp+151], ax
  00557	8a 86 95 00 00
	00		 mov	 al, BYTE PTR [esi+149]
  0055d	88 45 a9	 mov	 BYTE PTR _t$15[ebp+153], al
  00560	8a 86 96 00 00
	00		 mov	 al, BYTE PTR [esi+150]
  00566	88 45 aa	 mov	 BYTE PTR _t$15[ebp+154], al
  00569	8a 86 97 00 00
	00		 mov	 al, BYTE PTR [esi+151]
  0056f	88 45 ab	 mov	 BYTE PTR _t$15[ebp+155], al

; 810  : 							ITABLE_ZERO_INT(dwVnumRange);

  00572	c7 85 14 ff ff
	ff 00 00 00 00	 mov	 DWORD PTR _t$15[ebp+4], 0
$LN69@LoadItemTa:
; File C:\Users\ALEXANDER\Desktop\Cliente\COPY_FISH_WON_NEW\Binario\Client\GameLib\ItemManager.cpp

; 349  : 		DWORD dwVnum = table->dwVnum;

  0057c	8b bd 10 ff ff
	ff		 mov	 edi, DWORD PTR _t$15[ebp]
; File D:\visual studio 2019\visual studio 2019\VC\Tools\MSVC\14.29.30133\include\xtree

; 1353 :         const _Tree_find_result<_Nodeptr> _Loc = _Find_lower_bound(_Keyval);

  00582	8d 85 c8 fd ff
	ff		 lea	 eax, DWORD PTR _dwVnum$14[ebp]
  00588	50		 push	 eax
  00589	8d 85 44 fd ff
	ff		 lea	 eax, DWORD PTR __Loc$6[ebp]
; File C:\Users\ALEXANDER\Desktop\Cliente\COPY_FISH_WON_NEW\Binario\Client\GameLib\ItemManager.cpp

; 349  : 		DWORD dwVnum = table->dwVnum;

  0058f	89 bd c8 fd ff
	ff		 mov	 DWORD PTR _dwVnum$14[ebp], edi
; File D:\visual studio 2019\visual studio 2019\VC\Tools\MSVC\14.29.30133\include\xtree

; 1353 :         const _Tree_find_result<_Nodeptr> _Loc = _Find_lower_bound(_Keyval);

  00595	50		 push	 eax
  00596	8b cb		 mov	 ecx, ebx
  00598	e8 00 00 00 00	 call	 ??$_Find_lower_bound@K@?$_Tree@V?$_Tmap_traits@KPAVCItemData@@U?$less@K@std@@V?$allocator@U?$pair@$$CBKPAVCItemData@@@std@@@3@$0A@@std@@@std@@IBE?AU?$_Tree_find_result@PAU?$_Tree_node@U?$pair@$$CBKPAVCItemData@@@std@@PAX@std@@@1@ABK@Z ; std::_Tree<std::_Tmap_traits<unsigned long,CItemData *,std::less<unsigned long>,std::allocator<std::pair<unsigned long const ,CItemData *> >,0> >::_Find_lower_bound<unsigned long>

; 1591 :         return !_Bound->_Isnil && !_DEBUG_LT_PRED(_Getcomp(), _Keyval, _Traits::_Kfn(_Bound->_Myval));

  0059d	8b 9d 4c fd ff
	ff		 mov	 ebx, DWORD PTR __Loc$6[ebp+8]
  005a3	80 7b 0d 00	 cmp	 BYTE PTR [ebx+13], 0
  005a7	75 1e		 jne	 SHORT $LN411@LoadItemTa
; File D:\visual studio 2019\visual studio 2019\VC\Tools\MSVC\14.29.30133\include\xstddef

; 117  :         return _Left < _Right;

  005a9	3b 7b 10	 cmp	 edi, DWORD PTR [ebx+16]
; File D:\visual studio 2019\visual studio 2019\VC\Tools\MSVC\14.29.30133\include\xtree

; 1591 :         return !_Bound->_Isnil && !_DEBUG_LT_PRED(_Getcomp(), _Keyval, _Traits::_Kfn(_Bound->_Myval));

  005ac	72 19		 jb	 SHORT $LN411@LoadItemTa
; File C:\Users\ALEXANDER\Desktop\Cliente\COPY_FISH_WON_NEW\Binario\Client\GameLib\ItemManager.cpp

; 352  : 		if (m_ItemMap.end() == f)

  005ae	8b 85 ac fd ff
	ff		 mov	 eax, DWORD PTR _this$GSCopy$1$[ebp]
  005b4	39 58 04	 cmp	 DWORD PTR [eax+4], ebx
  005b7	74 0e		 je	 SHORT $LN411@LoadItemTa

; 379  : 		}
; 380  : 		else
; 381  : 		{
; 382  : 			pItemData = f->second;

  005b9	8b 5b 14	 mov	 ebx, DWORD PTR [ebx+20]
  005bc	89 9d c8 fd ff
	ff		 mov	 DWORD PTR _pItemData$12[ebp], ebx
  005c2	e9 0c 01 00 00	 jmp	 $LN13@LoadItemTa
$LN411@LoadItemTa:

; 353  : 		{
; 354  : 			_snprintf(szName, sizeof(szName), "icon/item/%05d.tga", dwVnum);

  005c7	57		 push	 edi
  005c8	68 00 00 00 00	 push	 OFFSET ??_C@_0BD@KPPKEKHD@icon?1item?1?$CF05d?4tga@
  005cd	8d 45 ac	 lea	 eax, DWORD PTR _szName$[ebp]
  005d0	6a 41		 push	 65			; 00000041H
  005d2	50		 push	 eax
  005d3	e8 00 00 00 00	 call	 __snprintf

; 355  : 
; 356  : 			if (CResourceManager::Instance().IsFileExist(szName) == false)

  005d8	8b 0d 00 00 00
	00		 mov	 ecx, DWORD PTR ?ms_singleton@?$CSingleton@VCResourceManager@@@@0PAVCResourceManager@@A ; CSingleton<CResourceManager>::ms_singleton
  005de	8d 45 ac	 lea	 eax, DWORD PTR _szName$[ebp]
  005e1	83 c4 10	 add	 esp, 16			; 00000010H
  005e4	50		 push	 eax
  005e5	e8 00 00 00 00	 call	 ?IsFileExist@CResourceManager@@QAE_NPBD@Z ; CResourceManager::IsFileExist
  005ea	84 c0		 test	 al, al
  005ec	0f 85 9c 00 00
	00		 jne	 $LN17@LoadItemTa

; 358  : 				std::map<DWORD, DWORD>::iterator itVnum = itemNameMap.find(GetHashCode(table->szName));

  005f2	8d 85 18 ff ff
	ff		 lea	 eax, DWORD PTR _t$15[ebp+8]
  005f8	50		 push	 eax
  005f9	e8 00 00 00 00	 call	 ?GetHashCode@@YAKPBD@Z	; GetHashCode
  005fe	83 c4 04	 add	 esp, 4
; File D:\visual studio 2019\visual studio 2019\VC\Tools\MSVC\14.29.30133\include\xtree

; 1353 :         const _Tree_find_result<_Nodeptr> _Loc = _Find_lower_bound(_Keyval);

  00601	8d 8d c0 fd ff
	ff		 lea	 ecx, DWORD PTR _itemNameMap$[ebp]
; File C:\Users\ALEXANDER\Desktop\Cliente\COPY_FISH_WON_NEW\Binario\Client\GameLib\ItemManager.cpp

; 358  : 				std::map<DWORD, DWORD>::iterator itVnum = itemNameMap.find(GetHashCode(table->szName));

  00607	8b f0		 mov	 esi, eax
; File D:\visual studio 2019\visual studio 2019\VC\Tools\MSVC\14.29.30133\include\xtree

; 1353 :         const _Tree_find_result<_Nodeptr> _Loc = _Find_lower_bound(_Keyval);

  00609	8d 85 c8 fd ff
	ff		 lea	 eax, DWORD PTR $T13[ebp]
; File C:\Users\ALEXANDER\Desktop\Cliente\COPY_FISH_WON_NEW\Binario\Client\GameLib\ItemManager.cpp

; 358  : 				std::map<DWORD, DWORD>::iterator itVnum = itemNameMap.find(GetHashCode(table->szName));

  0060f	89 b5 c8 fd ff
	ff		 mov	 DWORD PTR $T13[ebp], esi
; File D:\visual studio 2019\visual studio 2019\VC\Tools\MSVC\14.29.30133\include\xtree

; 1353 :         const _Tree_find_result<_Nodeptr> _Loc = _Find_lower_bound(_Keyval);

  00615	50		 push	 eax
  00616	8d 85 38 fd ff
	ff		 lea	 eax, DWORD PTR __Loc$5[ebp]
  0061c	50		 push	 eax
  0061d	e8 00 00 00 00	 call	 ??$_Find_lower_bound@K@?$_Tree@V?$_Tmap_traits@KKU?$less@K@std@@V?$allocator@U?$pair@$$CBKK@std@@@2@$0A@@std@@@std@@IBE?AU?$_Tree_find_result@PAU?$_Tree_node@U?$pair@$$CBKK@std@@PAX@std@@@1@ABK@Z ; std::_Tree<std::_Tmap_traits<unsigned long,unsigned long,std::less<unsigned long>,std::allocator<std::pair<unsigned long const ,unsigned long> >,0> >::_Find_lower_bound<unsigned long>

; 1591 :         return !_Bound->_Isnil && !_DEBUG_LT_PRED(_Getcomp(), _Keyval, _Traits::_Kfn(_Bound->_Myval));

  00622	8b 8d 40 fd ff
	ff		 mov	 ecx, DWORD PTR __Loc$5[ebp+8]
  00628	80 79 0d 00	 cmp	 BYTE PTR [ecx+13], 0
  0062c	75 12		 jne	 SHORT $LN15@LoadItemTa
; File D:\visual studio 2019\visual studio 2019\VC\Tools\MSVC\14.29.30133\include\xstddef

; 117  :         return _Left < _Right;

  0062e	3b 71 10	 cmp	 esi, DWORD PTR [ecx+16]
; File D:\visual studio 2019\visual studio 2019\VC\Tools\MSVC\14.29.30133\include\xtree

; 1591 :         return !_Bound->_Isnil && !_DEBUG_LT_PRED(_Getcomp(), _Keyval, _Traits::_Kfn(_Bound->_Myval));

  00631	72 0d		 jb	 SHORT $LN15@LoadItemTa
; File C:\Users\ALEXANDER\Desktop\Cliente\COPY_FISH_WON_NEW\Binario\Client\GameLib\ItemManager.cpp

; 360  : 				if (itVnum != itemNameMap.end())

  00633	3b 8d c0 fd ff
	ff		 cmp	 ecx, DWORD PTR _itemNameMap$[ebp]
  00639	74 05		 je	 SHORT $LN15@LoadItemTa

; 361  : 					_snprintf(szName, sizeof(szName), "icon/item/%05d.tga", itVnum->second);

  0063b	8b 41 14	 mov	 eax, DWORD PTR [ecx+20]
  0063e	eb 0f		 jmp	 SHORT $LN16@LoadItemTa
$LN15@LoadItemTa:

; 362  : 				else
; 363  : 					_snprintf(szName, sizeof(szName), "icon/item/%05d.tga", dwVnum-dwVnum % 10);

  00640	b8 cd cc cc cc	 mov	 eax, -858993459		; cccccccdH
  00645	f7 e7		 mul	 edi
  00647	c1 ea 03	 shr	 edx, 3
  0064a	8d 04 92	 lea	 eax, DWORD PTR [edx+edx*4]
  0064d	03 c0		 add	 eax, eax
$LN16@LoadItemTa:

; 364  : 
; 365  : 				if (CResourceManager::Instance().IsFileExist(szName) == false)

  0064f	50		 push	 eax
  00650	68 00 00 00 00	 push	 OFFSET ??_C@_0BD@KPPKEKHD@icon?1item?1?$CF05d?4tga@
  00655	8d 45 ac	 lea	 eax, DWORD PTR _szName$[ebp]
  00658	6a 41		 push	 65			; 00000041H
  0065a	50		 push	 eax
  0065b	e8 00 00 00 00	 call	 __snprintf
  00660	8b 0d 00 00 00
	00		 mov	 ecx, DWORD PTR ?ms_singleton@?$CSingleton@VCResourceManager@@@@0PAVCResourceManager@@A ; CSingleton<CResourceManager>::ms_singleton
  00666	8d 45 ac	 lea	 eax, DWORD PTR _szName$[ebp]
  00669	83 c4 10	 add	 esp, 16			; 00000010H
  0066c	50		 push	 eax
  0066d	e8 00 00 00 00	 call	 ?IsFileExist@CResourceManager@@QAE_NPBD@Z ; CResourceManager::IsFileExist
  00672	84 c0		 test	 al, al
  00674	75 18		 jne	 SHORT $LN17@LoadItemTa

; 366  : 				{
; 367  : 					#ifdef _DEBUG
; 368  : 					TraceError("%16s(#%-5d) cannot find icon file. setting to default.", table->szName, dwVnum);
; 369  : 					#endif
; 370  : 					const DWORD EmptyBowl = 27995;
; 371  : 					_snprintf(szName, sizeof(szName), "icon/item/%05d.tga", EmptyBowl);

  00676	68 5b 6d 00 00	 push	 27995			; 00006d5bH
  0067b	68 00 00 00 00	 push	 OFFSET ??_C@_0BD@KPPKEKHD@icon?1item?1?$CF05d?4tga@
  00680	8d 45 ac	 lea	 eax, DWORD PTR _szName$[ebp]
  00683	6a 41		 push	 65			; 00000041H
  00685	50		 push	 eax
  00686	e8 00 00 00 00	 call	 __snprintf
  0068b	83 c4 10	 add	 esp, 16			; 00000010H
$LN17@LoadItemTa:

; 372  : 				}
; 373  : 			}
; 374  : 
; 375  : 			pItemData = CItemData::New();

  0068e	e8 00 00 00 00	 call	 ?New@CItemData@@SAPAV1@XZ ; CItemData::New
  00693	8b d8		 mov	 ebx, eax

; 376  : 
; 377  : 			pItemData->SetDefaultItemData(szName);

  00695	8d 45 ac	 lea	 eax, DWORD PTR _szName$[ebp]
  00698	6a 00		 push	 0
  0069a	50		 push	 eax
  0069b	8b cb		 mov	 ecx, ebx
  0069d	89 9d c8 fd ff
	ff		 mov	 DWORD PTR _pItemData$12[ebp], ebx
  006a3	e8 00 00 00 00	 call	 ?SetDefaultItemData@CItemData@@QAEXPBD0@Z ; CItemData::SetDefaultItemData

; 378  : 			m_ItemMap.insert(TItemMap::value_type(dwVnum, pItemData));

  006a8	8b 8d 98 fd ff
	ff		 mov	 ecx, DWORD PTR _this$1$[ebp]
  006ae	8d 85 7c fd ff
	ff		 lea	 eax, DWORD PTR $T9[ebp]
  006b4	50		 push	 eax
  006b5	8d 85 24 fd ff
	ff		 lea	 eax, DWORD PTR $T3[ebp]
; File D:\visual studio 2019\visual studio 2019\VC\Tools\MSVC\14.29.30133\include\utility

; 186  :         : first(_STD forward<_Other1>(_Val1)), second(_STD forward<_Other2>(_Val2)) {}

  006bb	89 bd 7c fd ff
	ff		 mov	 DWORD PTR $T9[ebp], edi
; File C:\Users\ALEXANDER\Desktop\Cliente\COPY_FISH_WON_NEW\Binario\Client\GameLib\ItemManager.cpp

; 378  : 			m_ItemMap.insert(TItemMap::value_type(dwVnum, pItemData));

  006c1	50		 push	 eax
; File D:\visual studio 2019\visual studio 2019\VC\Tools\MSVC\14.29.30133\include\utility

; 186  :         : first(_STD forward<_Other1>(_Val1)), second(_STD forward<_Other2>(_Val2)) {}

  006c2	89 9d 80 fd ff
	ff		 mov	 DWORD PTR $T9[ebp+4], ebx
; File C:\Users\ALEXANDER\Desktop\Cliente\COPY_FISH_WON_NEW\Binario\Client\GameLib\ItemManager.cpp

; 378  : 			m_ItemMap.insert(TItemMap::value_type(dwVnum, pItemData));

  006c8	e8 00 00 00 00	 call	 ??$insert@$0A@$0A@@?$_Tree@V?$_Tmap_traits@KPAVCItemData@@U?$less@K@std@@V?$allocator@U?$pair@$$CBKPAVCItemData@@@std@@@3@$0A@@std@@@std@@QAE?AU?$pair@V?$_Tree_iterator@V?$_Tree_val@U?$_Tree_simple_types@U?$pair@$$CBKPAVCItemData@@@std@@@std@@@std@@@std@@_N@1@$$QAU?$pair@$$CBKPAVCItemData@@@1@@Z ; std::_Tree<std::_Tmap_traits<unsigned long,CItemData *,std::less<unsigned long>,std::allocator<std::pair<unsigned long const ,CItemData *> >,0> >::insert<0,0>
  006cd	8b bd 10 ff ff
	ff		 mov	 edi, DWORD PTR _t$15[ebp]
$LN13@LoadItemTa:

; 384  : 		if (itemNameMap.find(GetHashCode(table->szName)) == itemNameMap.end())

  006d3	8d 85 18 ff ff
	ff		 lea	 eax, DWORD PTR _t$15[ebp+8]
  006d9	50		 push	 eax
  006da	e8 00 00 00 00	 call	 ?GetHashCode@@YAKPBD@Z	; GetHashCode
  006df	83 c4 04	 add	 esp, 4
; File D:\visual studio 2019\visual studio 2019\VC\Tools\MSVC\14.29.30133\include\xtree

; 1353 :         const _Tree_find_result<_Nodeptr> _Loc = _Find_lower_bound(_Keyval);

  006e2	8d 8d c0 fd ff
	ff		 lea	 ecx, DWORD PTR _itemNameMap$[ebp]
; File C:\Users\ALEXANDER\Desktop\Cliente\COPY_FISH_WON_NEW\Binario\Client\GameLib\ItemManager.cpp

; 384  : 		if (itemNameMap.find(GetHashCode(table->szName)) == itemNameMap.end())

  006e8	8b f0		 mov	 esi, eax
; File D:\visual studio 2019\visual studio 2019\VC\Tools\MSVC\14.29.30133\include\xtree

; 1353 :         const _Tree_find_result<_Nodeptr> _Loc = _Find_lower_bound(_Keyval);

  006ea	8d 85 90 fd ff
	ff		 lea	 eax, DWORD PTR $T11[ebp]
; File C:\Users\ALEXANDER\Desktop\Cliente\COPY_FISH_WON_NEW\Binario\Client\GameLib\ItemManager.cpp

; 384  : 		if (itemNameMap.find(GetHashCode(table->szName)) == itemNameMap.end())

  006f0	89 b5 90 fd ff
	ff		 mov	 DWORD PTR $T11[ebp], esi
; File D:\visual studio 2019\visual studio 2019\VC\Tools\MSVC\14.29.30133\include\xtree

; 1353 :         const _Tree_find_result<_Nodeptr> _Loc = _Find_lower_bound(_Keyval);

  006f6	50		 push	 eax
  006f7	8d 85 2c fd ff
	ff		 lea	 eax, DWORD PTR __Loc$4[ebp]
  006fd	50		 push	 eax
  006fe	e8 00 00 00 00	 call	 ??$_Find_lower_bound@K@?$_Tree@V?$_Tmap_traits@KKU?$less@K@std@@V?$allocator@U?$pair@$$CBKK@std@@@2@$0A@@std@@@std@@IBE?AU?$_Tree_find_result@PAU?$_Tree_node@U?$pair@$$CBKK@std@@PAX@std@@@1@ABK@Z ; std::_Tree<std::_Tmap_traits<unsigned long,unsigned long,std::less<unsigned long>,std::allocator<std::pair<unsigned long const ,unsigned long> >,0> >::_Find_lower_bound<unsigned long>

; 1591 :         return !_Bound->_Isnil && !_DEBUG_LT_PRED(_Getcomp(), _Keyval, _Traits::_Kfn(_Bound->_Myval));

  00703	8b 8d 34 fd ff
	ff		 mov	 ecx, DWORD PTR __Loc$4[ebp+8]
  00709	80 79 0d 00	 cmp	 BYTE PTR [ecx+13], 0
  0070d	75 11		 jne	 SHORT $LN405@LoadItemTa
; File D:\visual studio 2019\visual studio 2019\VC\Tools\MSVC\14.29.30133\include\xstddef

; 117  :         return _Left < _Right;

  0070f	3b 71 10	 cmp	 esi, DWORD PTR [ecx+16]
; File D:\visual studio 2019\visual studio 2019\VC\Tools\MSVC\14.29.30133\include\xtree

; 1591 :         return !_Bound->_Isnil && !_DEBUG_LT_PRED(_Getcomp(), _Keyval, _Traits::_Kfn(_Bound->_Myval));

  00712	72 0c		 jb	 SHORT $LN405@LoadItemTa
; File C:\Users\ALEXANDER\Desktop\Cliente\COPY_FISH_WON_NEW\Binario\Client\GameLib\ItemManager.cpp

; 384  : 		if (itemNameMap.find(GetHashCode(table->szName)) == itemNameMap.end())

  00714	3b 8d c0 fd ff
	ff		 cmp	 ecx, DWORD PTR _itemNameMap$[ebp]
  0071a	0f 85 ca 00 00
	00		 jne	 $LN288@LoadItemTa
$LN405@LoadItemTa:

; 385  : 			itemNameMap.insert(std::map<DWORD,DWORD>::value_type(GetHashCode(table->szName),table->dwVnum));

  00720	8d 85 18 ff ff
	ff		 lea	 eax, DWORD PTR _t$15[ebp+8]
  00726	50		 push	 eax
  00727	e8 00 00 00 00	 call	 ?GetHashCode@@YAKPBD@Z	; GetHashCode
  0072c	83 c4 04	 add	 esp, 4
; File D:\visual studio 2019\visual studio 2019\VC\Tools\MSVC\14.29.30133\include\utility

; 186  :         : first(_STD forward<_Other1>(_Val1)), second(_STD forward<_Other2>(_Val2)) {}

  0072f	89 bd 88 fd ff
	ff		 mov	 DWORD PTR $T10[ebp+4], edi
; File C:\Users\ALEXANDER\Desktop\Cliente\COPY_FISH_WON_NEW\Binario\Client\GameLib\ItemManager.cpp

; 385  : 			itemNameMap.insert(std::map<DWORD,DWORD>::value_type(GetHashCode(table->szName),table->dwVnum));

  00735	8b f0		 mov	 esi, eax
; File D:\visual studio 2019\visual studio 2019\VC\Tools\MSVC\14.29.30133\include\xtree

; 1006 :             _Loc                = _Find_lower_bound(_Keyval);

  00737	8d 8d c0 fd ff
	ff		 lea	 ecx, DWORD PTR _itemNameMap$[ebp]
  0073d	8d 85 84 fd ff
	ff		 lea	 eax, DWORD PTR $T10[ebp]
; File D:\visual studio 2019\visual studio 2019\VC\Tools\MSVC\14.29.30133\include\utility

; 186  :         : first(_STD forward<_Other1>(_Val1)), second(_STD forward<_Other2>(_Val2)) {}

  00743	89 b5 84 fd ff
	ff		 mov	 DWORD PTR $T10[ebp], esi
; File D:\visual studio 2019\visual studio 2019\VC\Tools\MSVC\14.29.30133\include\xtree

; 1006 :             _Loc                = _Find_lower_bound(_Keyval);

  00749	50		 push	 eax
  0074a	8d 85 18 fd ff
	ff		 lea	 eax, DWORD PTR $T2[ebp]
  00750	50		 push	 eax
  00751	e8 00 00 00 00	 call	 ??$_Find_lower_bound@K@?$_Tree@V?$_Tmap_traits@KKU?$less@K@std@@V?$allocator@U?$pair@$$CBKK@std@@@2@$0A@@std@@@std@@IBE?AU?$_Tree_find_result@PAU?$_Tree_node@U?$pair@$$CBKK@std@@PAX@std@@@1@ABK@Z ; std::_Tree<std::_Tmap_traits<unsigned long,unsigned long,std::less<unsigned long>,std::allocator<std::pair<unsigned long const ,unsigned long> >,0> >::_Find_lower_bound<unsigned long>
  00756	f3 0f 7e 00	 movq	 xmm0, QWORD PTR [eax]
  0075a	8b 40 08	 mov	 eax, DWORD PTR [eax+8]
  0075d	66 0f d6 85 50
	fd ff ff	 movq	 QWORD PTR __Loc$7[ebp], xmm0

; 1591 :         return !_Bound->_Isnil && !_DEBUG_LT_PRED(_Getcomp(), _Keyval, _Traits::_Kfn(_Bound->_Myval));

  00765	80 78 0d 00	 cmp	 BYTE PTR [eax+13], 0
  00769	75 05		 jne	 SHORT $LN218@LoadItemTa
; File D:\visual studio 2019\visual studio 2019\VC\Tools\MSVC\14.29.30133\include\xstddef

; 117  :         return _Left < _Right;

  0076b	3b 70 10	 cmp	 esi, DWORD PTR [eax+16]
; File D:\visual studio 2019\visual studio 2019\VC\Tools\MSVC\14.29.30133\include\xtree

; 1591 :         return !_Bound->_Isnil && !_DEBUG_LT_PRED(_Getcomp(), _Keyval, _Traits::_Kfn(_Bound->_Myval));

  0076e	73 7a		 jae	 SHORT $LN288@LoadItemTa
$LN218@LoadItemTa:

; 1615 :         if (max_size() == _Get_scary()->_Mysize) {

  00770	81 bd c4 fd ff
	ff aa aa aa 0a	 cmp	 DWORD PTR _itemNameMap$[ebp+4], 178956970 ; 0aaaaaaaH
  0077a	0f 84 20 01 00
	00		 je	 $LN321@LoadItemTa

; 1012 :             _Inserted = _Tree_temp_node<_Alnode>(_Getal(), _Scary->_Myhead, _STD forward<_Valtys>(_Vals)...)._Release();

  00780	8b b5 c0 fd ff
	ff		 mov	 esi, DWORD PTR _itemNameMap$[ebp]
; File D:\visual studio 2019\visual studio 2019\VC\Tools\MSVC\14.29.30133\include\xmemory

; 958  :     _CONSTEXPR20_DYNALLOC explicit _Alloc_construct_ptr(_Alloc& _Al_) : _Al(_Al_), _Ptr(nullptr) {}

  00786	8d 85 c0 fd ff
	ff		 lea	 eax, DWORD PTR _itemNameMap$[ebp]
  0078c	89 85 74 fd ff
	ff		 mov	 DWORD PTR $T8[ebp], eax

; 79   :         return ::operator new(_Bytes);

  00792	6a 18		 push	 24			; 00000018H
; File D:\visual studio 2019\visual studio 2019\VC\Tools\MSVC\14.29.30133\include\xtree

; 783  :     explicit _Tree_temp_node_alloc(_Alnode& _Al_) : _Alloc_construct_ptr<_Alnode>(_Al_) {

  00794	c6 45 fc 03	 mov	 BYTE PTR __$EHRec$[ebp+8], 3
; File D:\visual studio 2019\visual studio 2019\VC\Tools\MSVC\14.29.30133\include\xmemory

; 965  :         _Ptr = nullptr; // if allocate throws, prevents double-free

  00798	c7 85 78 fd ff
	ff 00 00 00 00	 mov	 DWORD PTR $T8[ebp+4], 0

; 79   :         return ::operator new(_Bytes);

  007a2	e8 00 00 00 00	 call	 ??2@YAPAXI@Z		; operator new
; File D:\visual studio 2019\visual studio 2019\VC\Tools\MSVC\14.29.30133\include\xtree

; 805  :         _Alnode_traits::construct(this->_Al, _STD addressof(this->_Ptr->_Myval), _STD forward<_Valtys>(_Vals)...);

  007a7	8b 8d 84 fd ff
	ff		 mov	 ecx, DWORD PTR $T10[ebp]
; File D:\visual studio 2019\visual studio 2019\VC\Tools\MSVC\14.29.30133\include\xmemory

; 79   :         return ::operator new(_Bytes);

  007ad	83 c4 04	 add	 esp, 4
; File D:\visual studio 2019\visual studio 2019\VC\Tools\MSVC\14.29.30133\include\xtree

; 785  :     }

  007b0	c6 45 fc 02	 mov	 BYTE PTR __$EHRec$[ebp+8], 2
; File D:\visual studio 2019\visual studio 2019\VC\Tools\MSVC\14.29.30133\include\utility

; 603  :     _Val         = static_cast<_Other&&>(_New_val);

  007b4	c7 85 78 fd ff
	ff 00 00 00 00	 mov	 DWORD PTR $T8[ebp+4], 0
; File D:\visual studio 2019\visual studio 2019\VC\Tools\MSVC\14.29.30133\include\xtree

; 805  :         _Alnode_traits::construct(this->_Al, _STD addressof(this->_Ptr->_Myval), _STD forward<_Valtys>(_Vals)...);

  007be	89 48 10	 mov	 DWORD PTR [eax+16], ecx

; 1031 :         return {_Scary->_Insert_node(_Loc._Location, _Inserted), true};

  007c1	8d 8d c0 fd ff
	ff		 lea	 ecx, DWORD PTR _itemNameMap$[ebp]
  007c7	50		 push	 eax
  007c8	ff b5 54 fd ff
	ff		 push	 DWORD PTR __Loc$7[ebp+4]

; 805  :         _Alnode_traits::construct(this->_Al, _STD addressof(this->_Ptr->_Myval), _STD forward<_Valtys>(_Vals)...);

  007ce	89 78 14	 mov	 DWORD PTR [eax+20], edi

; 1031 :         return {_Scary->_Insert_node(_Loc._Location, _Inserted), true};

  007d1	ff b5 50 fd ff
	ff		 push	 DWORD PTR __Loc$7[ebp]

; 806  :         _Construct_in_place(this->_Ptr->_Left, _Myhead);

  007d7	89 30		 mov	 DWORD PTR [eax], esi

; 807  :         _Construct_in_place(this->_Ptr->_Parent, _Myhead);

  007d9	89 70 04	 mov	 DWORD PTR [eax+4], esi

; 808  :         _Construct_in_place(this->_Ptr->_Right, _Myhead);

  007dc	89 70 08	 mov	 DWORD PTR [eax+8], esi

; 809  :         this->_Ptr->_Color = _Red;

  007df	66 c7 40 0c 00
	00		 mov	 WORD PTR [eax+12], 0

; 1031 :         return {_Scary->_Insert_node(_Loc._Location, _Inserted), true};

  007e5	e8 00 00 00 00	 call	 ?_Insert_node@?$_Tree_val@U?$_Tree_simple_types@U?$pair@$$CBKK@std@@@std@@@std@@QAEPAU?$_Tree_node@U?$pair@$$CBKK@std@@PAX@2@U?$_Tree_id@PAU?$_Tree_node@U?$pair@$$CBKK@std@@PAX@std@@@2@QAU32@@Z ; std::_Tree_val<std::_Tree_simple_types<std::pair<unsigned long const ,unsigned long> > >::_Insert_node
$LN288@LoadItemTa:
; File C:\Users\ALEXANDER\Desktop\Cliente\COPY_FISH_WON_NEW\Binario\Client\GameLib\ItemManager.cpp

; 386  : 		pItemData->SetItemTableData(table);

  007ea	8d 85 10 ff ff
	ff		 lea	 eax, DWORD PTR _t$15[ebp]
  007f0	8b cb		 mov	 ecx, ebx
  007f2	50		 push	 eax
  007f3	e8 00 00 00 00	 call	 ?SetItemTableData@CItemData@@QAEXPAUSItemTable_r156@1@@Z ; CItemData::SetItemTableData

; 387  : 		if (0 != table->dwVnumRange)

  007f8	83 bd 14 ff ff
	ff 00		 cmp	 DWORD PTR _t$15[ebp+4], 0
  007ff	74 26		 je	 SHORT $LN2@LoadItemTa

; 388  : 		{
; 389  : 			m_vec_ItemRange.push_back(pItemData);

  00801	8b 8d ac fd ff
	ff		 mov	 ecx, DWORD PTR _this$GSCopy$1$[ebp]
  00807	83 c1 0c	 add	 ecx, 12			; 0000000cH
; File D:\visual studio 2019\visual studio 2019\VC\Tools\MSVC\14.29.30133\include\vector

; 730  :         if (_Mylast != _My_data._Myend) {

  0080a	8b 41 04	 mov	 eax, DWORD PTR [ecx+4]
  0080d	3b 41 08	 cmp	 eax, DWORD PTR [ecx+8]
  00810	74 08		 je	 SHORT $LN301@LoadItemTa

; 713  :         _Alty_traits::construct(_Getal(), _Unfancy(_Mylast), _STD forward<_Valty>(_Val)...);

  00812	89 18		 mov	 DWORD PTR [eax], ebx

; 714  :         _Orphan_range(_Mylast, _Mylast);
; 715  :         _Ty& _Result = *_Mylast;
; 716  :         ++_Mylast;

  00814	83 41 04 04	 add	 DWORD PTR [ecx+4], 4

; 731  :             return _Emplace_back_with_unused_capacity(_STD forward<_Valty>(_Val)...);

  00818	eb 0d		 jmp	 SHORT $LN2@LoadItemTa
$LN301@LoadItemTa:

; 732  :         }
; 733  : 
; 734  :         _Ty& _Result = *_Emplace_reallocate(_Mylast, _STD forward<_Valty>(_Val)...);

  0081a	8d 95 c8 fd ff
	ff		 lea	 edx, DWORD PTR _pItemData$12[ebp]
  00820	52		 push	 edx
  00821	50		 push	 eax
  00822	e8 00 00 00 00	 call	 ??$_Emplace_reallocate@ABQAVCItemData@@@?$vector@PAVCItemData@@V?$allocator@PAVCItemData@@@std@@@std@@QAEPAPAVCItemData@@QAPAV2@ABQAV2@@Z ; std::vector<CItemData *,std::allocator<CItemData *> >::_Emplace_reallocate<CItemData * const &>
$LN2@LoadItemTa:
; File C:\Users\ALEXANDER\Desktop\Cliente\COPY_FISH_WON_NEW\Binario\Client\GameLib\ItemManager.cpp

; 338  : 	for (DWORD i = 0; i < dwElements; ++i)

  00827	8b 9d a8 fd ff
	ff		 mov	 ebx, DWORD PTR _i$1$[ebp]
  0082d	8b bd a4 fd ff
	ff		 mov	 edi, DWORD PTR tv3252[ebp]
  00833	43		 inc	 ebx
  00834	8b b5 a0 fd ff
	ff		 mov	 esi, DWORD PTR tv3253[ebp]
  0083a	81 c7 9c 00 00
	00		 add	 edi, 156		; 0000009cH
  00840	81 85 b8 fd ff
	ff 9e 00 00 00	 add	 DWORD PTR tv3251[ebp], 158 ; 0000009eH
  0084a	81 c6 98 00 00
	00		 add	 esi, 152		; 00000098H
  00850	3b 9d 9c fd ff
	ff		 cmp	 ebx, DWORD PTR _dwElements$[ebp]
  00856	89 9d a8 fd ff
	ff		 mov	 DWORD PTR _i$1$[ebp], ebx
  0085c	8b 9d 98 fd ff
	ff		 mov	 ebx, DWORD PTR _this$1$[ebp]
  00862	89 bd a4 fd ff
	ff		 mov	 DWORD PTR tv3252[ebp], edi
  00868	89 b5 a0 fd ff
	ff		 mov	 DWORD PTR tv3253[ebp], esi
  0086e	0f 82 ec f9 ff
	ff		 jb	 $LL4@LoadItemTa
; File D:\visual studio 2019\visual studio 2019\VC\Tools\MSVC\14.29.30133\include\xtree

; 1615 :         if (max_size() == _Get_scary()->_Mysize) {

  00874	8b b5 8c fd ff
	ff		 mov	 esi, DWORD PTR _pbData$1$[ebp]
$LN3@LoadItemTa:
; File C:\Users\ALEXANDER\Desktop\Cliente\COPY_FISH_WON_NEW\Binario\Client\GameLib\ItemManager.cpp

; 393  : 	delete [] pbData;

  0087a	56		 push	 esi
  0087b	e8 00 00 00 00	 call	 ??_V@YAXPAX@Z		; operator delete[]
  00880	83 c4 04	 add	 esp, 4
  00883	8d 8d c0 fd ff
	ff		 lea	 ecx, DWORD PTR _itemNameMap$[ebp]

; 394  : 	return true;

  00889	b3 01		 mov	 bl, 1
  0088b	e8 00 00 00 00	 call	 ??1?$_Tree@V?$_Tmap_traits@KKU?$less@K@std@@V?$allocator@U?$pair@$$CBKK@std@@@2@$0A@@std@@@std@@QAE@XZ ; std::_Tree<std::_Tmap_traits<unsigned long,unsigned long,std::less<unsigned long>,std::allocator<std::pair<unsigned long const ,unsigned long> >,0> >::~_Tree<std::_Tmap_traits<unsigned long,unsigned long,std::less<unsigned long>,std::allocator<std::pair<unsigned long const ,unsigned long> >,0> >
  00890	8d 8d 60 fd ff
	ff		 lea	 ecx, DWORD PTR _zObj$[ebp]
  00896	e8 00 00 00 00	 call	 ??1CLZObject@@QAE@XZ	; CLZObject::~CLZObject
  0089b	e9 46 f8 ff ff	 jmp	 $LN27@LoadItemTa
$LN321@LoadItemTa:
; File D:\visual studio 2019\visual studio 2019\VC\Tools\MSVC\14.29.30133\include\xtree

; 1616 :             _Throw_tree_length_error();

  008a0	e8 00 00 00 00	 call	 ?_Throw_tree_length_error@std@@YAXXZ ; std::_Throw_tree_length_error
$LN417@LoadItemTa:
  008a5	cc		 int	 3
_TEXT	ENDS
;	COMDAT text$x
text$x	SEGMENT
__unwindfunclet$?LoadItemTable@CItemManager@@QAE_NPBD@Z$0:
  00000	8d 8d cc fd ff
	ff		 lea	 ecx, DWORD PTR _file$[ebp]
  00006	e9 00 00 00 00	 jmp	 ??1CMappedFile@@UAE@XZ	; CMappedFile::~CMappedFile
__unwindfunclet$?LoadItemTable@CItemManager@@QAE_NPBD@Z$1:
  0000b	8d 8d 60 fd ff
	ff		 lea	 ecx, DWORD PTR _zObj$[ebp]
  00011	e9 00 00 00 00	 jmp	 ??1CLZObject@@QAE@XZ	; CLZObject::~CLZObject
__unwindfunclet$?LoadItemTable@CItemManager@@QAE_NPBD@Z$2:
  00016	8d 8d c0 fd ff
	ff		 lea	 ecx, DWORD PTR _itemNameMap$[ebp]
  0001c	e9 00 00 00 00	 jmp	 ??1?$map@KKU?$less@K@std@@V?$allocator@U?$pair@$$CBKK@std@@@2@@std@@QAE@XZ
__unwindfunclet$?LoadItemTable@CItemManager@@QAE_NPBD@Z$6:
  00021	8d 8d 74 fd ff
	ff		 lea	 ecx, DWORD PTR $T8[ebp]
  00027	e9 00 00 00 00	 jmp	 ??1?$_Alloc_construct_ptr@V?$allocator@U?$_Tree_node@U?$pair@$$CBKK@std@@PAX@std@@@std@@@std@@QAE@XZ ; std::_Alloc_construct_ptr<std::allocator<std::_Tree_node<std::pair<unsigned long const ,unsigned long>,void *> > >::~_Alloc_construct_ptr<std::allocator<std::_Tree_node<std::pair<unsigned long const ,unsigned long>,void *> > >
  0002c	cc		 int	 3
  0002d	cc		 int	 3
  0002e	cc		 int	 3
  0002f	cc		 int	 3
  00030	cc		 int	 3
__ehhandler$?LoadItemTable@CItemManager@@QAE_NPBD@Z:
  00031	90		 npad	 1
  00032	90		 npad	 1
  00033	8b 54 24 08	 mov	 edx, DWORD PTR [esp+8]
  00037	8d 42 0c	 lea	 eax, DWORD PTR [edx+12]
  0003a	8b 8a 14 fd ff
	ff		 mov	 ecx, DWORD PTR [edx-748]
  00040	33 c8		 xor	 ecx, eax
  00042	e8 00 00 00 00	 call	 @__security_check_cookie@4
  00047	8b 4a fc	 mov	 ecx, DWORD PTR [edx-4]
  0004a	33 c8		 xor	 ecx, eax
  0004c	e8 00 00 00 00	 call	 @__security_check_cookie@4
  00051	b8 00 00 00 00	 mov	 eax, OFFSET __ehfuncinfo$?LoadItemTable@CItemManager@@QAE_NPBD@Z
  00056	e9 00 00 00 00	 jmp	 ___CxxFrameHandler3
text$x	ENDS
?LoadItemTable@CItemManager@@QAE_NPBD@Z ENDP		; CItemManager::LoadItemTable
; Function compile flags: /Ogtp
; File C:\Users\ALEXANDER\Desktop\Cliente\COPY_FISH_WON_NEW\Binario\Client\GameLib\ItemManager.cpp
; File D:\visual studio 2019\visual studio 2019\VC\Tools\MSVC\14.29.30133\include\vector
; File C:\Users\ALEXANDER\Desktop\Cliente\COPY_FISH_WON_NEW\Binario\Client\GameLib\ItemManager.cpp
; File D:\visual studio 2019\visual studio 2019\VC\Tools\MSVC\14.29.30133\include\vector
; File C:\Users\ALEXANDER\Desktop\Cliente\COPY_FISH_WON_NEW\Binario\Client\GameLib\ItemManager.cpp
; File D:\visual studio 2019\visual studio 2019\VC\Tools\MSVC\14.29.30133\include\xstring
; File D:\visual studio 2019\visual studio 2019\VC\Tools\MSVC\14.29.30133\include\vector
; File D:\visual studio 2019\visual studio 2019\VC\Tools\MSVC\14.29.30133\include\xstring
; File C:\Users\ALEXANDER\Desktop\Cliente\COPY_FISH_WON_NEW\Binario\Client\GameLib\ItemManager.cpp
; File D:\visual studio 2019\visual studio 2019\VC\Tools\MSVC\14.29.30133\include\xstring
; File D:\visual studio 2019\visual studio 2019\VC\Tools\MSVC\14.29.30133\include\vector
; File D:\visual studio 2019\visual studio 2019\VC\Tools\MSVC\14.29.30133\include\xstring
; File C:\Users\ALEXANDER\Desktop\Cliente\COPY_FISH_WON_NEW\Binario\Client\GameLib\ItemManager.cpp
; File D:\visual studio 2019\visual studio 2019\VC\Tools\MSVC\14.29.30133\include\xstring
; File C:\Users\ALEXANDER\Desktop\Cliente\COPY_FISH_WON_NEW\Binario\Client\GameLib\ItemManager.cpp
; File D:\visual studio 2019\visual studio 2019\VC\Tools\MSVC\14.29.30133\include\xstring
; File C:\Users\ALEXANDER\Desktop\Cliente\COPY_FISH_WON_NEW\Binario\Client\GameLib\ItemManager.cpp
; File D:\visual studio 2019\visual studio 2019\VC\Tools\MSVC\14.29.30133\include\xstring
; File C:\Users\ALEXANDER\Desktop\Cliente\COPY_FISH_WON_NEW\Binario\Client\GameLib\ItemManager.cpp
; File D:\visual studio 2019\visual studio 2019\VC\Tools\MSVC\14.29.30133\include\xstring
; File C:\Users\ALEXANDER\Desktop\Cliente\COPY_FISH_WON_NEW\Binario\Client\GameLib\ItemManager.cpp
; File D:\visual studio 2019\visual studio 2019\VC\Tools\MSVC\14.29.30133\include\xstring
; File C:\Users\ALEXANDER\Desktop\Cliente\COPY_FISH_WON_NEW\Binario\Client\GameLib\ItemManager.cpp
; File D:\visual studio 2019\visual studio 2019\VC\Tools\MSVC\14.29.30133\include\xstring
; File C:\Users\ALEXANDER\Desktop\Cliente\COPY_FISH_WON_NEW\Binario\Client\GameLib\ItemManager.cpp
; File D:\visual studio 2019\visual studio 2019\VC\Tools\MSVC\14.29.30133\include\vector
; File C:\Users\ALEXANDER\Desktop\Cliente\COPY_FISH_WON_NEW\Binario\Client\GameLib\ItemManager.cpp
; File D:\visual studio 2019\visual studio 2019\VC\Tools\MSVC\14.29.30133\include\vector
; File D:\visual studio 2019\visual studio 2019\VC\Tools\MSVC\14.29.30133\include\xmemory
; File D:\visual studio 2019\visual studio 2019\VC\Tools\MSVC\14.29.30133\include\xstring
; File D:\visual studio 2019\visual studio 2019\VC\Tools\MSVC\14.29.30133\include\xmemory
; File D:\visual studio 2019\visual studio 2019\VC\Tools\MSVC\14.29.30133\include\xstring
; File D:\visual studio 2019\visual studio 2019\VC\Tools\MSVC\14.29.30133\include\xmemory
; File D:\visual studio 2019\visual studio 2019\VC\Tools\MSVC\14.29.30133\include\xstring
; File D:\visual studio 2019\visual studio 2019\VC\Tools\MSVC\14.29.30133\include\xmemory
; File D:\visual studio 2019\visual studio 2019\VC\Tools\MSVC\14.29.30133\include\vector
; File D:\visual studio 2019\visual studio 2019\VC\Tools\MSVC\14.29.30133\include\xmemory
; File D:\visual studio 2019\visual studio 2019\VC\Tools\MSVC\14.29.30133\include\vector
; File C:\Users\ALEXANDER\Desktop\Cliente\COPY_FISH_WON_NEW\Binario\Client\GameLib\ItemManager.cpp
; File D:\visual studio 2019\visual studio 2019\VC\Tools\MSVC\14.29.30133\include\xmemory
; File C:\Users\ALEXANDER\Desktop\Cliente\COPY_FISH_WON_NEW\Binario\Client\GameLib\ItemManager.cpp
;	COMDAT ?LoadItemList@CItemManager@@QAE_NPBD@Z
_TEXT	SEGMENT
_textFileLoader$ = -908					; size = 16
_this$GSCopy$1$ = -892					; size = 4
_pData$ = -888						; size = 4
_i$1$ = -884						; size = 4
_pItemData$1$ = -880					; size = 4
_c_szFileName$GSCopy$1$ = -876				; size = 4
_TokenVector$ = -872					; size = 12
_File$ = -860						; size = 324
_szMildModelPath$2 = -536				; size = 260
_szMildIconPath$3 = -276				; size = 260
__$ArrayPad$ = -16					; size = 4
__$EHRec$ = -12						; size = 12
_c_szFileName$ = 8					; size = 4
?LoadItemList@CItemManager@@QAE_NPBD@Z PROC		; CItemManager::LoadItemList, COMDAT
; _this$ = ecx

; 103  : {

  00000	55		 push	 ebp
  00001	8b ec		 mov	 ebp, esp
  00003	6a ff		 push	 -1
  00005	68 00 00 00 00	 push	 __ehhandler$?LoadItemList@CItemManager@@QAE_NPBD@Z
  0000a	64 a1 00 00 00
	00		 mov	 eax, DWORD PTR fs:0
  00010	50		 push	 eax
  00011	81 ec 80 03 00
	00		 sub	 esp, 896		; 00000380H
  00017	a1 00 00 00 00	 mov	 eax, DWORD PTR ___security_cookie
  0001c	33 c5		 xor	 eax, ebp
  0001e	89 45 f0	 mov	 DWORD PTR __$ArrayPad$[ebp], eax
  00021	53		 push	 ebx
  00022	56		 push	 esi
  00023	57		 push	 edi
  00024	50		 push	 eax
  00025	8d 45 f4	 lea	 eax, DWORD PTR __$EHRec$[ebp]
  00028	64 a3 00 00 00
	00		 mov	 DWORD PTR fs:0, eax
  0002e	89 8d 84 fc ff
	ff		 mov	 DWORD PTR _this$GSCopy$1$[ebp], ecx
  00034	8b 5d 08	 mov	 ebx, DWORD PTR _c_szFileName$[ebp]

; 104  : 	CMappedFile File;

  00037	8d 8d a4 fc ff
	ff		 lea	 ecx, DWORD PTR _File$[ebp]
  0003d	89 9d 94 fc ff
	ff		 mov	 DWORD PTR _c_szFileName$GSCopy$1$[ebp], ebx
  00043	e8 00 00 00 00	 call	 ??0CMappedFile@@QAE@XZ	; CMappedFile::CMappedFile

; 105  : 	LPCVOID pData;
; 106  : 
; 107  : 	if (!CEterPackManager::Instance().Get(File, c_szFileName, &pData))

  00048	8b 0d 00 00 00
	00		 mov	 ecx, DWORD PTR ?ms_singleton@?$CSingleton@VCEterPackManager@@@@0PAVCEterPackManager@@A ; CSingleton<CEterPackManager>::ms_singleton
  0004e	8d 85 88 fc ff
	ff		 lea	 eax, DWORD PTR _pData$[ebp]
  00054	50		 push	 eax
  00055	53		 push	 ebx
  00056	8d 85 a4 fc ff
	ff		 lea	 eax, DWORD PTR _File$[ebp]
  0005c	c7 45 fc 00 00
	00 00		 mov	 DWORD PTR __$EHRec$[ebp+8], 0
  00063	50		 push	 eax
  00064	e8 00 00 00 00	 call	 ?Get@CEterPackManager@@QAE_NAAVCMappedFile@@PBDPAPBX@Z ; CEterPackManager::Get
  00069	84 c0		 test	 al, al
  0006b	75 07		 jne	 SHORT $LN5@LoadItemLi
  0006d	32 db		 xor	 bl, bl
  0006f	e9 5f 03 00 00	 jmp	 $LN24@LoadItemLi
$LN5@LoadItemLi:

; 108  : 		return false;
; 109  : 
; 110  : 	CMemoryTextFileLoader textFileLoader;

  00074	8d 8d 74 fc ff
	ff		 lea	 ecx, DWORD PTR _textFileLoader$[ebp]
  0007a	e8 00 00 00 00	 call	 ??0CMemoryTextFileLoader@@QAE@XZ ; CMemoryTextFileLoader::CMemoryTextFileLoader

; 111  : 	textFileLoader.Bind(File.Size(), pData);

  0007f	ff b5 88 fc ff
	ff		 push	 DWORD PTR _pData$[ebp]
  00085	8d 8d a4 fc ff
	ff		 lea	 ecx, DWORD PTR _File$[ebp]
  0008b	c6 45 fc 01	 mov	 BYTE PTR __$EHRec$[ebp+8], 1
  0008f	e8 00 00 00 00	 call	 ?Size@CMappedFile@@QAEKXZ ; CMappedFile::Size
  00094	50		 push	 eax
  00095	8d 8d 74 fc ff
	ff		 lea	 ecx, DWORD PTR _textFileLoader$[ebp]
  0009b	e8 00 00 00 00	 call	 ?Bind@CMemoryTextFileLoader@@QAEXHPBX@Z ; CMemoryTextFileLoader::Bind
; File D:\visual studio 2019\visual studio 2019\VC\Tools\MSVC\14.29.30133\include\vector

; 390  :     _CONSTEXPR20_CONTAINER _Vector_val() noexcept : _Myfirst(), _Mylast(), _Myend() {}

  000a0	c7 85 98 fc ff
	ff 00 00 00 00	 mov	 DWORD PTR _TokenVector$[ebp], 0
  000aa	c7 85 9c fc ff
	ff 00 00 00 00	 mov	 DWORD PTR _TokenVector$[ebp+4], 0
  000b4	c7 85 a0 fc ff
	ff 00 00 00 00	 mov	 DWORD PTR _TokenVector$[ebp+8], 0
; File C:\Users\ALEXANDER\Desktop\Cliente\COPY_FISH_WON_NEW\Binario\Client\GameLib\ItemManager.cpp

; 114  :     for (DWORD i = 0; i < textFileLoader.GetLineCount(); ++i)

  000be	33 f6		 xor	 esi, esi
  000c0	c6 45 fc 02	 mov	 BYTE PTR __$EHRec$[ebp+8], 2
  000c4	8d 8d 74 fc ff
	ff		 lea	 ecx, DWORD PTR _textFileLoader$[ebp]
  000ca	89 b5 8c fc ff
	ff		 mov	 DWORD PTR _i$1$[ebp], esi
  000d0	e8 00 00 00 00	 call	 ?GetLineCount@CMemoryTextFileLoader@@QAEKXZ ; CMemoryTextFileLoader::GetLineCount
  000d5	85 c0		 test	 eax, eax
  000d7	0f 84 1f 02 00
	00		 je	 $LN3@LoadItemLi
  000dd	0f 1f 00	 npad	 3
$LL4@LoadItemLi:

; 115  : 	{
; 116  : 		if (!textFileLoader.SplitLine(i, &TokenVector, "\t"))

  000e0	68 00 00 00 00	 push	 OFFSET ??_C@_01GPOEFGEJ@?7@
  000e5	8d 85 98 fc ff
	ff		 lea	 eax, DWORD PTR _TokenVector$[ebp]
  000eb	50		 push	 eax
  000ec	56		 push	 esi
  000ed	8d 8d 74 fc ff
	ff		 lea	 ecx, DWORD PTR _textFileLoader$[ebp]
  000f3	e8 00 00 00 00	 call	 ?SplitLine@CMemoryTextFileLoader@@QAE_NKPAV?$vector@V?$basic_string@DU?$char_traits@D@std@@V?$allocator@D@2@@std@@V?$allocator@V?$basic_string@DU?$char_traits@D@std@@V?$allocator@D@2@@std@@@2@@std@@PBD@Z ; CMemoryTextFileLoader::SplitLine
  000f8	84 c0		 test	 al, al
  000fa	0f 84 dd 01 00
	00		 je	 $LN2@LoadItemLi
; File D:\visual studio 2019\visual studio 2019\VC\Tools\MSVC\14.29.30133\include\vector

; 1536 :         return static_cast<size_type>(_My_data._Mylast - _My_data._Myfirst);

  00100	8b 95 9c fc ff
	ff		 mov	 edx, DWORD PTR _TokenVector$[ebp+4]
  00106	8b 8d 98 fc ff
	ff		 mov	 ecx, DWORD PTR _TokenVector$[ebp]
  0010c	2b d1		 sub	 edx, ecx
; File C:\Users\ALEXANDER\Desktop\Cliente\COPY_FISH_WON_NEW\Binario\Client\GameLib\ItemManager.cpp

; 119  : 		if (!(TokenVector.size() == 3 || TokenVector.size() == 4))

  0010e	8d 42 b8	 lea	 eax, DWORD PTR [edx-72]
  00111	83 f8 18	 cmp	 eax, 24			; 00000018H
  00114	72 1c		 jb	 SHORT $LN7@LoadItemLi
  00116	8d 42 a0	 lea	 eax, DWORD PTR [edx-96]
  00119	83 f8 18	 cmp	 eax, 24			; 00000018H
  0011c	72 14		 jb	 SHORT $LN7@LoadItemLi

; 120  : 		{
; 121  : 			TraceError(" CItemManager::LoadItemList(%s) - StrangeLine in %d\n", c_szFileName, i);

  0011e	56		 push	 esi
  0011f	53		 push	 ebx
  00120	68 00 00 00 00	 push	 OFFSET ??_C@_0DF@BBNNBFGM@?5CItemManager?3?3LoadItemList?$CI?$CFs?$CJ@
  00125	e8 00 00 00 00	 call	 ?TraceError@@YAXPBDZZ	; TraceError
  0012a	83 c4 0c	 add	 esp, 12			; 0000000cH

; 122  : 			continue;

  0012d	e9 ab 01 00 00	 jmp	 $LN2@LoadItemLi
$LN7@LoadItemLi:
; File D:\visual studio 2019\visual studio 2019\VC\Tools\MSVC\14.29.30133\include\xstring

; 2286 :         return _BUF_SIZE <= _Myres;

  00132	83 79 14 10	 cmp	 DWORD PTR [ecx+20], 16	; 00000010H
; File D:\visual studio 2019\visual studio 2019\VC\Tools\MSVC\14.29.30133\include\vector

; 1556 :         return _My_data._Myfirst[_Pos];

  00136	8d 79 18	 lea	 edi, DWORD PTR [ecx+24]
  00139	8d 71 30	 lea	 esi, DWORD PTR [ecx+48]
; File D:\visual studio 2019\visual studio 2019\VC\Tools\MSVC\14.29.30133\include\xstring

; 2273 :         if (_Large_string_engaged()) {

  0013c	72 02		 jb	 SHORT $LN44@LoadItemLi

; 2274 :             _Result = _Unfancy(_Bx._Ptr);

  0013e	8b 09		 mov	 ecx, DWORD PTR [ecx]
$LN44@LoadItemLi:
; File C:\Users\ALEXANDER\Desktop\Cliente\COPY_FISH_WON_NEW\Binario\Client\GameLib\ItemManager.cpp

; 129  : 		DWORD dwItemVNum=atoi(c_rstrID.c_str());

  00140	51		 push	 ecx
  00141	e8 00 00 00 00	 call	 __atoi64

; 130  : 
; 131  : 		CItemData * pItemData = MakeItemData(dwItemVNum);

  00146	8b 8d 84 fc ff
	ff		 mov	 ecx, DWORD PTR _this$GSCopy$1$[ebp]
  0014c	83 c4 04	 add	 esp, 4
  0014f	8b d8		 mov	 ebx, eax
  00151	53		 push	 ebx
  00152	e8 00 00 00 00	 call	 ?MakeItemData@CItemManager@@QAEPAVCItemData@@K@Z ; CItemManager::MakeItemData

; 132  : 
; 133  : 		extern BOOL USE_VIETNAM_CONVERT_WEAPON_VNUM;
; 134  : 		if (USE_VIETNAM_CONVERT_WEAPON_VNUM)

  00157	83 3d 00 00 00
	00 00		 cmp	 DWORD PTR ?USE_VIETNAM_CONVERT_WEAPON_VNUM@@3HA, 0 ; USE_VIETNAM_CONVERT_WEAPON_VNUM
  0015e	8b d0		 mov	 edx, eax
  00160	89 95 90 fc ff
	ff		 mov	 DWORD PTR _pItemData$1$[ebp], edx
  00166	0f 84 d4 00 00
	00		 je	 $LN8@LoadItemLi

; 135  : 		{
; 136  : 			extern DWORD Vietnam_ConvertWeaponVnum(DWORD vnum);
; 137  : 			DWORD dwMildItemVnum = Vietnam_ConvertWeaponVnum(dwItemVNum);

  0016c	53		 push	 ebx
  0016d	e8 00 00 00 00	 call	 ?Vietnam_ConvertWeaponVnum@@YAKK@Z ; Vietnam_ConvertWeaponVnum
  00172	8b c8		 mov	 ecx, eax
  00174	83 c4 04	 add	 esp, 4

; 138  : 			if (dwMildItemVnum == dwItemVNum)

  00177	3b cb		 cmp	 ecx, ebx
  00179	75 4b		 jne	 SHORT $LN10@LoadItemLi

; 139  : 			{
; 140  : 				if (4 == TokenVector.size())

  0017b	8b 85 9c fc ff
	ff		 mov	 eax, DWORD PTR _TokenVector$[ebp+4]
  00181	8b 8d 98 fc ff
	ff		 mov	 ecx, DWORD PTR _TokenVector$[ebp]
  00187	2b c1		 sub	 eax, ecx
  00189	83 e8 60	 sub	 eax, 96			; 00000060H
  0018c	83 f8 18	 cmp	 eax, 24			; 00000018H
  0018f	73 1f		 jae	 SHORT $LN12@LoadItemLi
; File D:\visual studio 2019\visual studio 2019\VC\Tools\MSVC\14.29.30133\include\xstring

; 2286 :         return _BUF_SIZE <= _Myres;

  00191	83 79 5c 10	 cmp	 DWORD PTR [ecx+92], 16	; 00000010H
; File D:\visual studio 2019\visual studio 2019\VC\Tools\MSVC\14.29.30133\include\vector

; 1556 :         return _My_data._Myfirst[_Pos];

  00195	8d 41 48	 lea	 eax, DWORD PTR [ecx+72]
; File D:\visual studio 2019\visual studio 2019\VC\Tools\MSVC\14.29.30133\include\xstring

; 2273 :         if (_Large_string_engaged()) {

  00198	72 02		 jb	 SHORT $LN55@LoadItemLi

; 2274 :             _Result = _Unfancy(_Bx._Ptr);

  0019a	8b 00		 mov	 eax, DWORD PTR [eax]
$LN55@LoadItemLi:

; 2286 :         return _BUF_SIZE <= _Myres;

  0019c	83 7e 14 10	 cmp	 DWORD PTR [esi+20], 16	; 00000010H

; 2273 :         if (_Large_string_engaged()) {

  001a0	72 18		 jb	 SHORT $LN13@LoadItemLi

; 2274 :             _Result = _Unfancy(_Bx._Ptr);

  001a2	8b 36		 mov	 esi, DWORD PTR [esi]
; File C:\Users\ALEXANDER\Desktop\Cliente\COPY_FISH_WON_NEW\Binario\Client\GameLib\ItemManager.cpp

; 149  : 			}

  001a4	8b 8d 90 fc ff
	ff		 mov	 ecx, DWORD PTR _pItemData$1$[ebp]
  001aa	50		 push	 eax
  001ab	e9 21 01 00 00	 jmp	 $LN205@LoadItemLi
$LN12@LoadItemLi:
; File D:\visual studio 2019\visual studio 2019\VC\Tools\MSVC\14.29.30133\include\xstring

; 2286 :         return _BUF_SIZE <= _Myres;

  001b0	83 7e 14 10	 cmp	 DWORD PTR [esi+20], 16	; 00000010H

; 2273 :         if (_Large_string_engaged()) {

  001b4	72 02		 jb	 SHORT $LN69@LoadItemLi

; 2274 :             _Result = _Unfancy(_Bx._Ptr);

  001b6	8b 36		 mov	 esi, DWORD PTR [esi]
$LN69@LoadItemLi:
; File C:\Users\ALEXANDER\Desktop\Cliente\COPY_FISH_WON_NEW\Binario\Client\GameLib\ItemManager.cpp

; 147  : 					pItemData->SetDefaultItemData(c_rstrIcon.c_str());

  001b8	33 c0		 xor	 eax, eax
$LN13@LoadItemLi:

; 149  : 			}

  001ba	8b 8d 90 fc ff
	ff		 mov	 ecx, DWORD PTR _pItemData$1$[ebp]
  001c0	50		 push	 eax
  001c1	e9 0b 01 00 00	 jmp	 $LN205@LoadItemLi
$LN10@LoadItemLi:

; 150  : 			else
; 151  : 			{
; 152  : 				DWORD dwMildBaseVnum = dwMildItemVnum / 10 * 10;

  001c6	b8 cd cc cc cc	 mov	 eax, -858993459		; cccccccdH
  001cb	f7 e1		 mul	 ecx

; 153  : 				char szMildIconPath[MAX_PATH];
; 154  : 				sprintf(szMildIconPath, "icon/item/%.5d.tga", dwMildBaseVnum);

  001cd	8d 85 ec fe ff
	ff		 lea	 eax, DWORD PTR _szMildIconPath$3[ebp]
  001d3	c1 ea 03	 shr	 edx, 3
  001d6	8d 34 92	 lea	 esi, DWORD PTR [edx+edx*4]
  001d9	03 f6		 add	 esi, esi
  001db	56		 push	 esi
  001dc	68 00 00 00 00	 push	 OFFSET ??_C@_0BD@MGMLGJGK@icon?1item?1?$CF?45d?4tga@
  001e1	50		 push	 eax
  001e2	e8 00 00 00 00	 call	 _sprintf

; 155  : 				if (4 == TokenVector.size())

  001e7	8b 85 9c fc ff
	ff		 mov	 eax, DWORD PTR _TokenVector$[ebp+4]
  001ed	83 c4 0c	 add	 esp, 12			; 0000000cH
  001f0	2b 85 98 fc ff
	ff		 sub	 eax, DWORD PTR _TokenVector$[ebp]
  001f6	83 e8 60	 sub	 eax, 96			; 00000060H
  001f9	83 f8 18	 cmp	 eax, 24			; 00000018H
  001fc	73 2e		 jae	 SHORT $LN14@LoadItemLi

; 156  : 				{
; 157  : 					char szMildModelPath[MAX_PATH];
; 158  : 					sprintf(szMildModelPath, "d:/ymir work/item/weapon/%.5d.gr2", dwMildBaseVnum);

  001fe	56		 push	 esi
  001ff	8d 85 e8 fd ff
	ff		 lea	 eax, DWORD PTR _szMildModelPath$2[ebp]
  00205	68 00 00 00 00	 push	 OFFSET ??_C@_0CC@GKBFKKKF@d?3?1ymir?5work?1item?1weapon?1?$CF?45d?4g@
  0020a	50		 push	 eax
  0020b	e8 00 00 00 00	 call	 _sprintf

; 159  : 					pItemData->SetDefaultItemData(szMildIconPath, szMildModelPath);

  00210	8b 8d 90 fc ff
	ff		 mov	 ecx, DWORD PTR _pItemData$1$[ebp]
  00216	8d 85 e8 fd ff
	ff		 lea	 eax, DWORD PTR _szMildModelPath$2[ebp]
  0021c	83 c4 0c	 add	 esp, 12			; 0000000cH
  0021f	50		 push	 eax
  00220	8d 85 ec fe ff
	ff		 lea	 eax, DWORD PTR _szMildIconPath$3[ebp]
  00226	50		 push	 eax

; 160  : 				}

  00227	e9 a6 00 00 00	 jmp	 $LN206@LoadItemLi
$LN14@LoadItemLi:

; 161  : 				else
; 162  : 				{
; 163  : 					pItemData->SetDefaultItemData(szMildIconPath);

  0022c	8b 8d 90 fc ff
	ff		 mov	 ecx, DWORD PTR _pItemData$1$[ebp]
  00232	8d 85 ec fe ff
	ff		 lea	 eax, DWORD PTR _szMildIconPath$3[ebp]
  00238	6a 00		 push	 0
  0023a	50		 push	 eax

; 164  : 				}
; 165  : 			}
; 166  : 		}

  0023b	e9 92 00 00 00	 jmp	 $LN206@LoadItemLi
$LN8@LoadItemLi:

; 167  : 		else
; 168  : 		{
; 169  : 			if (4 == TokenVector.size())

  00240	8b 85 9c fc ff
	ff		 mov	 eax, DWORD PTR _TokenVector$[ebp+4]
  00246	8b 9d 98 fc ff
	ff		 mov	 ebx, DWORD PTR _TokenVector$[ebp]
  0024c	2b c3		 sub	 eax, ebx
  0024e	83 e8 60	 sub	 eax, 96			; 00000060H
  00251	83 f8 18	 cmp	 eax, 24			; 00000018H
  00254	73 6f		 jae	 SHORT $LN16@LoadItemLi
; File D:\visual studio 2019\visual studio 2019\VC\Tools\MSVC\14.29.30133\include\xstring

; 2286 :         return _BUF_SIZE <= _Myres;

  00256	83 7f 14 10	 cmp	 DWORD PTR [edi+20], 16	; 00000010H

; 2273 :         if (_Large_string_engaged()) {

  0025a	72 02		 jb	 SHORT $LN80@LoadItemLi

; 2274 :             _Result = _Unfancy(_Bx._Ptr);

  0025c	8b 3f		 mov	 edi, DWORD PTR [edi]
$LN80@LoadItemLi:
; File C:\Users\ALEXANDER\Desktop\Cliente\COPY_FISH_WON_NEW\Binario\Client\GameLib\ItemManager.cpp

; 172  : 				if (!strcmp(c_rstrType.c_str(), "AURA"))

  0025e	b8 00 00 00 00	 mov	 eax, OFFSET ??_C@_04CGMHACBB@AURA@
$LL199@LoadItemLi:
  00263	8a 0f		 mov	 cl, BYTE PTR [edi]
  00265	3a 08		 cmp	 cl, BYTE PTR [eax]
  00267	75 1a		 jne	 SHORT $LN200@LoadItemLi
  00269	84 c9		 test	 cl, cl
  0026b	74 12		 je	 SHORT $LN201@LoadItemLi
  0026d	8a 4f 01	 mov	 cl, BYTE PTR [edi+1]
  00270	3a 48 01	 cmp	 cl, BYTE PTR [eax+1]
  00273	75 0e		 jne	 SHORT $LN200@LoadItemLi
  00275	83 c7 02	 add	 edi, 2
  00278	83 c0 02	 add	 eax, 2
  0027b	84 c9		 test	 cl, cl
  0027d	75 e4		 jne	 SHORT $LL199@LoadItemLi
$LN201@LoadItemLi:
  0027f	33 c0		 xor	 eax, eax
  00281	eb 05		 jmp	 SHORT $LN202@LoadItemLi
$LN200@LoadItemLi:
  00283	1b c0		 sbb	 eax, eax
  00285	83 c8 01	 or	 eax, 1
$LN202@LoadItemLi:
  00288	85 c0		 test	 eax, eax
  0028a	8d 43 48	 lea	 eax, DWORD PTR [ebx+72]
  0028d	75 23		 jne	 SHORT $LN18@LoadItemLi
; File D:\visual studio 2019\visual studio 2019\VC\Tools\MSVC\14.29.30133\include\xstring

; 2286 :         return _BUF_SIZE <= _Myres;

  0028f	83 78 14 10	 cmp	 DWORD PTR [eax+20], 16	; 00000010H

; 2273 :         if (_Large_string_engaged()) {

  00293	72 02		 jb	 SHORT $LN89@LoadItemLi

; 2274 :             _Result = _Unfancy(_Bx._Ptr);

  00295	8b 00		 mov	 eax, DWORD PTR [eax]
$LN89@LoadItemLi:
; File C:\Users\ALEXANDER\Desktop\Cliente\COPY_FISH_WON_NEW\Binario\Client\GameLib\ItemManager.cpp

; 175  : 					pItemData->SetAuraEffectID(c_rstrAuraEffectFileName.c_str());

  00297	50		 push	 eax
  00298	8b ca		 mov	 ecx, edx
  0029a	e8 00 00 00 00	 call	 ?SetAuraEffectID@CItemData@@QAEXPBD@Z ; CItemData::SetAuraEffectID
; File D:\visual studio 2019\visual studio 2019\VC\Tools\MSVC\14.29.30133\include\xstring

; 2286 :         return _BUF_SIZE <= _Myres;

  0029f	83 7e 14 10	 cmp	 DWORD PTR [esi+20], 16	; 00000010H

; 2273 :         if (_Large_string_engaged()) {

  002a3	72 02		 jb	 SHORT $LN96@LoadItemLi

; 2274 :             _Result = _Unfancy(_Bx._Ptr);

  002a5	8b 36		 mov	 esi, DWORD PTR [esi]
$LN96@LoadItemLi:
; File C:\Users\ALEXANDER\Desktop\Cliente\COPY_FISH_WON_NEW\Binario\Client\GameLib\ItemManager.cpp

; 177  : 				}

  002a7	8b 95 90 fc ff
	ff		 mov	 edx, DWORD PTR _pItemData$1$[ebp]
  002ad	33 c0		 xor	 eax, eax

; 187  : 			}

  002af	50		 push	 eax
  002b0	eb 1d		 jmp	 SHORT $LN207@LoadItemLi
$LN18@LoadItemLi:
; File D:\visual studio 2019\visual studio 2019\VC\Tools\MSVC\14.29.30133\include\xstring

; 2286 :         return _BUF_SIZE <= _Myres;

  002b2	83 78 14 10	 cmp	 DWORD PTR [eax+20], 16	; 00000010H

; 2273 :         if (_Large_string_engaged()) {

  002b6	72 02		 jb	 SHORT $LN105@LoadItemLi

; 2274 :             _Result = _Unfancy(_Bx._Ptr);

  002b8	8b 00		 mov	 eax, DWORD PTR [eax]
$LN105@LoadItemLi:

; 2286 :         return _BUF_SIZE <= _Myres;

  002ba	83 7e 14 10	 cmp	 DWORD PTR [esi+20], 16	; 00000010H

; 2273 :         if (_Large_string_engaged()) {

  002be	72 02		 jb	 SHORT $LN112@LoadItemLi

; 2274 :             _Result = _Unfancy(_Bx._Ptr);

  002c0	8b 36		 mov	 esi, DWORD PTR [esi]
$LN112@LoadItemLi:
; File C:\Users\ALEXANDER\Desktop\Cliente\COPY_FISH_WON_NEW\Binario\Client\GameLib\ItemManager.cpp

; 187  : 			}

  002c2	50		 push	 eax
  002c3	eb 0a		 jmp	 SHORT $LN207@LoadItemLi
$LN16@LoadItemLi:
; File D:\visual studio 2019\visual studio 2019\VC\Tools\MSVC\14.29.30133\include\xstring

; 2286 :         return _BUF_SIZE <= _Myres;

  002c5	83 7e 14 10	 cmp	 DWORD PTR [esi+20], 16	; 00000010H

; 2273 :         if (_Large_string_engaged()) {

  002c9	72 02		 jb	 SHORT $LN119@LoadItemLi

; 2274 :             _Result = _Unfancy(_Bx._Ptr);

  002cb	8b 36		 mov	 esi, DWORD PTR [esi]
$LN119@LoadItemLi:
; File C:\Users\ALEXANDER\Desktop\Cliente\COPY_FISH_WON_NEW\Binario\Client\GameLib\ItemManager.cpp

; 190  : 				pItemData->SetDefaultItemData(c_rstrIcon.c_str());

  002cd	6a 00		 push	 0
$LN207@LoadItemLi:

; 114  :     for (DWORD i = 0; i < textFileLoader.GetLineCount(); ++i)

  002cf	8b ca		 mov	 ecx, edx
$LN205@LoadItemLi:
  002d1	56		 push	 esi
$LN206@LoadItemLi:
  002d2	e8 00 00 00 00	 call	 ?SetDefaultItemData@CItemData@@QAEXPBD0@Z ; CItemData::SetDefaultItemData
  002d7	8b 9d 94 fc ff
	ff		 mov	 ebx, DWORD PTR _c_szFileName$GSCopy$1$[ebp]
$LN2@LoadItemLi:
  002dd	ff 85 8c fc ff
	ff		 inc	 DWORD PTR _i$1$[ebp]
  002e3	8d 8d 74 fc ff
	ff		 lea	 ecx, DWORD PTR _textFileLoader$[ebp]
  002e9	e8 00 00 00 00	 call	 ?GetLineCount@CMemoryTextFileLoader@@QAEKXZ ; CMemoryTextFileLoader::GetLineCount
  002ee	8b b5 8c fc ff
	ff		 mov	 esi, DWORD PTR _i$1$[ebp]
  002f4	3b f0		 cmp	 esi, eax
  002f6	0f 82 e4 fd ff
	ff		 jb	 $LL4@LoadItemLi
$LN3@LoadItemLi:
; File D:\visual studio 2019\visual studio 2019\VC\Tools\MSVC\14.29.30133\include\vector

; 1750 :         if (_Myfirst) { // destroy and deallocate old array

  002fc	8b b5 98 fc ff
	ff		 mov	 esi, DWORD PTR _TokenVector$[ebp]
; File C:\Users\ALEXANDER\Desktop\Cliente\COPY_FISH_WON_NEW\Binario\Client\GameLib\ItemManager.cpp

; 195  : 	return true;

  00302	b3 01		 mov	 bl, 1
; File D:\visual studio 2019\visual studio 2019\VC\Tools\MSVC\14.29.30133\include\vector

; 1750 :         if (_Myfirst) { // destroy and deallocate old array

  00304	85 f6		 test	 esi, esi
  00306	0f 84 bc 00 00
	00		 je	 $LN126@LoadItemLi

; 1751 :             _Destroy(_Myfirst, _Mylast);

  0030c	8b bd 9c fc ff
	ff		 mov	 edi, DWORD PTR _TokenVector$[ebp+4]

; 1667 :         _Destroy_range(_First, _Last, _Getal());

  00312	3b f7		 cmp	 esi, edi
; File D:\visual studio 2019\visual studio 2019\VC\Tools\MSVC\14.29.30133\include\xmemory

; 904  :         for (; _First != _Last; ++_First) {

  00314	74 51		 je	 SHORT $LN132@LoadItemLi
$LL133@LoadItemLi:
; File D:\visual studio 2019\visual studio 2019\VC\Tools\MSVC\14.29.30133\include\xstring

; 2286 :         return _BUF_SIZE <= _Myres;

  00316	8b 4e 14	 mov	 ecx, DWORD PTR [esi+20]
  00319	83 f9 10	 cmp	 ecx, 16			; 00000010H

; 4584 :         if (_Mypair._Myval2._Large_string_engaged()) {

  0031c	72 2b		 jb	 SHORT $LN152@LoadItemLi
; File D:\visual studio 2019\visual studio 2019\VC\Tools\MSVC\14.29.30133\include\xmemory

; 797  :         _Deallocate<_New_alignof<_Ty>>(_Ptr, sizeof(_Ty) * _Count);

  0031e	8b 06		 mov	 eax, DWORD PTR [esi]
; File D:\visual studio 2019\visual studio 2019\VC\Tools\MSVC\14.29.30133\include\xstring

; 4588 :             _Al.deallocate(_Ptr, _Mypair._Myval2._Myres + 1);

  00320	41		 inc	 ecx
; File D:\visual studio 2019\visual studio 2019\VC\Tools\MSVC\14.29.30133\include\xmemory

; 251  :         if (_Bytes >= _Big_allocation_threshold) { // boost the alignment of big allocations to help autovectorization

  00321	81 f9 00 10 00
	00		 cmp	 ecx, 4096		; 00001000H
  00327	72 16		 jb	 SHORT $LN162@LoadItemLi

; 150  :     const uintptr_t _Ptr_container   = _Ptr_user[-1];

  00329	8b 50 fc	 mov	 edx, DWORD PTR [eax-4]
  0032c	83 c1 23	 add	 ecx, 35			; 00000023H

; 151  : 
; 152  :     // If the following asserts, it likely means that we are performing
; 153  :     // an aligned delete on memory coming from an unaligned allocation.
; 154  :     _STL_ASSERT(_Ptr_user[-2] == _Big_allocation_sentinel, "invalid argument");
; 155  : 
; 156  :     // Extra paranoia on aligned allocation/deallocation; ensure _Ptr_container is
; 157  :     // in range [_Min_back_shift, _Non_user_size]
; 158  : #ifdef _DEBUG
; 159  :     constexpr uintptr_t _Min_back_shift = 2 * sizeof(void*);
; 160  : #else // ^^^ _DEBUG ^^^ // vvv !_DEBUG vvv
; 161  :     constexpr uintptr_t _Min_back_shift = sizeof(void*);
; 162  : #endif // _DEBUG
; 163  :     const uintptr_t _Back_shift = reinterpret_cast<uintptr_t>(_Ptr) - _Ptr_container;

  0032f	2b c2		 sub	 eax, edx

; 164  :     _STL_VERIFY(_Back_shift >= _Min_back_shift && _Back_shift <= _Non_user_size, "invalid argument");

  00331	83 c0 fc	 add	 eax, -4			; fffffffcH
  00334	83 f8 1f	 cmp	 eax, 31			; 0000001fH
  00337	0f 87 c1 00 00
	00		 ja	 $LN183@LoadItemLi

; 165  :     _Ptr = reinterpret_cast<void*>(_Ptr_container);

  0033d	8b c2		 mov	 eax, edx
$LN162@LoadItemLi:

; 255  :         ::operator delete(_Ptr, _Bytes);

  0033f	51		 push	 ecx
  00340	50		 push	 eax
  00341	e8 00 00 00 00	 call	 ??3@YAXPAXI@Z		; operator delete
  00346	83 c4 08	 add	 esp, 8
$LN152@LoadItemLi:
; File D:\visual studio 2019\visual studio 2019\VC\Tools\MSVC\14.29.30133\include\xstring

; 4599 :             _Mypair._Myval2._Mysize = 0;

  00349	c7 46 10 00 00
	00 00		 mov	 DWORD PTR [esi+16], 0

; 4600 :             _Mypair._Myval2._Myres  = _BUF_SIZE - 1;

  00350	c7 46 14 0f 00
	00 00		 mov	 DWORD PTR [esi+20], 15	; 0000000fH

; 4601 :             // the _Traits::assign is last so the codegen doesn't think the char write can alias this
; 4602 :             _Traits::assign(_Mypair._Myval2._Bx._Buf[0], _Elem());

  00357	c6 06 00	 mov	 BYTE PTR [esi], 0
; File D:\visual studio 2019\visual studio 2019\VC\Tools\MSVC\14.29.30133\include\xmemory

; 904  :         for (; _First != _Last; ++_First) {

  0035a	83 c6 18	 add	 esi, 24			; 00000018H
  0035d	3b f7		 cmp	 esi, edi
  0035f	75 b5		 jne	 SHORT $LL133@LoadItemLi
  00361	8b b5 98 fc ff
	ff		 mov	 esi, DWORD PTR _TokenVector$[ebp]
$LN132@LoadItemLi:
; File D:\visual studio 2019\visual studio 2019\VC\Tools\MSVC\14.29.30133\include\vector

; 1752 :             _Getal().deallocate(_Myfirst, static_cast<size_type>(_Myend - _Myfirst));

  00367	8b 8d a0 fc ff
	ff		 mov	 ecx, DWORD PTR _TokenVector$[ebp+8]
  0036d	b8 ab aa aa 2a	 mov	 eax, 715827883		; 2aaaaaabH
  00372	2b ce		 sub	 ecx, esi
  00374	f7 e9		 imul	 ecx
  00376	c1 fa 02	 sar	 edx, 2
  00379	8b c2		 mov	 eax, edx
  0037b	c1 e8 1f	 shr	 eax, 31			; 0000001fH
  0037e	03 c2		 add	 eax, edx
; File D:\visual studio 2019\visual studio 2019\VC\Tools\MSVC\14.29.30133\include\xmemory

; 797  :         _Deallocate<_New_alignof<_Ty>>(_Ptr, sizeof(_Ty) * _Count);

  00380	8d 0c 40	 lea	 ecx, DWORD PTR [eax+eax*2]
  00383	8b c6		 mov	 eax, esi
  00385	c1 e1 03	 shl	 ecx, 3

; 251  :         if (_Bytes >= _Big_allocation_threshold) { // boost the alignment of big allocations to help autovectorization

  00388	81 f9 00 10 00
	00		 cmp	 ecx, 4096		; 00001000H
  0038e	72 10		 jb	 SHORT $LN186@LoadItemLi

; 150  :     const uintptr_t _Ptr_container   = _Ptr_user[-1];

  00390	8b 76 fc	 mov	 esi, DWORD PTR [esi-4]
  00393	83 c1 23	 add	 ecx, 35			; 00000023H
  00396	2b c6		 sub	 eax, esi

; 164  :     _STL_VERIFY(_Back_shift >= _Min_back_shift && _Back_shift <= _Non_user_size, "invalid argument");

  00398	83 c0 fc	 add	 eax, -4			; fffffffcH
  0039b	83 f8 1f	 cmp	 eax, 31			; 0000001fH
  0039e	77 5e		 ja	 SHORT $LN183@LoadItemLi
$LN186@LoadItemLi:

; 255  :         ::operator delete(_Ptr, _Bytes);

  003a0	51		 push	 ecx
  003a1	56		 push	 esi
  003a2	e8 00 00 00 00	 call	 ??3@YAXPAXI@Z		; operator delete
  003a7	83 c4 08	 add	 esp, 8
; File D:\visual studio 2019\visual studio 2019\VC\Tools\MSVC\14.29.30133\include\vector

; 1754 :             _Myfirst = nullptr;

  003aa	c7 85 98 fc ff
	ff 00 00 00 00	 mov	 DWORD PTR _TokenVector$[ebp], 0

; 1755 :             _Mylast  = nullptr;

  003b4	c7 85 9c fc ff
	ff 00 00 00 00	 mov	 DWORD PTR _TokenVector$[ebp+4], 0

; 1756 :             _Myend   = nullptr;

  003be	c7 85 a0 fc ff
	ff 00 00 00 00	 mov	 DWORD PTR _TokenVector$[ebp+8], 0
$LN126@LoadItemLi:
; File C:\Users\ALEXANDER\Desktop\Cliente\COPY_FISH_WON_NEW\Binario\Client\GameLib\ItemManager.cpp

; 195  : 	return true;

  003c8	8d 8d 74 fc ff
	ff		 lea	 ecx, DWORD PTR _textFileLoader$[ebp]
  003ce	e8 00 00 00 00	 call	 ??1CMemoryTextFileLoader@@UAE@XZ ; CMemoryTextFileLoader::~CMemoryTextFileLoader
$LN24@LoadItemLi:
  003d3	8d 8d a4 fc ff
	ff		 lea	 ecx, DWORD PTR _File$[ebp]
  003d9	e8 00 00 00 00	 call	 ??1CMappedFile@@UAE@XZ	; CMappedFile::~CMappedFile
  003de	8a c3		 mov	 al, bl

; 196  : }

  003e0	8b 4d f4	 mov	 ecx, DWORD PTR __$EHRec$[ebp]
  003e3	64 89 0d 00 00
	00 00		 mov	 DWORD PTR fs:0, ecx
  003ea	59		 pop	 ecx
  003eb	5f		 pop	 edi
  003ec	5e		 pop	 esi
  003ed	5b		 pop	 ebx
  003ee	8b 4d f0	 mov	 ecx, DWORD PTR __$ArrayPad$[ebp]
  003f1	33 cd		 xor	 ecx, ebp
  003f3	e8 00 00 00 00	 call	 @__security_check_cookie@4
  003f8	8b e5		 mov	 esp, ebp
  003fa	5d		 pop	 ebp
  003fb	c2 04 00	 ret	 4
$LN183@LoadItemLi:
; File D:\visual studio 2019\visual studio 2019\VC\Tools\MSVC\14.29.30133\include\xmemory

; 164  :     _STL_VERIFY(_Back_shift >= _Min_back_shift && _Back_shift <= _Non_user_size, "invalid argument");

  003fe	e8 00 00 00 00	 call	 __invalid_parameter_noinfo_noreturn
$LN204@LoadItemLi:
  00403	cc		 int	 3
_TEXT	ENDS
;	COMDAT text$x
text$x	SEGMENT
__unwindfunclet$?LoadItemList@CItemManager@@QAE_NPBD@Z$0:
  00000	8d 8d a4 fc ff
	ff		 lea	 ecx, DWORD PTR _File$[ebp]
  00006	e9 00 00 00 00	 jmp	 ??1CMappedFile@@UAE@XZ	; CMappedFile::~CMappedFile
__unwindfunclet$?LoadItemList@CItemManager@@QAE_NPBD@Z$1:
  0000b	8d 8d 74 fc ff
	ff		 lea	 ecx, DWORD PTR _textFileLoader$[ebp]
  00011	e9 00 00 00 00	 jmp	 ??1CMemoryTextFileLoader@@UAE@XZ ; CMemoryTextFileLoader::~CMemoryTextFileLoader
__unwindfunclet$?LoadItemList@CItemManager@@QAE_NPBD@Z$2:
  00016	8d 8d 98 fc ff
	ff		 lea	 ecx, DWORD PTR _TokenVector$[ebp]
  0001c	e9 00 00 00 00	 jmp	 ??1?$vector@V?$basic_string@DU?$char_traits@D@std@@V?$allocator@D@2@@std@@V?$allocator@V?$basic_string@DU?$char_traits@D@std@@V?$allocator@D@2@@std@@@2@@std@@QAE@XZ ; std::vector<std::basic_string<char,std::char_traits<char>,std::allocator<char> >,std::allocator<std::basic_string<char,std::char_traits<char>,std::allocator<char> > > >::~vector<std::basic_string<char,std::char_traits<char>,std::allocator<char> >,std::allocator<std::basic_string<char,std::char_traits<char>,std::allocator<char> > > >
  00021	cc		 int	 3
  00022	cc		 int	 3
  00023	cc		 int	 3
  00024	cc		 int	 3
  00025	cc		 int	 3
__ehhandler$?LoadItemList@CItemManager@@QAE_NPBD@Z:
  00026	90		 npad	 1
  00027	90		 npad	 1
  00028	8b 54 24 08	 mov	 edx, DWORD PTR [esp+8]
  0002c	8d 42 0c	 lea	 eax, DWORD PTR [edx+12]
  0002f	8b 8a 70 fc ff
	ff		 mov	 ecx, DWORD PTR [edx-912]
  00035	33 c8		 xor	 ecx, eax
  00037	e8 00 00 00 00	 call	 @__security_check_cookie@4
  0003c	8b 4a fc	 mov	 ecx, DWORD PTR [edx-4]
  0003f	33 c8		 xor	 ecx, eax
  00041	e8 00 00 00 00	 call	 @__security_check_cookie@4
  00046	b8 00 00 00 00	 mov	 eax, OFFSET __ehfuncinfo$?LoadItemList@CItemManager@@QAE_NPBD@Z
  0004b	e9 00 00 00 00	 jmp	 ___CxxFrameHandler3
text$x	ENDS
?LoadItemList@CItemManager@@QAE_NPBD@Z ENDP		; CItemManager::LoadItemList
; Function compile flags: /Ogtp
; File C:\Users\ALEXANDER\Desktop\Cliente\COPY_FISH_WON_NEW\Binario\Client\GameLib\ItemManager.cpp
; File D:\visual studio 2019\visual studio 2019\VC\Tools\MSVC\14.29.30133\include\xstring
; File D:\visual studio 2019\visual studio 2019\VC\Tools\MSVC\14.29.30133\include\vector
; File C:\Users\ALEXANDER\Desktop\Cliente\COPY_FISH_WON_NEW\Binario\Client\GameLib\ItemManager.cpp
; File D:\visual studio 2019\visual studio 2019\VC\Tools\MSVC\14.29.30133\include\vector
; File C:\Users\ALEXANDER\Desktop\Cliente\COPY_FISH_WON_NEW\Binario\Client\GameLib\ItemManager.cpp
; File D:\visual studio 2019\visual studio 2019\VC\Tools\MSVC\14.29.30133\include\xstring
; File C:\Users\ALEXANDER\Desktop\Cliente\COPY_FISH_WON_NEW\Binario\Client\GameLib\ItemManager.cpp
; File D:\visual studio 2019\visual studio 2019\VC\Tools\MSVC\14.29.30133\include\vector
; File D:\visual studio 2019\visual studio 2019\VC\Tools\MSVC\14.29.30133\include\xstring
; File D:\visual studio 2019\visual studio 2019\VC\Tools\MSVC\14.29.30133\include\vector
; File C:\Users\ALEXANDER\Desktop\Cliente\COPY_FISH_WON_NEW\Binario\Client\GameLib\ItemManager.cpp
; File D:\visual studio 2019\visual studio 2019\VC\Tools\MSVC\14.29.30133\include\xstring
; File D:\visual studio 2019\visual studio 2019\VC\Tools\MSVC\14.29.30133\include\xmemory
; File D:\visual studio 2019\visual studio 2019\VC\Tools\MSVC\14.29.30133\include\xstring
; File D:\visual studio 2019\visual studio 2019\VC\Tools\MSVC\14.29.30133\include\xmemory
; File D:\visual studio 2019\visual studio 2019\VC\Tools\MSVC\14.29.30133\include\vector
; File C:\Users\ALEXANDER\Desktop\Cliente\COPY_FISH_WON_NEW\Binario\Client\GameLib\ItemManager.cpp
; File D:\visual studio 2019\visual studio 2019\VC\Tools\MSVC\14.29.30133\include\xstring
; File C:\Users\ALEXANDER\Desktop\Cliente\COPY_FISH_WON_NEW\Binario\Client\GameLib\ItemManager.cpp
; File D:\visual studio 2019\visual studio 2019\VC\Tools\MSVC\14.29.30133\include\vector
; File D:\visual studio 2019\visual studio 2019\VC\Tools\MSVC\14.29.30133\include\xtree
; File D:\visual studio 2019\visual studio 2019\VC\Tools\MSVC\14.29.30133\include\vector
; File C:\Users\ALEXANDER\Desktop\Cliente\COPY_FISH_WON_NEW\Binario\Client\GameLib\ItemManager.cpp
; File D:\visual studio 2019\visual studio 2019\VC\Tools\MSVC\14.29.30133\include\xtree
; File D:\visual studio 2019\visual studio 2019\VC\Tools\MSVC\14.29.30133\include\xstddef
; File D:\visual studio 2019\visual studio 2019\VC\Tools\MSVC\14.29.30133\include\xtree
; File C:\Users\ALEXANDER\Desktop\Cliente\COPY_FISH_WON_NEW\Binario\Client\GameLib\ItemManager.cpp
; File D:\visual studio 2019\visual studio 2019\VC\Tools\MSVC\14.29.30133\include\vector
; File C:\Users\ALEXANDER\Desktop\Cliente\COPY_FISH_WON_NEW\Binario\Client\GameLib\ItemManager.cpp
; File D:\visual studio 2019\visual studio 2019\VC\Tools\MSVC\14.29.30133\include\vector
; File D:\visual studio 2019\visual studio 2019\VC\Tools\MSVC\14.29.30133\include\xmemory
; File D:\visual studio 2019\visual studio 2019\VC\Tools\MSVC\14.29.30133\include\vector
; File D:\visual studio 2019\visual studio 2019\VC\Tools\MSVC\14.29.30133\include\xstring
; File D:\visual studio 2019\visual studio 2019\VC\Tools\MSVC\14.29.30133\include\xmemory
; File D:\visual studio 2019\visual studio 2019\VC\Tools\MSVC\14.29.30133\include\xstring
; File D:\visual studio 2019\visual studio 2019\VC\Tools\MSVC\14.29.30133\include\xmemory
; File C:\Users\ALEXANDER\Desktop\Cliente\COPY_FISH_WON_NEW\Binario\Client\GameLib\ItemManager.cpp
; File D:\visual studio 2019\visual studio 2019\VC\Tools\MSVC\14.29.30133\include\xstring
; File C:\Users\ALEXANDER\Desktop\Cliente\COPY_FISH_WON_NEW\Binario\Client\GameLib\ItemManager.cpp
; File D:\visual studio 2019\visual studio 2019\VC\Tools\MSVC\14.29.30133\include\xmemory
; File C:\Users\ALEXANDER\Desktop\Cliente\COPY_FISH_WON_NEW\Binario\Client\GameLib\ItemManager.cpp
;	COMDAT ?LoadItemDesc@CItemManager@@QAE_NPBD@Z
_TEXT	SEGMENT
__Loc$2 = -452						; size = 12
_kTextFileLoader$ = -440				; size = 16
_c_rstSumm$1$ = -424					; size = 4
_c_rstDesc$1$ = -420					; size = 4
_pvData$ = -416						; size = 4
_this$1$ = -412						; size = 4
_dwVnum$3 = -408					; size = 4
_kTokenVector$ = -404					; size = 12
$T4 = -389						; size = 1
_kFile$ = -388						; size = 324
$T5 = -64						; size = 24
_stTemp$ = -40						; size = 24
__$ArrayPad$ = -16					; size = 4
__$EHRec$ = -12						; size = 12
_c_szFileName$ = 8					; size = 4
?LoadItemDesc@CItemManager@@QAE_NPBD@Z PROC		; CItemManager::LoadItemDesc, COMDAT
; _this$ = ecx

; 218  : {

  00000	55		 push	 ebp
  00001	8b ec		 mov	 ebp, esp
  00003	6a ff		 push	 -1
  00005	68 00 00 00 00	 push	 __ehhandler$?LoadItemDesc@CItemManager@@QAE_NPBD@Z
  0000a	64 a1 00 00 00
	00		 mov	 eax, DWORD PTR fs:0
  00010	50		 push	 eax
  00011	81 ec b8 01 00
	00		 sub	 esp, 440		; 000001b8H
  00017	a1 00 00 00 00	 mov	 eax, DWORD PTR ___security_cookie
  0001c	33 c5		 xor	 eax, ebp
  0001e	89 45 f0	 mov	 DWORD PTR __$ArrayPad$[ebp], eax
  00021	56		 push	 esi
  00022	57		 push	 edi
  00023	50		 push	 eax
  00024	8d 45 f4	 lea	 eax, DWORD PTR __$EHRec$[ebp]
  00027	64 a3 00 00 00
	00		 mov	 DWORD PTR fs:0, eax
  0002d	89 8d 64 fe ff
	ff		 mov	 DWORD PTR _this$1$[ebp], ecx
  00033	8b 75 08	 mov	 esi, DWORD PTR _c_szFileName$[ebp]

; 219  : 	const VOID* pvData;
; 220  : 	CMappedFile kFile;

  00036	8d 8d 7c fe ff
	ff		 lea	 ecx, DWORD PTR _kFile$[ebp]
  0003c	e8 00 00 00 00	 call	 ??0CMappedFile@@QAE@XZ	; CMappedFile::CMappedFile

; 221  : 	if (!CEterPackManager::Instance().Get(kFile, c_szFileName, &pvData))

  00041	8b 0d 00 00 00
	00		 mov	 ecx, DWORD PTR ?ms_singleton@?$CSingleton@VCEterPackManager@@@@0PAVCEterPackManager@@A ; CSingleton<CEterPackManager>::ms_singleton
  00047	8d 85 60 fe ff
	ff		 lea	 eax, DWORD PTR _pvData$[ebp]
  0004d	50		 push	 eax
  0004e	56		 push	 esi
  0004f	8d 85 7c fe ff
	ff		 lea	 eax, DWORD PTR _kFile$[ebp]
  00055	c7 45 fc 00 00
	00 00		 mov	 DWORD PTR __$EHRec$[ebp+8], 0
  0005c	50		 push	 eax
  0005d	e8 00 00 00 00	 call	 ?Get@CEterPackManager@@QAE_NAAVCMappedFile@@PBDPAPBX@Z ; CEterPackManager::Get
  00062	84 c0		 test	 al, al
  00064	75 1a		 jne	 SHORT $LN7@LoadItemDe

; 222  : 	{
; 223  : 		Tracenf("CItemManager::LoadItemDesc(c_szFileName=%s) - Load Error", c_szFileName);

  00066	56		 push	 esi
  00067	68 00 00 00 00	 push	 OFFSET ??_C@_0DJ@OBCJLLMB@CItemManager?3?3LoadItemDesc?$CIc_sz@
  0006c	e8 00 00 00 00	 call	 ?Tracenf@@YAXPBDZZ	; Tracenf
  00071	83 c4 08	 add	 esp, 8
  00074	c6 85 7b fe ff
	ff 00		 mov	 BYTE PTR $T4[ebp], 0
  0007b	e9 39 03 00 00	 jmp	 $LN16@LoadItemDe
$LN7@LoadItemDe:

; 224  : 		return false;
; 225  : 	}
; 226  : 
; 227  : 	CMemoryTextFileLoader kTextFileLoader;

  00080	8d 8d 48 fe ff
	ff		 lea	 ecx, DWORD PTR _kTextFileLoader$[ebp]
  00086	e8 00 00 00 00	 call	 ??0CMemoryTextFileLoader@@QAE@XZ ; CMemoryTextFileLoader::CMemoryTextFileLoader

; 228  : 	kTextFileLoader.Bind(kFile.Size(), pvData);

  0008b	ff b5 60 fe ff
	ff		 push	 DWORD PTR _pvData$[ebp]
  00091	8d 8d 7c fe ff
	ff		 lea	 ecx, DWORD PTR _kFile$[ebp]
  00097	c6 45 fc 01	 mov	 BYTE PTR __$EHRec$[ebp+8], 1
  0009b	e8 00 00 00 00	 call	 ?Size@CMappedFile@@QAEKXZ ; CMappedFile::Size
  000a0	50		 push	 eax
  000a1	8d 8d 48 fe ff
	ff		 lea	 ecx, DWORD PTR _kTextFileLoader$[ebp]
  000a7	e8 00 00 00 00	 call	 ?Bind@CMemoryTextFileLoader@@QAEXHPBX@Z ; CMemoryTextFileLoader::Bind
; File D:\visual studio 2019\visual studio 2019\VC\Tools\MSVC\14.29.30133\include\xstring

; 2313 :         _CONSTEXPR20_CONTAINER _Bxty() noexcept : _Ptr() {} // user-provided, for fancy pointers

  000ac	c7 45 d8 00 00
	00 00		 mov	 DWORD PTR _stTemp$[ebp], 0

; 4562 :         _My_data._Mysize = 0;

  000b3	c7 45 e8 00 00
	00 00		 mov	 DWORD PTR _stTemp$[ebp+16], 0

; 4563 : 
; 4564 : #ifdef __cpp_lib_constexpr_string
; 4565 :         if (_STD is_constant_evaluated()) {
; 4566 :             _My_data._Myres        = _BUF_SIZE; // SSO disabled in constexpr context
; 4567 :             auto& _Al              = _Getal();
; 4568 :             const pointer _New_ptr = _Al.allocate(_BUF_SIZE + 1); // throws
; 4569 :             _My_data._Bx._Ptr      = _New_ptr;
; 4570 : 
; 4571 :             _Elem* const _Raw_new = _Unfancy(_New_ptr);
; 4572 :             _Traits::assign(_Raw_new, _BUF_SIZE + 1, _Elem());
; 4573 :         } else
; 4574 : #endif // __cpp_lib_constexpr_string
; 4575 :         {
; 4576 :             _My_data._Myres = _BUF_SIZE - 1;

  000ba	c7 45 ec 0f 00
	00 00		 mov	 DWORD PTR _stTemp$[ebp+20], 15 ; 0000000fH

; 4577 :             // the _Traits::assign is last so the codegen doesn't think the char write can alias this
; 4578 :             _Traits::assign(_My_data._Bx._Buf[0], _Elem());

  000c1	c6 45 d8 00	 mov	 BYTE PTR _stTemp$[ebp], 0
; File D:\visual studio 2019\visual studio 2019\VC\Tools\MSVC\14.29.30133\include\vector

; 390  :     _CONSTEXPR20_CONTAINER _Vector_val() noexcept : _Myfirst(), _Mylast(), _Myend() {}

  000c5	c7 85 6c fe ff
	ff 00 00 00 00	 mov	 DWORD PTR _kTokenVector$[ebp], 0
  000cf	c7 85 70 fe ff
	ff 00 00 00 00	 mov	 DWORD PTR _kTokenVector$[ebp+4], 0
  000d9	c7 85 74 fe ff
	ff 00 00 00 00	 mov	 DWORD PTR _kTokenVector$[ebp+8], 0
; File C:\Users\ALEXANDER\Desktop\Cliente\COPY_FISH_WON_NEW\Binario\Client\GameLib\ItemManager.cpp

; 233  : 	for (DWORD i = 0; i < kTextFileLoader.GetLineCount(); ++i)

  000e3	8d 8d 48 fe ff
	ff		 lea	 ecx, DWORD PTR _kTextFileLoader$[ebp]
  000e9	c6 45 fc 03	 mov	 BYTE PTR __$EHRec$[ebp+8], 3
  000ed	33 ff		 xor	 edi, edi
  000ef	e8 00 00 00 00	 call	 ?GetLineCount@CMemoryTextFileLoader@@QAEKXZ ; CMemoryTextFileLoader::GetLineCount
  000f4	85 c0		 test	 eax, eax
  000f6	0f 84 da 01 00
	00		 je	 $LN3@LoadItemDe
  000fc	0f 1f 40 00	 npad	 4
$LL4@LoadItemDe:

; 234  : 	{
; 235  : 		if (!kTextFileLoader.SplitLineByTab(i, &kTokenVector))

  00100	8d 85 6c fe ff
	ff		 lea	 eax, DWORD PTR _kTokenVector$[ebp]
  00106	50		 push	 eax
  00107	57		 push	 edi
  00108	8d 8d 48 fe ff
	ff		 lea	 ecx, DWORD PTR _kTextFileLoader$[ebp]
  0010e	e8 00 00 00 00	 call	 ?SplitLineByTab@CMemoryTextFileLoader@@QAE_NKPAV?$vector@V?$basic_string@DU?$char_traits@D@std@@V?$allocator@D@2@@std@@V?$allocator@V?$basic_string@DU?$char_traits@D@std@@V?$allocator@D@2@@std@@@2@@std@@@Z ; CMemoryTextFileLoader::SplitLineByTab
  00113	84 c0		 test	 al, al
  00115	0f 84 a7 01 00
	00		 je	 $LN2@LoadItemDe
; File D:\visual studio 2019\visual studio 2019\VC\Tools\MSVC\14.29.30133\include\vector

; 1536 :         return static_cast<size_type>(_My_data._Mylast - _My_data._Myfirst);

  0011b	8b 8d 70 fe ff
	ff		 mov	 ecx, DWORD PTR _kTokenVector$[ebp+4]
  00121	b8 ab aa aa 2a	 mov	 eax, 715827883		; 2aaaaaabH
  00126	8b b5 6c fe ff
	ff		 mov	 esi, DWORD PTR _kTokenVector$[ebp]
  0012c	8b d1		 mov	 edx, ecx
  0012e	2b d6		 sub	 edx, esi
  00130	f7 ea		 imul	 edx
  00132	c1 fa 02	 sar	 edx, 2
  00135	8b c2		 mov	 eax, edx
  00137	c1 e8 1f	 shr	 eax, 31			; 0000001fH
  0013a	03 c2		 add	 eax, edx
; File C:\Users\ALEXANDER\Desktop\Cliente\COPY_FISH_WON_NEW\Binario\Client\GameLib\ItemManager.cpp

; 238  : 		while (kTokenVector.size()<ITEMDESC_COL_NUM)

  0013c	83 f8 04	 cmp	 eax, 4
  0013f	0f 83 d9 00 00
	00		 jae	 $LN6@LoadItemDe
  00145	66 66 66 0f 1f
	84 00 00 00 00
	00		 npad	 11
$LL5@LoadItemDe:
; File D:\visual studio 2019\visual studio 2019\VC\Tools\MSVC\14.29.30133\include\xstring

; 2313 :         _CONSTEXPR20_CONTAINER _Bxty() noexcept : _Ptr() {} // user-provided, for fancy pointers

  00150	c7 45 c0 00 00
	00 00		 mov	 DWORD PTR $T5[ebp], 0

; 4576 :             _My_data._Myres = _BUF_SIZE - 1;

  00157	c7 45 d4 0f 00
	00 00		 mov	 DWORD PTR $T5[ebp+20], 15 ; 0000000fH

; 3214 :             _Mypair._Myval2._Mysize = _Count;

  0015e	c7 45 d0 00 00
	00 00		 mov	 DWORD PTR $T5[ebp+16], 0

; 3215 :             _Traits::move(_Old_ptr, _Ptr, _Count);
; 3216 :             _Traits::assign(_Old_ptr[_Count], _Elem());

  00165	c6 45 c0 00	 mov	 BYTE PTR $T5[ebp], 0
; File C:\Users\ALEXANDER\Desktop\Cliente\COPY_FISH_WON_NEW\Binario\Client\GameLib\ItemManager.cpp

; 239  : 			kTokenVector.push_back("");

  00169	c6 45 fc 04	 mov	 BYTE PTR __$EHRec$[ebp+8], 4
; File D:\visual studio 2019\visual studio 2019\VC\Tools\MSVC\14.29.30133\include\vector

; 730  :         if (_Mylast != _My_data._Myend) {

  0016d	3b 8d 74 fe ff
	ff		 cmp	 ecx, DWORD PTR _kTokenVector$[ebp+8]
  00173	74 31		 je	 SHORT $LN114@LoadItemDe
; File D:\visual studio 2019\visual studio 2019\VC\Tools\MSVC\14.29.30133\include\xstring

; 2835 :         _CSTD memcpy(_My_data_mem, _Right_data_mem, _Memcpy_val_size);

  00175	0f 10 45 c0	 movups	 xmm0, XMMWORD PTR $T5[ebp]

; 2313 :         _CONSTEXPR20_CONTAINER _Bxty() noexcept : _Ptr() {} // user-provided, for fancy pointers

  00179	c7 01 00 00 00
	00		 mov	 DWORD PTR [ecx], 0

; 4576 :             _My_data._Myres = _BUF_SIZE - 1;

  0017f	ba 0f 00 00 00	 mov	 edx, 15			; 0000000fH

; 4577 :             // the _Traits::assign is last so the codegen doesn't think the char write can alias this
; 4578 :             _Traits::assign(_My_data._Bx._Buf[0], _Elem());

  00184	c6 45 c0 00	 mov	 BYTE PTR $T5[ebp], 0

; 2835 :         _CSTD memcpy(_My_data_mem, _Right_data_mem, _Memcpy_val_size);

  00188	0f 11 01	 movups	 XMMWORD PTR [ecx], xmm0
  0018b	f3 0f 7e 45 d0	 movq	 xmm0, QWORD PTR $T5[ebp+16]
  00190	66 0f d6 41 10	 movq	 QWORD PTR [ecx+16], xmm0
; File D:\visual studio 2019\visual studio 2019\VC\Tools\MSVC\14.29.30133\include\vector

; 716  :         ++_Mylast;

  00195	8b 8d 70 fe ff
	ff		 mov	 ecx, DWORD PTR _kTokenVector$[ebp+4]
  0019b	83 c1 18	 add	 ecx, 24			; 00000018H
  0019e	89 8d 70 fe ff
	ff		 mov	 DWORD PTR _kTokenVector$[ebp+4], ecx

; 731  :             return _Emplace_back_with_unused_capacity(_STD forward<_Valty>(_Val)...);

  001a4	eb 19		 jmp	 SHORT $LN113@LoadItemDe
$LN114@LoadItemDe:

; 732  :         }
; 733  : 
; 734  :         _Ty& _Result = *_Emplace_reallocate(_Mylast, _STD forward<_Valty>(_Val)...);

  001a6	8d 45 c0	 lea	 eax, DWORD PTR $T5[ebp]
  001a9	50		 push	 eax
  001aa	51		 push	 ecx
  001ab	8d 8d 6c fe ff
	ff		 lea	 ecx, DWORD PTR _kTokenVector$[ebp]
  001b1	e8 00 00 00 00	 call	 ??$_Emplace_reallocate@V?$basic_string@DU?$char_traits@D@std@@V?$allocator@D@2@@std@@@?$vector@V?$basic_string@DU?$char_traits@D@std@@V?$allocator@D@2@@std@@V?$allocator@V?$basic_string@DU?$char_traits@D@std@@V?$allocator@D@2@@std@@@2@@std@@QAEPAV?$basic_string@DU?$char_traits@D@std@@V?$allocator@D@2@@1@QAV21@$$QAV21@@Z ; std::vector<std::basic_string<char,std::char_traits<char>,std::allocator<char> >,std::allocator<std::basic_string<char,std::char_traits<char>,std::allocator<char> > > >::_Emplace_reallocate<std::basic_string<char,std::char_traits<char>,std::allocator<char> > >
  001b6	8b 8d 70 fe ff
	ff		 mov	 ecx, DWORD PTR _kTokenVector$[ebp+4]
  001bc	8b 55 d4	 mov	 edx, DWORD PTR $T5[ebp+20]
$LN113@LoadItemDe:
; File C:\Users\ALEXANDER\Desktop\Cliente\COPY_FISH_WON_NEW\Binario\Client\GameLib\ItemManager.cpp

; 239  : 			kTokenVector.push_back("");

  001bf	c6 45 fc 03	 mov	 BYTE PTR __$EHRec$[ebp+8], 3
; File D:\visual studio 2019\visual studio 2019\VC\Tools\MSVC\14.29.30133\include\xstring

; 2286 :         return _BUF_SIZE <= _Myres;

  001c3	83 fa 10	 cmp	 edx, 16			; 00000010H

; 4584 :         if (_Mypair._Myval2._Large_string_engaged()) {

  001c6	72 32		 jb	 SHORT $LN157@LoadItemDe
; File D:\visual studio 2019\visual studio 2019\VC\Tools\MSVC\14.29.30133\include\xmemory

; 797  :         _Deallocate<_New_alignof<_Ty>>(_Ptr, sizeof(_Ty) * _Count);

  001c8	8b 4d c0	 mov	 ecx, DWORD PTR $T5[ebp]
; File D:\visual studio 2019\visual studio 2019\VC\Tools\MSVC\14.29.30133\include\xstring

; 4588 :             _Al.deallocate(_Ptr, _Mypair._Myval2._Myres + 1);

  001cb	42		 inc	 edx
; File D:\visual studio 2019\visual studio 2019\VC\Tools\MSVC\14.29.30133\include\xmemory

; 797  :         _Deallocate<_New_alignof<_Ty>>(_Ptr, sizeof(_Ty) * _Count);

  001cc	8b c1		 mov	 eax, ecx

; 251  :         if (_Bytes >= _Big_allocation_threshold) { // boost the alignment of big allocations to help autovectorization

  001ce	81 fa 00 10 00
	00		 cmp	 edx, 4096		; 00001000H
  001d4	72 14		 jb	 SHORT $LN167@LoadItemDe

; 150  :     const uintptr_t _Ptr_container   = _Ptr_user[-1];

  001d6	8b 49 fc	 mov	 ecx, DWORD PTR [ecx-4]
  001d9	83 c2 23	 add	 edx, 35			; 00000023H
  001dc	2b c1		 sub	 eax, ecx

; 164  :     _STL_VERIFY(_Back_shift >= _Min_back_shift && _Back_shift <= _Non_user_size, "invalid argument");

  001de	83 c0 fc	 add	 eax, -4			; fffffffcH
  001e1	83 f8 1f	 cmp	 eax, 31			; 0000001fH
  001e4	0f 87 fd 01 00
	00		 ja	 $LN263@LoadItemDe
$LN167@LoadItemDe:

; 255  :         ::operator delete(_Ptr, _Bytes);

  001ea	52		 push	 edx
  001eb	51		 push	 ecx
  001ec	e8 00 00 00 00	 call	 ??3@YAXPAXI@Z		; operator delete
  001f1	8b 8d 70 fe ff
	ff		 mov	 ecx, DWORD PTR _kTokenVector$[ebp+4]
  001f7	83 c4 08	 add	 esp, 8
$LN157@LoadItemDe:
; File D:\visual studio 2019\visual studio 2019\VC\Tools\MSVC\14.29.30133\include\vector

; 1536 :         return static_cast<size_type>(_My_data._Mylast - _My_data._Myfirst);

  001fa	8b b5 6c fe ff
	ff		 mov	 esi, DWORD PTR _kTokenVector$[ebp]
  00200	8b d1		 mov	 edx, ecx
  00202	2b d6		 sub	 edx, esi
  00204	b8 ab aa aa 2a	 mov	 eax, 715827883		; 2aaaaaabH
  00209	f7 ea		 imul	 edx
  0020b	c1 fa 02	 sar	 edx, 2
  0020e	8b c2		 mov	 eax, edx
  00210	c1 e8 1f	 shr	 eax, 31			; 0000001fH
  00213	03 c2		 add	 eax, edx
; File C:\Users\ALEXANDER\Desktop\Cliente\COPY_FISH_WON_NEW\Binario\Client\GameLib\ItemManager.cpp

; 238  : 		while (kTokenVector.size()<ITEMDESC_COL_NUM)

  00215	83 f8 04	 cmp	 eax, 4
  00218	0f 82 32 ff ff
	ff		 jb	 $LL5@LoadItemDe
$LN6@LoadItemDe:
; File D:\visual studio 2019\visual studio 2019\VC\Tools\MSVC\14.29.30133\include\xstring

; 2286 :         return _BUF_SIZE <= _Myres;

  0021e	83 7e 14 10	 cmp	 DWORD PTR [esi+20], 16	; 00000010H

; 2273 :         if (_Large_string_engaged()) {

  00222	72 02		 jb	 SHORT $LN177@LoadItemDe

; 2274 :             _Result = _Unfancy(_Bx._Ptr);

  00224	8b 36		 mov	 esi, DWORD PTR [esi]
$LN177@LoadItemDe:
; File C:\Users\ALEXANDER\Desktop\Cliente\COPY_FISH_WON_NEW\Binario\Client\GameLib\ItemManager.cpp

; 243  : 		DWORD dwVnum=atoi(kTokenVector[ITEMDESC_COL_VNUM].c_str());

  00226	56		 push	 esi
  00227	e8 00 00 00 00	 call	 __atoi64
  0022c	89 85 68 fe ff
	ff		 mov	 DWORD PTR _dwVnum$3[ebp], eax
  00232	83 c4 04	 add	 esp, 4
; File D:\visual studio 2019\visual studio 2019\VC\Tools\MSVC\14.29.30133\include\vector

; 1556 :         return _My_data._Myfirst[_Pos];

  00235	8b 85 6c fe ff
	ff		 mov	 eax, DWORD PTR _kTokenVector$[ebp]
  0023b	8d 48 30	 lea	 ecx, DWORD PTR [eax+48]
  0023e	83 c0 48	 add	 eax, 72			; 00000048H
  00241	89 8d 5c fe ff
	ff		 mov	 DWORD PTR _c_rstDesc$1$[ebp], ecx
; File D:\visual studio 2019\visual studio 2019\VC\Tools\MSVC\14.29.30133\include\xtree

; 1353 :         const _Tree_find_result<_Nodeptr> _Loc = _Find_lower_bound(_Keyval);

  00247	8d 8d 68 fe ff
	ff		 lea	 ecx, DWORD PTR _dwVnum$3[ebp]
; File D:\visual studio 2019\visual studio 2019\VC\Tools\MSVC\14.29.30133\include\vector

; 1556 :         return _My_data._Myfirst[_Pos];

  0024d	89 85 58 fe ff
	ff		 mov	 DWORD PTR _c_rstSumm$1$[ebp], eax
; File C:\Users\ALEXANDER\Desktop\Cliente\COPY_FISH_WON_NEW\Binario\Client\GameLib\ItemManager.cpp

; 246  : 		TItemMap::iterator f = m_ItemMap.find(dwVnum);

  00253	8b 85 64 fe ff
	ff		 mov	 eax, DWORD PTR _this$1$[ebp]
; File D:\visual studio 2019\visual studio 2019\VC\Tools\MSVC\14.29.30133\include\xtree

; 1353 :         const _Tree_find_result<_Nodeptr> _Loc = _Find_lower_bound(_Keyval);

  00259	51		 push	 ecx
  0025a	8d 8d 3c fe ff
	ff		 lea	 ecx, DWORD PTR __Loc$2[ebp]
  00260	51		 push	 ecx
  00261	8d 48 04	 lea	 ecx, DWORD PTR [eax+4]
  00264	e8 00 00 00 00	 call	 ??$_Find_lower_bound@K@?$_Tree@V?$_Tmap_traits@KPAVCItemData@@U?$less@K@std@@V?$allocator@U?$pair@$$CBKPAVCItemData@@@std@@@3@$0A@@std@@@std@@IBE?AU?$_Tree_find_result@PAU?$_Tree_node@U?$pair@$$CBKPAVCItemData@@@std@@PAX@std@@@1@ABK@Z ; std::_Tree<std::_Tmap_traits<unsigned long,CItemData *,std::less<unsigned long>,std::allocator<std::pair<unsigned long const ,CItemData *> >,0> >::_Find_lower_bound<unsigned long>

; 1591 :         return !_Bound->_Isnil && !_DEBUG_LT_PRED(_Getcomp(), _Keyval, _Traits::_Kfn(_Bound->_Myval));

  00269	8b b5 44 fe ff
	ff		 mov	 esi, DWORD PTR __Loc$2[ebp+8]
  0026f	80 7e 0d 00	 cmp	 BYTE PTR [esi+13], 0
  00273	75 4d		 jne	 SHORT $LN2@LoadItemDe
; File D:\visual studio 2019\visual studio 2019\VC\Tools\MSVC\14.29.30133\include\xstddef

; 117  :         return _Left < _Right;

  00275	8b 85 68 fe ff
	ff		 mov	 eax, DWORD PTR _dwVnum$3[ebp]
  0027b	3b 46 10	 cmp	 eax, DWORD PTR [esi+16]
; File D:\visual studio 2019\visual studio 2019\VC\Tools\MSVC\14.29.30133\include\xtree

; 1591 :         return !_Bound->_Isnil && !_DEBUG_LT_PRED(_Getcomp(), _Keyval, _Traits::_Kfn(_Bound->_Myval));

  0027e	72 42		 jb	 SHORT $LN2@LoadItemDe

; 38   :     _Tree_unchecked_const_iterator(_Nodeptr _Pnode, const _Mytree* _Plist) noexcept : _Ptr(_Pnode) {

  00280	8b 85 64 fe ff
	ff		 mov	 eax, DWORD PTR _this$1$[ebp]
  00286	39 70 04	 cmp	 DWORD PTR [eax+4], esi
; File C:\Users\ALEXANDER\Desktop\Cliente\COPY_FISH_WON_NEW\Binario\Client\GameLib\ItemManager.cpp

; 247  : 		if (m_ItemMap.end() == f)

  00289	74 37		 je	 SHORT $LN2@LoadItemDe

; 248  : 			continue;
; 249  : 
; 250  : 		CItemData* pkItemDataFind = f->second;

  0028b	8b 76 14	 mov	 esi, DWORD PTR [esi+20]

; 251  : 
; 252  : 		pkItemDataFind->SetDescription(__SnapString(c_rstDesc, stTemp));

  0028e	8d 45 d8	 lea	 eax, DWORD PTR _stTemp$[ebp]
  00291	50		 push	 eax
  00292	ff b5 5c fe ff
	ff		 push	 DWORD PTR _c_rstDesc$1$[ebp]
  00298	e8 00 00 00 00	 call	 ?__SnapString@@YAABV?$basic_string@DU?$char_traits@D@std@@V?$allocator@D@2@@std@@ABV12@AAV12@@Z ; __SnapString
  0029d	83 c4 08	 add	 esp, 8
  002a0	8b ce		 mov	 ecx, esi
  002a2	50		 push	 eax
  002a3	e8 00 00 00 00	 call	 ?SetDescription@CItemData@@QAEXABV?$basic_string@DU?$char_traits@D@std@@V?$allocator@D@2@@std@@@Z ; CItemData::SetDescription

; 253  : 		pkItemDataFind->SetSummary(__SnapString(c_rstSumm, stTemp));

  002a8	8d 45 d8	 lea	 eax, DWORD PTR _stTemp$[ebp]
  002ab	50		 push	 eax
  002ac	ff b5 58 fe ff
	ff		 push	 DWORD PTR _c_rstSumm$1$[ebp]
  002b2	e8 00 00 00 00	 call	 ?__SnapString@@YAABV?$basic_string@DU?$char_traits@D@std@@V?$allocator@D@2@@std@@ABV12@AAV12@@Z ; __SnapString
  002b7	83 c4 08	 add	 esp, 8
  002ba	8b ce		 mov	 ecx, esi
  002bc	50		 push	 eax
  002bd	e8 00 00 00 00	 call	 ?SetSummary@CItemData@@QAEXABV?$basic_string@DU?$char_traits@D@std@@V?$allocator@D@2@@std@@@Z ; CItemData::SetSummary
$LN2@LoadItemDe:

; 233  : 	for (DWORD i = 0; i < kTextFileLoader.GetLineCount(); ++i)

  002c2	8d 8d 48 fe ff
	ff		 lea	 ecx, DWORD PTR _kTextFileLoader$[ebp]
  002c8	47		 inc	 edi
  002c9	e8 00 00 00 00	 call	 ?GetLineCount@CMemoryTextFileLoader@@QAEKXZ ; CMemoryTextFileLoader::GetLineCount
  002ce	3b f8		 cmp	 edi, eax
  002d0	0f 82 2a fe ff
	ff		 jb	 $LL4@LoadItemDe
$LN3@LoadItemDe:
; File D:\visual studio 2019\visual studio 2019\VC\Tools\MSVC\14.29.30133\include\vector

; 1750 :         if (_Myfirst) { // destroy and deallocate old array

  002d6	8b 85 6c fe ff
	ff		 mov	 eax, DWORD PTR _kTokenVector$[ebp]
; File C:\Users\ALEXANDER\Desktop\Cliente\COPY_FISH_WON_NEW\Binario\Client\GameLib\ItemManager.cpp

; 255  : 	return true;

  002dc	c6 85 7b fe ff
	ff 01		 mov	 BYTE PTR $T4[ebp], 1
; File D:\visual studio 2019\visual studio 2019\VC\Tools\MSVC\14.29.30133\include\vector

; 1750 :         if (_Myfirst) { // destroy and deallocate old array

  002e3	85 c0		 test	 eax, eax
  002e5	0f 84 81 00 00
	00		 je	 $LN221@LoadItemDe

; 1667 :         _Destroy_range(_First, _Last, _Getal());

  002eb	8d 8d 6c fe ff
	ff		 lea	 ecx, DWORD PTR _kTokenVector$[ebp]
  002f1	51		 push	 ecx
  002f2	ff b5 70 fe ff
	ff		 push	 DWORD PTR _kTokenVector$[ebp+4]
  002f8	50		 push	 eax
  002f9	e8 00 00 00 00	 call	 ??$_Destroy_range@V?$allocator@V?$basic_string@DU?$char_traits@D@std@@V?$allocator@D@2@@std@@@std@@@std@@YAXPAV?$basic_string@DU?$char_traits@D@std@@V?$allocator@D@2@@0@QAV10@AAV?$allocator@V?$basic_string@DU?$char_traits@D@std@@V?$allocator@D@2@@std@@@0@@Z ; std::_Destroy_range<std::allocator<std::basic_string<char,std::char_traits<char>,std::allocator<char> > > >

; 1752 :             _Getal().deallocate(_Myfirst, static_cast<size_type>(_Myend - _Myfirst));

  002fe	8b 8d 74 fe ff
	ff		 mov	 ecx, DWORD PTR _kTokenVector$[ebp+8]
  00304	b8 ab aa aa 2a	 mov	 eax, 715827883		; 2aaaaaabH
  00309	8b b5 6c fe ff
	ff		 mov	 esi, DWORD PTR _kTokenVector$[ebp]

; 1667 :         _Destroy_range(_First, _Last, _Getal());

  0030f	83 c4 0c	 add	 esp, 12			; 0000000cH

; 1752 :             _Getal().deallocate(_Myfirst, static_cast<size_type>(_Myend - _Myfirst));

  00312	2b ce		 sub	 ecx, esi
  00314	f7 e9		 imul	 ecx
  00316	c1 fa 02	 sar	 edx, 2
  00319	8b c2		 mov	 eax, edx
  0031b	c1 e8 1f	 shr	 eax, 31			; 0000001fH
  0031e	03 c2		 add	 eax, edx
; File D:\visual studio 2019\visual studio 2019\VC\Tools\MSVC\14.29.30133\include\xmemory

; 797  :         _Deallocate<_New_alignof<_Ty>>(_Ptr, sizeof(_Ty) * _Count);

  00320	8d 0c 40	 lea	 ecx, DWORD PTR [eax+eax*2]
  00323	8b c6		 mov	 eax, esi
  00325	c1 e1 03	 shl	 ecx, 3

; 251  :         if (_Bytes >= _Big_allocation_threshold) { // boost the alignment of big allocations to help autovectorization

  00328	81 f9 00 10 00
	00		 cmp	 ecx, 4096		; 00001000H
  0032e	72 14		 jb	 SHORT $LN239@LoadItemDe

; 150  :     const uintptr_t _Ptr_container   = _Ptr_user[-1];

  00330	8b 76 fc	 mov	 esi, DWORD PTR [esi-4]
  00333	83 c1 23	 add	 ecx, 35			; 00000023H
  00336	2b c6		 sub	 eax, esi

; 164  :     _STL_VERIFY(_Back_shift >= _Min_back_shift && _Back_shift <= _Non_user_size, "invalid argument");

  00338	83 c0 fc	 add	 eax, -4			; fffffffcH
  0033b	83 f8 1f	 cmp	 eax, 31			; 0000001fH
  0033e	0f 87 a3 00 00
	00		 ja	 $LN263@LoadItemDe
$LN239@LoadItemDe:

; 255  :         ::operator delete(_Ptr, _Bytes);

  00344	51		 push	 ecx
  00345	56		 push	 esi
  00346	e8 00 00 00 00	 call	 ??3@YAXPAXI@Z		; operator delete
  0034b	83 c4 08	 add	 esp, 8
; File D:\visual studio 2019\visual studio 2019\VC\Tools\MSVC\14.29.30133\include\vector

; 1754 :             _Myfirst = nullptr;

  0034e	c7 85 6c fe ff
	ff 00 00 00 00	 mov	 DWORD PTR _kTokenVector$[ebp], 0

; 1755 :             _Mylast  = nullptr;

  00358	c7 85 70 fe ff
	ff 00 00 00 00	 mov	 DWORD PTR _kTokenVector$[ebp+4], 0

; 1756 :             _Myend   = nullptr;

  00362	c7 85 74 fe ff
	ff 00 00 00 00	 mov	 DWORD PTR _kTokenVector$[ebp+8], 0
$LN221@LoadItemDe:
; File D:\visual studio 2019\visual studio 2019\VC\Tools\MSVC\14.29.30133\include\xstring

; 2286 :         return _BUF_SIZE <= _Myres;

  0036c	8b 55 ec	 mov	 edx, DWORD PTR _stTemp$[ebp+20]
  0036f	83 fa 10	 cmp	 edx, 16			; 00000010H

; 4584 :         if (_Mypair._Myval2._Large_string_engaged()) {

  00372	72 28		 jb	 SHORT $LN256@LoadItemDe
; File D:\visual studio 2019\visual studio 2019\VC\Tools\MSVC\14.29.30133\include\xmemory

; 797  :         _Deallocate<_New_alignof<_Ty>>(_Ptr, sizeof(_Ty) * _Count);

  00374	8b 4d d8	 mov	 ecx, DWORD PTR _stTemp$[ebp]
; File D:\visual studio 2019\visual studio 2019\VC\Tools\MSVC\14.29.30133\include\xstring

; 4588 :             _Al.deallocate(_Ptr, _Mypair._Myval2._Myres + 1);

  00377	42		 inc	 edx
; File D:\visual studio 2019\visual studio 2019\VC\Tools\MSVC\14.29.30133\include\xmemory

; 797  :         _Deallocate<_New_alignof<_Ty>>(_Ptr, sizeof(_Ty) * _Count);

  00378	8b c1		 mov	 eax, ecx

; 251  :         if (_Bytes >= _Big_allocation_threshold) { // boost the alignment of big allocations to help autovectorization

  0037a	81 fa 00 10 00
	00		 cmp	 edx, 4096		; 00001000H
  00380	72 10		 jb	 SHORT $LN266@LoadItemDe

; 150  :     const uintptr_t _Ptr_container   = _Ptr_user[-1];

  00382	8b 49 fc	 mov	 ecx, DWORD PTR [ecx-4]
  00385	83 c2 23	 add	 edx, 35			; 00000023H
  00388	2b c1		 sub	 eax, ecx

; 164  :     _STL_VERIFY(_Back_shift >= _Min_back_shift && _Back_shift <= _Non_user_size, "invalid argument");

  0038a	83 c0 fc	 add	 eax, -4			; fffffffcH
  0038d	83 f8 1f	 cmp	 eax, 31			; 0000001fH
  00390	77 55		 ja	 SHORT $LN263@LoadItemDe
$LN266@LoadItemDe:

; 255  :         ::operator delete(_Ptr, _Bytes);

  00392	52		 push	 edx
  00393	51		 push	 ecx
  00394	e8 00 00 00 00	 call	 ??3@YAXPAXI@Z		; operator delete
  00399	83 c4 08	 add	 esp, 8
$LN256@LoadItemDe:
; File C:\Users\ALEXANDER\Desktop\Cliente\COPY_FISH_WON_NEW\Binario\Client\GameLib\ItemManager.cpp

; 255  : 	return true;

  0039c	8d 8d 48 fe ff
	ff		 lea	 ecx, DWORD PTR _kTextFileLoader$[ebp]
; File D:\visual studio 2019\visual studio 2019\VC\Tools\MSVC\14.29.30133\include\xstring

; 4599 :             _Mypair._Myval2._Mysize = 0;

  003a2	c7 45 e8 00 00
	00 00		 mov	 DWORD PTR _stTemp$[ebp+16], 0

; 4600 :             _Mypair._Myval2._Myres  = _BUF_SIZE - 1;

  003a9	c7 45 ec 0f 00
	00 00		 mov	 DWORD PTR _stTemp$[ebp+20], 15 ; 0000000fH

; 4601 :             // the _Traits::assign is last so the codegen doesn't think the char write can alias this
; 4602 :             _Traits::assign(_Mypair._Myval2._Bx._Buf[0], _Elem());

  003b0	c6 45 d8 00	 mov	 BYTE PTR _stTemp$[ebp], 0
; File C:\Users\ALEXANDER\Desktop\Cliente\COPY_FISH_WON_NEW\Binario\Client\GameLib\ItemManager.cpp

; 255  : 	return true;

  003b4	e8 00 00 00 00	 call	 ??1CMemoryTextFileLoader@@UAE@XZ ; CMemoryTextFileLoader::~CMemoryTextFileLoader
$LN16@LoadItemDe:
  003b9	8d 8d 7c fe ff
	ff		 lea	 ecx, DWORD PTR _kFile$[ebp]
  003bf	e8 00 00 00 00	 call	 ??1CMappedFile@@UAE@XZ	; CMappedFile::~CMappedFile
  003c4	8a 85 7b fe ff
	ff		 mov	 al, BYTE PTR $T4[ebp]

; 256  : }

  003ca	8b 4d f4	 mov	 ecx, DWORD PTR __$EHRec$[ebp]
  003cd	64 89 0d 00 00
	00 00		 mov	 DWORD PTR fs:0, ecx
  003d4	59		 pop	 ecx
  003d5	5f		 pop	 edi
  003d6	5e		 pop	 esi
  003d7	8b 4d f0	 mov	 ecx, DWORD PTR __$ArrayPad$[ebp]
  003da	33 cd		 xor	 ecx, ebp
  003dc	e8 00 00 00 00	 call	 @__security_check_cookie@4
  003e1	8b e5		 mov	 esp, ebp
  003e3	5d		 pop	 ebp
  003e4	c2 04 00	 ret	 4
$LN263@LoadItemDe:
; File D:\visual studio 2019\visual studio 2019\VC\Tools\MSVC\14.29.30133\include\xmemory

; 164  :     _STL_VERIFY(_Back_shift >= _Min_back_shift && _Back_shift <= _Non_user_size, "invalid argument");

  003e7	e8 00 00 00 00	 call	 __invalid_parameter_noinfo_noreturn
$LN282@LoadItemDe:
  003ec	cc		 int	 3
_TEXT	ENDS
;	COMDAT text$x
text$x	SEGMENT
__unwindfunclet$?LoadItemDesc@CItemManager@@QAE_NPBD@Z$0:
  00000	8d 8d 7c fe ff
	ff		 lea	 ecx, DWORD PTR _kFile$[ebp]
  00006	e9 00 00 00 00	 jmp	 ??1CMappedFile@@UAE@XZ	; CMappedFile::~CMappedFile
__unwindfunclet$?LoadItemDesc@CItemManager@@QAE_NPBD@Z$1:
  0000b	8d 8d 48 fe ff
	ff		 lea	 ecx, DWORD PTR _kTextFileLoader$[ebp]
  00011	e9 00 00 00 00	 jmp	 ??1CMemoryTextFileLoader@@UAE@XZ ; CMemoryTextFileLoader::~CMemoryTextFileLoader
__unwindfunclet$?LoadItemDesc@CItemManager@@QAE_NPBD@Z$2:
  00016	8d 4d d8	 lea	 ecx, DWORD PTR _stTemp$[ebp]
  00019	e9 00 00 00 00	 jmp	 ??1?$basic_string@DU?$char_traits@D@std@@V?$allocator@D@2@@std@@QAE@XZ ; std::basic_string<char,std::char_traits<char>,std::allocator<char> >::~basic_string<char,std::char_traits<char>,std::allocator<char> >
__unwindfunclet$?LoadItemDesc@CItemManager@@QAE_NPBD@Z$3:
  0001e	8d 8d 6c fe ff
	ff		 lea	 ecx, DWORD PTR _kTokenVector$[ebp]
  00024	e9 00 00 00 00	 jmp	 ??1?$vector@V?$basic_string@DU?$char_traits@D@std@@V?$allocator@D@2@@std@@V?$allocator@V?$basic_string@DU?$char_traits@D@std@@V?$allocator@D@2@@std@@@2@@std@@QAE@XZ ; std::vector<std::basic_string<char,std::char_traits<char>,std::allocator<char> >,std::allocator<std::basic_string<char,std::char_traits<char>,std::allocator<char> > > >::~vector<std::basic_string<char,std::char_traits<char>,std::allocator<char> >,std::allocator<std::basic_string<char,std::char_traits<char>,std::allocator<char> > > >
__unwindfunclet$?LoadItemDesc@CItemManager@@QAE_NPBD@Z$4:
  00029	8d 4d c0	 lea	 ecx, DWORD PTR $T5[ebp]
  0002c	e9 00 00 00 00	 jmp	 ??1?$basic_string@DU?$char_traits@D@std@@V?$allocator@D@2@@std@@QAE@XZ ; std::basic_string<char,std::char_traits<char>,std::allocator<char> >::~basic_string<char,std::char_traits<char>,std::allocator<char> >
  00031	cc		 int	 3
  00032	cc		 int	 3
  00033	cc		 int	 3
  00034	cc		 int	 3
  00035	cc		 int	 3
__ehhandler$?LoadItemDesc@CItemManager@@QAE_NPBD@Z:
  00036	90		 npad	 1
  00037	90		 npad	 1
  00038	8b 54 24 08	 mov	 edx, DWORD PTR [esp+8]
  0003c	8d 42 0c	 lea	 eax, DWORD PTR [edx+12]
  0003f	8b 8a 3c fe ff
	ff		 mov	 ecx, DWORD PTR [edx-452]
  00045	33 c8		 xor	 ecx, eax
  00047	e8 00 00 00 00	 call	 @__security_check_cookie@4
  0004c	8b 4a fc	 mov	 ecx, DWORD PTR [edx-4]
  0004f	33 c8		 xor	 ecx, eax
  00051	e8 00 00 00 00	 call	 @__security_check_cookie@4
  00056	b8 00 00 00 00	 mov	 eax, OFFSET __ehfuncinfo$?LoadItemDesc@CItemManager@@QAE_NPBD@Z
  0005b	e9 00 00 00 00	 jmp	 ___CxxFrameHandler3
text$x	ENDS
?LoadItemDesc@CItemManager@@QAE_NPBD@Z ENDP		; CItemManager::LoadItemDesc
; Function compile flags: /Ogtp
; File C:\Users\ALEXANDER\Desktop\Cliente\COPY_FISH_WON_NEW\Binario\Client\GameLib\ItemManager.cpp
; File D:\visual studio 2019\visual studio 2019\VC\Tools\MSVC\14.29.30133\include\xtree
; File C:\Users\ALEXANDER\Desktop\Cliente\COPY_FISH_WON_NEW\Binario\Client\GameLib\ItemManager.cpp
; File D:\visual studio 2019\visual studio 2019\VC\Tools\MSVC\14.29.30133\include\xtree
; File D:\visual studio 2019\visual studio 2019\VC\Tools\MSVC\14.29.30133\include\xstddef
; File D:\visual studio 2019\visual studio 2019\VC\Tools\MSVC\14.29.30133\include\xtree
; File C:\Users\ALEXANDER\Desktop\Cliente\COPY_FISH_WON_NEW\Binario\Client\GameLib\ItemManager.cpp
; File D:\visual studio 2019\visual studio 2019\VC\Tools\MSVC\14.29.30133\include\vector
; File C:\Users\ALEXANDER\Desktop\Cliente\COPY_FISH_WON_NEW\Binario\Client\GameLib\ItemManager.cpp
; File D:\visual studio 2019\visual studio 2019\VC\Tools\MSVC\14.29.30133\include\vector
; File C:\Users\ALEXANDER\Desktop\Cliente\COPY_FISH_WON_NEW\Binario\Client\GameLib\ItemManager.cpp
;	COMDAT ?GetItemDataPointer@CItemManager@@QAEHKPAPAVCItemData@@@Z
_TEXT	SEGMENT
__Loc$1 = -16						; size = 12
_this$1$ = -4						; size = 4
_p$1$ = 8						; size = 4
_dwItemID$ = 8						; size = 4
_ppItemData$ = 12					; size = 4
?GetItemDataPointer@CItemManager@@QAEHKPAPAVCItemData@@@Z PROC ; CItemManager::GetItemDataPointer, COMDAT
; _this$ = ecx

; 48   : {

  00000	55		 push	 ebp
  00001	8b ec		 mov	 ebp, esp
  00003	83 ec 10	 sub	 esp, 16			; 00000010H
  00006	53		 push	 ebx
  00007	56		 push	 esi
  00008	57		 push	 edi

; 49   : 	if (0 == dwItemID)

  00009	8b 7d 08	 mov	 edi, DWORD PTR _dwItemID$[ebp]
  0000c	89 4d fc	 mov	 DWORD PTR _this$1$[ebp], ecx
  0000f	85 ff		 test	 edi, edi
  00011	0f 84 a1 00 00
	00		 je	 $LN55@GetItemDat
; File D:\visual studio 2019\visual studio 2019\VC\Tools\MSVC\14.29.30133\include\xtree

; 1353 :         const _Tree_find_result<_Nodeptr> _Loc = _Find_lower_bound(_Keyval);

  00017	8d 45 08	 lea	 eax, DWORD PTR _dwItemID$[ebp]
  0001a	50		 push	 eax
; File C:\Users\ALEXANDER\Desktop\Cliente\COPY_FISH_WON_NEW\Binario\Client\GameLib\ItemManager.cpp

; 52   : 	TItemMap::iterator f = m_ItemMap.find(dwItemID);

  0001b	8d 71 04	 lea	 esi, DWORD PTR [ecx+4]
; File D:\visual studio 2019\visual studio 2019\VC\Tools\MSVC\14.29.30133\include\xtree

; 1353 :         const _Tree_find_result<_Nodeptr> _Loc = _Find_lower_bound(_Keyval);

  0001e	8d 45 f0	 lea	 eax, DWORD PTR __Loc$1[ebp]
  00021	8b ce		 mov	 ecx, esi
  00023	50		 push	 eax
  00024	e8 00 00 00 00	 call	 ??$_Find_lower_bound@K@?$_Tree@V?$_Tmap_traits@KPAVCItemData@@U?$less@K@std@@V?$allocator@U?$pair@$$CBKPAVCItemData@@@std@@@3@$0A@@std@@@std@@IBE?AU?$_Tree_find_result@PAU?$_Tree_node@U?$pair@$$CBKPAVCItemData@@@std@@PAX@std@@@1@ABK@Z ; std::_Tree<std::_Tmap_traits<unsigned long,CItemData *,std::less<unsigned long>,std::allocator<std::pair<unsigned long const ,CItemData *> >,0> >::_Find_lower_bound<unsigned long>

; 1591 :         return !_Bound->_Isnil && !_DEBUG_LT_PRED(_Getcomp(), _Keyval, _Traits::_Kfn(_Bound->_Myval));

  00029	8b 4d f8	 mov	 ecx, DWORD PTR __Loc$1[ebp+8]
  0002c	80 79 0d 00	 cmp	 BYTE PTR [ecx+13], 0
  00030	75 1f		 jne	 SHORT $LN54@GetItemDat
; File D:\visual studio 2019\visual studio 2019\VC\Tools\MSVC\14.29.30133\include\xstddef

; 117  :         return _Left < _Right;

  00032	3b 79 10	 cmp	 edi, DWORD PTR [ecx+16]
; File D:\visual studio 2019\visual studio 2019\VC\Tools\MSVC\14.29.30133\include\xtree

; 1591 :         return !_Bound->_Isnil && !_DEBUG_LT_PRED(_Getcomp(), _Keyval, _Traits::_Kfn(_Bound->_Myval));

  00035	72 1a		 jb	 SHORT $LN54@GetItemDat

; 38   :     _Tree_unchecked_const_iterator(_Nodeptr _Pnode, const _Mytree* _Plist) noexcept : _Ptr(_Pnode) {

  00037	39 0e		 cmp	 DWORD PTR [esi], ecx
; File C:\Users\ALEXANDER\Desktop\Cliente\COPY_FISH_WON_NEW\Binario\Client\GameLib\ItemManager.cpp

; 54   : 	if (m_ItemMap.end() == f)

  00039	74 16		 je	 SHORT $LN54@GetItemDat

; 75   : 		return FALSE;
; 76   : 	}
; 77   : 
; 78   : 	*ppItemData = f->second;

  0003b	8b 45 0c	 mov	 eax, DWORD PTR _ppItemData$[ebp]
  0003e	8b 49 14	 mov	 ecx, DWORD PTR [ecx+20]
  00041	5f		 pop	 edi

; 79   : 
; 80   : 	return TRUE;
; 81   : }

  00042	5e		 pop	 esi
  00043	89 08		 mov	 DWORD PTR [eax], ecx
  00045	b8 01 00 00 00	 mov	 eax, 1
  0004a	5b		 pop	 ebx
  0004b	8b e5		 mov	 esp, ebp
  0004d	5d		 pop	 ebp
  0004e	c2 08 00	 ret	 8
$LN54@GetItemDat:
; File D:\visual studio 2019\visual studio 2019\VC\Tools\MSVC\14.29.30133\include\vector

; 1536 :         return static_cast<size_type>(_My_data._Mylast - _My_data._Myfirst);

  00051	8b 45 fc	 mov	 eax, DWORD PTR _this$1$[ebp]
; File C:\Users\ALEXANDER\Desktop\Cliente\COPY_FISH_WON_NEW\Binario\Client\GameLib\ItemManager.cpp

; 57   : 		for (int i = 0; i < n; i++)

  00054	33 f6		 xor	 esi, esi
; File D:\visual studio 2019\visual studio 2019\VC\Tools\MSVC\14.29.30133\include\vector

; 1536 :         return static_cast<size_type>(_My_data._Mylast - _My_data._Myfirst);

  00056	8b 58 10	 mov	 ebx, DWORD PTR [eax+16]
  00059	2b 58 0c	 sub	 ebx, DWORD PTR [eax+12]
  0005c	c1 fb 02	 sar	 ebx, 2
; File C:\Users\ALEXANDER\Desktop\Cliente\COPY_FISH_WON_NEW\Binario\Client\GameLib\ItemManager.cpp

; 57   : 		for (int i = 0; i < n; i++)

  0005f	85 db		 test	 ebx, ebx
  00061	7e 3f		 jle	 SHORT $LN56@GetItemDat
$LL4@GetItemDat:

; 58   : 		{
; 59   : 			CItemData * p = m_vec_ItemRange[i];

  00063	8b 40 0c	 mov	 eax, DWORD PTR [eax+12]
  00066	8b 04 b0	 mov	 eax, DWORD PTR [eax+esi*4]

; 60   : 			const CItemData::TItemTable * pTable = p->GetTable();

  00069	8b c8		 mov	 ecx, eax
  0006b	89 45 08	 mov	 DWORD PTR _p$1$[ebp], eax
  0006e	e8 00 00 00 00	 call	 ?GetTable@CItemData@@QBEPBUSItemTable_r156@1@XZ ; CItemData::GetTable

; 61   : 			if ((pTable->dwVnum < dwItemID) &&

  00073	8b 08		 mov	 ecx, DWORD PTR [eax]
  00075	3b cf		 cmp	 ecx, edi
  00077	73 09		 jae	 SHORT $LN2@GetItemDat
  00079	8b 40 04	 mov	 eax, DWORD PTR [eax+4]
  0007c	03 c1		 add	 eax, ecx
  0007e	3b f8		 cmp	 edi, eax
  00080	72 0a		 jb	 SHORT $LN48@GetItemDat
$LN2@GetItemDat:

; 57   : 		for (int i = 0; i < n; i++)

  00082	46		 inc	 esi
  00083	3b f3		 cmp	 esi, ebx
  00085	7d 1b		 jge	 SHORT $LN56@GetItemDat
  00087	8b 45 fc	 mov	 eax, DWORD PTR _this$1$[ebp]
  0008a	eb d7		 jmp	 SHORT $LL4@GetItemDat
$LN48@GetItemDat:

; 62   : 				dwItemID < (pTable->dwVnum + pTable->dwVnumRange))
; 63   : 			{
; 64   : 				*ppItemData = p;

  0008c	8b 45 0c	 mov	 eax, DWORD PTR _ppItemData$[ebp]
  0008f	8b 4d 08	 mov	 ecx, DWORD PTR _p$1$[ebp]
  00092	5f		 pop	 edi

; 79   : 
; 80   : 	return TRUE;
; 81   : }

  00093	5e		 pop	 esi
  00094	89 08		 mov	 DWORD PTR [eax], ecx
  00096	b8 01 00 00 00	 mov	 eax, 1
  0009b	5b		 pop	 ebx
  0009c	8b e5		 mov	 esp, ebp
  0009e	5d		 pop	 ebp
  0009f	c2 08 00	 ret	 8
$LN56@GetItemDat:

; 65   : 				return TRUE;
; 66   : 			}
; 67   : 		}
; 68   : 
; 69   : #ifdef ENABLE_ACCE_SYSTEM
; 70   : 		if (dwItemID == 85000)

  000a2	81 ff 08 4c 01
	00		 cmp	 edi, 85000		; 00014c08H
  000a8	74 0e		 je	 SHORT $LN55@GetItemDat

; 71   : 			return false;
; 72   : #endif
; 73   : 
; 74   : 		Tracef(" CItemManager::GetItemDataPointer - FIND ERROR [%d]\n", dwItemID);

  000aa	57		 push	 edi
  000ab	68 00 00 00 00	 push	 OFFSET ??_C@_0DF@GPLOHCFJ@?5CItemManager?3?3GetItemDataPoint@
  000b0	e8 00 00 00 00	 call	 ?Tracef@@YAXPBDZZ	; Tracef
  000b5	83 c4 08	 add	 esp, 8
$LN55@GetItemDat:

; 79   : 
; 80   : 	return TRUE;
; 81   : }

  000b8	5f		 pop	 edi
  000b9	5e		 pop	 esi
  000ba	33 c0		 xor	 eax, eax
  000bc	5b		 pop	 ebx
  000bd	8b e5		 mov	 esp, ebp
  000bf	5d		 pop	 ebp
  000c0	c2 08 00	 ret	 8
?GetItemDataPointer@CItemManager@@QAEHKPAPAVCItemData@@@Z ENDP ; CItemManager::GetItemDataPointer
_TEXT	ENDS
; Function compile flags: /Ogtp
; File C:\Users\ALEXANDER\Desktop\Cliente\COPY_FISH_WON_NEW\Binario\Client\GameLib\ItemManager.cpp
;	COMDAT ?GetSelectedItemDataPointer@CItemManager@@QAEPAVCItemData@@XZ
_TEXT	SEGMENT
?GetSelectedItemDataPointer@CItemManager@@QAEPAVCItemData@@XZ PROC ; CItemManager::GetSelectedItemDataPointer, COMDAT
; _this$ = ecx

; 44   : 	return m_pSelectedItemData;

  00000	8b 41 18	 mov	 eax, DWORD PTR [ecx+24]

; 45   : }

  00003	c3		 ret	 0
?GetSelectedItemDataPointer@CItemManager@@QAEPAVCItemData@@XZ ENDP ; CItemManager::GetSelectedItemDataPointer
_TEXT	ENDS
; Function compile flags: /Ogtp
; File C:\Users\ALEXANDER\Desktop\Cliente\COPY_FISH_WON_NEW\Binario\Client\GameLib\ItemManager.cpp
; File D:\visual studio 2019\visual studio 2019\VC\Tools\MSVC\14.29.30133\include\xtree
; File C:\Users\ALEXANDER\Desktop\Cliente\COPY_FISH_WON_NEW\Binario\Client\GameLib\ItemManager.cpp
; File D:\visual studio 2019\visual studio 2019\VC\Tools\MSVC\14.29.30133\include\xtree
; File D:\visual studio 2019\visual studio 2019\VC\Tools\MSVC\14.29.30133\include\xstddef
; File D:\visual studio 2019\visual studio 2019\VC\Tools\MSVC\14.29.30133\include\xtree
; File C:\Users\ALEXANDER\Desktop\Cliente\COPY_FISH_WON_NEW\Binario\Client\GameLib\ItemManager.cpp
; File D:\visual studio 2019\visual studio 2019\VC\Tools\MSVC\14.29.30133\include\vector
; File C:\Users\ALEXANDER\Desktop\Cliente\COPY_FISH_WON_NEW\Binario\Client\GameLib\ItemManager.cpp
; File D:\visual studio 2019\visual studio 2019\VC\Tools\MSVC\14.29.30133\include\vector
; File C:\Users\ALEXANDER\Desktop\Cliente\COPY_FISH_WON_NEW\Binario\Client\GameLib\ItemManager.cpp
;	COMDAT ?SelectItemData@CItemManager@@QAEHK@Z
_TEXT	SEGMENT
__Loc$1 = -16						; size = 12
_this$1$ = -4						; size = 4
_p$1$ = 8						; size = 4
_dwIndex$ = 8						; size = 4
?SelectItemData@CItemManager@@QAEHK@Z PROC		; CItemManager::SelectItemData, COMDAT
; _this$ = ecx

; 16   : {

  00000	55		 push	 ebp
  00001	8b ec		 mov	 ebp, esp
  00003	83 ec 10	 sub	 esp, 16			; 00000010H
  00006	53		 push	 ebx
  00007	56		 push	 esi
  00008	57		 push	 edi
  00009	8b f1		 mov	 esi, ecx
; File D:\visual studio 2019\visual studio 2019\VC\Tools\MSVC\14.29.30133\include\xtree

; 1353 :         const _Tree_find_result<_Nodeptr> _Loc = _Find_lower_bound(_Keyval);

  0000b	8d 45 08	 lea	 eax, DWORD PTR _dwIndex$[ebp]
  0000e	50		 push	 eax
  0000f	8d 45 f0	 lea	 eax, DWORD PTR __Loc$1[ebp]
; File C:\Users\ALEXANDER\Desktop\Cliente\COPY_FISH_WON_NEW\Binario\Client\GameLib\ItemManager.cpp

; 16   : {

  00012	89 75 fc	 mov	 DWORD PTR _this$1$[ebp], esi
; File D:\visual studio 2019\visual studio 2019\VC\Tools\MSVC\14.29.30133\include\xtree

; 1353 :         const _Tree_find_result<_Nodeptr> _Loc = _Find_lower_bound(_Keyval);

  00015	50		 push	 eax
  00016	8d 4e 04	 lea	 ecx, DWORD PTR [esi+4]
  00019	e8 00 00 00 00	 call	 ??$_Find_lower_bound@K@?$_Tree@V?$_Tmap_traits@KPAVCItemData@@U?$less@K@std@@V?$allocator@U?$pair@$$CBKPAVCItemData@@@std@@@3@$0A@@std@@@std@@IBE?AU?$_Tree_find_result@PAU?$_Tree_node@U?$pair@$$CBKPAVCItemData@@@std@@PAX@std@@@1@ABK@Z ; std::_Tree<std::_Tmap_traits<unsigned long,CItemData *,std::less<unsigned long>,std::allocator<std::pair<unsigned long const ,CItemData *> >,0> >::_Find_lower_bound<unsigned long>

; 1591 :         return !_Bound->_Isnil && !_DEBUG_LT_PRED(_Getcomp(), _Keyval, _Traits::_Kfn(_Bound->_Myval));

  0001e	8b 45 f8	 mov	 eax, DWORD PTR __Loc$1[ebp+8]
  00021	8b 5d 08	 mov	 ebx, DWORD PTR _dwIndex$[ebp]
  00024	80 78 0d 00	 cmp	 BYTE PTR [eax+13], 0
  00028	75 1e		 jne	 SHORT $LN52@SelectItem
; File D:\visual studio 2019\visual studio 2019\VC\Tools\MSVC\14.29.30133\include\xstddef

; 117  :         return _Left < _Right;

  0002a	3b 58 10	 cmp	 ebx, DWORD PTR [eax+16]
; File D:\visual studio 2019\visual studio 2019\VC\Tools\MSVC\14.29.30133\include\xtree

; 1591 :         return !_Bound->_Isnil && !_DEBUG_LT_PRED(_Getcomp(), _Keyval, _Traits::_Kfn(_Bound->_Myval));

  0002d	72 19		 jb	 SHORT $LN52@SelectItem

; 38   :     _Tree_unchecked_const_iterator(_Nodeptr _Pnode, const _Mytree* _Plist) noexcept : _Ptr(_Pnode) {

  0002f	39 46 04	 cmp	 DWORD PTR [esi+4], eax
; File C:\Users\ALEXANDER\Desktop\Cliente\COPY_FISH_WON_NEW\Binario\Client\GameLib\ItemManager.cpp

; 19   : 	if (m_ItemMap.end() == f)

  00032	74 14		 je	 SHORT $LN52@SelectItem

; 35   : 	}
; 36   : 
; 37   : 	m_pSelectedItemData = f->second;

  00034	8b 40 14	 mov	 eax, DWORD PTR [eax+20]
  00037	5f		 pop	 edi
  00038	89 46 18	 mov	 DWORD PTR [esi+24], eax

; 38   : 
; 39   : 	return TRUE;

  0003b	b8 01 00 00 00	 mov	 eax, 1

; 40   : }

  00040	5e		 pop	 esi
  00041	5b		 pop	 ebx
  00042	8b e5		 mov	 esp, ebp
  00044	5d		 pop	 ebp
  00045	c2 04 00	 ret	 4
$LN52@SelectItem:
; File D:\visual studio 2019\visual studio 2019\VC\Tools\MSVC\14.29.30133\include\vector

; 1536 :         return static_cast<size_type>(_My_data._Mylast - _My_data._Myfirst);

  00048	8b c6		 mov	 eax, esi
; File C:\Users\ALEXANDER\Desktop\Cliente\COPY_FISH_WON_NEW\Binario\Client\GameLib\ItemManager.cpp

; 22   : 		for (int i = 0; i < n; i++)

  0004a	33 f6		 xor	 esi, esi
; File D:\visual studio 2019\visual studio 2019\VC\Tools\MSVC\14.29.30133\include\vector

; 1536 :         return static_cast<size_type>(_My_data._Mylast - _My_data._Myfirst);

  0004c	8b 78 10	 mov	 edi, DWORD PTR [eax+16]
  0004f	2b 78 0c	 sub	 edi, DWORD PTR [eax+12]
  00052	c1 ff 02	 sar	 edi, 2
; File C:\Users\ALEXANDER\Desktop\Cliente\COPY_FISH_WON_NEW\Binario\Client\GameLib\ItemManager.cpp

; 22   : 		for (int i = 0; i < n; i++)

  00055	85 ff		 test	 edi, edi
  00057	7e 47		 jle	 SHORT $LN53@SelectItem
  00059	0f 1f 80 00 00
	00 00		 npad	 7
$LL4@SelectItem:

; 23   : 		{
; 24   : 			CItemData * p = m_vec_ItemRange[i];

  00060	8b 40 0c	 mov	 eax, DWORD PTR [eax+12]
  00063	8b 04 b0	 mov	 eax, DWORD PTR [eax+esi*4]

; 25   : 			const CItemData::TItemTable * pTable = p->GetTable();

  00066	8b c8		 mov	 ecx, eax
  00068	89 45 08	 mov	 DWORD PTR _p$1$[ebp], eax
  0006b	e8 00 00 00 00	 call	 ?GetTable@CItemData@@QBEPBUSItemTable_r156@1@XZ ; CItemData::GetTable

; 26   : 			if ((pTable->dwVnum < dwIndex) &&

  00070	8b 08		 mov	 ecx, DWORD PTR [eax]
  00072	3b cb		 cmp	 ecx, ebx
  00074	73 09		 jae	 SHORT $LN2@SelectItem
  00076	8b 40 04	 mov	 eax, DWORD PTR [eax+4]
  00079	03 c1		 add	 eax, ecx
  0007b	3b d8		 cmp	 ebx, eax
  0007d	72 0a		 jb	 SHORT $LN46@SelectItem
$LN2@SelectItem:

; 22   : 		for (int i = 0; i < n; i++)

  0007f	46		 inc	 esi
  00080	3b f7		 cmp	 esi, edi
  00082	7d 1c		 jge	 SHORT $LN53@SelectItem
  00084	8b 45 fc	 mov	 eax, DWORD PTR _this$1$[ebp]
  00087	eb d7		 jmp	 SHORT $LL4@SelectItem
$LN46@SelectItem:

; 27   : 				dwIndex < (pTable->dwVnum + pTable->dwVnumRange))
; 28   : 			{
; 29   : 				m_pSelectedItemData = p;

  00089	8b 75 fc	 mov	 esi, DWORD PTR _this$1$[ebp]
  0008c	8b 45 08	 mov	 eax, DWORD PTR _p$1$[ebp]
  0008f	5f		 pop	 edi
  00090	89 46 18	 mov	 DWORD PTR [esi+24], eax

; 30   : 				return TRUE;

  00093	b8 01 00 00 00	 mov	 eax, 1

; 40   : }

  00098	5e		 pop	 esi
  00099	5b		 pop	 ebx
  0009a	8b e5		 mov	 esp, ebp
  0009c	5d		 pop	 ebp
  0009d	c2 04 00	 ret	 4
$LN53@SelectItem:

; 31   : 			}
; 32   : 		}
; 33   : 		Tracef(" CItemManager::SelectItemData - FIND ERROR [%d]\n", dwIndex);

  000a0	53		 push	 ebx
  000a1	68 00 00 00 00	 push	 OFFSET ??_C@_0DB@OJKGMCEF@?5CItemManager?3?3SelectItemData?5?9@
  000a6	e8 00 00 00 00	 call	 ?Tracef@@YAXPBDZZ	; Tracef
  000ab	83 c4 08	 add	 esp, 8

; 34   : 		return FALSE;

  000ae	33 c0		 xor	 eax, eax
  000b0	5f		 pop	 edi

; 40   : }

  000b1	5e		 pop	 esi
  000b2	5b		 pop	 ebx
  000b3	8b e5		 mov	 esp, ebp
  000b5	5d		 pop	 ebp
  000b6	c2 04 00	 ret	 4
?SelectItemData@CItemManager@@QAEHK@Z ENDP		; CItemManager::SelectItemData
_TEXT	ENDS
; Function compile flags: /Ogtp
; File C:\Users\ALEXANDER\Desktop\Cliente\COPY_FISH_WON_NEW\Binario\Client\GameLib\ItemManager.cpp
; File D:\visual studio 2019\visual studio 2019\VC\Tools\MSVC\14.29.30133\include\xtree
; File C:\Users\ALEXANDER\Desktop\Cliente\COPY_FISH_WON_NEW\Binario\Client\GameLib\ItemManager.cpp
; File D:\visual studio 2019\visual studio 2019\VC\Tools\MSVC\14.29.30133\include\xtree
; File C:\Users\ALEXANDER\Desktop\Cliente\COPY_FISH_WON_NEW\Binario\Client\GameLib\ItemManager.cpp
; File D:\visual studio 2019\visual studio 2019\VC\Tools\MSVC\14.29.30133\include\xtree
; File C:\Users\ALEXANDER\Desktop\Cliente\COPY_FISH_WON_NEW\Binario\Client\GameLib\ItemManager.cpp
; File D:\visual studio 2019\visual studio 2019\VC\Tools\MSVC\14.29.30133\include\xtree
; File C:\Users\ALEXANDER\Desktop\Cliente\COPY_FISH_WON_NEW\Binario\Client\GameLib\ItemManager.cpp
; File D:\visual studio 2019\visual studio 2019\VC\Tools\MSVC\14.29.30133\include\xtree
; File D:\visual studio 2019\visual studio 2019\VC\Tools\MSVC\14.29.30133\include\utility
; File D:\visual studio 2019\visual studio 2019\VC\Tools\MSVC\14.29.30133\include\xmemory
; File D:\visual studio 2019\visual studio 2019\VC\Tools\MSVC\14.29.30133\include\xtree
; File C:\Users\ALEXANDER\Desktop\Cliente\COPY_FISH_WON_NEW\Binario\Client\GameLib\ItemManager.cpp
;	COMDAT ?Destroy@CItemManager@@QAEXXZ
_TEXT	SEGMENT
?Destroy@CItemManager@@QAEXXZ PROC			; CItemManager::Destroy, COMDAT
; _this$ = ecx

; 398  : {

  00000	53		 push	 ebx
  00001	56		 push	 esi
; File D:\visual studio 2019\visual studio 2019\VC\Tools\MSVC\14.29.30133\include\xtree

; 1135 :         return iterator(_Scary->_Myhead->_Left, _Scary);

  00002	8d 59 04	 lea	 ebx, DWORD PTR [ecx+4]
; File C:\Users\ALEXANDER\Desktop\Cliente\COPY_FISH_WON_NEW\Binario\Client\GameLib\ItemManager.cpp

; 398  : {

  00005	57		 push	 edi
; File D:\visual studio 2019\visual studio 2019\VC\Tools\MSVC\14.29.30133\include\xtree

; 1135 :         return iterator(_Scary->_Myhead->_Left, _Scary);

  00006	8b 3b		 mov	 edi, DWORD PTR [ebx]

; 38   :     _Tree_unchecked_const_iterator(_Nodeptr _Pnode, const _Mytree* _Plist) noexcept : _Ptr(_Pnode) {

  00008	8b 37		 mov	 esi, DWORD PTR [edi]
  0000a	3b f7		 cmp	 esi, edi
; File C:\Users\ALEXANDER\Desktop\Cliente\COPY_FISH_WON_NEW\Binario\Client\GameLib\ItemManager.cpp

; 400  : 	for (i=m_ItemMap.begin(); i!=m_ItemMap.end(); ++i)

  0000c	74 54		 je	 SHORT $LN3@Destroy
  0000e	66 90		 npad	 2
$LL28@Destroy:

; 401  : 		CItemData::Delete(i->second);

  00010	ff 76 14	 push	 DWORD PTR [esi+20]
  00013	e8 00 00 00 00	 call	 ?Delete@CItemData@@SAXPAV1@@Z ; CItemData::Delete
; File D:\visual studio 2019\visual studio 2019\VC\Tools\MSVC\14.29.30133\include\xtree

; 51   :         if (_Ptr->_Right->_Isnil) { // climb looking for right subtree

  00018	8b 46 08	 mov	 eax, DWORD PTR [esi+8]
; File C:\Users\ALEXANDER\Desktop\Cliente\COPY_FISH_WON_NEW\Binario\Client\GameLib\ItemManager.cpp

; 401  : 		CItemData::Delete(i->second);

  0001b	83 c4 04	 add	 esp, 4
; File D:\visual studio 2019\visual studio 2019\VC\Tools\MSVC\14.29.30133\include\xtree

; 51   :         if (_Ptr->_Right->_Isnil) { // climb looking for right subtree

  0001e	80 78 0d 00	 cmp	 BYTE PTR [eax+13], 0
  00022	74 20		 je	 SHORT $LN27@Destroy

; 52   :             _Nodeptr _Pnode;
; 53   :             while (!(_Pnode = _Ptr->_Parent)->_Isnil && _Ptr == _Pnode->_Right) {

  00024	8b 46 04	 mov	 eax, DWORD PTR [esi+4]
  00027	80 78 0d 00	 cmp	 BYTE PTR [eax+13], 0
  0002b	75 13		 jne	 SHORT $LN102@Destroy
  0002d	0f 1f 00	 npad	 3
$LL25@Destroy:
  00030	3b 70 08	 cmp	 esi, DWORD PTR [eax+8]
  00033	75 0b		 jne	 SHORT $LN102@Destroy

; 54   :                 _Ptr = _Pnode; // ==> parent while right subtree

  00035	8b f0		 mov	 esi, eax
  00037	8b 40 04	 mov	 eax, DWORD PTR [eax+4]
  0003a	80 78 0d 00	 cmp	 BYTE PTR [eax+13], 0
  0003e	74 f0		 je	 SHORT $LL25@Destroy
$LN102@Destroy:

; 55   :             }
; 56   : 
; 57   :             _Ptr = _Pnode; // ==> parent (head if end())

  00040	8b f0		 mov	 esi, eax

; 58   :         } else {

  00042	eb 18		 jmp	 SHORT $LN32@Destroy
$LN27@Destroy:

; 59   :             _Ptr = _Mytree::_Min(_Ptr->_Right); // ==> smallest of right subtree

  00044	8b f0		 mov	 esi, eax

; 451  :         while (!_Pnode->_Left->_Isnil) {

  00046	8b 0e		 mov	 ecx, DWORD PTR [esi]
  00048	80 79 0d 00	 cmp	 BYTE PTR [ecx+13], 0
  0004c	75 0e		 jne	 SHORT $LN32@Destroy
  0004e	66 90		 npad	 2
$LL31@Destroy:
  00050	8b 01		 mov	 eax, DWORD PTR [ecx]

; 452  :             _Pnode = _Pnode->_Left;

  00052	8b f1		 mov	 esi, ecx
  00054	8b c8		 mov	 ecx, eax
  00056	80 78 0d 00	 cmp	 BYTE PTR [eax+13], 0
  0005a	74 f4		 je	 SHORT $LL31@Destroy
$LN32@Destroy:

; 38   :     _Tree_unchecked_const_iterator(_Nodeptr _Pnode, const _Mytree* _Plist) noexcept : _Ptr(_Pnode) {

  0005c	8b 3b		 mov	 edi, DWORD PTR [ebx]

; 233  :         return this->_Ptr == _Right._Ptr;

  0005e	3b f7		 cmp	 esi, edi
; File C:\Users\ALEXANDER\Desktop\Cliente\COPY_FISH_WON_NEW\Binario\Client\GameLib\ItemManager.cpp

; 400  : 	for (i=m_ItemMap.begin(); i!=m_ItemMap.end(); ++i)

  00060	75 ae		 jne	 SHORT $LL28@Destroy
$LN3@Destroy:
; File D:\visual studio 2019\visual studio 2019\VC\Tools\MSVC\14.29.30133\include\xtree

; 1343 :         _Scary->_Erase_tree(_Getal(), _Head->_Parent);

  00062	8b 77 04	 mov	 esi, DWORD PTR [edi+4]

; 743  :         while (!_Rootnode->_Isnil) { // free subtrees, then node

  00065	80 7e 0d 00	 cmp	 BYTE PTR [esi+13], 0
  00069	75 25		 jne	 SHORT $LN56@Destroy
  0006b	0f 1f 44 00 00	 npad	 5
$LL55@Destroy:

; 744  :             _Erase_tree(_Al, _Rootnode->_Right);

  00070	ff 76 08	 push	 DWORD PTR [esi+8]
  00073	8b cb		 mov	 ecx, ebx
  00075	53		 push	 ebx
  00076	e8 00 00 00 00	 call	 ??$_Erase_tree@V?$allocator@U?$_Tree_node@U?$pair@$$CBKPAVCItemData@@@std@@PAX@std@@@std@@@?$_Tree_val@U?$_Tree_simple_types@U?$pair@$$CBKPAVCItemData@@@std@@@std@@@std@@QAEXAAV?$allocator@U?$_Tree_node@U?$pair@$$CBKPAVCItemData@@@std@@PAX@std@@@1@PAU?$_Tree_node@U?$pair@$$CBKPAVCItemData@@@std@@PAX@1@@Z ; std::_Tree_val<std::_Tree_simple_types<std::pair<unsigned long const ,CItemData *> > >::_Erase_tree<std::allocator<std::_Tree_node<std::pair<unsigned long const ,CItemData *>,void *> > >
; File D:\visual studio 2019\visual studio 2019\VC\Tools\MSVC\14.29.30133\include\utility

; 602  :     _Ty _Old_val = static_cast<_Ty&&>(_Val);

  0007b	8b c6		 mov	 eax, esi

; 603  :     _Val         = static_cast<_Other&&>(_New_val);

  0007d	8b 36		 mov	 esi, DWORD PTR [esi]
; File D:\visual studio 2019\visual studio 2019\VC\Tools\MSVC\14.29.30133\include\xmemory

; 255  :         ::operator delete(_Ptr, _Bytes);

  0007f	6a 18		 push	 24			; 00000018H
  00081	50		 push	 eax
  00082	e8 00 00 00 00	 call	 ??3@YAXPAXI@Z		; operator delete
  00087	83 c4 08	 add	 esp, 8
; File D:\visual studio 2019\visual studio 2019\VC\Tools\MSVC\14.29.30133\include\xtree

; 743  :         while (!_Rootnode->_Isnil) { // free subtrees, then node

  0008a	80 7e 0d 00	 cmp	 BYTE PTR [esi+13], 0
  0008e	74 e0		 je	 SHORT $LL55@Destroy
$LN56@Destroy:

; 1344 :         _Head->_Parent  = _Head;

  00090	89 7f 04	 mov	 DWORD PTR [edi+4], edi

; 1345 :         _Head->_Left    = _Head;

  00093	89 3f		 mov	 DWORD PTR [edi], edi

; 1346 :         _Head->_Right   = _Head;

  00095	89 7f 08	 mov	 DWORD PTR [edi+8], edi

; 1347 :         _Scary->_Mysize = 0;

  00098	5f		 pop	 edi
  00099	5e		 pop	 esi
  0009a	c7 43 04 00 00
	00 00		 mov	 DWORD PTR [ebx+4], 0
  000a1	5b		 pop	 ebx
; File C:\Users\ALEXANDER\Desktop\Cliente\COPY_FISH_WON_NEW\Binario\Client\GameLib\ItemManager.cpp

; 404  : }

  000a2	c3		 ret	 0
?Destroy@CItemManager@@QAEXXZ ENDP			; CItemManager::Destroy
_TEXT	ENDS
; Function compile flags: /Ogtp
; File C:\Users\ALEXANDER\Desktop\Cliente\COPY_FISH_WON_NEW\Binario\Client\GameLib\ItemManager.cpp
; File D:\visual studio 2019\visual studio 2019\VC\Tools\MSVC\14.29.30133\include\vector
; File D:\visual studio 2019\visual studio 2019\VC\Tools\MSVC\14.29.30133\include\xmemory
; File D:\visual studio 2019\visual studio 2019\VC\Tools\MSVC\14.29.30133\include\vector
; File D:\visual studio 2019\visual studio 2019\VC\Tools\MSVC\14.29.30133\include\xmemory
; File D:\visual studio 2019\visual studio 2019\VC\Tools\MSVC\14.29.30133\include\vector
; File C:\Users\ALEXANDER\Desktop\Cliente\COPY_FISH_WON_NEW\Binario\Client\GameLib\ItemManager.cpp
; File C:\Users\ALEXANDER\Desktop\Cliente\COPY_FISH_WON_NEW\Binario\Client\eterBase\Singleton.h
; File C:\Users\ALEXANDER\Desktop\Cliente\COPY_FISH_WON_NEW\Binario\Client\GameLib\ItemManager.cpp
; File D:\visual studio 2019\visual studio 2019\VC\Tools\MSVC\14.29.30133\include\xmemory
; File C:\Users\ALEXANDER\Desktop\Cliente\COPY_FISH_WON_NEW\Binario\Client\GameLib\ItemManager.cpp
;	COMDAT ??1CItemManager@@UAE@XZ
_TEXT	SEGMENT
__$EHRec$ = -12						; size = 12
??1CItemManager@@UAE@XZ PROC				; CItemManager::~CItemManager, COMDAT
; _this$ = ecx

; 589  : {

  00000	55		 push	 ebp
  00001	8b ec		 mov	 ebp, esp
  00003	6a ff		 push	 -1
  00005	68 00 00 00 00	 push	 __ehhandler$??1CItemManager@@UAE@XZ
  0000a	64 a1 00 00 00
	00		 mov	 eax, DWORD PTR fs:0
  00010	50		 push	 eax
  00011	56		 push	 esi
  00012	a1 00 00 00 00	 mov	 eax, DWORD PTR ___security_cookie
  00017	33 c5		 xor	 eax, ebp
  00019	50		 push	 eax
  0001a	8d 45 f4	 lea	 eax, DWORD PTR __$EHRec$[ebp]
  0001d	64 a3 00 00 00
	00		 mov	 DWORD PTR fs:0, eax
  00023	8b f1		 mov	 esi, ecx
  00025	c7 06 00 00 00
	00		 mov	 DWORD PTR [esi], OFFSET ??_7CItemManager@@6B@

; 590  : 	Destroy();

  0002b	e8 00 00 00 00	 call	 ?Destroy@CItemManager@@QAEXXZ ; CItemManager::Destroy
; File D:\visual studio 2019\visual studio 2019\VC\Tools\MSVC\14.29.30133\include\vector

; 1750 :         if (_Myfirst) { // destroy and deallocate old array

  00030	8b 46 0c	 mov	 eax, DWORD PTR [esi+12]
  00033	85 c0		 test	 eax, eax
  00035	74 41		 je	 SHORT $LN6@CItemManag

; 1751 :             _Destroy(_Myfirst, _Mylast);
; 1752 :             _Getal().deallocate(_Myfirst, static_cast<size_type>(_Myend - _Myfirst));

  00037	8b 4e 14	 mov	 ecx, DWORD PTR [esi+20]
  0003a	2b c8		 sub	 ecx, eax
; File D:\visual studio 2019\visual studio 2019\VC\Tools\MSVC\14.29.30133\include\xmemory

; 797  :         _Deallocate<_New_alignof<_Ty>>(_Ptr, sizeof(_Ty) * _Count);

  0003c	83 e1 fc	 and	 ecx, -4			; fffffffcH

; 251  :         if (_Bytes >= _Big_allocation_threshold) { // boost the alignment of big allocations to help autovectorization

  0003f	81 f9 00 10 00
	00		 cmp	 ecx, 4096		; 00001000H
  00045	72 12		 jb	 SHORT $LN22@CItemManag

; 150  :     const uintptr_t _Ptr_container   = _Ptr_user[-1];

  00047	8b 50 fc	 mov	 edx, DWORD PTR [eax-4]
  0004a	83 c1 23	 add	 ecx, 35			; 00000023H

; 151  : 
; 152  :     // If the following asserts, it likely means that we are performing
; 153  :     // an aligned delete on memory coming from an unaligned allocation.
; 154  :     _STL_ASSERT(_Ptr_user[-2] == _Big_allocation_sentinel, "invalid argument");
; 155  : 
; 156  :     // Extra paranoia on aligned allocation/deallocation; ensure _Ptr_container is
; 157  :     // in range [_Min_back_shift, _Non_user_size]
; 158  : #ifdef _DEBUG
; 159  :     constexpr uintptr_t _Min_back_shift = 2 * sizeof(void*);
; 160  : #else // ^^^ _DEBUG ^^^ // vvv !_DEBUG vvv
; 161  :     constexpr uintptr_t _Min_back_shift = sizeof(void*);
; 162  : #endif // _DEBUG
; 163  :     const uintptr_t _Back_shift = reinterpret_cast<uintptr_t>(_Ptr) - _Ptr_container;

  0004d	2b c2		 sub	 eax, edx

; 164  :     _STL_VERIFY(_Back_shift >= _Min_back_shift && _Back_shift <= _Non_user_size, "invalid argument");

  0004f	83 c0 fc	 add	 eax, -4			; fffffffcH
  00052	83 f8 1f	 cmp	 eax, 31			; 0000001fH
  00055	77 49		 ja	 SHORT $LN19@CItemManag

; 165  :     _Ptr = reinterpret_cast<void*>(_Ptr_container);

  00057	8b c2		 mov	 eax, edx
$LN22@CItemManag:

; 255  :         ::operator delete(_Ptr, _Bytes);

  00059	51		 push	 ecx
  0005a	50		 push	 eax
  0005b	e8 00 00 00 00	 call	 ??3@YAXPAXI@Z		; operator delete
; File D:\visual studio 2019\visual studio 2019\VC\Tools\MSVC\14.29.30133\include\vector

; 1754 :             _Myfirst = nullptr;

  00060	c7 46 0c 00 00
	00 00		 mov	 DWORD PTR [esi+12], 0
; File D:\visual studio 2019\visual studio 2019\VC\Tools\MSVC\14.29.30133\include\xmemory

; 255  :         ::operator delete(_Ptr, _Bytes);

  00067	83 c4 08	 add	 esp, 8
; File D:\visual studio 2019\visual studio 2019\VC\Tools\MSVC\14.29.30133\include\vector

; 1755 :             _Mylast  = nullptr;

  0006a	c7 46 10 00 00
	00 00		 mov	 DWORD PTR [esi+16], 0

; 1756 :             _Myend   = nullptr;

  00071	c7 46 14 00 00
	00 00		 mov	 DWORD PTR [esi+20], 0
$LN6@CItemManag:
; File C:\Users\ALEXANDER\Desktop\Cliente\COPY_FISH_WON_NEW\Binario\Client\GameLib\ItemManager.cpp

; 591  : }

  00078	8d 4e 04	 lea	 ecx, DWORD PTR [esi+4]
  0007b	e8 00 00 00 00	 call	 ??1?$_Tree@V?$_Tmap_traits@KPAVCItemData@@U?$less@K@std@@V?$allocator@U?$pair@$$CBKPAVCItemData@@@std@@@3@$0A@@std@@@std@@QAE@XZ ; std::_Tree<std::_Tmap_traits<unsigned long,CItemData *,std::less<unsigned long>,std::allocator<std::pair<unsigned long const ,CItemData *> >,0> >::~_Tree<std::_Tmap_traits<unsigned long,CItemData *,std::less<unsigned long>,std::allocator<std::pair<unsigned long const ,CItemData *> >,0> >
; File C:\Users\ALEXANDER\Desktop\Cliente\COPY_FISH_WON_NEW\Binario\Client\eterBase\Singleton.h

; 19   : 	{

  00080	c7 06 00 00 00
	00		 mov	 DWORD PTR [esi], OFFSET ??_7?$CSingleton@VCItemManager@@@@6B@

; 20   : 		assert(ms_singleton);
; 21   : 		ms_singleton = 0;

  00086	c7 05 00 00 00
	00 00 00 00 00	 mov	 DWORD PTR ?ms_singleton@?$CSingleton@VCItemManager@@@@0PAVCItemManager@@A, 0 ; CSingleton<CItemManager>::ms_singleton
; File C:\Users\ALEXANDER\Desktop\Cliente\COPY_FISH_WON_NEW\Binario\Client\GameLib\ItemManager.cpp

; 591  : }

  00090	8b 4d f4	 mov	 ecx, DWORD PTR __$EHRec$[ebp]
  00093	64 89 0d 00 00
	00 00		 mov	 DWORD PTR fs:0, ecx
  0009a	59		 pop	 ecx
  0009b	5e		 pop	 esi
  0009c	8b e5		 mov	 esp, ebp
  0009e	5d		 pop	 ebp
  0009f	c3		 ret	 0
$LN19@CItemManag:
; File D:\visual studio 2019\visual studio 2019\VC\Tools\MSVC\14.29.30133\include\xmemory

; 164  :     _STL_VERIFY(_Back_shift >= _Min_back_shift && _Back_shift <= _Non_user_size, "invalid argument");

  000a0	e8 00 00 00 00	 call	 __invalid_parameter_noinfo_noreturn
$LN34@CItemManag:
  000a5	cc		 int	 3
  000a6	cc		 int	 3
  000a7	cc		 int	 3
  000a8	cc		 int	 3
  000a9	cc		 int	 3
  000aa	cc		 int	 3
_TEXT	ENDS
;	COMDAT text$x
text$x	SEGMENT
__ehhandler$??1CItemManager@@UAE@XZ:
  00000	90		 npad	 1
  00001	90		 npad	 1
  00002	8b 54 24 08	 mov	 edx, DWORD PTR [esp+8]
  00006	8d 42 0c	 lea	 eax, DWORD PTR [edx+12]
  00009	8b 4a f8	 mov	 ecx, DWORD PTR [edx-8]
  0000c	33 c8		 xor	 ecx, eax
  0000e	e8 00 00 00 00	 call	 @__security_check_cookie@4
  00013	b8 00 00 00 00	 mov	 eax, OFFSET __ehfuncinfo$??1CItemManager@@UAE@XZ
  00018	e9 00 00 00 00	 jmp	 ___CxxFrameHandler3
text$x	ENDS
??1CItemManager@@UAE@XZ ENDP				; CItemManager::~CItemManager
; Function compile flags: /Ogtp
; File C:\Users\ALEXANDER\Desktop\Cliente\COPY_FISH_WON_NEW\Binario\Client\GameLib\ItemManager.cpp
; File C:\Users\ALEXANDER\Desktop\Cliente\COPY_FISH_WON_NEW\Binario\Client\eterBase\Singleton.h
; File C:\Users\ALEXANDER\Desktop\Cliente\COPY_FISH_WON_NEW\Binario\Client\GameLib\ItemManager.cpp
; File D:\visual studio 2019\visual studio 2019\VC\Tools\MSVC\14.29.30133\include\xmemory
; File C:\Users\ALEXANDER\Desktop\Cliente\COPY_FISH_WON_NEW\Binario\Client\GameLib\ItemManager.cpp
; File D:\visual studio 2019\visual studio 2019\VC\Tools\MSVC\14.29.30133\include\xtree
; File D:\visual studio 2019\visual studio 2019\VC\Tools\MSVC\14.29.30133\include\xmemory
; File D:\visual studio 2019\visual studio 2019\VC\Tools\MSVC\14.29.30133\include\xtree
; File C:\Users\ALEXANDER\Desktop\Cliente\COPY_FISH_WON_NEW\Binario\Client\GameLib\ItemManager.cpp
; File D:\visual studio 2019\visual studio 2019\VC\Tools\MSVC\14.29.30133\include\vector
; File C:\Users\ALEXANDER\Desktop\Cliente\COPY_FISH_WON_NEW\Binario\Client\GameLib\ItemManager.cpp
;	COMDAT ??0CItemManager@@QAE@XZ
_TEXT	SEGMENT
_this$ = -20						; size = 4
_this$ = -16						; size = 4
__$EHRec$ = -12						; size = 12
??0CItemManager@@QAE@XZ PROC				; CItemManager::CItemManager, COMDAT
; _this$ = ecx

; 586  : {

  00000	55		 push	 ebp
  00001	8b ec		 mov	 ebp, esp
  00003	6a ff		 push	 -1
  00005	68 00 00 00 00	 push	 __ehhandler$??0CItemManager@@QAE@XZ
  0000a	64 a1 00 00 00
	00		 mov	 eax, DWORD PTR fs:0
  00010	50		 push	 eax
  00011	83 ec 08	 sub	 esp, 8
  00014	56		 push	 esi
  00015	57		 push	 edi
  00016	a1 00 00 00 00	 mov	 eax, DWORD PTR ___security_cookie
  0001b	33 c5		 xor	 eax, ebp
  0001d	50		 push	 eax
  0001e	8d 45 f4	 lea	 eax, DWORD PTR __$EHRec$[ebp]
  00021	64 a3 00 00 00
	00		 mov	 DWORD PTR fs:0, eax
  00027	8b f9		 mov	 edi, ecx
  00029	89 7d f0	 mov	 DWORD PTR _this$[ebp], edi
; File C:\Users\ALEXANDER\Desktop\Cliente\COPY_FISH_WON_NEW\Binario\Client\eterBase\Singleton.h

; 15   : 		ms_singleton = (T*) ((int) this + offset);

  0002c	89 3d 00 00 00
	00		 mov	 DWORD PTR ?ms_singleton@?$CSingleton@VCItemManager@@@@0PAVCItemManager@@A, edi ; CSingleton<CItemManager>::ms_singleton
; File C:\Users\ALEXANDER\Desktop\Cliente\COPY_FISH_WON_NEW\Binario\Client\GameLib\ItemManager.cpp

; 586  : {

  00032	8d 77 04	 lea	 esi, DWORD PTR [edi+4]
  00035	c7 07 00 00 00
	00		 mov	 DWORD PTR [edi], OFFSET ??_7CItemManager@@6B@
; File D:\visual studio 2019\visual studio 2019\VC\Tools\MSVC\14.29.30133\include\xmemory

; 79   :         return ::operator new(_Bytes);

  0003b	6a 18		 push	 24			; 00000018H
; File C:\Users\ALEXANDER\Desktop\Cliente\COPY_FISH_WON_NEW\Binario\Client\GameLib\ItemManager.cpp

; 586  : {

  0003d	c7 45 fc 00 00
	00 00		 mov	 DWORD PTR __$EHRec$[ebp+8], 0
  00044	89 75 ec	 mov	 DWORD PTR _this$[ebp], esi
; File D:\visual studio 2019\visual studio 2019\VC\Tools\MSVC\14.29.30133\include\xtree

; 435  :     _Tree_val() noexcept : _Myhead(), _Mysize(0) {}

  00047	c7 06 00 00 00
	00		 mov	 DWORD PTR [esi], 0
  0004d	c7 46 04 00 00
	00 00		 mov	 DWORD PTR [esi+4], 0
; File D:\visual studio 2019\visual studio 2019\VC\Tools\MSVC\14.29.30133\include\xmemory

; 79   :         return ::operator new(_Bytes);

  00054	e8 00 00 00 00	 call	 ??2@YAPAXI@Z		; operator new
  00059	83 c4 04	 add	 esp, 4
; File D:\visual studio 2019\visual studio 2019\VC\Tools\MSVC\14.29.30133\include\xtree

; 345  :         _Construct_in_place(_Pnode->_Left, _Pnode);

  0005c	89 00		 mov	 DWORD PTR [eax], eax

; 346  :         _Construct_in_place(_Pnode->_Parent, _Pnode);

  0005e	89 40 04	 mov	 DWORD PTR [eax+4], eax

; 347  :         _Construct_in_place(_Pnode->_Right, _Pnode);

  00061	89 40 08	 mov	 DWORD PTR [eax+8], eax

; 348  :         _Pnode->_Color = _Black;

  00064	66 c7 40 0c 01
	01		 mov	 WORD PTR [eax+12], 257	; 00000101H

; 1917 :         _Scary->_Myhead = _Node::_Buyheadnode(_Getal());

  0006a	89 06		 mov	 DWORD PTR [esi], eax
; File C:\Users\ALEXANDER\Desktop\Cliente\COPY_FISH_WON_NEW\Binario\Client\GameLib\ItemManager.cpp

; 587  : }

  0006c	8b c7		 mov	 eax, edi
; File D:\visual studio 2019\visual studio 2019\VC\Tools\MSVC\14.29.30133\include\vector

; 390  :     _CONSTEXPR20_CONTAINER _Vector_val() noexcept : _Myfirst(), _Mylast(), _Myend() {}

  0006e	c7 47 0c 00 00
	00 00		 mov	 DWORD PTR [edi+12], 0
  00075	c7 47 10 00 00
	00 00		 mov	 DWORD PTR [edi+16], 0
  0007c	c7 47 14 00 00
	00 00		 mov	 DWORD PTR [edi+20], 0
; File C:\Users\ALEXANDER\Desktop\Cliente\COPY_FISH_WON_NEW\Binario\Client\GameLib\ItemManager.cpp

; 585  : CItemManager::CItemManager() : m_pSelectedItemData(NULL)

  00083	c7 47 18 00 00
	00 00		 mov	 DWORD PTR [edi+24], 0

; 587  : }

  0008a	8b 4d f4	 mov	 ecx, DWORD PTR __$EHRec$[ebp]
  0008d	64 89 0d 00 00
	00 00		 mov	 DWORD PTR fs:0, ecx
  00094	59		 pop	 ecx
  00095	5f		 pop	 edi
  00096	5e		 pop	 esi
  00097	8b e5		 mov	 esp, ebp
  00099	5d		 pop	 ebp
  0009a	c3		 ret	 0
_TEXT	ENDS
;	COMDAT text$x
text$x	SEGMENT
__unwindfunclet$??0CItemManager@@QAE@XZ$0:
  00000	8b 4d f0	 mov	 ecx, DWORD PTR _this$[ebp]
  00003	e9 00 00 00 00	 jmp	 ??1?$CSingleton@VCItemManager@@@@UAE@XZ ; CSingleton<CItemManager>::~CSingleton<CItemManager>
  00008	cc		 int	 3
  00009	cc		 int	 3
  0000a	cc		 int	 3
  0000b	cc		 int	 3
  0000c	cc		 int	 3
__ehhandler$??0CItemManager@@QAE@XZ:
  0000d	90		 npad	 1
  0000e	90		 npad	 1
  0000f	8b 54 24 08	 mov	 edx, DWORD PTR [esp+8]
  00013	8d 42 0c	 lea	 eax, DWORD PTR [edx+12]
  00016	8b 4a ec	 mov	 ecx, DWORD PTR [edx-20]
  00019	33 c8		 xor	 ecx, eax
  0001b	e8 00 00 00 00	 call	 @__security_check_cookie@4
  00020	b8 00 00 00 00	 mov	 eax, OFFSET __ehfuncinfo$??0CItemManager@@QAE@XZ
  00025	e9 00 00 00 00	 jmp	 ___CxxFrameHandler3
text$x	ENDS
??0CItemManager@@QAE@XZ ENDP				; CItemManager::CItemManager
; Function compile flags: /Ogtp
; File C:\Users\ALEXANDER\Desktop\Cliente\COPY_FISH_WON_NEW\Binario\Client\GameLib\ItemManager.cpp
; File D:\visual studio 2019\visual studio 2019\VC\Tools\MSVC\14.29.30133\include\vector
; File C:\Users\ALEXANDER\Desktop\Cliente\COPY_FISH_WON_NEW\Binario\Client\GameLib\ItemManager.cpp
; File D:\visual studio 2019\visual studio 2019\VC\Tools\MSVC\14.29.30133\include\xstring
; File D:\visual studio 2019\visual studio 2019\VC\Tools\MSVC\14.29.30133\include\vector
; File D:\visual studio 2019\visual studio 2019\VC\Tools\MSVC\14.29.30133\include\xstring
; File C:\Users\ALEXANDER\Desktop\Cliente\COPY_FISH_WON_NEW\Binario\Client\GameLib\ItemManager.cpp
; File D:\visual studio 2019\visual studio 2019\VC\Tools\MSVC\14.29.30133\include\xstring
; File C:\Users\ALEXANDER\Desktop\Cliente\COPY_FISH_WON_NEW\Binario\Client\GameLib\ItemManager.cpp
; File D:\visual studio 2019\visual studio 2019\VC\Tools\MSVC\14.29.30133\include\xstring
; File C:\Users\ALEXANDER\Desktop\Cliente\COPY_FISH_WON_NEW\Binario\Client\GameLib\ItemManager.cpp
; File D:\visual studio 2019\visual studio 2019\VC\Tools\MSVC\14.29.30133\include\xstring
; File C:\Users\ALEXANDER\Desktop\Cliente\COPY_FISH_WON_NEW\Binario\Client\GameLib\ItemManager.cpp
; File D:\visual studio 2019\visual studio 2019\VC\Tools\MSVC\14.29.30133\include\xstring
; File C:\Users\ALEXANDER\Desktop\Cliente\COPY_FISH_WON_NEW\Binario\Client\GameLib\ItemManager.cpp
; File D:\visual studio 2019\visual studio 2019\VC\Tools\MSVC\14.29.30133\include\xstring
; File C:\Users\ALEXANDER\Desktop\Cliente\COPY_FISH_WON_NEW\Binario\Client\GameLib\ItemManager.cpp
; File D:\visual studio 2019\visual studio 2019\VC\Tools\MSVC\14.29.30133\include\xstring
; File C:\Users\ALEXANDER\Desktop\Cliente\COPY_FISH_WON_NEW\Binario\Client\GameLib\ItemManager.cpp
; File D:\visual studio 2019\visual studio 2019\VC\Tools\MSVC\14.29.30133\include\xstring
; File C:\Users\ALEXANDER\Desktop\Cliente\COPY_FISH_WON_NEW\Binario\Client\GameLib\ItemManager.cpp
; File D:\visual studio 2019\visual studio 2019\VC\Tools\MSVC\14.29.30133\include\xstring
; File C:\Users\ALEXANDER\Desktop\Cliente\COPY_FISH_WON_NEW\Binario\Client\GameLib\ItemManager.cpp
; File D:\visual studio 2019\visual studio 2019\VC\Tools\MSVC\14.29.30133\include\xstring
; File C:\Users\ALEXANDER\Desktop\Cliente\COPY_FISH_WON_NEW\Binario\Client\GameLib\ItemManager.cpp
; File D:\visual studio 2019\visual studio 2019\VC\Tools\MSVC\14.29.30133\include\xstring
; File C:\Users\ALEXANDER\Desktop\Cliente\COPY_FISH_WON_NEW\Binario\Client\GameLib\ItemManager.cpp
; File D:\visual studio 2019\visual studio 2019\VC\Tools\MSVC\14.29.30133\include\xstring
; File C:\Users\ALEXANDER\Desktop\Cliente\COPY_FISH_WON_NEW\Binario\Client\GameLib\ItemManager.cpp
; File D:\visual studio 2019\visual studio 2019\VC\Tools\MSVC\14.29.30133\include\xstring
; File C:\Users\ALEXANDER\Desktop\Cliente\COPY_FISH_WON_NEW\Binario\Client\GameLib\ItemManager.cpp
; File D:\visual studio 2019\visual studio 2019\VC\Tools\MSVC\14.29.30133\include\xstring
; File C:\Users\ALEXANDER\Desktop\Cliente\COPY_FISH_WON_NEW\Binario\Client\GameLib\ItemManager.cpp
; File D:\visual studio 2019\visual studio 2019\VC\Tools\MSVC\14.29.30133\include\xstring
; File C:\Users\ALEXANDER\Desktop\Cliente\COPY_FISH_WON_NEW\Binario\Client\GameLib\ItemManager.cpp
; File D:\visual studio 2019\visual studio 2019\VC\Tools\MSVC\14.29.30133\include\vector
; File C:\Users\ALEXANDER\Desktop\Cliente\COPY_FISH_WON_NEW\Binario\Client\GameLib\ItemManager.cpp
; File D:\visual studio 2019\visual studio 2019\VC\Tools\MSVC\14.29.30133\include\vector
; File D:\visual studio 2019\visual studio 2019\VC\Tools\MSVC\14.29.30133\include\xmemory
; File D:\visual studio 2019\visual studio 2019\VC\Tools\MSVC\14.29.30133\include\xstring
; File D:\visual studio 2019\visual studio 2019\VC\Tools\MSVC\14.29.30133\include\xmemory
; File D:\visual studio 2019\visual studio 2019\VC\Tools\MSVC\14.29.30133\include\xstring
; File D:\visual studio 2019\visual studio 2019\VC\Tools\MSVC\14.29.30133\include\xmemory
; File D:\visual studio 2019\visual studio 2019\VC\Tools\MSVC\14.29.30133\include\xstring
; File D:\visual studio 2019\visual studio 2019\VC\Tools\MSVC\14.29.30133\include\xmemory
; File D:\visual studio 2019\visual studio 2019\VC\Tools\MSVC\14.29.30133\include\vector
; File D:\visual studio 2019\visual studio 2019\VC\Tools\MSVC\14.29.30133\include\xmemory
; File D:\visual studio 2019\visual studio 2019\VC\Tools\MSVC\14.29.30133\include\vector
; File C:\Users\ALEXANDER\Desktop\Cliente\COPY_FISH_WON_NEW\Binario\Client\GameLib\ItemManager.cpp
; File D:\visual studio 2019\visual studio 2019\VC\Tools\MSVC\14.29.30133\include\xmemory
; File C:\Users\ALEXANDER\Desktop\Cliente\COPY_FISH_WON_NEW\Binario\Client\GameLib\ItemManager.cpp
;	COMDAT ?LoadAuraScale@CItemManager@@QAE_NPBD@Z
_TEXT	SEGMENT
_textFileLoader$ = -416					; size = 16
_c_szFileName$GSCopy$1$ = -400				; size = 4
_this$GSCopy$1$ = -396					; size = 4
_bySex$2 = -392						; size = 1
_byJob$3 = -388						; size = 1
__Result$1$ = -384					; size = 4
_pData$ = -380						; size = 4
_i$1$ = -376						; size = 4
__Result$1$ = -372					; size = 4
_fParticleScale$4 = -372				; size = 4
__Result$1$ = -368					; size = 4
_fMeshScaleZ$5 = -368					; size = 4
__Result$1$ = -364					; size = 4
_fMeshScaleY$6 = -364					; size = 4
__Result$1$ = -360					; size = 4
_fMeshScaleX$7 = -360					; size = 4
_dwItemVnum$1$ = -356					; size = 4
_TokenVector$ = -352					; size = 12
_File$ = -340						; size = 324
__$ArrayPad$ = -16					; size = 4
__$EHRec$ = -12						; size = 12
_c_szFileName$ = 8					; size = 4
?LoadAuraScale@CItemManager@@QAE_NPBD@Z PROC		; CItemManager::LoadAuraScale, COMDAT
; _this$ = ecx

; 524  : {

  00000	55		 push	 ebp
  00001	8b ec		 mov	 ebp, esp
  00003	6a ff		 push	 -1
  00005	68 00 00 00 00	 push	 __ehhandler$?LoadAuraScale@CItemManager@@QAE_NPBD@Z
  0000a	64 a1 00 00 00
	00		 mov	 eax, DWORD PTR fs:0
  00010	50		 push	 eax
  00011	81 ec 94 01 00
	00		 sub	 esp, 404		; 00000194H
  00017	a1 00 00 00 00	 mov	 eax, DWORD PTR ___security_cookie
  0001c	33 c5		 xor	 eax, ebp
  0001e	89 45 f0	 mov	 DWORD PTR __$ArrayPad$[ebp], eax
  00021	53		 push	 ebx
  00022	56		 push	 esi
  00023	57		 push	 edi
  00024	50		 push	 eax
  00025	8d 45 f4	 lea	 eax, DWORD PTR __$EHRec$[ebp]
  00028	64 a3 00 00 00
	00		 mov	 DWORD PTR fs:0, eax
  0002e	89 8d 74 fe ff
	ff		 mov	 DWORD PTR _this$GSCopy$1$[ebp], ecx
  00034	8b 75 08	 mov	 esi, DWORD PTR _c_szFileName$[ebp]

; 525  : 	CMappedFile File;

  00037	8d 8d ac fe ff
	ff		 lea	 ecx, DWORD PTR _File$[ebp]
  0003d	89 b5 70 fe ff
	ff		 mov	 DWORD PTR _c_szFileName$GSCopy$1$[ebp], esi
  00043	e8 00 00 00 00	 call	 ??0CMappedFile@@QAE@XZ	; CMappedFile::CMappedFile

; 526  : 	LPCVOID pData;
; 527  : 	if (!CEterPackManager::Instance().Get(File, c_szFileName, &pData))

  00048	8b 0d 00 00 00
	00		 mov	 ecx, DWORD PTR ?ms_singleton@?$CSingleton@VCEterPackManager@@@@0PAVCEterPackManager@@A ; CSingleton<CEterPackManager>::ms_singleton
  0004e	8d 85 84 fe ff
	ff		 lea	 eax, DWORD PTR _pData$[ebp]
  00054	50		 push	 eax
  00055	56		 push	 esi
  00056	8d 85 ac fe ff
	ff		 lea	 eax, DWORD PTR _File$[ebp]
  0005c	c7 45 fc 00 00
	00 00		 mov	 DWORD PTR __$EHRec$[ebp+8], 0
  00063	50		 push	 eax
  00064	e8 00 00 00 00	 call	 ?Get@CEterPackManager@@QAE_NAAVCMappedFile@@PBDPAPBX@Z ; CEterPackManager::Get
  00069	84 c0		 test	 al, al
  0006b	75 07		 jne	 SHORT $LN8@LoadAuraSc
  0006d	32 db		 xor	 bl, bl
  0006f	e9 4e 04 00 00	 jmp	 $LN21@LoadAuraSc
$LN8@LoadAuraSc:

; 528  : 		return false;
; 529  : 
; 530  : 	CMemoryTextFileLoader textFileLoader;

  00074	8d 8d 60 fe ff
	ff		 lea	 ecx, DWORD PTR _textFileLoader$[ebp]
  0007a	e8 00 00 00 00	 call	 ??0CMemoryTextFileLoader@@QAE@XZ ; CMemoryTextFileLoader::CMemoryTextFileLoader

; 531  : 	textFileLoader.Bind(File.Size(), pData);

  0007f	ff b5 84 fe ff
	ff		 push	 DWORD PTR _pData$[ebp]
  00085	8d 8d ac fe ff
	ff		 lea	 ecx, DWORD PTR _File$[ebp]
  0008b	c6 45 fc 01	 mov	 BYTE PTR __$EHRec$[ebp+8], 1
  0008f	e8 00 00 00 00	 call	 ?Size@CMappedFile@@QAEKXZ ; CMappedFile::Size
  00094	50		 push	 eax
  00095	8d 8d 60 fe ff
	ff		 lea	 ecx, DWORD PTR _textFileLoader$[ebp]
  0009b	e8 00 00 00 00	 call	 ?Bind@CMemoryTextFileLoader@@QAEXHPBX@Z ; CMemoryTextFileLoader::Bind
; File D:\visual studio 2019\visual studio 2019\VC\Tools\MSVC\14.29.30133\include\vector

; 390  :     _CONSTEXPR20_CONTAINER _Vector_val() noexcept : _Myfirst(), _Mylast(), _Myend() {}

  000a0	c7 85 a0 fe ff
	ff 00 00 00 00	 mov	 DWORD PTR _TokenVector$[ebp], 0
  000aa	c7 85 a4 fe ff
	ff 00 00 00 00	 mov	 DWORD PTR _TokenVector$[ebp+4], 0
  000b4	c7 85 a8 fe ff
	ff 00 00 00 00	 mov	 DWORD PTR _TokenVector$[ebp+8], 0
; File C:\Users\ALEXANDER\Desktop\Cliente\COPY_FISH_WON_NEW\Binario\Client\GameLib\ItemManager.cpp

; 534  : 	for (DWORD i = 0; i < textFileLoader.GetLineCount(); ++i)

  000be	33 db		 xor	 ebx, ebx
  000c0	c6 45 fc 02	 mov	 BYTE PTR __$EHRec$[ebp+8], 2
  000c4	8d 8d 60 fe ff
	ff		 lea	 ecx, DWORD PTR _textFileLoader$[ebp]
  000ca	89 9d 88 fe ff
	ff		 mov	 DWORD PTR _i$1$[ebp], ebx
  000d0	e8 00 00 00 00	 call	 ?GetLineCount@CMemoryTextFileLoader@@QAEKXZ ; CMemoryTextFileLoader::GetLineCount
  000d5	85 c0		 test	 eax, eax
  000d7	0f 84 0e 03 00
	00		 je	 $LN3@LoadAuraSc
  000dd	0f 1f 00	 npad	 3
$LL4@LoadAuraSc:

; 535  : 	{
; 536  : 		if (!textFileLoader.SplitLine(i, &TokenVector, "\t"))

  000e0	68 00 00 00 00	 push	 OFFSET ??_C@_01GPOEFGEJ@?7@
  000e5	8d 85 a0 fe ff
	ff		 lea	 eax, DWORD PTR _TokenVector$[ebp]
  000eb	50		 push	 eax
  000ec	53		 push	 ebx
  000ed	8d 8d 60 fe ff
	ff		 lea	 ecx, DWORD PTR _textFileLoader$[ebp]
  000f3	e8 00 00 00 00	 call	 ?SplitLine@CMemoryTextFileLoader@@QAE_NKPAV?$vector@V?$basic_string@DU?$char_traits@D@std@@V?$allocator@D@2@@std@@V?$allocator@V?$basic_string@DU?$char_traits@D@std@@V?$allocator@D@2@@std@@@2@@std@@PBD@Z ; CMemoryTextFileLoader::SplitLine
  000f8	84 c0		 test	 al, al
  000fa	0f 84 d1 02 00
	00		 je	 $LN2@LoadAuraSc

; 537  : 			continue;
; 538  : 
; 539  : 		if (TokenVector.size() != AURA_SCALE_COL_NUM)

  00100	8b 85 a4 fe ff
	ff		 mov	 eax, DWORD PTR _TokenVector$[ebp+4]
  00106	8b 8d a0 fe ff
	ff		 mov	 ecx, DWORD PTR _TokenVector$[ebp]
  0010c	2b c1		 sub	 eax, ecx
  0010e	2d a8 00 00 00	 sub	 eax, 168		; 000000a8H
  00113	83 f8 18	 cmp	 eax, 24			; 00000018H
  00116	72 14		 jb	 SHORT $LN10@LoadAuraSc

; 540  : 		{
; 541  : 			TraceError(" CItemManager::LoadAuraScale(%s) - Error on line %d\n", c_szFileName, i);

  00118	53		 push	 ebx
  00119	56		 push	 esi
  0011a	68 00 00 00 00	 push	 OFFSET ??_C@_0DF@DOEGMGNI@?5CItemManager?3?3LoadAuraScale?$CI?$CFs@
  0011f	e8 00 00 00 00	 call	 ?TraceError@@YAXPBDZZ	; TraceError
  00124	83 c4 0c	 add	 esp, 12			; 0000000cH

; 542  : 			continue;

  00127	e9 a5 02 00 00	 jmp	 $LN2@LoadAuraSc
$LN10@LoadAuraSc:
; File D:\visual studio 2019\visual studio 2019\VC\Tools\MSVC\14.29.30133\include\xstring

; 2286 :         return _BUF_SIZE <= _Myres;

  0012c	83 79 14 10	 cmp	 DWORD PTR [ecx+20], 16	; 00000010H
; File D:\visual studio 2019\visual studio 2019\VC\Tools\MSVC\14.29.30133\include\vector

; 1556 :         return _My_data._Myfirst[_Pos];

  00130	8d 41 30	 lea	 eax, DWORD PTR [ecx+48]
  00133	89 85 80 fe ff
	ff		 mov	 DWORD PTR __Result$1$[ebp], eax
  00139	8d 71 18	 lea	 esi, DWORD PTR [ecx+24]
  0013c	8d 41 48	 lea	 eax, DWORD PTR [ecx+72]
  0013f	89 85 98 fe ff
	ff		 mov	 DWORD PTR __Result$1$[ebp], eax
  00145	8d 41 60	 lea	 eax, DWORD PTR [ecx+96]
  00148	89 85 94 fe ff
	ff		 mov	 DWORD PTR __Result$1$[ebp], eax
  0014e	8d 41 78	 lea	 eax, DWORD PTR [ecx+120]
  00151	89 85 90 fe ff
	ff		 mov	 DWORD PTR __Result$1$[ebp], eax
  00157	8d 81 90 00 00
	00		 lea	 eax, DWORD PTR [ecx+144]
  0015d	89 85 8c fe ff
	ff		 mov	 DWORD PTR __Result$1$[ebp], eax
; File D:\visual studio 2019\visual studio 2019\VC\Tools\MSVC\14.29.30133\include\xstring

; 2273 :         if (_Large_string_engaged()) {

  00163	72 02		 jb	 SHORT $LN47@LoadAuraSc

; 2274 :             _Result = _Unfancy(_Bx._Ptr);

  00165	8b 09		 mov	 ecx, DWORD PTR [ecx]
$LN47@LoadAuraSc:
; File C:\Users\ALEXANDER\Desktop\Cliente\COPY_FISH_WON_NEW\Binario\Client\GameLib\ItemManager.cpp

; 553  : 		DWORD dwItemVnum = atoi(c_rstrID.c_str());

  00167	51		 push	 ecx
  00168	e8 00 00 00 00	 call	 __atoi64
; File D:\visual studio 2019\visual studio 2019\VC\Tools\MSVC\14.29.30133\include\xstring

; 2286 :         return _BUF_SIZE <= _Myres;

  0016d	8b 7e 14	 mov	 edi, DWORD PTR [esi+20]
; File C:\Users\ALEXANDER\Desktop\Cliente\COPY_FISH_WON_NEW\Binario\Client\GameLib\ItemManager.cpp

; 553  : 		DWORD dwItemVnum = atoi(c_rstrID.c_str());

  00170	83 c4 04	 add	 esp, 4
  00173	89 85 9c fe ff
	ff		 mov	 DWORD PTR _dwItemVnum$1$[ebp], eax
; File D:\visual studio 2019\visual studio 2019\VC\Tools\MSVC\14.29.30133\include\xstring

; 2273 :         if (_Large_string_engaged()) {

  00179	b9 00 00 00 00	 mov	 ecx, OFFSET ??_C@_0N@IAFGBDIL@JOB_ASSASSIN@

; 2286 :         return _BUF_SIZE <= _Myres;

  0017e	83 ff 10	 cmp	 edi, 16			; 00000010H

; 2273 :         if (_Large_string_engaged()) {

  00181	72 33		 jb	 SHORT $LN205@LoadAuraSc

; 2274 :             _Result = _Unfancy(_Bx._Ptr);

  00183	8b 06		 mov	 eax, DWORD PTR [esi]
$LL209@LoadAuraSc:
  00185	8a 10		 mov	 dl, BYTE PTR [eax]
  00187	3a 11		 cmp	 dl, BYTE PTR [ecx]
  00189	75 1f		 jne	 SHORT $LN210@LoadAuraSc
  0018b	84 d2		 test	 dl, dl
  0018d	74 12		 je	 SHORT $LN211@LoadAuraSc
  0018f	8a 50 01	 mov	 dl, BYTE PTR [eax+1]
  00192	3a 51 01	 cmp	 dl, BYTE PTR [ecx+1]
  00195	75 13		 jne	 SHORT $LN210@LoadAuraSc
  00197	83 c0 02	 add	 eax, 2
  0019a	83 c1 02	 add	 ecx, 2
  0019d	84 d2		 test	 dl, dl
  0019f	75 e4		 jne	 SHORT $LL209@LoadAuraSc
$LN211@LoadAuraSc:
  001a1	33 c0		 xor	 eax, eax
  001a3	85 c0		 test	 eax, eax
  001a5	0f 94 c3	 sete	 bl
  001a8	eb 3f		 jmp	 SHORT $LN208@LoadAuraSc
$LN210@LoadAuraSc:
  001aa	1b c0		 sbb	 eax, eax
  001ac	83 c8 01	 or	 eax, 1
  001af	85 c0		 test	 eax, eax
  001b1	0f 94 c3	 sete	 bl
  001b4	eb 33		 jmp	 SHORT $LN208@LoadAuraSc
$LN205@LoadAuraSc:
; File C:\Users\ALEXANDER\Desktop\Cliente\COPY_FISH_WON_NEW\Binario\Client\GameLib\ItemManager.cpp

; 557  : 		if (!strcmp(c_rstrJob.c_str(), "JOB_ASSASSIN"))

  001b6	8b c6		 mov	 eax, esi
$LL213@LoadAuraSc:
  001b8	8a 10		 mov	 dl, BYTE PTR [eax]
  001ba	3a 11		 cmp	 dl, BYTE PTR [ecx]
  001bc	75 1a		 jne	 SHORT $LN214@LoadAuraSc
  001be	84 d2		 test	 dl, dl
  001c0	74 12		 je	 SHORT $LN215@LoadAuraSc
  001c2	8a 50 01	 mov	 dl, BYTE PTR [eax+1]
  001c5	3a 51 01	 cmp	 dl, BYTE PTR [ecx+1]
  001c8	75 0e		 jne	 SHORT $LN214@LoadAuraSc
  001ca	83 c0 02	 add	 eax, 2
  001cd	83 c1 02	 add	 ecx, 2
  001d0	84 d2		 test	 dl, dl
  001d2	75 e4		 jne	 SHORT $LL213@LoadAuraSc
$LN215@LoadAuraSc:
  001d4	33 c0		 xor	 eax, eax
  001d6	eb 05		 jmp	 SHORT $LN216@LoadAuraSc
$LN214@LoadAuraSc:
  001d8	1b c0		 sbb	 eax, eax
  001da	83 c8 01	 or	 eax, 1
$LN216@LoadAuraSc:
; File D:\visual studio 2019\visual studio 2019\VC\Tools\MSVC\14.29.30133\include\xstring

; 3888 :         return _Mypair._Myval2._Myptr();

  001dd	85 c0		 test	 eax, eax

; 2272 :         const value_type* _Result = _Bx._Buf;

  001df	8b c6		 mov	 eax, esi

; 3888 :         return _Mypair._Myval2._Myptr();

  001e1	0f 94 c3	 sete	 bl

; 2286 :         return _BUF_SIZE <= _Myres;

  001e4	83 ff 10	 cmp	 edi, 16			; 00000010H

; 2273 :         if (_Large_string_engaged()) {

  001e7	72 02		 jb	 SHORT $LN206@LoadAuraSc
$LN208@LoadAuraSc:

; 2274 :             _Result = _Unfancy(_Bx._Ptr);

  001e9	8b 06		 mov	 eax, DWORD PTR [esi]
$LN206@LoadAuraSc:
; File C:\Users\ALEXANDER\Desktop\Cliente\COPY_FISH_WON_NEW\Binario\Client\GameLib\ItemManager.cpp

; 559  : 		if (!strcmp(c_rstrJob.c_str(), "JOB_SURA"))

  001eb	b9 00 00 00 00	 mov	 ecx, OFFSET ??_C@_08IJIBKCOK@JOB_SURA@
$LL217@LoadAuraSc:
  001f0	8a 10		 mov	 dl, BYTE PTR [eax]
  001f2	3a 11		 cmp	 dl, BYTE PTR [ecx]
  001f4	75 1a		 jne	 SHORT $LN218@LoadAuraSc
  001f6	84 d2		 test	 dl, dl
  001f8	74 12		 je	 SHORT $LN219@LoadAuraSc
  001fa	8a 50 01	 mov	 dl, BYTE PTR [eax+1]
  001fd	3a 51 01	 cmp	 dl, BYTE PTR [ecx+1]
  00200	75 0e		 jne	 SHORT $LN218@LoadAuraSc
  00202	83 c0 02	 add	 eax, 2
  00205	83 c1 02	 add	 ecx, 2
  00208	84 d2		 test	 dl, dl
  0020a	75 e4		 jne	 SHORT $LL217@LoadAuraSc
$LN219@LoadAuraSc:
  0020c	33 c0		 xor	 eax, eax
  0020e	eb 05		 jmp	 SHORT $LN220@LoadAuraSc
$LN218@LoadAuraSc:
  00210	1b c0		 sbb	 eax, eax
  00212	83 c8 01	 or	 eax, 1
$LN220@LoadAuraSc:
  00215	85 c0		 test	 eax, eax
  00217	0f b6 db	 movzx	 ebx, bl
  0021a	b8 02 00 00 00	 mov	 eax, 2
  0021f	0f 44 d8	 cmove	 ebx, eax
; File D:\visual studio 2019\visual studio 2019\VC\Tools\MSVC\14.29.30133\include\xstring

; 2272 :         const value_type* _Result = _Bx._Buf;

  00222	8b c6		 mov	 eax, esi

; 2286 :         return _BUF_SIZE <= _Myres;

  00224	83 ff 10	 cmp	 edi, 16			; 00000010H

; 2273 :         if (_Large_string_engaged()) {

  00227	72 02		 jb	 SHORT $LN207@LoadAuraSc

; 2274 :             _Result = _Unfancy(_Bx._Ptr);

  00229	8b 06		 mov	 eax, DWORD PTR [esi]
$LN207@LoadAuraSc:
; File C:\Users\ALEXANDER\Desktop\Cliente\COPY_FISH_WON_NEW\Binario\Client\GameLib\ItemManager.cpp

; 561  : 		if (!strcmp(c_rstrJob.c_str(), "JOB_SHAMAN"))

  0022b	b9 00 00 00 00	 mov	 ecx, OFFSET ??_C@_0L@FBDFJGPA@JOB_SHAMAN@
$LL221@LoadAuraSc:
  00230	8a 10		 mov	 dl, BYTE PTR [eax]
  00232	3a 11		 cmp	 dl, BYTE PTR [ecx]
  00234	75 1a		 jne	 SHORT $LN222@LoadAuraSc
  00236	84 d2		 test	 dl, dl
  00238	74 12		 je	 SHORT $LN223@LoadAuraSc
  0023a	8a 50 01	 mov	 dl, BYTE PTR [eax+1]
  0023d	3a 51 01	 cmp	 dl, BYTE PTR [ecx+1]
  00240	75 0e		 jne	 SHORT $LN222@LoadAuraSc
  00242	83 c0 02	 add	 eax, 2
  00245	83 c1 02	 add	 ecx, 2
  00248	84 d2		 test	 dl, dl
  0024a	75 e4		 jne	 SHORT $LL221@LoadAuraSc
$LN223@LoadAuraSc:
  0024c	33 c0		 xor	 eax, eax
  0024e	eb 05		 jmp	 SHORT $LN224@LoadAuraSc
$LN222@LoadAuraSc:
  00250	1b c0		 sbb	 eax, eax
  00252	83 c8 01	 or	 eax, 1
$LN224@LoadAuraSc:
  00255	85 c0		 test	 eax, eax
  00257	0f b6 d3	 movzx	 edx, bl
  0025a	b8 03 00 00 00	 mov	 eax, 3
  0025f	0f 44 d0	 cmove	 edx, eax
; File D:\visual studio 2019\visual studio 2019\VC\Tools\MSVC\14.29.30133\include\xstring

; 2286 :         return _BUF_SIZE <= _Myres;

  00262	83 ff 10	 cmp	 edi, 16			; 00000010H

; 2273 :         if (_Large_string_engaged()) {

  00265	72 02		 jb	 SHORT $LN82@LoadAuraSc

; 2274 :             _Result = _Unfancy(_Bx._Ptr);

  00267	8b 36		 mov	 esi, DWORD PTR [esi]
$LN82@LoadAuraSc:
; File C:\Users\ALEXANDER\Desktop\Cliente\COPY_FISH_WON_NEW\Binario\Client\GameLib\ItemManager.cpp

; 564  : 		if (!strcmp(c_rstrJob.c_str(), "JOB_WOLFMAN"))

  00269	b8 00 00 00 00	 mov	 eax, OFFSET ??_C@_0M@BIDPEPDP@JOB_WOLFMAN@
  0026e	66 90		 npad	 2
$LL225@LoadAuraSc:
  00270	8a 0e		 mov	 cl, BYTE PTR [esi]
  00272	3a 08		 cmp	 cl, BYTE PTR [eax]
  00274	75 1a		 jne	 SHORT $LN226@LoadAuraSc
  00276	84 c9		 test	 cl, cl
  00278	74 12		 je	 SHORT $LN227@LoadAuraSc
  0027a	8a 4e 01	 mov	 cl, BYTE PTR [esi+1]
  0027d	3a 48 01	 cmp	 cl, BYTE PTR [eax+1]
  00280	75 0e		 jne	 SHORT $LN226@LoadAuraSc
  00282	83 c6 02	 add	 esi, 2
  00285	83 c0 02	 add	 eax, 2
  00288	84 c9		 test	 cl, cl
  0028a	75 e4		 jne	 SHORT $LL225@LoadAuraSc
$LN227@LoadAuraSc:
  0028c	33 c9		 xor	 ecx, ecx
  0028e	eb 05		 jmp	 SHORT $LN228@LoadAuraSc
$LN226@LoadAuraSc:
  00290	1b c9		 sbb	 ecx, ecx
  00292	83 c9 01	 or	 ecx, 1
$LN228@LoadAuraSc:
  00295	85 c9		 test	 ecx, ecx
  00297	0f b6 c2	 movzx	 eax, dl
  0029a	b9 04 00 00 00	 mov	 ecx, 4
  0029f	0f 44 c1	 cmove	 eax, ecx
  002a2	88 85 7c fe ff
	ff		 mov	 BYTE PTR _byJob$3[ebp], al
; File D:\visual studio 2019\visual studio 2019\VC\Tools\MSVC\14.29.30133\include\xstring

; 2286 :         return _BUF_SIZE <= _Myres;

  002a8	8b 85 80 fe ff
	ff		 mov	 eax, DWORD PTR __Result$1$[ebp]
  002ae	83 78 14 10	 cmp	 DWORD PTR [eax+20], 16	; 00000010H

; 2273 :         if (_Large_string_engaged()) {

  002b2	72 02		 jb	 SHORT $LN89@LoadAuraSc

; 2274 :             _Result = _Unfancy(_Bx._Ptr);

  002b4	8b 00		 mov	 eax, DWORD PTR [eax]
$LN89@LoadAuraSc:
; File C:\Users\ALEXANDER\Desktop\Cliente\COPY_FISH_WON_NEW\Binario\Client\GameLib\ItemManager.cpp

; 567  : 		BYTE bySex = c_rstrSex[0] == 'M';

  002b6	80 38 4d	 cmp	 BYTE PTR [eax], 77	; 0000004dH
; File D:\visual studio 2019\visual studio 2019\VC\Tools\MSVC\14.29.30133\include\xstring

; 2286 :         return _BUF_SIZE <= _Myres;

  002b9	8b 85 98 fe ff
	ff		 mov	 eax, DWORD PTR __Result$1$[ebp]
; File C:\Users\ALEXANDER\Desktop\Cliente\COPY_FISH_WON_NEW\Binario\Client\GameLib\ItemManager.cpp

; 567  : 		BYTE bySex = c_rstrSex[0] == 'M';

  002bf	0f 94 85 78 fe
	ff ff		 sete	 BYTE PTR _bySex$2[ebp]
; File D:\visual studio 2019\visual studio 2019\VC\Tools\MSVC\14.29.30133\include\xstring

; 2286 :         return _BUF_SIZE <= _Myres;

  002c6	83 78 14 10	 cmp	 DWORD PTR [eax+20], 16	; 00000010H

; 2273 :         if (_Large_string_engaged()) {

  002ca	72 02		 jb	 SHORT $LN96@LoadAuraSc

; 2274 :             _Result = _Unfancy(_Bx._Ptr);

  002cc	8b 00		 mov	 eax, DWORD PTR [eax]
$LN96@LoadAuraSc:
; File C:\Users\ALEXANDER\Desktop\Cliente\COPY_FISH_WON_NEW\Binario\Client\GameLib\ItemManager.cpp

; 569  : 		float fMeshScaleX = atof(c_rstrMeshScaleX.c_str()) * 0.01f;

  002ce	50		 push	 eax
  002cf	e8 00 00 00 00	 call	 _atof
  002d4	dc 0d 00 00 00
	00		 fmul	 QWORD PTR __real@3f847ae140000000
  002da	83 c4 04	 add	 esp, 4
; File D:\visual studio 2019\visual studio 2019\VC\Tools\MSVC\14.29.30133\include\xstring

; 2286 :         return _BUF_SIZE <= _Myres;

  002dd	8b 85 94 fe ff
	ff		 mov	 eax, DWORD PTR __Result$1$[ebp]
  002e3	83 78 14 10	 cmp	 DWORD PTR [eax+20], 16	; 00000010H
; File C:\Users\ALEXANDER\Desktop\Cliente\COPY_FISH_WON_NEW\Binario\Client\GameLib\ItemManager.cpp

; 569  : 		float fMeshScaleX = atof(c_rstrMeshScaleX.c_str()) * 0.01f;

  002e7	d9 9d 98 fe ff
	ff		 fstp	 DWORD PTR _fMeshScaleX$7[ebp]
; File D:\visual studio 2019\visual studio 2019\VC\Tools\MSVC\14.29.30133\include\xstring

; 2273 :         if (_Large_string_engaged()) {

  002ed	72 02		 jb	 SHORT $LN103@LoadAuraSc

; 2274 :             _Result = _Unfancy(_Bx._Ptr);

  002ef	8b 00		 mov	 eax, DWORD PTR [eax]
$LN103@LoadAuraSc:
; File C:\Users\ALEXANDER\Desktop\Cliente\COPY_FISH_WON_NEW\Binario\Client\GameLib\ItemManager.cpp

; 570  : 		float fMeshScaleY = atof(c_rstrMeshScaleY.c_str()) * 0.01f;

  002f1	50		 push	 eax
  002f2	e8 00 00 00 00	 call	 _atof
  002f7	dc 0d 00 00 00
	00		 fmul	 QWORD PTR __real@3f847ae140000000
  002fd	83 c4 04	 add	 esp, 4
; File D:\visual studio 2019\visual studio 2019\VC\Tools\MSVC\14.29.30133\include\xstring

; 2286 :         return _BUF_SIZE <= _Myres;

  00300	8b 85 90 fe ff
	ff		 mov	 eax, DWORD PTR __Result$1$[ebp]
  00306	83 78 14 10	 cmp	 DWORD PTR [eax+20], 16	; 00000010H
; File C:\Users\ALEXANDER\Desktop\Cliente\COPY_FISH_WON_NEW\Binario\Client\GameLib\ItemManager.cpp

; 570  : 		float fMeshScaleY = atof(c_rstrMeshScaleY.c_str()) * 0.01f;

  0030a	d9 9d 94 fe ff
	ff		 fstp	 DWORD PTR _fMeshScaleY$6[ebp]
; File D:\visual studio 2019\visual studio 2019\VC\Tools\MSVC\14.29.30133\include\xstring

; 2273 :         if (_Large_string_engaged()) {

  00310	72 02		 jb	 SHORT $LN110@LoadAuraSc

; 2274 :             _Result = _Unfancy(_Bx._Ptr);

  00312	8b 00		 mov	 eax, DWORD PTR [eax]
$LN110@LoadAuraSc:
; File C:\Users\ALEXANDER\Desktop\Cliente\COPY_FISH_WON_NEW\Binario\Client\GameLib\ItemManager.cpp

; 571  : 		float fMeshScaleZ = atof(c_rstrMeshScaleZ.c_str()) * 0.01f;

  00314	50		 push	 eax
  00315	e8 00 00 00 00	 call	 _atof
  0031a	dc 0d 00 00 00
	00		 fmul	 QWORD PTR __real@3f847ae140000000
  00320	83 c4 04	 add	 esp, 4
; File D:\visual studio 2019\visual studio 2019\VC\Tools\MSVC\14.29.30133\include\xstring

; 2286 :         return _BUF_SIZE <= _Myres;

  00323	8b 85 8c fe ff
	ff		 mov	 eax, DWORD PTR __Result$1$[ebp]
  00329	83 78 14 10	 cmp	 DWORD PTR [eax+20], 16	; 00000010H
; File C:\Users\ALEXANDER\Desktop\Cliente\COPY_FISH_WON_NEW\Binario\Client\GameLib\ItemManager.cpp

; 571  : 		float fMeshScaleZ = atof(c_rstrMeshScaleZ.c_str()) * 0.01f;

  0032d	d9 9d 90 fe ff
	ff		 fstp	 DWORD PTR _fMeshScaleZ$5[ebp]
; File D:\visual studio 2019\visual studio 2019\VC\Tools\MSVC\14.29.30133\include\xstring

; 2273 :         if (_Large_string_engaged()) {

  00333	72 02		 jb	 SHORT $LN117@LoadAuraSc

; 2274 :             _Result = _Unfancy(_Bx._Ptr);

  00335	8b 00		 mov	 eax, DWORD PTR [eax]
$LN117@LoadAuraSc:
; File C:\Users\ALEXANDER\Desktop\Cliente\COPY_FISH_WON_NEW\Binario\Client\GameLib\ItemManager.cpp

; 572  : 		float fParticleScale = atof(c_rstrParticleScale.c_str());

  00337	50		 push	 eax
  00338	e8 00 00 00 00	 call	 _atof
  0033d	8b bd 7c fe ff
	ff		 mov	 edi, DWORD PTR _byJob$3[ebp]
  00343	83 c4 04	 add	 esp, 4
  00346	8b 9d 78 fe ff
	ff		 mov	 ebx, DWORD PTR _bySex$2[ebp]
  0034c	be 07 00 00 00	 mov	 esi, 7
  00351	8b 85 9c fe ff
	ff		 mov	 eax, DWORD PTR _dwItemVnum$1$[ebp]
  00357	d9 9d 8c fe ff
	ff		 fstp	 DWORD PTR _fParticleScale$4[ebp]
  0035d	0f 1f 00	 npad	 3
$LL7@LoadAuraSc:

; 575  : 		{
; 576  : 			CItemData* pItemData = MakeItemData(dwItemVnum + i);

  00360	8b 8d 74 fe ff
	ff		 mov	 ecx, DWORD PTR _this$GSCopy$1$[ebp]
  00366	50		 push	 eax
  00367	e8 00 00 00 00	 call	 ?MakeItemData@CItemManager@@QAEPAVCItemData@@K@Z ; CItemManager::MakeItemData

; 577  : 			if (pItemData)

  0036c	85 c0		 test	 eax, eax
  0036e	74 43		 je	 SHORT $LN5@LoadAuraSc

; 578  : 				pItemData->SetAuraScaleTableData(byJob, bySex, fMeshScaleX, fMeshScaleY, fMeshScaleZ, fParticleScale);

  00370	f3 0f 10 85 8c
	fe ff ff	 movss	 xmm0, DWORD PTR _fParticleScale$4[ebp]
  00378	83 ec 10	 sub	 esp, 16			; 00000010H
  0037b	8b c8		 mov	 ecx, eax
  0037d	f3 0f 11 44 24
	0c		 movss	 DWORD PTR [esp+12], xmm0
  00383	f3 0f 10 85 90
	fe ff ff	 movss	 xmm0, DWORD PTR _fMeshScaleZ$5[ebp]
  0038b	f3 0f 11 44 24
	08		 movss	 DWORD PTR [esp+8], xmm0
  00391	f3 0f 10 85 94
	fe ff ff	 movss	 xmm0, DWORD PTR _fMeshScaleY$6[ebp]
  00399	f3 0f 11 44 24
	04		 movss	 DWORD PTR [esp+4], xmm0
  0039f	f3 0f 10 85 98
	fe ff ff	 movss	 xmm0, DWORD PTR _fMeshScaleX$7[ebp]
  003a7	f3 0f 11 04 24	 movss	 DWORD PTR [esp], xmm0
  003ac	53		 push	 ebx
  003ad	57		 push	 edi
  003ae	e8 00 00 00 00	 call	 ?SetAuraScaleTableData@CItemData@@QAEXEEMMMM@Z ; CItemData::SetAuraScaleTableData
$LN5@LoadAuraSc:

; 573  : 
; 574  : 		for (BYTE i = 0; i < CItemData::AURA_GRADE_MAX_NUM; ++i)

  003b3	8b 85 9c fe ff
	ff		 mov	 eax, DWORD PTR _dwItemVnum$1$[ebp]
  003b9	40		 inc	 eax
  003ba	89 85 9c fe ff
	ff		 mov	 DWORD PTR _dwItemVnum$1$[ebp], eax
  003c0	83 ee 01	 sub	 esi, 1
  003c3	75 9b		 jne	 SHORT $LL7@LoadAuraSc
  003c5	8b 9d 88 fe ff
	ff		 mov	 ebx, DWORD PTR _i$1$[ebp]
  003cb	8b b5 70 fe ff
	ff		 mov	 esi, DWORD PTR _c_szFileName$GSCopy$1$[ebp]
$LN2@LoadAuraSc:

; 534  : 	for (DWORD i = 0; i < textFileLoader.GetLineCount(); ++i)

  003d1	43		 inc	 ebx
  003d2	8d 8d 60 fe ff
	ff		 lea	 ecx, DWORD PTR _textFileLoader$[ebp]
  003d8	89 9d 88 fe ff
	ff		 mov	 DWORD PTR _i$1$[ebp], ebx
  003de	e8 00 00 00 00	 call	 ?GetLineCount@CMemoryTextFileLoader@@QAEKXZ ; CMemoryTextFileLoader::GetLineCount
  003e3	3b d8		 cmp	 ebx, eax
  003e5	0f 82 f5 fc ff
	ff		 jb	 $LL4@LoadAuraSc
$LN3@LoadAuraSc:
; File D:\visual studio 2019\visual studio 2019\VC\Tools\MSVC\14.29.30133\include\vector

; 1750 :         if (_Myfirst) { // destroy and deallocate old array

  003eb	8b b5 a0 fe ff
	ff		 mov	 esi, DWORD PTR _TokenVector$[ebp]
; File C:\Users\ALEXANDER\Desktop\Cliente\COPY_FISH_WON_NEW\Binario\Client\GameLib\ItemManager.cpp

; 581  : 	return true;

  003f1	b3 01		 mov	 bl, 1
; File D:\visual studio 2019\visual studio 2019\VC\Tools\MSVC\14.29.30133\include\vector

; 1750 :         if (_Myfirst) { // destroy and deallocate old array

  003f3	85 f6		 test	 esi, esi
  003f5	0f 84 bc 00 00
	00		 je	 $LN124@LoadAuraSc

; 1751 :             _Destroy(_Myfirst, _Mylast);

  003fb	8b bd a4 fe ff
	ff		 mov	 edi, DWORD PTR _TokenVector$[ebp+4]

; 1667 :         _Destroy_range(_First, _Last, _Getal());

  00401	3b f7		 cmp	 esi, edi
; File D:\visual studio 2019\visual studio 2019\VC\Tools\MSVC\14.29.30133\include\xmemory

; 904  :         for (; _First != _Last; ++_First) {

  00403	74 51		 je	 SHORT $LN130@LoadAuraSc
$LL131@LoadAuraSc:
; File D:\visual studio 2019\visual studio 2019\VC\Tools\MSVC\14.29.30133\include\xstring

; 2286 :         return _BUF_SIZE <= _Myres;

  00405	8b 4e 14	 mov	 ecx, DWORD PTR [esi+20]
  00408	83 f9 10	 cmp	 ecx, 16			; 00000010H

; 4584 :         if (_Mypair._Myval2._Large_string_engaged()) {

  0040b	72 2b		 jb	 SHORT $LN150@LoadAuraSc
; File D:\visual studio 2019\visual studio 2019\VC\Tools\MSVC\14.29.30133\include\xmemory

; 797  :         _Deallocate<_New_alignof<_Ty>>(_Ptr, sizeof(_Ty) * _Count);

  0040d	8b 06		 mov	 eax, DWORD PTR [esi]
; File D:\visual studio 2019\visual studio 2019\VC\Tools\MSVC\14.29.30133\include\xstring

; 4588 :             _Al.deallocate(_Ptr, _Mypair._Myval2._Myres + 1);

  0040f	41		 inc	 ecx
; File D:\visual studio 2019\visual studio 2019\VC\Tools\MSVC\14.29.30133\include\xmemory

; 251  :         if (_Bytes >= _Big_allocation_threshold) { // boost the alignment of big allocations to help autovectorization

  00410	81 f9 00 10 00
	00		 cmp	 ecx, 4096		; 00001000H
  00416	72 16		 jb	 SHORT $LN160@LoadAuraSc

; 150  :     const uintptr_t _Ptr_container   = _Ptr_user[-1];

  00418	8b 50 fc	 mov	 edx, DWORD PTR [eax-4]
  0041b	83 c1 23	 add	 ecx, 35			; 00000023H

; 151  : 
; 152  :     // If the following asserts, it likely means that we are performing
; 153  :     // an aligned delete on memory coming from an unaligned allocation.
; 154  :     _STL_ASSERT(_Ptr_user[-2] == _Big_allocation_sentinel, "invalid argument");
; 155  : 
; 156  :     // Extra paranoia on aligned allocation/deallocation; ensure _Ptr_container is
; 157  :     // in range [_Min_back_shift, _Non_user_size]
; 158  : #ifdef _DEBUG
; 159  :     constexpr uintptr_t _Min_back_shift = 2 * sizeof(void*);
; 160  : #else // ^^^ _DEBUG ^^^ // vvv !_DEBUG vvv
; 161  :     constexpr uintptr_t _Min_back_shift = sizeof(void*);
; 162  : #endif // _DEBUG
; 163  :     const uintptr_t _Back_shift = reinterpret_cast<uintptr_t>(_Ptr) - _Ptr_container;

  0041e	2b c2		 sub	 eax, edx

; 164  :     _STL_VERIFY(_Back_shift >= _Min_back_shift && _Back_shift <= _Non_user_size, "invalid argument");

  00420	83 c0 fc	 add	 eax, -4			; fffffffcH
  00423	83 f8 1f	 cmp	 eax, 31			; 0000001fH
  00426	0f 87 c1 00 00
	00		 ja	 $LN181@LoadAuraSc

; 165  :     _Ptr = reinterpret_cast<void*>(_Ptr_container);

  0042c	8b c2		 mov	 eax, edx
$LN160@LoadAuraSc:

; 255  :         ::operator delete(_Ptr, _Bytes);

  0042e	51		 push	 ecx
  0042f	50		 push	 eax
  00430	e8 00 00 00 00	 call	 ??3@YAXPAXI@Z		; operator delete
  00435	83 c4 08	 add	 esp, 8
$LN150@LoadAuraSc:
; File D:\visual studio 2019\visual studio 2019\VC\Tools\MSVC\14.29.30133\include\xstring

; 4599 :             _Mypair._Myval2._Mysize = 0;

  00438	c7 46 10 00 00
	00 00		 mov	 DWORD PTR [esi+16], 0

; 4600 :             _Mypair._Myval2._Myres  = _BUF_SIZE - 1;

  0043f	c7 46 14 0f 00
	00 00		 mov	 DWORD PTR [esi+20], 15	; 0000000fH

; 4601 :             // the _Traits::assign is last so the codegen doesn't think the char write can alias this
; 4602 :             _Traits::assign(_Mypair._Myval2._Bx._Buf[0], _Elem());

  00446	c6 06 00	 mov	 BYTE PTR [esi], 0
; File D:\visual studio 2019\visual studio 2019\VC\Tools\MSVC\14.29.30133\include\xmemory

; 904  :         for (; _First != _Last; ++_First) {

  00449	83 c6 18	 add	 esi, 24			; 00000018H
  0044c	3b f7		 cmp	 esi, edi
  0044e	75 b5		 jne	 SHORT $LL131@LoadAuraSc
  00450	8b b5 a0 fe ff
	ff		 mov	 esi, DWORD PTR _TokenVector$[ebp]
$LN130@LoadAuraSc:
; File D:\visual studio 2019\visual studio 2019\VC\Tools\MSVC\14.29.30133\include\vector

; 1752 :             _Getal().deallocate(_Myfirst, static_cast<size_type>(_Myend - _Myfirst));

  00456	8b 8d a8 fe ff
	ff		 mov	 ecx, DWORD PTR _TokenVector$[ebp+8]
  0045c	b8 ab aa aa 2a	 mov	 eax, 715827883		; 2aaaaaabH
  00461	2b ce		 sub	 ecx, esi
  00463	f7 e9		 imul	 ecx
  00465	c1 fa 02	 sar	 edx, 2
  00468	8b c2		 mov	 eax, edx
  0046a	c1 e8 1f	 shr	 eax, 31			; 0000001fH
  0046d	03 c2		 add	 eax, edx
; File D:\visual studio 2019\visual studio 2019\VC\Tools\MSVC\14.29.30133\include\xmemory

; 797  :         _Deallocate<_New_alignof<_Ty>>(_Ptr, sizeof(_Ty) * _Count);

  0046f	8d 0c 40	 lea	 ecx, DWORD PTR [eax+eax*2]
  00472	8b c6		 mov	 eax, esi
  00474	c1 e1 03	 shl	 ecx, 3

; 251  :         if (_Bytes >= _Big_allocation_threshold) { // boost the alignment of big allocations to help autovectorization

  00477	81 f9 00 10 00
	00		 cmp	 ecx, 4096		; 00001000H
  0047d	72 10		 jb	 SHORT $LN184@LoadAuraSc

; 150  :     const uintptr_t _Ptr_container   = _Ptr_user[-1];

  0047f	8b 76 fc	 mov	 esi, DWORD PTR [esi-4]
  00482	83 c1 23	 add	 ecx, 35			; 00000023H
  00485	2b c6		 sub	 eax, esi

; 164  :     _STL_VERIFY(_Back_shift >= _Min_back_shift && _Back_shift <= _Non_user_size, "invalid argument");

  00487	83 c0 fc	 add	 eax, -4			; fffffffcH
  0048a	83 f8 1f	 cmp	 eax, 31			; 0000001fH
  0048d	77 5e		 ja	 SHORT $LN181@LoadAuraSc
$LN184@LoadAuraSc:

; 255  :         ::operator delete(_Ptr, _Bytes);

  0048f	51		 push	 ecx
  00490	56		 push	 esi
  00491	e8 00 00 00 00	 call	 ??3@YAXPAXI@Z		; operator delete
  00496	83 c4 08	 add	 esp, 8
; File D:\visual studio 2019\visual studio 2019\VC\Tools\MSVC\14.29.30133\include\vector

; 1754 :             _Myfirst = nullptr;

  00499	c7 85 a0 fe ff
	ff 00 00 00 00	 mov	 DWORD PTR _TokenVector$[ebp], 0

; 1755 :             _Mylast  = nullptr;

  004a3	c7 85 a4 fe ff
	ff 00 00 00 00	 mov	 DWORD PTR _TokenVector$[ebp+4], 0

; 1756 :             _Myend   = nullptr;

  004ad	c7 85 a8 fe ff
	ff 00 00 00 00	 mov	 DWORD PTR _TokenVector$[ebp+8], 0
$LN124@LoadAuraSc:
; File C:\Users\ALEXANDER\Desktop\Cliente\COPY_FISH_WON_NEW\Binario\Client\GameLib\ItemManager.cpp

; 581  : 	return true;

  004b7	8d 8d 60 fe ff
	ff		 lea	 ecx, DWORD PTR _textFileLoader$[ebp]
  004bd	e8 00 00 00 00	 call	 ??1CMemoryTextFileLoader@@UAE@XZ ; CMemoryTextFileLoader::~CMemoryTextFileLoader
$LN21@LoadAuraSc:
  004c2	8d 8d ac fe ff
	ff		 lea	 ecx, DWORD PTR _File$[ebp]
  004c8	e8 00 00 00 00	 call	 ??1CMappedFile@@UAE@XZ	; CMappedFile::~CMappedFile
  004cd	8a c3		 mov	 al, bl

; 582  : }

  004cf	8b 4d f4	 mov	 ecx, DWORD PTR __$EHRec$[ebp]
  004d2	64 89 0d 00 00
	00 00		 mov	 DWORD PTR fs:0, ecx
  004d9	59		 pop	 ecx
  004da	5f		 pop	 edi
  004db	5e		 pop	 esi
  004dc	5b		 pop	 ebx
  004dd	8b 4d f0	 mov	 ecx, DWORD PTR __$ArrayPad$[ebp]
  004e0	33 cd		 xor	 ecx, ebp
  004e2	e8 00 00 00 00	 call	 @__security_check_cookie@4
  004e7	8b e5		 mov	 esp, ebp
  004e9	5d		 pop	 ebp
  004ea	c2 04 00	 ret	 4
$LN181@LoadAuraSc:
; File D:\visual studio 2019\visual studio 2019\VC\Tools\MSVC\14.29.30133\include\xmemory

; 164  :     _STL_VERIFY(_Back_shift >= _Min_back_shift && _Back_shift <= _Non_user_size, "invalid argument");

  004ed	e8 00 00 00 00	 call	 __invalid_parameter_noinfo_noreturn
$LN230@LoadAuraSc:
  004f2	cc		 int	 3
_TEXT	ENDS
;	COMDAT text$x
text$x	SEGMENT
__unwindfunclet$?LoadAuraScale@CItemManager@@QAE_NPBD@Z$0:
  00000	8d 8d ac fe ff
	ff		 lea	 ecx, DWORD PTR _File$[ebp]
  00006	e9 00 00 00 00	 jmp	 ??1CMappedFile@@UAE@XZ	; CMappedFile::~CMappedFile
__unwindfunclet$?LoadAuraScale@CItemManager@@QAE_NPBD@Z$1:
  0000b	8d 8d 60 fe ff
	ff		 lea	 ecx, DWORD PTR _textFileLoader$[ebp]
  00011	e9 00 00 00 00	 jmp	 ??1CMemoryTextFileLoader@@UAE@XZ ; CMemoryTextFileLoader::~CMemoryTextFileLoader
__unwindfunclet$?LoadAuraScale@CItemManager@@QAE_NPBD@Z$2:
  00016	8d 8d a0 fe ff
	ff		 lea	 ecx, DWORD PTR _TokenVector$[ebp]
  0001c	e9 00 00 00 00	 jmp	 ??1?$vector@V?$basic_string@DU?$char_traits@D@std@@V?$allocator@D@2@@std@@V?$allocator@V?$basic_string@DU?$char_traits@D@std@@V?$allocator@D@2@@std@@@2@@std@@QAE@XZ ; std::vector<std::basic_string<char,std::char_traits<char>,std::allocator<char> >,std::allocator<std::basic_string<char,std::char_traits<char>,std::allocator<char> > > >::~vector<std::basic_string<char,std::char_traits<char>,std::allocator<char> >,std::allocator<std::basic_string<char,std::char_traits<char>,std::allocator<char> > > >
  00021	cc		 int	 3
  00022	cc		 int	 3
  00023	cc		 int	 3
  00024	cc		 int	 3
  00025	cc		 int	 3
__ehhandler$?LoadAuraScale@CItemManager@@QAE_NPBD@Z:
  00026	90		 npad	 1
  00027	90		 npad	 1
  00028	8b 54 24 08	 mov	 edx, DWORD PTR [esp+8]
  0002c	8d 42 0c	 lea	 eax, DWORD PTR [edx+12]
  0002f	8b 8a 5c fe ff
	ff		 mov	 ecx, DWORD PTR [edx-420]
  00035	33 c8		 xor	 ecx, eax
  00037	e8 00 00 00 00	 call	 @__security_check_cookie@4
  0003c	8b 4a fc	 mov	 ecx, DWORD PTR [edx-4]
  0003f	33 c8		 xor	 ecx, eax
  00041	e8 00 00 00 00	 call	 @__security_check_cookie@4
  00046	b8 00 00 00 00	 mov	 eax, OFFSET __ehfuncinfo$?LoadAuraScale@CItemManager@@QAE_NPBD@Z
  0004b	e9 00 00 00 00	 jmp	 ___CxxFrameHandler3
text$x	ENDS
?LoadAuraScale@CItemManager@@QAE_NPBD@Z ENDP		; CItemManager::LoadAuraScale
; Function compile flags: /Ogtp
; File C:\Users\ALEXANDER\Desktop\Cliente\COPY_FISH_WON_NEW\Binario\Client\eterBase\Singleton.h
;	COMDAT ??_G?$CSingleton@VCItemManager@@@@UAEPAXI@Z
_TEXT	SEGMENT
___flags$ = 8						; size = 4
??_G?$CSingleton@VCItemManager@@@@UAEPAXI@Z PROC	; CSingleton<CItemManager>::`scalar deleting destructor', COMDAT
; _this$ = ecx
  00000	55		 push	 ebp
  00001	8b ec		 mov	 ebp, esp
  00003	f6 45 08 01	 test	 BYTE PTR ___flags$[ebp], 1

; 19   : 	{

  00007	56		 push	 esi
  00008	8b f1		 mov	 esi, ecx
  0000a	c7 06 00 00 00
	00		 mov	 DWORD PTR [esi], OFFSET ??_7?$CSingleton@VCItemManager@@@@6B@

; 20   : 		assert(ms_singleton);
; 21   : 		ms_singleton = 0;

  00010	c7 05 00 00 00
	00 00 00 00 00	 mov	 DWORD PTR ?ms_singleton@?$CSingleton@VCItemManager@@@@0PAVCItemManager@@A, 0 ; CSingleton<CItemManager>::ms_singleton
  0001a	74 0b		 je	 SHORT $LN6@scalar
  0001c	6a 04		 push	 4
  0001e	56		 push	 esi
  0001f	e8 00 00 00 00	 call	 ??3@YAXPAXI@Z		; operator delete
  00024	83 c4 08	 add	 esp, 8
$LN6@scalar:
  00027	8b c6		 mov	 eax, esi
  00029	5e		 pop	 esi
  0002a	5d		 pop	 ebp
  0002b	c2 04 00	 ret	 4
??_G?$CSingleton@VCItemManager@@@@UAEPAXI@Z ENDP	; CSingleton<CItemManager>::`scalar deleting destructor'
_TEXT	ENDS
; Function compile flags: /Ogtp
; File C:\Users\ALEXANDER\Desktop\Cliente\COPY_FISH_WON_NEW\Binario\Client\eterBase\Singleton.h
;	COMDAT ??1?$CSingleton@VCItemManager@@@@UAE@XZ
_TEXT	SEGMENT
??1?$CSingleton@VCItemManager@@@@UAE@XZ PROC		; CSingleton<CItemManager>::~CSingleton<CItemManager>, COMDAT
; _this$ = ecx

; 19   : 	{

  00000	c7 01 00 00 00
	00		 mov	 DWORD PTR [ecx], OFFSET ??_7?$CSingleton@VCItemManager@@@@6B@

; 20   : 		assert(ms_singleton);
; 21   : 		ms_singleton = 0;

  00006	c7 05 00 00 00
	00 00 00 00 00	 mov	 DWORD PTR ?ms_singleton@?$CSingleton@VCItemManager@@@@0PAVCItemManager@@A, 0 ; CSingleton<CItemManager>::ms_singleton

; 22   : 	}

  00010	c3		 ret	 0
??1?$CSingleton@VCItemManager@@@@UAE@XZ ENDP		; CSingleton<CItemManager>::~CSingleton<CItemManager>
_TEXT	ENDS
; Function compile flags: /Ogtp
; File D:\visual studio 2019\visual studio 2019\VC\Tools\MSVC\14.29.30133\include\xmemory
;	COMDAT ??$_Allocate_manually_vector_aligned@U_Default_allocate_traits@std@@@std@@YAPAXI@Z
_TEXT	SEGMENT
__Bytes$ = 8						; size = 4
??$_Allocate_manually_vector_aligned@U_Default_allocate_traits@std@@@std@@YAPAXI@Z PROC ; std::_Allocate_manually_vector_aligned<std::_Default_allocate_traits>, COMDAT

; 127  : __declspec(allocator) void* _Allocate_manually_vector_aligned(const size_t _Bytes) {

  00000	55		 push	 ebp
  00001	8b ec		 mov	 ebp, esp

; 128  :     // allocate _Bytes manually aligned to at least _Big_allocation_alignment
; 129  :     const size_t _Block_size = _Non_user_size + _Bytes;

  00003	8b 45 08	 mov	 eax, DWORD PTR __Bytes$[ebp]
  00006	8d 48 23	 lea	 ecx, DWORD PTR [eax+35]

; 130  :     if (_Block_size <= _Bytes) {

  00009	3b c8		 cmp	 ecx, eax
  0000b	0f 86 00 00 00
	00		 jbe	 ?_Throw_bad_array_new_length@std@@YAXXZ ; std::_Throw_bad_array_new_length

; 79   :         return ::operator new(_Bytes);

  00011	51		 push	 ecx
  00012	e8 00 00 00 00	 call	 ??2@YAPAXI@Z		; operator new

; 131  :         _Throw_bad_array_new_length(); // add overflow
; 132  :     }
; 133  : 
; 134  :     const uintptr_t _Ptr_container = reinterpret_cast<uintptr_t>(_Traits::_Allocate(_Block_size));

  00017	8b c8		 mov	 ecx, eax

; 79   :         return ::operator new(_Bytes);

  00019	83 c4 04	 add	 esp, 4

; 135  :     _STL_VERIFY(_Ptr_container != 0, "invalid argument"); // validate even in release since we're doing p[-1]

  0001c	85 c9		 test	 ecx, ecx
  0001e	74 0b		 je	 SHORT $LN7@Allocate_m

; 136  :     void* const _Ptr = reinterpret_cast<void*>((_Ptr_container + _Non_user_size) & ~(_Big_allocation_alignment - 1));

  00020	8d 41 23	 lea	 eax, DWORD PTR [ecx+35]
  00023	83 e0 e0	 and	 eax, -32		; ffffffe0H

; 137  :     static_cast<uintptr_t*>(_Ptr)[-1] = _Ptr_container;

  00026	89 48 fc	 mov	 DWORD PTR [eax-4], ecx

; 138  : 
; 139  : #ifdef _DEBUG
; 140  :     static_cast<uintptr_t*>(_Ptr)[-2] = _Big_allocation_sentinel;
; 141  : #endif // _DEBUG
; 142  :     return _Ptr;
; 143  : }

  00029	5d		 pop	 ebp
  0002a	c3		 ret	 0
$LN7@Allocate_m:

; 135  :     _STL_VERIFY(_Ptr_container != 0, "invalid argument"); // validate even in release since we're doing p[-1]

  0002b	e9 00 00 00 00	 jmp	 __invalid_parameter_noinfo_noreturn
??$_Allocate_manually_vector_aligned@U_Default_allocate_traits@std@@@std@@YAPAXI@Z ENDP ; std::_Allocate_manually_vector_aligned<std::_Default_allocate_traits>
_TEXT	ENDS
; Function compile flags: /Ogtp
; File D:\visual studio 2019\visual studio 2019\VC\Tools\MSVC\14.29.30133\include\vector
;	COMDAT ?_Xlength@?$vector@V?$basic_string@DU?$char_traits@D@std@@V?$allocator@D@2@@std@@V?$allocator@V?$basic_string@DU?$char_traits@D@std@@V?$allocator@D@2@@std@@@2@@std@@CAXXZ
_TEXT	SEGMENT
?_Xlength@?$vector@V?$basic_string@DU?$char_traits@D@std@@V?$allocator@D@2@@std@@V?$allocator@V?$basic_string@DU?$char_traits@D@std@@V?$allocator@D@2@@std@@@2@@std@@CAXXZ PROC ; std::vector<std::basic_string<char,std::char_traits<char>,std::allocator<char> >,std::allocator<std::basic_string<char,std::char_traits<char>,std::allocator<char> > > >::_Xlength, COMDAT

; 1761 :         _Xlength_error("vector too long");

  00000	68 00 00 00 00	 push	 OFFSET ??_C@_0BA@FOIKENOD@vector?5too?5long@
  00005	e8 00 00 00 00	 call	 ?_Xlength_error@std@@YAXPBD@Z ; std::_Xlength_error
$LN3@Xlength:
  0000a	cc		 int	 3
?_Xlength@?$vector@V?$basic_string@DU?$char_traits@D@std@@V?$allocator@D@2@@std@@V?$allocator@V?$basic_string@DU?$char_traits@D@std@@V?$allocator@D@2@@std@@@2@@std@@CAXXZ ENDP ; std::vector<std::basic_string<char,std::char_traits<char>,std::allocator<char> >,std::allocator<std::basic_string<char,std::char_traits<char>,std::allocator<char> > > >::_Xlength
_TEXT	ENDS
; Function compile flags: /Ogtp
; File D:\visual studio 2019\visual studio 2019\VC\Tools\MSVC\14.29.30133\include\vector
; File D:\visual studio 2019\visual studio 2019\VC\Tools\MSVC\14.29.30133\include\xmemory
; File D:\visual studio 2019\visual studio 2019\VC\Tools\MSVC\14.29.30133\include\vector
; File D:\visual studio 2019\visual studio 2019\VC\Tools\MSVC\14.29.30133\include\xmemory
; File D:\visual studio 2019\visual studio 2019\VC\Tools\MSVC\14.29.30133\include\vector
;	COMDAT ??1?$vector@V?$basic_string@DU?$char_traits@D@std@@V?$allocator@D@2@@std@@V?$allocator@V?$basic_string@DU?$char_traits@D@std@@V?$allocator@D@2@@std@@@2@@std@@QAE@XZ
_TEXT	SEGMENT
??1?$vector@V?$basic_string@DU?$char_traits@D@std@@V?$allocator@D@2@@std@@V?$allocator@V?$basic_string@DU?$char_traits@D@std@@V?$allocator@D@2@@std@@@2@@std@@QAE@XZ PROC ; std::vector<std::basic_string<char,std::char_traits<char>,std::allocator<char> >,std::allocator<std::basic_string<char,std::char_traits<char>,std::allocator<char> > > >::~vector<std::basic_string<char,std::char_traits<char>,std::allocator<char> >,std::allocator<std::basic_string<char,std::char_traits<char>,std::allocator<char> > > >, COMDAT
; _this$ = ecx

; 698  :     _CONSTEXPR20_CONTAINER ~vector() noexcept {

  00000	56		 push	 esi
  00001	8b f1		 mov	 esi, ecx

; 1750 :         if (_Myfirst) { // destroy and deallocate old array

  00003	8b 06		 mov	 eax, DWORD PTR [esi]
  00005	85 c0		 test	 eax, eax
  00007	74 65		 je	 SHORT $LN4@vector

; 1667 :         _Destroy_range(_First, _Last, _Getal());

  00009	57		 push	 edi
  0000a	56		 push	 esi
  0000b	ff 76 04	 push	 DWORD PTR [esi+4]
  0000e	50		 push	 eax
  0000f	e8 00 00 00 00	 call	 ??$_Destroy_range@V?$allocator@V?$basic_string@DU?$char_traits@D@std@@V?$allocator@D@2@@std@@@std@@@std@@YAXPAV?$basic_string@DU?$char_traits@D@std@@V?$allocator@D@2@@0@QAV10@AAV?$allocator@V?$basic_string@DU?$char_traits@D@std@@V?$allocator@D@2@@std@@@0@@Z ; std::_Destroy_range<std::allocator<std::basic_string<char,std::char_traits<char>,std::allocator<char> > > >

; 1752 :             _Getal().deallocate(_Myfirst, static_cast<size_type>(_Myend - _Myfirst));

  00014	8b 4e 08	 mov	 ecx, DWORD PTR [esi+8]
  00017	b8 ab aa aa 2a	 mov	 eax, 715827883		; 2aaaaaabH
  0001c	8b 3e		 mov	 edi, DWORD PTR [esi]

; 1667 :         _Destroy_range(_First, _Last, _Getal());

  0001e	83 c4 0c	 add	 esp, 12			; 0000000cH

; 1752 :             _Getal().deallocate(_Myfirst, static_cast<size_type>(_Myend - _Myfirst));

  00021	2b cf		 sub	 ecx, edi
  00023	f7 e9		 imul	 ecx
  00025	c1 fa 02	 sar	 edx, 2
  00028	8b c2		 mov	 eax, edx
  0002a	c1 e8 1f	 shr	 eax, 31			; 0000001fH
  0002d	03 c2		 add	 eax, edx
; File D:\visual studio 2019\visual studio 2019\VC\Tools\MSVC\14.29.30133\include\xmemory

; 797  :         _Deallocate<_New_alignof<_Ty>>(_Ptr, sizeof(_Ty) * _Count);

  0002f	8d 0c 40	 lea	 ecx, DWORD PTR [eax+eax*2]
  00032	c1 e1 03	 shl	 ecx, 3

; 251  :         if (_Bytes >= _Big_allocation_threshold) { // boost the alignment of big allocations to help autovectorization

  00035	81 f9 00 10 00
	00		 cmp	 ecx, 4096		; 00001000H
  0003b	72 12		 jb	 SHORT $LN22@vector

; 150  :     const uintptr_t _Ptr_container   = _Ptr_user[-1];

  0003d	8b 57 fc	 mov	 edx, DWORD PTR [edi-4]
  00040	83 c1 23	 add	 ecx, 35			; 00000023H

; 151  : 
; 152  :     // If the following asserts, it likely means that we are performing
; 153  :     // an aligned delete on memory coming from an unaligned allocation.
; 154  :     _STL_ASSERT(_Ptr_user[-2] == _Big_allocation_sentinel, "invalid argument");
; 155  : 
; 156  :     // Extra paranoia on aligned allocation/deallocation; ensure _Ptr_container is
; 157  :     // in range [_Min_back_shift, _Non_user_size]
; 158  : #ifdef _DEBUG
; 159  :     constexpr uintptr_t _Min_back_shift = 2 * sizeof(void*);
; 160  : #else // ^^^ _DEBUG ^^^ // vvv !_DEBUG vvv
; 161  :     constexpr uintptr_t _Min_back_shift = sizeof(void*);
; 162  : #endif // _DEBUG
; 163  :     const uintptr_t _Back_shift = reinterpret_cast<uintptr_t>(_Ptr) - _Ptr_container;

  00043	2b fa		 sub	 edi, edx

; 164  :     _STL_VERIFY(_Back_shift >= _Min_back_shift && _Back_shift <= _Non_user_size, "invalid argument");

  00045	8d 47 fc	 lea	 eax, DWORD PTR [edi-4]
  00048	83 f8 1f	 cmp	 eax, 31			; 0000001fH
  0004b	77 23		 ja	 SHORT $LN19@vector

; 165  :     _Ptr = reinterpret_cast<void*>(_Ptr_container);

  0004d	8b fa		 mov	 edi, edx
$LN22@vector:

; 255  :         ::operator delete(_Ptr, _Bytes);

  0004f	51		 push	 ecx
  00050	57		 push	 edi
  00051	e8 00 00 00 00	 call	 ??3@YAXPAXI@Z		; operator delete
  00056	83 c4 08	 add	 esp, 8
; File D:\visual studio 2019\visual studio 2019\VC\Tools\MSVC\14.29.30133\include\vector

; 1754 :             _Myfirst = nullptr;

  00059	c7 06 00 00 00
	00		 mov	 DWORD PTR [esi], 0

; 1755 :             _Mylast  = nullptr;

  0005f	c7 46 04 00 00
	00 00		 mov	 DWORD PTR [esi+4], 0

; 1756 :             _Myend   = nullptr;

  00066	c7 46 08 00 00
	00 00		 mov	 DWORD PTR [esi+8], 0
  0006d	5f		 pop	 edi
$LN4@vector:
  0006e	5e		 pop	 esi

; 704  :     }

  0006f	c3		 ret	 0
$LN19@vector:
; File D:\visual studio 2019\visual studio 2019\VC\Tools\MSVC\14.29.30133\include\xmemory

; 164  :     _STL_VERIFY(_Back_shift >= _Min_back_shift && _Back_shift <= _Non_user_size, "invalid argument");

  00070	e8 00 00 00 00	 call	 __invalid_parameter_noinfo_noreturn
$LN27@vector:
  00075	cc		 int	 3
??1?$vector@V?$basic_string@DU?$char_traits@D@std@@V?$allocator@D@2@@std@@V?$allocator@V?$basic_string@DU?$char_traits@D@std@@V?$allocator@D@2@@std@@@2@@std@@QAE@XZ ENDP ; std::vector<std::basic_string<char,std::char_traits<char>,std::allocator<char> >,std::allocator<std::basic_string<char,std::char_traits<char>,std::allocator<char> > > >::~vector<std::basic_string<char,std::char_traits<char>,std::allocator<char> >,std::allocator<std::basic_string<char,std::char_traits<char>,std::allocator<char> > > >
_TEXT	ENDS
; Function compile flags: /Ogtp
; File D:\visual studio 2019\visual studio 2019\VC\Tools\MSVC\14.29.30133\include\xtree
;	COMDAT ?_Throw_tree_length_error@std@@YAXXZ
_TEXT	SEGMENT
?_Throw_tree_length_error@std@@YAXXZ PROC		; std::_Throw_tree_length_error, COMDAT

; 416  :     _Xlength_error("map/set too long");

  00000	68 00 00 00 00	 push	 OFFSET ??_C@_0BB@GCADKGJO@map?1set?5too?5long@
  00005	e8 00 00 00 00	 call	 ?_Xlength_error@std@@YAXPBD@Z ; std::_Xlength_error
$LN3@Throw_tree:
  0000a	cc		 int	 3
?_Throw_tree_length_error@std@@YAXXZ ENDP		; std::_Throw_tree_length_error
_TEXT	ENDS
; Function compile flags: /Ogtp
; File D:\visual studio 2019\visual studio 2019\VC\Tools\MSVC\14.29.30133\include\xstring
; File D:\visual studio 2019\visual studio 2019\VC\Tools\MSVC\14.29.30133\include\xmemory
; File D:\visual studio 2019\visual studio 2019\VC\Tools\MSVC\14.29.30133\include\xstring
; File D:\visual studio 2019\visual studio 2019\VC\Tools\MSVC\14.29.30133\include\xmemory
; File D:\visual studio 2019\visual studio 2019\VC\Tools\MSVC\14.29.30133\include\xstring
; File D:\visual studio 2019\visual studio 2019\VC\Tools\MSVC\14.29.30133\include\utility
; File D:\visual studio 2019\visual studio 2019\VC\Tools\MSVC\14.29.30133\include\xstring
; File D:\visual studio 2019\visual studio 2019\VC\Tools\MSVC\14.29.30133\include\xmemory
; File D:\visual studio 2019\visual studio 2019\VC\Tools\MSVC\14.29.30133\include\xstring
; File D:\visual studio 2019\visual studio 2019\VC\Tools\MSVC\14.29.30133\include\xmemory
; File D:\visual studio 2019\visual studio 2019\VC\Tools\MSVC\14.29.30133\include\xstring
; File D:\visual studio 2019\visual studio 2019\VC\Tools\MSVC\14.29.30133\include\xmemory
; File D:\visual studio 2019\visual studio 2019\VC\Tools\MSVC\14.29.30133\include\xstring
;	COMDAT ?assign@?$basic_string@DU?$char_traits@D@std@@V?$allocator@D@2@@std@@QAEAAV12@QBDI@Z
_TEXT	SEGMENT
__Old$1$ = -4						; size = 4
__Ptr$ = 8						; size = 4
$T1 = 12						; size = 4
__Count$ = 12						; size = 4
?assign@?$basic_string@DU?$char_traits@D@std@@V?$allocator@D@2@@std@@QAEAAV12@QBDI@Z PROC ; std::basic_string<char,std::char_traits<char>,std::allocator<char> >::assign, COMDAT
; _this$ = ecx

; 3210 :         _In_reads_(_Count) const _Elem* const _Ptr, _CRT_GUARDOVERFLOW const size_type _Count) {

  00000	55		 push	 ebp
  00001	8b ec		 mov	 ebp, esp
  00003	51		 push	 ecx
  00004	53		 push	 ebx

; 3211 :         // assign [_Ptr, _Ptr + _Count)
; 3212 :         if (_Count <= _Mypair._Myval2._Myres) {

  00005	8b 5d 0c	 mov	 ebx, DWORD PTR __Count$[ebp]
  00008	56		 push	 esi
  00009	8b f1		 mov	 esi, ecx
  0000b	57		 push	 edi
  0000c	8b 4e 14	 mov	 ecx, DWORD PTR [esi+20]
  0000f	89 4d fc	 mov	 DWORD PTR __Old$1$[ebp], ecx
  00012	3b d9		 cmp	 ebx, ecx
  00014	77 28		 ja	 SHORT $LN2@assign

; 2263 :         value_type* _Result = _Bx._Buf;

  00016	8b fe		 mov	 edi, esi

; 2286 :         return _BUF_SIZE <= _Myres;

  00018	83 f9 10	 cmp	 ecx, 16			; 00000010H

; 2264 :         if (_Large_string_engaged()) {

  0001b	72 02		 jb	 SHORT $LN5@assign

; 2265 :             _Result = _Unfancy(_Bx._Ptr);

  0001d	8b 3e		 mov	 edi, DWORD PTR [esi]
$LN5@assign:

; 121  :         _CSTD memmove(_First1, _First2, _Count * sizeof(_Elem));

  0001f	53		 push	 ebx
  00020	ff 75 08	 push	 DWORD PTR __Ptr$[ebp]

; 3213 :             _Elem* const _Old_ptr   = _Mypair._Myval2._Myptr();
; 3214 :             _Mypair._Myval2._Mysize = _Count;

  00023	89 5e 10	 mov	 DWORD PTR [esi+16], ebx

; 121  :         _CSTD memmove(_First1, _First2, _Count * sizeof(_Elem));

  00026	57		 push	 edi
  00027	e8 00 00 00 00	 call	 _memmove
  0002c	83 c4 0c	 add	 esp, 12			; 0000000cH

; 3215 :             _Traits::move(_Old_ptr, _Ptr, _Count);
; 3216 :             _Traits::assign(_Old_ptr[_Count], _Elem());

  0002f	c6 04 1f 00	 mov	 BYTE PTR [edi+ebx], 0

; 3225 :             },
; 3226 :             _Ptr);
; 3227 :     }

  00033	8b c6		 mov	 eax, esi
  00035	5f		 pop	 edi
  00036	5e		 pop	 esi
  00037	5b		 pop	 ebx
  00038	8b e5		 mov	 esp, ebp
  0003a	5d		 pop	 ebp
  0003b	c2 08 00	 ret	 8
$LN2@assign:

; 4474 :         if (_New_size > max_size()) {

  0003e	81 fb ff ff ff
	7f		 cmp	 ebx, 2147483647		; 7fffffffH
  00044	0f 87 d4 00 00
	00		 ja	 $LN60@assign

; 4454 :         const size_type _Masked = _Requested | _ALLOC_MASK;

  0004a	8b fb		 mov	 edi, ebx
  0004c	83 cf 0f	 or	 edi, 15			; 0000000fH
  0004f	81 ff ff ff ff
	7f		 cmp	 edi, 2147483647		; 7fffffffH

; 4455 :         if (_Masked > _Max) { // the mask overflows, settle for max_size()

  00055	76 15		 jbe	 SHORT $LN19@assign

; 4456 :             return _Max;

  00057	b8 00 00 00 80	 mov	 eax, -2147483648	; 80000000H
  0005c	bf ff ff ff 7f	 mov	 edi, 2147483647		; 7fffffffH
; File D:\visual studio 2019\visual studio 2019\VC\Tools\MSVC\14.29.30133\include\xmemory

; 229  :             return _Allocate_manually_vector_aligned<_Traits>(_Bytes);

  00061	50		 push	 eax
  00062	e8 00 00 00 00	 call	 ??$_Allocate_manually_vector_aligned@U_Default_allocate_traits@std@@@std@@YAPAXI@Z ; std::_Allocate_manually_vector_aligned<std::_Default_allocate_traits>
  00067	83 c4 04	 add	 esp, 4
  0006a	eb 52		 jmp	 SHORT $LN58@assign
$LN19@assign:
; File D:\visual studio 2019\visual studio 2019\VC\Tools\MSVC\14.29.30133\include\xstring

; 4459 :         if (_Old > _Max - _Old / 2) { // similarly, geometric overflows

  0006c	8b d1		 mov	 edx, ecx
  0006e	b8 ff ff ff 7f	 mov	 eax, 2147483647		; 7fffffffH
  00073	d1 ea		 shr	 edx, 1
  00075	2b c2		 sub	 eax, edx
  00077	3b c8		 cmp	 ecx, eax
  00079	76 15		 jbe	 SHORT $LN20@assign

; 4460 :             return _Max;

  0007b	b8 00 00 00 80	 mov	 eax, -2147483648	; 80000000H
  00080	bf ff ff ff 7f	 mov	 edi, 2147483647		; 7fffffffH
; File D:\visual studio 2019\visual studio 2019\VC\Tools\MSVC\14.29.30133\include\xmemory

; 229  :             return _Allocate_manually_vector_aligned<_Traits>(_Bytes);

  00085	50		 push	 eax
  00086	e8 00 00 00 00	 call	 ??$_Allocate_manually_vector_aligned@U_Default_allocate_traits@std@@@std@@YAPAXI@Z ; std::_Allocate_manually_vector_aligned<std::_Default_allocate_traits>
  0008b	83 c4 04	 add	 esp, 4
  0008e	eb 2e		 jmp	 SHORT $LN58@assign
$LN20@assign:
; File D:\visual studio 2019\visual studio 2019\VC\Tools\MSVC\14.29.30133\include\xstring

; 4463 :         return (_STD max)(_Masked, _Old + _Old / 2);

  00090	8d 04 0a	 lea	 eax, DWORD PTR [edx+ecx]
; File D:\visual studio 2019\visual studio 2019\VC\Tools\MSVC\14.29.30133\include\utility

; 43   :     return _Left < _Right ? _Right : _Left;

  00093	3b f8		 cmp	 edi, eax
  00095	0f 42 f8	 cmovb	 edi, eax
; File D:\visual studio 2019\visual studio 2019\VC\Tools\MSVC\14.29.30133\include\xstring

; 4481 :         const pointer _New_ptr        = _Al.allocate(_New_capacity + 1); // throws

  00098	8d 47 01	 lea	 eax, DWORD PTR [edi+1]
; File D:\visual studio 2019\visual studio 2019\VC\Tools\MSVC\14.29.30133\include\xmemory

; 228  :         if (_Bytes >= _Big_allocation_threshold) { // boost the alignment of big allocations to help autovectorization

  0009b	3d 00 10 00 00	 cmp	 eax, 4096		; 00001000H
  000a0	72 0b		 jb	 SHORT $LN27@assign

; 229  :             return _Allocate_manually_vector_aligned<_Traits>(_Bytes);

  000a2	50		 push	 eax
  000a3	e8 00 00 00 00	 call	 ??$_Allocate_manually_vector_aligned@U_Default_allocate_traits@std@@@std@@YAPAXI@Z ; std::_Allocate_manually_vector_aligned<std::_Default_allocate_traits>
  000a8	83 c4 04	 add	 esp, 4
  000ab	eb 11		 jmp	 SHORT $LN58@assign
$LN27@assign:

; 230  :         }
; 231  :     }
; 232  : #endif // defined(_M_IX86) || defined(_M_X64)
; 233  : 
; 234  :     if (_Bytes != 0) {

  000ad	85 c0		 test	 eax, eax
  000af	74 0b		 je	 SHORT $LN28@assign

; 79   :         return ::operator new(_Bytes);

  000b1	50		 push	 eax
  000b2	e8 00 00 00 00	 call	 ??2@YAPAXI@Z		; operator new
  000b7	83 c4 04	 add	 esp, 4

; 235  :         return _Traits::_Allocate(_Bytes);

  000ba	eb 02		 jmp	 SHORT $LN58@assign
$LN28@assign:

; 236  :     }
; 237  : 
; 238  :     return nullptr;

  000bc	33 c0		 xor	 eax, eax
$LN58@assign:
; File D:\visual studio 2019\visual studio 2019\VC\Tools\MSVC\14.29.30133\include\xstring

; 64   :         _CSTD memcpy(_First1, _First2, _Count * sizeof(_Elem));

  000be	53		 push	 ebx
  000bf	ff 75 08	 push	 DWORD PTR __Ptr$[ebp]

; 4489 :         _Mypair._Myval2._Mysize = _New_size;

  000c2	89 45 0c	 mov	 DWORD PTR $T1[ebp], eax

; 64   :         _CSTD memcpy(_First1, _First2, _Count * sizeof(_Elem));

  000c5	50		 push	 eax

; 4489 :         _Mypair._Myval2._Mysize = _New_size;

  000c6	89 5e 10	 mov	 DWORD PTR [esi+16], ebx

; 4490 :         _Mypair._Myval2._Myres  = _New_capacity;

  000c9	89 7e 14	 mov	 DWORD PTR [esi+20], edi

; 64   :         _CSTD memcpy(_First1, _First2, _Count * sizeof(_Elem));

  000cc	e8 00 00 00 00	 call	 _memcpy

; 3224 :                 _Traits::assign(_New_ptr[_Count], _Elem());

  000d1	8b 7d 0c	 mov	 edi, DWORD PTR $T1[ebp]

; 64   :         _CSTD memcpy(_First1, _First2, _Count * sizeof(_Elem));

  000d4	83 c4 0c	 add	 esp, 12			; 0000000cH

; 4492 :         if (_BUF_SIZE <= _Old_capacity) {

  000d7	8b 45 fc	 mov	 eax, DWORD PTR __Old$1$[ebp]

; 3224 :                 _Traits::assign(_New_ptr[_Count], _Elem());

  000da	c6 04 1f 00	 mov	 BYTE PTR [edi+ebx], 0

; 4492 :         if (_BUF_SIZE <= _Old_capacity) {

  000de	83 f8 10	 cmp	 eax, 16			; 00000010H
  000e1	72 29		 jb	 SHORT $LN13@assign

; 4493 :             _Al.deallocate(_Mypair._Myval2._Bx._Ptr, _Old_capacity + 1);

  000e3	8d 48 01	 lea	 ecx, DWORD PTR [eax+1]
; File D:\visual studio 2019\visual studio 2019\VC\Tools\MSVC\14.29.30133\include\xmemory

; 797  :         _Deallocate<_New_alignof<_Ty>>(_Ptr, sizeof(_Ty) * _Count);

  000e6	8b 06		 mov	 eax, DWORD PTR [esi]

; 251  :         if (_Bytes >= _Big_allocation_threshold) { // boost the alignment of big allocations to help autovectorization

  000e8	81 f9 00 10 00
	00		 cmp	 ecx, 4096		; 00001000H
  000ee	72 12		 jb	 SHORT $LN50@assign

; 150  :     const uintptr_t _Ptr_container   = _Ptr_user[-1];

  000f0	8b 50 fc	 mov	 edx, DWORD PTR [eax-4]
  000f3	83 c1 23	 add	 ecx, 35			; 00000023H

; 151  : 
; 152  :     // If the following asserts, it likely means that we are performing
; 153  :     // an aligned delete on memory coming from an unaligned allocation.
; 154  :     _STL_ASSERT(_Ptr_user[-2] == _Big_allocation_sentinel, "invalid argument");
; 155  : 
; 156  :     // Extra paranoia on aligned allocation/deallocation; ensure _Ptr_container is
; 157  :     // in range [_Min_back_shift, _Non_user_size]
; 158  : #ifdef _DEBUG
; 159  :     constexpr uintptr_t _Min_back_shift = 2 * sizeof(void*);
; 160  : #else // ^^^ _DEBUG ^^^ // vvv !_DEBUG vvv
; 161  :     constexpr uintptr_t _Min_back_shift = sizeof(void*);
; 162  : #endif // _DEBUG
; 163  :     const uintptr_t _Back_shift = reinterpret_cast<uintptr_t>(_Ptr) - _Ptr_container;

  000f6	2b c2		 sub	 eax, edx

; 164  :     _STL_VERIFY(_Back_shift >= _Min_back_shift && _Back_shift <= _Non_user_size, "invalid argument");

  000f8	83 c0 fc	 add	 eax, -4			; fffffffcH
  000fb	83 f8 1f	 cmp	 eax, 31			; 0000001fH
  000fe	77 19		 ja	 SHORT $LN47@assign

; 165  :     _Ptr = reinterpret_cast<void*>(_Ptr_container);

  00100	8b c2		 mov	 eax, edx
$LN50@assign:

; 255  :         ::operator delete(_Ptr, _Bytes);

  00102	51		 push	 ecx
  00103	50		 push	 eax
  00104	e8 00 00 00 00	 call	 ??3@YAXPAXI@Z		; operator delete
  00109	83 c4 08	 add	 esp, 8
$LN13@assign:
; File D:\visual studio 2019\visual studio 2019\VC\Tools\MSVC\14.29.30133\include\xstring

; 3220 :         return _Reallocate_for(

  0010c	89 3e		 mov	 DWORD PTR [esi], edi

; 3225 :             },
; 3226 :             _Ptr);
; 3227 :     }

  0010e	8b c6		 mov	 eax, esi
  00110	5f		 pop	 edi
  00111	5e		 pop	 esi
  00112	5b		 pop	 ebx
  00113	8b e5		 mov	 esp, ebp
  00115	5d		 pop	 ebp
  00116	c2 08 00	 ret	 8
$LN47@assign:
; File D:\visual studio 2019\visual studio 2019\VC\Tools\MSVC\14.29.30133\include\xmemory

; 164  :     _STL_VERIFY(_Back_shift >= _Min_back_shift && _Back_shift <= _Non_user_size, "invalid argument");

  00119	e8 00 00 00 00	 call	 __invalid_parameter_noinfo_noreturn
$LN60@assign:
; File D:\visual studio 2019\visual studio 2019\VC\Tools\MSVC\14.29.30133\include\xstring

; 4475 :             _Xlen_string(); // result too long

  0011e	e8 00 00 00 00	 call	 ?_Xlen_string@std@@YAXXZ ; std::_Xlen_string
$LN56@assign:
  00123	cc		 int	 3
?assign@?$basic_string@DU?$char_traits@D@std@@V?$allocator@D@2@@std@@QAEAAV12@QBDI@Z ENDP ; std::basic_string<char,std::char_traits<char>,std::allocator<char> >::assign
_TEXT	ENDS
; Function compile flags: /Ogtp
; File D:\visual studio 2019\visual studio 2019\VC\Tools\MSVC\14.29.30133\include\xstring
; File D:\visual studio 2019\visual studio 2019\VC\Tools\MSVC\14.29.30133\include\xmemory
; File D:\visual studio 2019\visual studio 2019\VC\Tools\MSVC\14.29.30133\include\xstring
; File D:\visual studio 2019\visual studio 2019\VC\Tools\MSVC\14.29.30133\include\xmemory
; File D:\visual studio 2019\visual studio 2019\VC\Tools\MSVC\14.29.30133\include\xstring
; File D:\visual studio 2019\visual studio 2019\VC\Tools\MSVC\14.29.30133\include\xmemory
; File D:\visual studio 2019\visual studio 2019\VC\Tools\MSVC\14.29.30133\include\xstring
;	COMDAT ??1?$basic_string@DU?$char_traits@D@std@@V?$allocator@D@2@@std@@QAE@XZ
_TEXT	SEGMENT
??1?$basic_string@DU?$char_traits@D@std@@V?$allocator@D@2@@std@@QAE@XZ PROC ; std::basic_string<char,std::char_traits<char>,std::allocator<char> >::~basic_string<char,std::char_traits<char>,std::allocator<char> >, COMDAT
; _this$ = ecx

; 2968 :     _CONSTEXPR20_CONTAINER ~basic_string() noexcept {

  00000	56		 push	 esi
  00001	8b f1		 mov	 esi, ecx

; 2286 :         return _BUF_SIZE <= _Myres;

  00003	8b 4e 14	 mov	 ecx, DWORD PTR [esi+20]
  00006	83 f9 10	 cmp	 ecx, 16			; 00000010H

; 4584 :         if (_Mypair._Myval2._Large_string_engaged()) {

  00009	72 27		 jb	 SHORT $LN12@basic_stri
; File D:\visual studio 2019\visual studio 2019\VC\Tools\MSVC\14.29.30133\include\xmemory

; 797  :         _Deallocate<_New_alignof<_Ty>>(_Ptr, sizeof(_Ty) * _Count);

  0000b	8b 06		 mov	 eax, DWORD PTR [esi]
; File D:\visual studio 2019\visual studio 2019\VC\Tools\MSVC\14.29.30133\include\xstring

; 4588 :             _Al.deallocate(_Ptr, _Mypair._Myval2._Myres + 1);

  0000d	41		 inc	 ecx
; File D:\visual studio 2019\visual studio 2019\VC\Tools\MSVC\14.29.30133\include\xmemory

; 251  :         if (_Bytes >= _Big_allocation_threshold) { // boost the alignment of big allocations to help autovectorization

  0000e	81 f9 00 10 00
	00		 cmp	 ecx, 4096		; 00001000H
  00014	72 12		 jb	 SHORT $LN22@basic_stri

; 150  :     const uintptr_t _Ptr_container   = _Ptr_user[-1];

  00016	8b 50 fc	 mov	 edx, DWORD PTR [eax-4]
  00019	83 c1 23	 add	 ecx, 35			; 00000023H

; 151  : 
; 152  :     // If the following asserts, it likely means that we are performing
; 153  :     // an aligned delete on memory coming from an unaligned allocation.
; 154  :     _STL_ASSERT(_Ptr_user[-2] == _Big_allocation_sentinel, "invalid argument");
; 155  : 
; 156  :     // Extra paranoia on aligned allocation/deallocation; ensure _Ptr_container is
; 157  :     // in range [_Min_back_shift, _Non_user_size]
; 158  : #ifdef _DEBUG
; 159  :     constexpr uintptr_t _Min_back_shift = 2 * sizeof(void*);
; 160  : #else // ^^^ _DEBUG ^^^ // vvv !_DEBUG vvv
; 161  :     constexpr uintptr_t _Min_back_shift = sizeof(void*);
; 162  : #endif // _DEBUG
; 163  :     const uintptr_t _Back_shift = reinterpret_cast<uintptr_t>(_Ptr) - _Ptr_container;

  0001c	2b c2		 sub	 eax, edx

; 164  :     _STL_VERIFY(_Back_shift >= _Min_back_shift && _Back_shift <= _Non_user_size, "invalid argument");

  0001e	83 c0 fc	 add	 eax, -4			; fffffffcH
  00021	83 f8 1f	 cmp	 eax, 31			; 0000001fH
  00024	77 1f		 ja	 SHORT $LN19@basic_stri

; 165  :     _Ptr = reinterpret_cast<void*>(_Ptr_container);

  00026	8b c2		 mov	 eax, edx
$LN22@basic_stri:

; 255  :         ::operator delete(_Ptr, _Bytes);

  00028	51		 push	 ecx
  00029	50		 push	 eax
  0002a	e8 00 00 00 00	 call	 ??3@YAXPAXI@Z		; operator delete
  0002f	83 c4 08	 add	 esp, 8
$LN12@basic_stri:
; File D:\visual studio 2019\visual studio 2019\VC\Tools\MSVC\14.29.30133\include\xstring

; 4599 :             _Mypair._Myval2._Mysize = 0;

  00032	c7 46 10 00 00
	00 00		 mov	 DWORD PTR [esi+16], 0

; 4600 :             _Mypair._Myval2._Myres  = _BUF_SIZE - 1;

  00039	c7 46 14 0f 00
	00 00		 mov	 DWORD PTR [esi+20], 15	; 0000000fH

; 4601 :             // the _Traits::assign is last so the codegen doesn't think the char write can alias this
; 4602 :             _Traits::assign(_Mypair._Myval2._Bx._Buf[0], _Elem());

  00040	c6 06 00	 mov	 BYTE PTR [esi], 0
  00043	5e		 pop	 esi

; 2976 :     }

  00044	c3		 ret	 0
$LN19@basic_stri:
; File D:\visual studio 2019\visual studio 2019\VC\Tools\MSVC\14.29.30133\include\xmemory

; 164  :     _STL_VERIFY(_Back_shift >= _Min_back_shift && _Back_shift <= _Non_user_size, "invalid argument");

  00045	e8 00 00 00 00	 call	 __invalid_parameter_noinfo_noreturn
$LN27@basic_stri:
  0004a	cc		 int	 3
??1?$basic_string@DU?$char_traits@D@std@@V?$allocator@D@2@@std@@QAE@XZ ENDP ; std::basic_string<char,std::char_traits<char>,std::allocator<char> >::~basic_string<char,std::char_traits<char>,std::allocator<char> >
_TEXT	ENDS
; Function compile flags: /Ogtp
; File D:\visual studio 2019\visual studio 2019\VC\Tools\MSVC\14.29.30133\include\xstring
;	COMDAT ?_Xlen_string@std@@YAXXZ
_TEXT	SEGMENT
?_Xlen_string@std@@YAXXZ PROC				; std::_Xlen_string, COMDAT

; 2340 :     _Xlength_error("string too long");

  00000	68 00 00 00 00	 push	 OFFSET ??_C@_0BA@JFNIOLAK@string?5too?5long@
  00005	e8 00 00 00 00	 call	 ?_Xlength_error@std@@YAXPBD@Z ; std::_Xlength_error
$LN3@Xlen_strin:
  0000a	cc		 int	 3
?_Xlen_string@std@@YAXXZ ENDP				; std::_Xlen_string
_TEXT	ENDS
; Function compile flags: /Ogtp
; File D:\visual studio 2019\visual studio 2019\VC\Tools\MSVC\14.29.30133\include\exception
;	COMDAT ?_Throw_bad_array_new_length@std@@YAXXZ
_TEXT	SEGMENT
$T1 = -12						; size = 12
?_Throw_bad_array_new_length@std@@YAXXZ PROC		; std::_Throw_bad_array_new_length, COMDAT

; 315  : [[noreturn]] inline void _Throw_bad_array_new_length() {

  00000	55		 push	 ebp
  00001	8b ec		 mov	 ebp, esp
  00003	83 ec 0c	 sub	 esp, 12			; 0000000cH

; 316  :     _THROW(bad_array_new_length{});

  00006	8d 4d f4	 lea	 ecx, DWORD PTR $T1[ebp]
  00009	e8 00 00 00 00	 call	 ??0bad_array_new_length@std@@QAE@XZ ; std::bad_array_new_length::bad_array_new_length
  0000e	68 00 00 00 00	 push	 OFFSET __TI3?AVbad_array_new_length@std@@
  00013	8d 45 f4	 lea	 eax, DWORD PTR $T1[ebp]
  00016	50		 push	 eax
  00017	e8 00 00 00 00	 call	 __CxxThrowException@8
$LN3@Throw_bad_:
  0001c	cc		 int	 3
?_Throw_bad_array_new_length@std@@YAXXZ ENDP		; std::_Throw_bad_array_new_length
_TEXT	ENDS
; Function compile flags: /Ogtp
; File D:\visual studio 2019\visual studio 2019\VC\Tools\MSVC\14.29.30133\include\vcruntime_exception.h
;	COMDAT ??_Gbad_array_new_length@std@@UAEPAXI@Z
_TEXT	SEGMENT
___flags$ = 8						; size = 4
??_Gbad_array_new_length@std@@UAEPAXI@Z PROC		; std::bad_array_new_length::`scalar deleting destructor', COMDAT
; _this$ = ecx
  00000	55		 push	 ebp
  00001	8b ec		 mov	 ebp, esp

; 89   :     {

  00003	56		 push	 esi
  00004	8b f1		 mov	 esi, ecx

; 90   :         __std_exception_destroy(&_Data);

  00006	8d 46 04	 lea	 eax, DWORD PTR [esi+4]
  00009	c7 06 00 00 00
	00		 mov	 DWORD PTR [esi], OFFSET ??_7exception@std@@6B@
  0000f	50		 push	 eax
  00010	e8 00 00 00 00	 call	 ___std_exception_destroy
  00015	83 c4 04	 add	 esp, 4
  00018	f6 45 08 01	 test	 BYTE PTR ___flags$[ebp], 1
  0001c	74 0b		 je	 SHORT $LN12@scalar
  0001e	6a 0c		 push	 12			; 0000000cH
  00020	56		 push	 esi
  00021	e8 00 00 00 00	 call	 ??3@YAXPAXI@Z		; operator delete
  00026	83 c4 08	 add	 esp, 8
$LN12@scalar:
  00029	8b c6		 mov	 eax, esi
  0002b	5e		 pop	 esi
  0002c	5d		 pop	 ebp
  0002d	c2 04 00	 ret	 4
??_Gbad_array_new_length@std@@UAEPAXI@Z ENDP		; std::bad_array_new_length::`scalar deleting destructor'
_TEXT	ENDS
; Function compile flags: /Ogtp
; File D:\visual studio 2019\visual studio 2019\VC\Tools\MSVC\14.29.30133\include\vcruntime_exception.h
;	COMDAT ??0bad_array_new_length@std@@QAE@ABV01@@Z
_TEXT	SEGMENT
___that$ = 8						; size = 4
??0bad_array_new_length@std@@QAE@ABV01@@Z PROC		; std::bad_array_new_length::bad_array_new_length, COMDAT
; _this$ = ecx
  00000	55		 push	 ebp
  00001	8b ec		 mov	 ebp, esp

; 72   :     {

  00003	56		 push	 esi
  00004	8b f1		 mov	 esi, ecx
  00006	0f 57 c0	 xorps	 xmm0, xmm0

; 71   :         : _Data()

  00009	8d 46 04	 lea	 eax, DWORD PTR [esi+4]

; 73   :         __std_exception_copy(&_Other._Data, &_Data);

  0000c	50		 push	 eax
  0000d	c7 06 00 00 00
	00		 mov	 DWORD PTR [esi], OFFSET ??_7exception@std@@6B@
  00013	66 0f d6 00	 movq	 QWORD PTR [eax], xmm0
  00017	8b 45 08	 mov	 eax, DWORD PTR ___that$[ebp]
  0001a	83 c0 04	 add	 eax, 4
  0001d	50		 push	 eax
  0001e	e8 00 00 00 00	 call	 ___std_exception_copy
  00023	83 c4 08	 add	 esp, 8
  00026	c7 06 00 00 00
	00		 mov	 DWORD PTR [esi], OFFSET ??_7bad_array_new_length@std@@6B@
  0002c	8b c6		 mov	 eax, esi
  0002e	5e		 pop	 esi
  0002f	5d		 pop	 ebp
  00030	c2 04 00	 ret	 4
??0bad_array_new_length@std@@QAE@ABV01@@Z ENDP		; std::bad_array_new_length::bad_array_new_length
_TEXT	ENDS
; Function compile flags: /Ogtp
; File D:\visual studio 2019\visual studio 2019\VC\Tools\MSVC\14.29.30133\include\vcruntime_exception.h
;	COMDAT ??1bad_array_new_length@std@@UAE@XZ
_TEXT	SEGMENT
??1bad_array_new_length@std@@UAE@XZ PROC		; std::bad_array_new_length::~bad_array_new_length, COMDAT
; _this$ = ecx

; 90   :         __std_exception_destroy(&_Data);

  00000	8d 41 04	 lea	 eax, DWORD PTR [ecx+4]
  00003	c7 01 00 00 00
	00		 mov	 DWORD PTR [ecx], OFFSET ??_7exception@std@@6B@
  00009	50		 push	 eax
  0000a	e8 00 00 00 00	 call	 ___std_exception_destroy
  0000f	59		 pop	 ecx
  00010	c3		 ret	 0
??1bad_array_new_length@std@@UAE@XZ ENDP		; std::bad_array_new_length::~bad_array_new_length
_TEXT	ENDS
; Function compile flags: /Ogtp
; File D:\visual studio 2019\visual studio 2019\VC\Tools\MSVC\14.29.30133\include\vcruntime_exception.h
;	COMDAT ??0bad_array_new_length@std@@QAE@XZ
_TEXT	SEGMENT
??0bad_array_new_length@std@@QAE@XZ PROC		; std::bad_array_new_length::bad_array_new_length, COMDAT
; _this$ = ecx

; 141  :     {

  00000	0f 57 c0	 xorps	 xmm0, xmm0

; 142  :     }

  00003	8b c1		 mov	 eax, ecx

; 65   :         : _Data()

  00005	66 0f d6 41 04	 movq	 QWORD PTR [ecx+4], xmm0

; 66   :     {
; 67   :         _Data._What = _Message;

  0000a	c7 41 04 00 00
	00 00		 mov	 DWORD PTR [ecx+4], OFFSET ??_C@_0BF@KINCDENJ@bad?5array?5new?5length@

; 141  :     {

  00011	c7 01 00 00 00
	00		 mov	 DWORD PTR [ecx], OFFSET ??_7bad_array_new_length@std@@6B@

; 142  :     }

  00017	c3		 ret	 0
??0bad_array_new_length@std@@QAE@XZ ENDP		; std::bad_array_new_length::bad_array_new_length
_TEXT	ENDS
; Function compile flags: /Ogtp
; File D:\visual studio 2019\visual studio 2019\VC\Tools\MSVC\14.29.30133\include\vcruntime_exception.h
;	COMDAT ??_Gbad_alloc@std@@UAEPAXI@Z
_TEXT	SEGMENT
___flags$ = 8						; size = 4
??_Gbad_alloc@std@@UAEPAXI@Z PROC			; std::bad_alloc::`scalar deleting destructor', COMDAT
; _this$ = ecx
  00000	55		 push	 ebp
  00001	8b ec		 mov	 ebp, esp

; 89   :     {

  00003	56		 push	 esi
  00004	8b f1		 mov	 esi, ecx

; 90   :         __std_exception_destroy(&_Data);

  00006	8d 46 04	 lea	 eax, DWORD PTR [esi+4]
  00009	c7 06 00 00 00
	00		 mov	 DWORD PTR [esi], OFFSET ??_7exception@std@@6B@
  0000f	50		 push	 eax
  00010	e8 00 00 00 00	 call	 ___std_exception_destroy
  00015	83 c4 04	 add	 esp, 4
  00018	f6 45 08 01	 test	 BYTE PTR ___flags$[ebp], 1
  0001c	74 0b		 je	 SHORT $LN9@scalar
  0001e	6a 0c		 push	 12			; 0000000cH
  00020	56		 push	 esi
  00021	e8 00 00 00 00	 call	 ??3@YAXPAXI@Z		; operator delete
  00026	83 c4 08	 add	 esp, 8
$LN9@scalar:
  00029	8b c6		 mov	 eax, esi
  0002b	5e		 pop	 esi
  0002c	5d		 pop	 ebp
  0002d	c2 04 00	 ret	 4
??_Gbad_alloc@std@@UAEPAXI@Z ENDP			; std::bad_alloc::`scalar deleting destructor'
_TEXT	ENDS
; Function compile flags: /Ogtp
; File D:\visual studio 2019\visual studio 2019\VC\Tools\MSVC\14.29.30133\include\vcruntime_exception.h
;	COMDAT ??0bad_alloc@std@@QAE@ABV01@@Z
_TEXT	SEGMENT
___that$ = 8						; size = 4
??0bad_alloc@std@@QAE@ABV01@@Z PROC			; std::bad_alloc::bad_alloc, COMDAT
; _this$ = ecx
  00000	55		 push	 ebp
  00001	8b ec		 mov	 ebp, esp

; 72   :     {

  00003	56		 push	 esi
  00004	8b f1		 mov	 esi, ecx
  00006	0f 57 c0	 xorps	 xmm0, xmm0

; 71   :         : _Data()

  00009	8d 46 04	 lea	 eax, DWORD PTR [esi+4]

; 73   :         __std_exception_copy(&_Other._Data, &_Data);

  0000c	50		 push	 eax
  0000d	c7 06 00 00 00
	00		 mov	 DWORD PTR [esi], OFFSET ??_7exception@std@@6B@
  00013	66 0f d6 00	 movq	 QWORD PTR [eax], xmm0
  00017	8b 45 08	 mov	 eax, DWORD PTR ___that$[ebp]
  0001a	83 c0 04	 add	 eax, 4
  0001d	50		 push	 eax
  0001e	e8 00 00 00 00	 call	 ___std_exception_copy
  00023	83 c4 08	 add	 esp, 8
  00026	c7 06 00 00 00
	00		 mov	 DWORD PTR [esi], OFFSET ??_7bad_alloc@std@@6B@
  0002c	8b c6		 mov	 eax, esi
  0002e	5e		 pop	 esi
  0002f	5d		 pop	 ebp
  00030	c2 04 00	 ret	 4
??0bad_alloc@std@@QAE@ABV01@@Z ENDP			; std::bad_alloc::bad_alloc
_TEXT	ENDS
; Function compile flags: /Ogtp
; File D:\visual studio 2019\visual studio 2019\VC\Tools\MSVC\14.29.30133\include\vcruntime_exception.h
;	COMDAT ??_Gexception@std@@UAEPAXI@Z
_TEXT	SEGMENT
___flags$ = 8						; size = 4
??_Gexception@std@@UAEPAXI@Z PROC			; std::exception::`scalar deleting destructor', COMDAT
; _this$ = ecx
  00000	55		 push	 ebp
  00001	8b ec		 mov	 ebp, esp

; 89   :     {

  00003	56		 push	 esi
  00004	8b f1		 mov	 esi, ecx

; 90   :         __std_exception_destroy(&_Data);

  00006	8d 46 04	 lea	 eax, DWORD PTR [esi+4]
  00009	c7 06 00 00 00
	00		 mov	 DWORD PTR [esi], OFFSET ??_7exception@std@@6B@
  0000f	50		 push	 eax
  00010	e8 00 00 00 00	 call	 ___std_exception_destroy
  00015	83 c4 04	 add	 esp, 4
  00018	f6 45 08 01	 test	 BYTE PTR ___flags$[ebp], 1
  0001c	74 0b		 je	 SHORT $LN6@scalar
  0001e	6a 0c		 push	 12			; 0000000cH
  00020	56		 push	 esi
  00021	e8 00 00 00 00	 call	 ??3@YAXPAXI@Z		; operator delete
  00026	83 c4 08	 add	 esp, 8
$LN6@scalar:
  00029	8b c6		 mov	 eax, esi
  0002b	5e		 pop	 esi
  0002c	5d		 pop	 ebp
  0002d	c2 04 00	 ret	 4
??_Gexception@std@@UAEPAXI@Z ENDP			; std::exception::`scalar deleting destructor'
_TEXT	ENDS
; Function compile flags: /Ogtp
; File D:\visual studio 2019\visual studio 2019\VC\Tools\MSVC\14.29.30133\include\vcruntime_exception.h
;	COMDAT ?what@exception@std@@UBEPBDXZ
_TEXT	SEGMENT
?what@exception@std@@UBEPBDXZ PROC			; std::exception::what, COMDAT
; _this$ = ecx

; 95   :         return _Data._What ? _Data._What : "Unknown exception";

  00000	8b 49 04	 mov	 ecx, DWORD PTR [ecx+4]
  00003	b8 00 00 00 00	 mov	 eax, OFFSET ??_C@_0BC@EOODALEL@Unknown?5exception@
  00008	85 c9		 test	 ecx, ecx
  0000a	0f 45 c1	 cmovne	 eax, ecx

; 96   :     }

  0000d	c3		 ret	 0
?what@exception@std@@UBEPBDXZ ENDP			; std::exception::what
_TEXT	ENDS
; Function compile flags: /Ogtp
; File D:\visual studio 2019\visual studio 2019\VC\Tools\MSVC\14.29.30133\include\vcruntime_exception.h
;	COMDAT ??1exception@std@@UAE@XZ
_TEXT	SEGMENT
??1exception@std@@UAE@XZ PROC				; std::exception::~exception, COMDAT
; _this$ = ecx

; 90   :         __std_exception_destroy(&_Data);

  00000	8d 41 04	 lea	 eax, DWORD PTR [ecx+4]
  00003	c7 01 00 00 00
	00		 mov	 DWORD PTR [ecx], OFFSET ??_7exception@std@@6B@
  00009	50		 push	 eax
  0000a	e8 00 00 00 00	 call	 ___std_exception_destroy
  0000f	59		 pop	 ecx

; 91   :     }

  00010	c3		 ret	 0
??1exception@std@@UAE@XZ ENDP				; std::exception::~exception
_TEXT	ENDS
; Function compile flags: /Ogtp
; File D:\visual studio 2019\visual studio 2019\VC\Tools\MSVC\14.29.30133\include\vcruntime_exception.h
;	COMDAT ??0exception@std@@QAE@ABV01@@Z
_TEXT	SEGMENT
__Other$ = 8						; size = 4
??0exception@std@@QAE@ABV01@@Z PROC			; std::exception::exception, COMDAT
; _this$ = ecx

; 72   :     {

  00000	55		 push	 ebp
  00001	8b ec		 mov	 ebp, esp
  00003	56		 push	 esi
  00004	8b f1		 mov	 esi, ecx
  00006	0f 57 c0	 xorps	 xmm0, xmm0
  00009	8d 46 04	 lea	 eax, DWORD PTR [esi+4]

; 73   :         __std_exception_copy(&_Other._Data, &_Data);

  0000c	50		 push	 eax
  0000d	c7 06 00 00 00
	00		 mov	 DWORD PTR [esi], OFFSET ??_7exception@std@@6B@
  00013	66 0f d6 00	 movq	 QWORD PTR [eax], xmm0
  00017	8b 45 08	 mov	 eax, DWORD PTR __Other$[ebp]
  0001a	83 c0 04	 add	 eax, 4
  0001d	50		 push	 eax
  0001e	e8 00 00 00 00	 call	 ___std_exception_copy
  00023	83 c4 08	 add	 esp, 8

; 74   :     }

  00026	8b c6		 mov	 eax, esi
  00028	5e		 pop	 esi
  00029	5d		 pop	 ebp
  0002a	c2 04 00	 ret	 4
??0exception@std@@QAE@ABV01@@Z ENDP			; std::exception::exception
_TEXT	ENDS
; Function compile flags: /Ogtp
; File D:\Windows Kits\10\Include\10.0.19041.0\ucrt\stdio.h
;	COMDAT __snprintf
_TEXT	SEGMENT
__Buffer$ = 8						; size = 4
__BufferCount$ = 12					; size = 4
__Format$ = 16						; size = 4
__snprintf PROC						; COMDAT

; 1947 :     {

  00000	55		 push	 ebp
  00001	8b ec		 mov	 ebp, esp

; 1392 :         int const _Result = __stdio_common_vsprintf(

  00003	8d 45 14	 lea	 eax, DWORD PTR __Format$[ebp+4]
  00006	50		 push	 eax
  00007	6a 00		 push	 0
  00009	ff 75 10	 push	 DWORD PTR __Format$[ebp]
  0000c	ff 75 0c	 push	 DWORD PTR __BufferCount$[ebp]
  0000f	ff 75 08	 push	 DWORD PTR __Buffer$[ebp]
  00012	e8 00 00 00 00	 call	 ___local_stdio_printf_options
  00017	8b 08		 mov	 ecx, DWORD PTR [eax]
  00019	ff 70 04	 push	 DWORD PTR [eax+4]
  0001c	83 c9 01	 or	 ecx, 1
  0001f	51		 push	 ecx
  00020	e8 00 00 00 00	 call	 ___stdio_common_vsprintf

; 1393 :             _CRT_INTERNAL_LOCAL_PRINTF_OPTIONS | _CRT_INTERNAL_PRINTF_LEGACY_VSPRINTF_NULL_TERMINATION,
; 1394 :             _Buffer, _BufferCount, _Format, _Locale, _ArgList);
; 1395 : 
; 1396 :         return _Result < 0 ? -1 : _Result;

  00025	83 c9 ff	 or	 ecx, -1
  00028	83 c4 1c	 add	 esp, 28			; 0000001cH
  0002b	85 c0		 test	 eax, eax
  0002d	0f 48 c1	 cmovs	 eax, ecx

; 1948 :         int _Result;
; 1949 :         va_list _ArgList;
; 1950 :         __crt_va_start(_ArgList, _Format);
; 1951 :         _Result = _vsnprintf(_Buffer, _BufferCount, _Format, _ArgList);
; 1952 :         __crt_va_end(_ArgList);
; 1953 :         return _Result;
; 1954 :     }

  00030	5d		 pop	 ebp
  00031	c3		 ret	 0
__snprintf ENDP
_TEXT	ENDS
; Function compile flags: /Ogtp
; File D:\Windows Kits\10\Include\10.0.19041.0\ucrt\stdio.h
;	COMDAT _sprintf
_TEXT	SEGMENT
__Buffer$ = 8						; size = 4
__Format$ = 12						; size = 4
_sprintf PROC						; COMDAT

; 1771 :     {

  00000	55		 push	 ebp
  00001	8b ec		 mov	 ebp, esp

; 1392 :         int const _Result = __stdio_common_vsprintf(

  00003	8d 45 10	 lea	 eax, DWORD PTR __Format$[ebp+4]
  00006	50		 push	 eax
  00007	6a 00		 push	 0
  00009	ff 75 0c	 push	 DWORD PTR __Format$[ebp]
  0000c	6a ff		 push	 -1
  0000e	ff 75 08	 push	 DWORD PTR __Buffer$[ebp]
  00011	e8 00 00 00 00	 call	 ___local_stdio_printf_options
  00016	8b 08		 mov	 ecx, DWORD PTR [eax]
  00018	ff 70 04	 push	 DWORD PTR [eax+4]
  0001b	83 c9 01	 or	 ecx, 1
  0001e	51		 push	 ecx
  0001f	e8 00 00 00 00	 call	 ___stdio_common_vsprintf

; 1393 :             _CRT_INTERNAL_LOCAL_PRINTF_OPTIONS | _CRT_INTERNAL_PRINTF_LEGACY_VSPRINTF_NULL_TERMINATION,
; 1394 :             _Buffer, _BufferCount, _Format, _Locale, _ArgList);
; 1395 : 
; 1396 :         return _Result < 0 ? -1 : _Result;

  00024	83 c9 ff	 or	 ecx, -1
  00027	83 c4 1c	 add	 esp, 28			; 0000001cH
  0002a	85 c0		 test	 eax, eax
  0002c	0f 48 c1	 cmovs	 eax, ecx

; 1772 :         int _Result;
; 1773 :         va_list _ArgList;
; 1774 :         __crt_va_start(_ArgList, _Format);
; 1775 : 
; 1776 :         _Result = _vsprintf_l(_Buffer, _Format, NULL, _ArgList);
; 1777 : 
; 1778 :         __crt_va_end(_ArgList);
; 1779 :         return _Result;
; 1780 :     }

  0002f	5d		 pop	 ebp
  00030	c3		 ret	 0
_sprintf ENDP
_TEXT	ENDS
; Function compile flags: /Ogtp
; File D:\Windows Kits\10\Include\10.0.19041.0\ucrt\corecrt_stdio_config.h
;	COMDAT ___local_stdio_printf_options
_TEXT	SEGMENT
___local_stdio_printf_options PROC			; COMDAT

; 91   :         static unsigned __int64 _OptionsStorage;
; 92   :         return &_OptionsStorage;

  00000	b8 00 00 00 00	 mov	 eax, OFFSET ?_OptionsStorage@?1??__local_stdio_printf_options@@9@4_KA ; `__local_stdio_printf_options'::`2'::_OptionsStorage

; 93   :     }

  00005	c3		 ret	 0
___local_stdio_printf_options ENDP
_TEXT	ENDS
END
