; Listing generated by Microsoft (R) Optimizing Compiler Version 19.29.30151.0 

	TITLE	C:\Users\ALEXANDER\Desktop\Cliente\COPY_FISH_WON_NEW\Binario\Client\GameLib\Distribute\ItemData.obj
	.686P
	.XMM
	include listing.inc
	.model	flat

INCLUDELIB LIBCMT
INCLUDELIB OLDNAMES

PUBLIC	??_7?$CDynamicPool@VCItemData@@@@6B@		; CDynamicPool<CItemData>::`vftable'
PUBLIC	??_G?$CDynamicPool@VCItemData@@@@UAEPAXI@Z	; CDynamicPool<CItemData>::`scalar deleting destructor'
PUBLIC	??_7?$CDynamicPoolEx@VCRotationDecorator@NEffectUpdateDecorator@@@@6B@ ; CDynamicPoolEx<NEffectUpdateDecorator::CRotationDecorator>::`vftable'
PUBLIC	??_G?$CDynamicPoolEx@VCRotationDecorator@NEffectUpdateDecorator@@@@UAEPAXI@Z ; CDynamicPoolEx<NEffectUpdateDecorator::CRotationDecorator>::`scalar deleting destructor'
PUBLIC	??_7?$CDynamicPoolEx@VCGravityDecorator@NEffectUpdateDecorator@@@@6B@ ; CDynamicPoolEx<NEffectUpdateDecorator::CGravityDecorator>::`vftable'
PUBLIC	??_G?$CDynamicPoolEx@VCGravityDecorator@NEffectUpdateDecorator@@@@UAEPAXI@Z ; CDynamicPoolEx<NEffectUpdateDecorator::CGravityDecorator>::`scalar deleting destructor'
PUBLIC	??_7?$CDynamicPoolEx@VCAirResistanceDecorator@NEffectUpdateDecorator@@@@6B@ ; CDynamicPoolEx<NEffectUpdateDecorator::CAirResistanceDecorator>::`vftable'
PUBLIC	??_G?$CDynamicPoolEx@VCAirResistanceDecorator@NEffectUpdateDecorator@@@@UAEPAXI@Z ; CDynamicPoolEx<NEffectUpdateDecorator::CAirResistanceDecorator>::`scalar deleting destructor'
PUBLIC	??_7?$CDynamicPoolEx@VCTextureAnimationRandomDecorator@NEffectUpdateDecorator@@@@6B@ ; CDynamicPoolEx<NEffectUpdateDecorator::CTextureAnimationRandomDecorator>::`vftable'
PUBLIC	??_G?$CDynamicPoolEx@VCTextureAnimationRandomDecorator@NEffectUpdateDecorator@@@@UAEPAXI@Z ; CDynamicPoolEx<NEffectUpdateDecorator::CTextureAnimationRandomDecorator>::`scalar deleting destructor'
PUBLIC	??_7?$CDynamicPoolEx@VCTextureAnimationCCWDecorator@NEffectUpdateDecorator@@@@6B@ ; CDynamicPoolEx<NEffectUpdateDecorator::CTextureAnimationCCWDecorator>::`vftable'
PUBLIC	??_G?$CDynamicPoolEx@VCTextureAnimationCCWDecorator@NEffectUpdateDecorator@@@@UAEPAXI@Z ; CDynamicPoolEx<NEffectUpdateDecorator::CTextureAnimationCCWDecorator>::`scalar deleting destructor'
PUBLIC	??_R4?$CDynamicPoolEx@VCHeaderDecorator@NEffectUpdateDecorator@@@@6B@ ; CDynamicPoolEx<NEffectUpdateDecorator::CHeaderDecorator>::`RTTI Complete Object Locator'
PUBLIC	??_R0?AV?$CDynamicPoolEx@VCHeaderDecorator@NEffectUpdateDecorator@@@@@8 ; CDynamicPoolEx<NEffectUpdateDecorator::CHeaderDecorator> `RTTI Type Descriptor'
PUBLIC	??_R3?$CDynamicPoolEx@VCHeaderDecorator@NEffectUpdateDecorator@@@@8 ; CDynamicPoolEx<NEffectUpdateDecorator::CHeaderDecorator>::`RTTI Class Hierarchy Descriptor'
PUBLIC	??_R2?$CDynamicPoolEx@VCHeaderDecorator@NEffectUpdateDecorator@@@@8 ; CDynamicPoolEx<NEffectUpdateDecorator::CHeaderDecorator>::`RTTI Base Class Array'
PUBLIC	??_R1A@?0A@EA@?$CDynamicPoolEx@VCHeaderDecorator@NEffectUpdateDecorator@@@@8 ; CDynamicPoolEx<NEffectUpdateDecorator::CHeaderDecorator>::`RTTI Base Class Descriptor at (0,-1,0,64)'
PUBLIC	??_R4?$CDynamicPoolEx@VCNullDecorator@NEffectUpdateDecorator@@@@6B@ ; CDynamicPoolEx<NEffectUpdateDecorator::CNullDecorator>::`RTTI Complete Object Locator'
PUBLIC	??_R0?AV?$CDynamicPoolEx@VCNullDecorator@NEffectUpdateDecorator@@@@@8 ; CDynamicPoolEx<NEffectUpdateDecorator::CNullDecorator> `RTTI Type Descriptor'
PUBLIC	??_R3?$CDynamicPoolEx@VCNullDecorator@NEffectUpdateDecorator@@@@8 ; CDynamicPoolEx<NEffectUpdateDecorator::CNullDecorator>::`RTTI Class Hierarchy Descriptor'
PUBLIC	??_R2?$CDynamicPoolEx@VCNullDecorator@NEffectUpdateDecorator@@@@8 ; CDynamicPoolEx<NEffectUpdateDecorator::CNullDecorator>::`RTTI Base Class Array'
PUBLIC	??_R1A@?0A@EA@?$CDynamicPoolEx@VCNullDecorator@NEffectUpdateDecorator@@@@8 ; CDynamicPoolEx<NEffectUpdateDecorator::CNullDecorator>::`RTTI Base Class Descriptor at (0,-1,0,64)'
PUBLIC	??_7?$CDynamicPoolEx@VCTextureAnimationCWDecorator@NEffectUpdateDecorator@@@@6B@ ; CDynamicPoolEx<NEffectUpdateDecorator::CTextureAnimationCWDecorator>::`vftable'
PUBLIC	??_G?$CDynamicPoolEx@VCTextureAnimationCWDecorator@NEffectUpdateDecorator@@@@UAEPAXI@Z ; CDynamicPoolEx<NEffectUpdateDecorator::CTextureAnimationCWDecorator>::`scalar deleting destructor'
PUBLIC	??_R4?$CDynamicPoolEx@VCTextureAnimationCWDecorator@NEffectUpdateDecorator@@@@6B@ ; CDynamicPoolEx<NEffectUpdateDecorator::CTextureAnimationCWDecorator>::`RTTI Complete Object Locator'
PUBLIC	??_R0?AV?$CDynamicPoolEx@VCTextureAnimationCWDecorator@NEffectUpdateDecorator@@@@@8 ; CDynamicPoolEx<NEffectUpdateDecorator::CTextureAnimationCWDecorator> `RTTI Type Descriptor'
PUBLIC	??_R3?$CDynamicPoolEx@VCTextureAnimationCWDecorator@NEffectUpdateDecorator@@@@8 ; CDynamicPoolEx<NEffectUpdateDecorator::CTextureAnimationCWDecorator>::`RTTI Class Hierarchy Descriptor'
PUBLIC	??_R2?$CDynamicPoolEx@VCTextureAnimationCWDecorator@NEffectUpdateDecorator@@@@8 ; CDynamicPoolEx<NEffectUpdateDecorator::CTextureAnimationCWDecorator>::`RTTI Base Class Array'
PUBLIC	??_R1A@?0A@EA@?$CDynamicPoolEx@VCTextureAnimationCWDecorator@NEffectUpdateDecorator@@@@8 ; CDynamicPoolEx<NEffectUpdateDecorator::CTextureAnimationCWDecorator>::`RTTI Base Class Descriptor at (0,-1,0,64)'
PUBLIC	??_R4?$CDynamicPoolEx@VCTextureAnimationCCWDecorator@NEffectUpdateDecorator@@@@6B@ ; CDynamicPoolEx<NEffectUpdateDecorator::CTextureAnimationCCWDecorator>::`RTTI Complete Object Locator'
PUBLIC	??_R0?AV?$CDynamicPoolEx@VCTextureAnimationCCWDecorator@NEffectUpdateDecorator@@@@@8 ; CDynamicPoolEx<NEffectUpdateDecorator::CTextureAnimationCCWDecorator> `RTTI Type Descriptor'
PUBLIC	??_R3?$CDynamicPoolEx@VCTextureAnimationCCWDecorator@NEffectUpdateDecorator@@@@8 ; CDynamicPoolEx<NEffectUpdateDecorator::CTextureAnimationCCWDecorator>::`RTTI Class Hierarchy Descriptor'
PUBLIC	??_R2?$CDynamicPoolEx@VCTextureAnimationCCWDecorator@NEffectUpdateDecorator@@@@8 ; CDynamicPoolEx<NEffectUpdateDecorator::CTextureAnimationCCWDecorator>::`RTTI Base Class Array'
PUBLIC	??_R1A@?0A@EA@?$CDynamicPoolEx@VCTextureAnimationCCWDecorator@NEffectUpdateDecorator@@@@8 ; CDynamicPoolEx<NEffectUpdateDecorator::CTextureAnimationCCWDecorator>::`RTTI Base Class Descriptor at (0,-1,0,64)'
PUBLIC	??_R4?$CDynamicPoolEx@VCTextureAnimationRandomDecorator@NEffectUpdateDecorator@@@@6B@ ; CDynamicPoolEx<NEffectUpdateDecorator::CTextureAnimationRandomDecorator>::`RTTI Complete Object Locator'
PUBLIC	??_R0?AV?$CDynamicPoolEx@VCTextureAnimationRandomDecorator@NEffectUpdateDecorator@@@@@8 ; CDynamicPoolEx<NEffectUpdateDecorator::CTextureAnimationRandomDecorator> `RTTI Type Descriptor'
PUBLIC	??_R3?$CDynamicPoolEx@VCTextureAnimationRandomDecorator@NEffectUpdateDecorator@@@@8 ; CDynamicPoolEx<NEffectUpdateDecorator::CTextureAnimationRandomDecorator>::`RTTI Class Hierarchy Descriptor'
PUBLIC	??_R2?$CDynamicPoolEx@VCTextureAnimationRandomDecorator@NEffectUpdateDecorator@@@@8 ; CDynamicPoolEx<NEffectUpdateDecorator::CTextureAnimationRandomDecorator>::`RTTI Base Class Array'
PUBLIC	??_R1A@?0A@EA@?$CDynamicPoolEx@VCTextureAnimationRandomDecorator@NEffectUpdateDecorator@@@@8 ; CDynamicPoolEx<NEffectUpdateDecorator::CTextureAnimationRandomDecorator>::`RTTI Base Class Descriptor at (0,-1,0,64)'
PUBLIC	??_R4?$CDynamicPoolEx@VCAirResistanceDecorator@NEffectUpdateDecorator@@@@6B@ ; CDynamicPoolEx<NEffectUpdateDecorator::CAirResistanceDecorator>::`RTTI Complete Object Locator'
PUBLIC	??_R0?AV?$CDynamicPoolEx@VCAirResistanceDecorator@NEffectUpdateDecorator@@@@@8 ; CDynamicPoolEx<NEffectUpdateDecorator::CAirResistanceDecorator> `RTTI Type Descriptor'
PUBLIC	??_R3?$CDynamicPoolEx@VCAirResistanceDecorator@NEffectUpdateDecorator@@@@8 ; CDynamicPoolEx<NEffectUpdateDecorator::CAirResistanceDecorator>::`RTTI Class Hierarchy Descriptor'
PUBLIC	??_R2?$CDynamicPoolEx@VCAirResistanceDecorator@NEffectUpdateDecorator@@@@8 ; CDynamicPoolEx<NEffectUpdateDecorator::CAirResistanceDecorator>::`RTTI Base Class Array'
PUBLIC	??_R1A@?0A@EA@?$CDynamicPoolEx@VCAirResistanceDecorator@NEffectUpdateDecorator@@@@8 ; CDynamicPoolEx<NEffectUpdateDecorator::CAirResistanceDecorator>::`RTTI Base Class Descriptor at (0,-1,0,64)'
PUBLIC	??_R4?$CDynamicPoolEx@VCGravityDecorator@NEffectUpdateDecorator@@@@6B@ ; CDynamicPoolEx<NEffectUpdateDecorator::CGravityDecorator>::`RTTI Complete Object Locator'
PUBLIC	??_R0?AV?$CDynamicPoolEx@VCGravityDecorator@NEffectUpdateDecorator@@@@@8 ; CDynamicPoolEx<NEffectUpdateDecorator::CGravityDecorator> `RTTI Type Descriptor'
PUBLIC	??_R3?$CDynamicPoolEx@VCGravityDecorator@NEffectUpdateDecorator@@@@8 ; CDynamicPoolEx<NEffectUpdateDecorator::CGravityDecorator>::`RTTI Class Hierarchy Descriptor'
PUBLIC	??_R2?$CDynamicPoolEx@VCGravityDecorator@NEffectUpdateDecorator@@@@8 ; CDynamicPoolEx<NEffectUpdateDecorator::CGravityDecorator>::`RTTI Base Class Array'
PUBLIC	??_R1A@?0A@EA@?$CDynamicPoolEx@VCGravityDecorator@NEffectUpdateDecorator@@@@8 ; CDynamicPoolEx<NEffectUpdateDecorator::CGravityDecorator>::`RTTI Base Class Descriptor at (0,-1,0,64)'
PUBLIC	??_R4?$CDynamicPoolEx@VCRotationDecorator@NEffectUpdateDecorator@@@@6B@ ; CDynamicPoolEx<NEffectUpdateDecorator::CRotationDecorator>::`RTTI Complete Object Locator'
PUBLIC	??_R0?AV?$CDynamicPoolEx@VCRotationDecorator@NEffectUpdateDecorator@@@@@8 ; CDynamicPoolEx<NEffectUpdateDecorator::CRotationDecorator> `RTTI Type Descriptor'
PUBLIC	??_R3?$CDynamicPoolEx@VCRotationDecorator@NEffectUpdateDecorator@@@@8 ; CDynamicPoolEx<NEffectUpdateDecorator::CRotationDecorator>::`RTTI Class Hierarchy Descriptor'
PUBLIC	??_R2?$CDynamicPoolEx@VCRotationDecorator@NEffectUpdateDecorator@@@@8 ; CDynamicPoolEx<NEffectUpdateDecorator::CRotationDecorator>::`RTTI Base Class Array'
PUBLIC	??_R1A@?0A@EA@?$CDynamicPoolEx@VCRotationDecorator@NEffectUpdateDecorator@@@@8 ; CDynamicPoolEx<NEffectUpdateDecorator::CRotationDecorator>::`RTTI Base Class Descriptor at (0,-1,0,64)'
PUBLIC	??_R4?$CDynamicPool@VCItemData@@@@6B@		; CDynamicPool<CItemData>::`RTTI Complete Object Locator'
PUBLIC	??_R0?AV?$CDynamicPool@VCItemData@@@@@8		; CDynamicPool<CItemData> `RTTI Type Descriptor'
PUBLIC	??_R3?$CDynamicPool@VCItemData@@@@8		; CDynamicPool<CItemData>::`RTTI Class Hierarchy Descriptor'
PUBLIC	??_R2?$CDynamicPool@VCItemData@@@@8		; CDynamicPool<CItemData>::`RTTI Base Class Array'
PUBLIC	??_R1A@?0A@EA@?$CDynamicPool@VCItemData@@@@8	; CDynamicPool<CItemData>::`RTTI Base Class Descriptor at (0,-1,0,64)'
PUBLIC	??_7?$CDynamicPoolEx@VCNullDecorator@NEffectUpdateDecorator@@@@6B@ ; CDynamicPoolEx<NEffectUpdateDecorator::CNullDecorator>::`vftable'
PUBLIC	??_G?$CDynamicPoolEx@VCNullDecorator@NEffectUpdateDecorator@@@@UAEPAXI@Z ; CDynamicPoolEx<NEffectUpdateDecorator::CNullDecorator>::`scalar deleting destructor'
PUBLIC	??_7?$CDynamicPoolEx@VCHeaderDecorator@NEffectUpdateDecorator@@@@6B@ ; CDynamicPoolEx<NEffectUpdateDecorator::CHeaderDecorator>::`vftable'
PUBLIC	??_G?$CDynamicPoolEx@VCHeaderDecorator@NEffectUpdateDecorator@@@@UAEPAXI@Z ; CDynamicPoolEx<NEffectUpdateDecorator::CHeaderDecorator>::`scalar deleting destructor'
EXTRN	??_7type_info@@6B@:QWORD			; type_info::`vftable'
EXTRN	??_E?$CDynamicPool@VCItemData@@@@UAEPAXI@Z:PROC	; CDynamicPool<CItemData>::`vector deleting destructor'
EXTRN	??_E?$CDynamicPoolEx@VCRotationDecorator@NEffectUpdateDecorator@@@@UAEPAXI@Z:PROC ; CDynamicPoolEx<NEffectUpdateDecorator::CRotationDecorator>::`vector deleting destructor'
EXTRN	??_E?$CDynamicPoolEx@VCGravityDecorator@NEffectUpdateDecorator@@@@UAEPAXI@Z:PROC ; CDynamicPoolEx<NEffectUpdateDecorator::CGravityDecorator>::`vector deleting destructor'
EXTRN	??_E?$CDynamicPoolEx@VCAirResistanceDecorator@NEffectUpdateDecorator@@@@UAEPAXI@Z:PROC ; CDynamicPoolEx<NEffectUpdateDecorator::CAirResistanceDecorator>::`vector deleting destructor'
EXTRN	??_E?$CDynamicPoolEx@VCTextureAnimationRandomDecorator@NEffectUpdateDecorator@@@@UAEPAXI@Z:PROC ; CDynamicPoolEx<NEffectUpdateDecorator::CTextureAnimationRandomDecorator>::`vector deleting destructor'
EXTRN	??_E?$CDynamicPoolEx@VCTextureAnimationCCWDecorator@NEffectUpdateDecorator@@@@UAEPAXI@Z:PROC ; CDynamicPoolEx<NEffectUpdateDecorator::CTextureAnimationCCWDecorator>::`vector deleting destructor'
EXTRN	??_E?$CDynamicPoolEx@VCTextureAnimationCWDecorator@NEffectUpdateDecorator@@@@UAEPAXI@Z:PROC ; CDynamicPoolEx<NEffectUpdateDecorator::CTextureAnimationCWDecorator>::`vector deleting destructor'
EXTRN	??_E?$CDynamicPoolEx@VCNullDecorator@NEffectUpdateDecorator@@@@UAEPAXI@Z:PROC ; CDynamicPoolEx<NEffectUpdateDecorator::CNullDecorator>::`vector deleting destructor'
EXTRN	??_E?$CDynamicPoolEx@VCHeaderDecorator@NEffectUpdateDecorator@@@@UAEPAXI@Z:PROC ; CDynamicPoolEx<NEffectUpdateDecorator::CHeaderDecorator>::`vector deleting destructor'
;	COMDAT ??_7?$CDynamicPoolEx@VCHeaderDecorator@NEffectUpdateDecorator@@@@6B@
CONST	SEGMENT
??_7?$CDynamicPoolEx@VCHeaderDecorator@NEffectUpdateDecorator@@@@6B@ DD FLAT:??_R4?$CDynamicPoolEx@VCHeaderDecorator@NEffectUpdateDecorator@@@@6B@ ; CDynamicPoolEx<NEffectUpdateDecorator::CHeaderDecorator>::`vftable'
	DD	FLAT:??_E?$CDynamicPoolEx@VCHeaderDecorator@NEffectUpdateDecorator@@@@UAEPAXI@Z
CONST	ENDS
;	COMDAT ??_7?$CDynamicPoolEx@VCNullDecorator@NEffectUpdateDecorator@@@@6B@
CONST	SEGMENT
??_7?$CDynamicPoolEx@VCNullDecorator@NEffectUpdateDecorator@@@@6B@ DD FLAT:??_R4?$CDynamicPoolEx@VCNullDecorator@NEffectUpdateDecorator@@@@6B@ ; CDynamicPoolEx<NEffectUpdateDecorator::CNullDecorator>::`vftable'
	DD	FLAT:??_E?$CDynamicPoolEx@VCNullDecorator@NEffectUpdateDecorator@@@@UAEPAXI@Z
CONST	ENDS
;	COMDAT ??_R1A@?0A@EA@?$CDynamicPool@VCItemData@@@@8
rdata$r	SEGMENT
??_R1A@?0A@EA@?$CDynamicPool@VCItemData@@@@8 DD FLAT:??_R0?AV?$CDynamicPool@VCItemData@@@@@8 ; CDynamicPool<CItemData>::`RTTI Base Class Descriptor at (0,-1,0,64)'
	DD	00H
	DD	00H
	DD	0ffffffffH
	DD	00H
	DD	040H
	DD	FLAT:??_R3?$CDynamicPool@VCItemData@@@@8
rdata$r	ENDS
;	COMDAT ??_R2?$CDynamicPool@VCItemData@@@@8
rdata$r	SEGMENT
??_R2?$CDynamicPool@VCItemData@@@@8 DD FLAT:??_R1A@?0A@EA@?$CDynamicPool@VCItemData@@@@8 ; CDynamicPool<CItemData>::`RTTI Base Class Array'
rdata$r	ENDS
;	COMDAT ??_R3?$CDynamicPool@VCItemData@@@@8
rdata$r	SEGMENT
??_R3?$CDynamicPool@VCItemData@@@@8 DD 00H		; CDynamicPool<CItemData>::`RTTI Class Hierarchy Descriptor'
	DD	00H
	DD	01H
	DD	FLAT:??_R2?$CDynamicPool@VCItemData@@@@8
rdata$r	ENDS
;	COMDAT ??_R0?AV?$CDynamicPool@VCItemData@@@@@8
data$rs	SEGMENT
??_R0?AV?$CDynamicPool@VCItemData@@@@@8 DD FLAT:??_7type_info@@6B@ ; CDynamicPool<CItemData> `RTTI Type Descriptor'
	DD	00H
	DB	'.?AV?$CDynamicPool@VCItemData@@@@', 00H
data$rs	ENDS
;	COMDAT ??_R4?$CDynamicPool@VCItemData@@@@6B@
rdata$r	SEGMENT
??_R4?$CDynamicPool@VCItemData@@@@6B@ DD 00H		; CDynamicPool<CItemData>::`RTTI Complete Object Locator'
	DD	00H
	DD	00H
	DD	FLAT:??_R0?AV?$CDynamicPool@VCItemData@@@@@8
	DD	FLAT:??_R3?$CDynamicPool@VCItemData@@@@8
rdata$r	ENDS
;	COMDAT ??_R1A@?0A@EA@?$CDynamicPoolEx@VCRotationDecorator@NEffectUpdateDecorator@@@@8
rdata$r	SEGMENT
??_R1A@?0A@EA@?$CDynamicPoolEx@VCRotationDecorator@NEffectUpdateDecorator@@@@8 DD FLAT:??_R0?AV?$CDynamicPoolEx@VCRotationDecorator@NEffectUpdateDecorator@@@@@8 ; CDynamicPoolEx<NEffectUpdateDecorator::CRotationDecorator>::`RTTI Base Class Descriptor at (0,-1,0,64)'
	DD	00H
	DD	00H
	DD	0ffffffffH
	DD	00H
	DD	040H
	DD	FLAT:??_R3?$CDynamicPoolEx@VCRotationDecorator@NEffectUpdateDecorator@@@@8
rdata$r	ENDS
;	COMDAT ??_R2?$CDynamicPoolEx@VCRotationDecorator@NEffectUpdateDecorator@@@@8
rdata$r	SEGMENT
??_R2?$CDynamicPoolEx@VCRotationDecorator@NEffectUpdateDecorator@@@@8 DD FLAT:??_R1A@?0A@EA@?$CDynamicPoolEx@VCRotationDecorator@NEffectUpdateDecorator@@@@8 ; CDynamicPoolEx<NEffectUpdateDecorator::CRotationDecorator>::`RTTI Base Class Array'
rdata$r	ENDS
;	COMDAT ??_R3?$CDynamicPoolEx@VCRotationDecorator@NEffectUpdateDecorator@@@@8
rdata$r	SEGMENT
??_R3?$CDynamicPoolEx@VCRotationDecorator@NEffectUpdateDecorator@@@@8 DD 00H ; CDynamicPoolEx<NEffectUpdateDecorator::CRotationDecorator>::`RTTI Class Hierarchy Descriptor'
	DD	00H
	DD	01H
	DD	FLAT:??_R2?$CDynamicPoolEx@VCRotationDecorator@NEffectUpdateDecorator@@@@8
rdata$r	ENDS
;	COMDAT ??_R0?AV?$CDynamicPoolEx@VCRotationDecorator@NEffectUpdateDecorator@@@@@8
data$rs	SEGMENT
??_R0?AV?$CDynamicPoolEx@VCRotationDecorator@NEffectUpdateDecorator@@@@@8 DD FLAT:??_7type_info@@6B@ ; CDynamicPoolEx<NEffectUpdateDecorator::CRotationDecorator> `RTTI Type Descriptor'
	DD	00H
	DB	'.?AV?$CDynamicPoolEx@VCRotationDecorator@NEffectUpdateDe'
	DB	'corator@@@@', 00H
data$rs	ENDS
;	COMDAT ??_R4?$CDynamicPoolEx@VCRotationDecorator@NEffectUpdateDecorator@@@@6B@
rdata$r	SEGMENT
??_R4?$CDynamicPoolEx@VCRotationDecorator@NEffectUpdateDecorator@@@@6B@ DD 00H ; CDynamicPoolEx<NEffectUpdateDecorator::CRotationDecorator>::`RTTI Complete Object Locator'
	DD	00H
	DD	00H
	DD	FLAT:??_R0?AV?$CDynamicPoolEx@VCRotationDecorator@NEffectUpdateDecorator@@@@@8
	DD	FLAT:??_R3?$CDynamicPoolEx@VCRotationDecorator@NEffectUpdateDecorator@@@@8
rdata$r	ENDS
;	COMDAT ??_R1A@?0A@EA@?$CDynamicPoolEx@VCGravityDecorator@NEffectUpdateDecorator@@@@8
rdata$r	SEGMENT
??_R1A@?0A@EA@?$CDynamicPoolEx@VCGravityDecorator@NEffectUpdateDecorator@@@@8 DD FLAT:??_R0?AV?$CDynamicPoolEx@VCGravityDecorator@NEffectUpdateDecorator@@@@@8 ; CDynamicPoolEx<NEffectUpdateDecorator::CGravityDecorator>::`RTTI Base Class Descriptor at (0,-1,0,64)'
	DD	00H
	DD	00H
	DD	0ffffffffH
	DD	00H
	DD	040H
	DD	FLAT:??_R3?$CDynamicPoolEx@VCGravityDecorator@NEffectUpdateDecorator@@@@8
rdata$r	ENDS
;	COMDAT ??_R2?$CDynamicPoolEx@VCGravityDecorator@NEffectUpdateDecorator@@@@8
rdata$r	SEGMENT
??_R2?$CDynamicPoolEx@VCGravityDecorator@NEffectUpdateDecorator@@@@8 DD FLAT:??_R1A@?0A@EA@?$CDynamicPoolEx@VCGravityDecorator@NEffectUpdateDecorator@@@@8 ; CDynamicPoolEx<NEffectUpdateDecorator::CGravityDecorator>::`RTTI Base Class Array'
rdata$r	ENDS
;	COMDAT ??_R3?$CDynamicPoolEx@VCGravityDecorator@NEffectUpdateDecorator@@@@8
rdata$r	SEGMENT
??_R3?$CDynamicPoolEx@VCGravityDecorator@NEffectUpdateDecorator@@@@8 DD 00H ; CDynamicPoolEx<NEffectUpdateDecorator::CGravityDecorator>::`RTTI Class Hierarchy Descriptor'
	DD	00H
	DD	01H
	DD	FLAT:??_R2?$CDynamicPoolEx@VCGravityDecorator@NEffectUpdateDecorator@@@@8
rdata$r	ENDS
;	COMDAT ??_R0?AV?$CDynamicPoolEx@VCGravityDecorator@NEffectUpdateDecorator@@@@@8
data$rs	SEGMENT
??_R0?AV?$CDynamicPoolEx@VCGravityDecorator@NEffectUpdateDecorator@@@@@8 DD FLAT:??_7type_info@@6B@ ; CDynamicPoolEx<NEffectUpdateDecorator::CGravityDecorator> `RTTI Type Descriptor'
	DD	00H
	DB	'.?AV?$CDynamicPoolEx@VCGravityDecorator@NEffectUpdateDec'
	DB	'orator@@@@', 00H
data$rs	ENDS
;	COMDAT ??_R4?$CDynamicPoolEx@VCGravityDecorator@NEffectUpdateDecorator@@@@6B@
rdata$r	SEGMENT
??_R4?$CDynamicPoolEx@VCGravityDecorator@NEffectUpdateDecorator@@@@6B@ DD 00H ; CDynamicPoolEx<NEffectUpdateDecorator::CGravityDecorator>::`RTTI Complete Object Locator'
	DD	00H
	DD	00H
	DD	FLAT:??_R0?AV?$CDynamicPoolEx@VCGravityDecorator@NEffectUpdateDecorator@@@@@8
	DD	FLAT:??_R3?$CDynamicPoolEx@VCGravityDecorator@NEffectUpdateDecorator@@@@8
rdata$r	ENDS
;	COMDAT ??_R1A@?0A@EA@?$CDynamicPoolEx@VCAirResistanceDecorator@NEffectUpdateDecorator@@@@8
rdata$r	SEGMENT
??_R1A@?0A@EA@?$CDynamicPoolEx@VCAirResistanceDecorator@NEffectUpdateDecorator@@@@8 DD FLAT:??_R0?AV?$CDynamicPoolEx@VCAirResistanceDecorator@NEffectUpdateDecorator@@@@@8 ; CDynamicPoolEx<NEffectUpdateDecorator::CAirResistanceDecorator>::`RTTI Base Class Descriptor at (0,-1,0,64)'
	DD	00H
	DD	00H
	DD	0ffffffffH
	DD	00H
	DD	040H
	DD	FLAT:??_R3?$CDynamicPoolEx@VCAirResistanceDecorator@NEffectUpdateDecorator@@@@8
rdata$r	ENDS
;	COMDAT ??_R2?$CDynamicPoolEx@VCAirResistanceDecorator@NEffectUpdateDecorator@@@@8
rdata$r	SEGMENT
??_R2?$CDynamicPoolEx@VCAirResistanceDecorator@NEffectUpdateDecorator@@@@8 DD FLAT:??_R1A@?0A@EA@?$CDynamicPoolEx@VCAirResistanceDecorator@NEffectUpdateDecorator@@@@8 ; CDynamicPoolEx<NEffectUpdateDecorator::CAirResistanceDecorator>::`RTTI Base Class Array'
rdata$r	ENDS
;	COMDAT ??_R3?$CDynamicPoolEx@VCAirResistanceDecorator@NEffectUpdateDecorator@@@@8
rdata$r	SEGMENT
??_R3?$CDynamicPoolEx@VCAirResistanceDecorator@NEffectUpdateDecorator@@@@8 DD 00H ; CDynamicPoolEx<NEffectUpdateDecorator::CAirResistanceDecorator>::`RTTI Class Hierarchy Descriptor'
	DD	00H
	DD	01H
	DD	FLAT:??_R2?$CDynamicPoolEx@VCAirResistanceDecorator@NEffectUpdateDecorator@@@@8
rdata$r	ENDS
;	COMDAT ??_R0?AV?$CDynamicPoolEx@VCAirResistanceDecorator@NEffectUpdateDecorator@@@@@8
data$rs	SEGMENT
??_R0?AV?$CDynamicPoolEx@VCAirResistanceDecorator@NEffectUpdateDecorator@@@@@8 DD FLAT:??_7type_info@@6B@ ; CDynamicPoolEx<NEffectUpdateDecorator::CAirResistanceDecorator> `RTTI Type Descriptor'
	DD	00H
	DB	'.?AV?$CDynamicPoolEx@VCAirResistanceDecorator@NEffectUpd'
	DB	'ateDecorator@@@@', 00H
data$rs	ENDS
;	COMDAT ??_R4?$CDynamicPoolEx@VCAirResistanceDecorator@NEffectUpdateDecorator@@@@6B@
rdata$r	SEGMENT
??_R4?$CDynamicPoolEx@VCAirResistanceDecorator@NEffectUpdateDecorator@@@@6B@ DD 00H ; CDynamicPoolEx<NEffectUpdateDecorator::CAirResistanceDecorator>::`RTTI Complete Object Locator'
	DD	00H
	DD	00H
	DD	FLAT:??_R0?AV?$CDynamicPoolEx@VCAirResistanceDecorator@NEffectUpdateDecorator@@@@@8
	DD	FLAT:??_R3?$CDynamicPoolEx@VCAirResistanceDecorator@NEffectUpdateDecorator@@@@8
rdata$r	ENDS
;	COMDAT ??_R1A@?0A@EA@?$CDynamicPoolEx@VCTextureAnimationRandomDecorator@NEffectUpdateDecorator@@@@8
rdata$r	SEGMENT
??_R1A@?0A@EA@?$CDynamicPoolEx@VCTextureAnimationRandomDecorator@NEffectUpdateDecorator@@@@8 DD FLAT:??_R0?AV?$CDynamicPoolEx@VCTextureAnimationRandomDecorator@NEffectUpdateDecorator@@@@@8 ; CDynamicPoolEx<NEffectUpdateDecorator::CTextureAnimationRandomDecorator>::`RTTI Base Class Descriptor at (0,-1,0,64)'
	DD	00H
	DD	00H
	DD	0ffffffffH
	DD	00H
	DD	040H
	DD	FLAT:??_R3?$CDynamicPoolEx@VCTextureAnimationRandomDecorator@NEffectUpdateDecorator@@@@8
rdata$r	ENDS
;	COMDAT ??_R2?$CDynamicPoolEx@VCTextureAnimationRandomDecorator@NEffectUpdateDecorator@@@@8
rdata$r	SEGMENT
??_R2?$CDynamicPoolEx@VCTextureAnimationRandomDecorator@NEffectUpdateDecorator@@@@8 DD FLAT:??_R1A@?0A@EA@?$CDynamicPoolEx@VCTextureAnimationRandomDecorator@NEffectUpdateDecorator@@@@8 ; CDynamicPoolEx<NEffectUpdateDecorator::CTextureAnimationRandomDecorator>::`RTTI Base Class Array'
rdata$r	ENDS
;	COMDAT ??_R3?$CDynamicPoolEx@VCTextureAnimationRandomDecorator@NEffectUpdateDecorator@@@@8
rdata$r	SEGMENT
??_R3?$CDynamicPoolEx@VCTextureAnimationRandomDecorator@NEffectUpdateDecorator@@@@8 DD 00H ; CDynamicPoolEx<NEffectUpdateDecorator::CTextureAnimationRandomDecorator>::`RTTI Class Hierarchy Descriptor'
	DD	00H
	DD	01H
	DD	FLAT:??_R2?$CDynamicPoolEx@VCTextureAnimationRandomDecorator@NEffectUpdateDecorator@@@@8
rdata$r	ENDS
;	COMDAT ??_R0?AV?$CDynamicPoolEx@VCTextureAnimationRandomDecorator@NEffectUpdateDecorator@@@@@8
data$rs	SEGMENT
??_R0?AV?$CDynamicPoolEx@VCTextureAnimationRandomDecorator@NEffectUpdateDecorator@@@@@8 DD FLAT:??_7type_info@@6B@ ; CDynamicPoolEx<NEffectUpdateDecorator::CTextureAnimationRandomDecorator> `RTTI Type Descriptor'
	DD	00H
	DB	'.?AV?$CDynamicPoolEx@VCTextureAnimationRandomDecorator@N'
	DB	'EffectUpdateDecorator@@@@', 00H
data$rs	ENDS
;	COMDAT ??_R4?$CDynamicPoolEx@VCTextureAnimationRandomDecorator@NEffectUpdateDecorator@@@@6B@
rdata$r	SEGMENT
??_R4?$CDynamicPoolEx@VCTextureAnimationRandomDecorator@NEffectUpdateDecorator@@@@6B@ DD 00H ; CDynamicPoolEx<NEffectUpdateDecorator::CTextureAnimationRandomDecorator>::`RTTI Complete Object Locator'
	DD	00H
	DD	00H
	DD	FLAT:??_R0?AV?$CDynamicPoolEx@VCTextureAnimationRandomDecorator@NEffectUpdateDecorator@@@@@8
	DD	FLAT:??_R3?$CDynamicPoolEx@VCTextureAnimationRandomDecorator@NEffectUpdateDecorator@@@@8
rdata$r	ENDS
;	COMDAT ??_R1A@?0A@EA@?$CDynamicPoolEx@VCTextureAnimationCCWDecorator@NEffectUpdateDecorator@@@@8
rdata$r	SEGMENT
??_R1A@?0A@EA@?$CDynamicPoolEx@VCTextureAnimationCCWDecorator@NEffectUpdateDecorator@@@@8 DD FLAT:??_R0?AV?$CDynamicPoolEx@VCTextureAnimationCCWDecorator@NEffectUpdateDecorator@@@@@8 ; CDynamicPoolEx<NEffectUpdateDecorator::CTextureAnimationCCWDecorator>::`RTTI Base Class Descriptor at (0,-1,0,64)'
	DD	00H
	DD	00H
	DD	0ffffffffH
	DD	00H
	DD	040H
	DD	FLAT:??_R3?$CDynamicPoolEx@VCTextureAnimationCCWDecorator@NEffectUpdateDecorator@@@@8
rdata$r	ENDS
;	COMDAT ??_R2?$CDynamicPoolEx@VCTextureAnimationCCWDecorator@NEffectUpdateDecorator@@@@8
rdata$r	SEGMENT
??_R2?$CDynamicPoolEx@VCTextureAnimationCCWDecorator@NEffectUpdateDecorator@@@@8 DD FLAT:??_R1A@?0A@EA@?$CDynamicPoolEx@VCTextureAnimationCCWDecorator@NEffectUpdateDecorator@@@@8 ; CDynamicPoolEx<NEffectUpdateDecorator::CTextureAnimationCCWDecorator>::`RTTI Base Class Array'
rdata$r	ENDS
;	COMDAT ??_R3?$CDynamicPoolEx@VCTextureAnimationCCWDecorator@NEffectUpdateDecorator@@@@8
rdata$r	SEGMENT
??_R3?$CDynamicPoolEx@VCTextureAnimationCCWDecorator@NEffectUpdateDecorator@@@@8 DD 00H ; CDynamicPoolEx<NEffectUpdateDecorator::CTextureAnimationCCWDecorator>::`RTTI Class Hierarchy Descriptor'
	DD	00H
	DD	01H
	DD	FLAT:??_R2?$CDynamicPoolEx@VCTextureAnimationCCWDecorator@NEffectUpdateDecorator@@@@8
rdata$r	ENDS
;	COMDAT ??_R0?AV?$CDynamicPoolEx@VCTextureAnimationCCWDecorator@NEffectUpdateDecorator@@@@@8
data$rs	SEGMENT
??_R0?AV?$CDynamicPoolEx@VCTextureAnimationCCWDecorator@NEffectUpdateDecorator@@@@@8 DD FLAT:??_7type_info@@6B@ ; CDynamicPoolEx<NEffectUpdateDecorator::CTextureAnimationCCWDecorator> `RTTI Type Descriptor'
	DD	00H
	DB	'.?AV?$CDynamicPoolEx@VCTextureAnimationCCWDecorator@NEff'
	DB	'ectUpdateDecorator@@@@', 00H
data$rs	ENDS
;	COMDAT ??_R4?$CDynamicPoolEx@VCTextureAnimationCCWDecorator@NEffectUpdateDecorator@@@@6B@
rdata$r	SEGMENT
??_R4?$CDynamicPoolEx@VCTextureAnimationCCWDecorator@NEffectUpdateDecorator@@@@6B@ DD 00H ; CDynamicPoolEx<NEffectUpdateDecorator::CTextureAnimationCCWDecorator>::`RTTI Complete Object Locator'
	DD	00H
	DD	00H
	DD	FLAT:??_R0?AV?$CDynamicPoolEx@VCTextureAnimationCCWDecorator@NEffectUpdateDecorator@@@@@8
	DD	FLAT:??_R3?$CDynamicPoolEx@VCTextureAnimationCCWDecorator@NEffectUpdateDecorator@@@@8
rdata$r	ENDS
;	COMDAT ??_R1A@?0A@EA@?$CDynamicPoolEx@VCTextureAnimationCWDecorator@NEffectUpdateDecorator@@@@8
rdata$r	SEGMENT
??_R1A@?0A@EA@?$CDynamicPoolEx@VCTextureAnimationCWDecorator@NEffectUpdateDecorator@@@@8 DD FLAT:??_R0?AV?$CDynamicPoolEx@VCTextureAnimationCWDecorator@NEffectUpdateDecorator@@@@@8 ; CDynamicPoolEx<NEffectUpdateDecorator::CTextureAnimationCWDecorator>::`RTTI Base Class Descriptor at (0,-1,0,64)'
	DD	00H
	DD	00H
	DD	0ffffffffH
	DD	00H
	DD	040H
	DD	FLAT:??_R3?$CDynamicPoolEx@VCTextureAnimationCWDecorator@NEffectUpdateDecorator@@@@8
rdata$r	ENDS
;	COMDAT ??_R2?$CDynamicPoolEx@VCTextureAnimationCWDecorator@NEffectUpdateDecorator@@@@8
rdata$r	SEGMENT
??_R2?$CDynamicPoolEx@VCTextureAnimationCWDecorator@NEffectUpdateDecorator@@@@8 DD FLAT:??_R1A@?0A@EA@?$CDynamicPoolEx@VCTextureAnimationCWDecorator@NEffectUpdateDecorator@@@@8 ; CDynamicPoolEx<NEffectUpdateDecorator::CTextureAnimationCWDecorator>::`RTTI Base Class Array'
rdata$r	ENDS
;	COMDAT ??_R3?$CDynamicPoolEx@VCTextureAnimationCWDecorator@NEffectUpdateDecorator@@@@8
rdata$r	SEGMENT
??_R3?$CDynamicPoolEx@VCTextureAnimationCWDecorator@NEffectUpdateDecorator@@@@8 DD 00H ; CDynamicPoolEx<NEffectUpdateDecorator::CTextureAnimationCWDecorator>::`RTTI Class Hierarchy Descriptor'
	DD	00H
	DD	01H
	DD	FLAT:??_R2?$CDynamicPoolEx@VCTextureAnimationCWDecorator@NEffectUpdateDecorator@@@@8
rdata$r	ENDS
;	COMDAT ??_R0?AV?$CDynamicPoolEx@VCTextureAnimationCWDecorator@NEffectUpdateDecorator@@@@@8
data$rs	SEGMENT
??_R0?AV?$CDynamicPoolEx@VCTextureAnimationCWDecorator@NEffectUpdateDecorator@@@@@8 DD FLAT:??_7type_info@@6B@ ; CDynamicPoolEx<NEffectUpdateDecorator::CTextureAnimationCWDecorator> `RTTI Type Descriptor'
	DD	00H
	DB	'.?AV?$CDynamicPoolEx@VCTextureAnimationCWDecorator@NEffe'
	DB	'ctUpdateDecorator@@@@', 00H
data$rs	ENDS
;	COMDAT ??_R4?$CDynamicPoolEx@VCTextureAnimationCWDecorator@NEffectUpdateDecorator@@@@6B@
rdata$r	SEGMENT
??_R4?$CDynamicPoolEx@VCTextureAnimationCWDecorator@NEffectUpdateDecorator@@@@6B@ DD 00H ; CDynamicPoolEx<NEffectUpdateDecorator::CTextureAnimationCWDecorator>::`RTTI Complete Object Locator'
	DD	00H
	DD	00H
	DD	FLAT:??_R0?AV?$CDynamicPoolEx@VCTextureAnimationCWDecorator@NEffectUpdateDecorator@@@@@8
	DD	FLAT:??_R3?$CDynamicPoolEx@VCTextureAnimationCWDecorator@NEffectUpdateDecorator@@@@8
rdata$r	ENDS
;	COMDAT ??_7?$CDynamicPoolEx@VCTextureAnimationCWDecorator@NEffectUpdateDecorator@@@@6B@
CONST	SEGMENT
??_7?$CDynamicPoolEx@VCTextureAnimationCWDecorator@NEffectUpdateDecorator@@@@6B@ DD FLAT:??_R4?$CDynamicPoolEx@VCTextureAnimationCWDecorator@NEffectUpdateDecorator@@@@6B@ ; CDynamicPoolEx<NEffectUpdateDecorator::CTextureAnimationCWDecorator>::`vftable'
	DD	FLAT:??_E?$CDynamicPoolEx@VCTextureAnimationCWDecorator@NEffectUpdateDecorator@@@@UAEPAXI@Z
CONST	ENDS
;	COMDAT ??_R1A@?0A@EA@?$CDynamicPoolEx@VCNullDecorator@NEffectUpdateDecorator@@@@8
rdata$r	SEGMENT
??_R1A@?0A@EA@?$CDynamicPoolEx@VCNullDecorator@NEffectUpdateDecorator@@@@8 DD FLAT:??_R0?AV?$CDynamicPoolEx@VCNullDecorator@NEffectUpdateDecorator@@@@@8 ; CDynamicPoolEx<NEffectUpdateDecorator::CNullDecorator>::`RTTI Base Class Descriptor at (0,-1,0,64)'
	DD	00H
	DD	00H
	DD	0ffffffffH
	DD	00H
	DD	040H
	DD	FLAT:??_R3?$CDynamicPoolEx@VCNullDecorator@NEffectUpdateDecorator@@@@8
rdata$r	ENDS
;	COMDAT ??_R2?$CDynamicPoolEx@VCNullDecorator@NEffectUpdateDecorator@@@@8
rdata$r	SEGMENT
??_R2?$CDynamicPoolEx@VCNullDecorator@NEffectUpdateDecorator@@@@8 DD FLAT:??_R1A@?0A@EA@?$CDynamicPoolEx@VCNullDecorator@NEffectUpdateDecorator@@@@8 ; CDynamicPoolEx<NEffectUpdateDecorator::CNullDecorator>::`RTTI Base Class Array'
rdata$r	ENDS
;	COMDAT ??_R3?$CDynamicPoolEx@VCNullDecorator@NEffectUpdateDecorator@@@@8
rdata$r	SEGMENT
??_R3?$CDynamicPoolEx@VCNullDecorator@NEffectUpdateDecorator@@@@8 DD 00H ; CDynamicPoolEx<NEffectUpdateDecorator::CNullDecorator>::`RTTI Class Hierarchy Descriptor'
	DD	00H
	DD	01H
	DD	FLAT:??_R2?$CDynamicPoolEx@VCNullDecorator@NEffectUpdateDecorator@@@@8
rdata$r	ENDS
;	COMDAT ??_R0?AV?$CDynamicPoolEx@VCNullDecorator@NEffectUpdateDecorator@@@@@8
data$rs	SEGMENT
??_R0?AV?$CDynamicPoolEx@VCNullDecorator@NEffectUpdateDecorator@@@@@8 DD FLAT:??_7type_info@@6B@ ; CDynamicPoolEx<NEffectUpdateDecorator::CNullDecorator> `RTTI Type Descriptor'
	DD	00H
	DB	'.?AV?$CDynamicPoolEx@VCNullDecorator@NEffectUpdateDecora'
	DB	'tor@@@@', 00H
data$rs	ENDS
;	COMDAT ??_R4?$CDynamicPoolEx@VCNullDecorator@NEffectUpdateDecorator@@@@6B@
rdata$r	SEGMENT
??_R4?$CDynamicPoolEx@VCNullDecorator@NEffectUpdateDecorator@@@@6B@ DD 00H ; CDynamicPoolEx<NEffectUpdateDecorator::CNullDecorator>::`RTTI Complete Object Locator'
	DD	00H
	DD	00H
	DD	FLAT:??_R0?AV?$CDynamicPoolEx@VCNullDecorator@NEffectUpdateDecorator@@@@@8
	DD	FLAT:??_R3?$CDynamicPoolEx@VCNullDecorator@NEffectUpdateDecorator@@@@8
rdata$r	ENDS
;	COMDAT ??_R1A@?0A@EA@?$CDynamicPoolEx@VCHeaderDecorator@NEffectUpdateDecorator@@@@8
rdata$r	SEGMENT
??_R1A@?0A@EA@?$CDynamicPoolEx@VCHeaderDecorator@NEffectUpdateDecorator@@@@8 DD FLAT:??_R0?AV?$CDynamicPoolEx@VCHeaderDecorator@NEffectUpdateDecorator@@@@@8 ; CDynamicPoolEx<NEffectUpdateDecorator::CHeaderDecorator>::`RTTI Base Class Descriptor at (0,-1,0,64)'
	DD	00H
	DD	00H
	DD	0ffffffffH
	DD	00H
	DD	040H
	DD	FLAT:??_R3?$CDynamicPoolEx@VCHeaderDecorator@NEffectUpdateDecorator@@@@8
rdata$r	ENDS
;	COMDAT ??_R2?$CDynamicPoolEx@VCHeaderDecorator@NEffectUpdateDecorator@@@@8
rdata$r	SEGMENT
??_R2?$CDynamicPoolEx@VCHeaderDecorator@NEffectUpdateDecorator@@@@8 DD FLAT:??_R1A@?0A@EA@?$CDynamicPoolEx@VCHeaderDecorator@NEffectUpdateDecorator@@@@8 ; CDynamicPoolEx<NEffectUpdateDecorator::CHeaderDecorator>::`RTTI Base Class Array'
rdata$r	ENDS
;	COMDAT ??_R3?$CDynamicPoolEx@VCHeaderDecorator@NEffectUpdateDecorator@@@@8
rdata$r	SEGMENT
??_R3?$CDynamicPoolEx@VCHeaderDecorator@NEffectUpdateDecorator@@@@8 DD 00H ; CDynamicPoolEx<NEffectUpdateDecorator::CHeaderDecorator>::`RTTI Class Hierarchy Descriptor'
	DD	00H
	DD	01H
	DD	FLAT:??_R2?$CDynamicPoolEx@VCHeaderDecorator@NEffectUpdateDecorator@@@@8
rdata$r	ENDS
;	COMDAT ??_R0?AV?$CDynamicPoolEx@VCHeaderDecorator@NEffectUpdateDecorator@@@@@8
data$rs	SEGMENT
??_R0?AV?$CDynamicPoolEx@VCHeaderDecorator@NEffectUpdateDecorator@@@@@8 DD FLAT:??_7type_info@@6B@ ; CDynamicPoolEx<NEffectUpdateDecorator::CHeaderDecorator> `RTTI Type Descriptor'
	DD	00H
	DB	'.?AV?$CDynamicPoolEx@VCHeaderDecorator@NEffectUpdateDeco'
	DB	'rator@@@@', 00H
data$rs	ENDS
;	COMDAT ??_R4?$CDynamicPoolEx@VCHeaderDecorator@NEffectUpdateDecorator@@@@6B@
rdata$r	SEGMENT
??_R4?$CDynamicPoolEx@VCHeaderDecorator@NEffectUpdateDecorator@@@@6B@ DD 00H ; CDynamicPoolEx<NEffectUpdateDecorator::CHeaderDecorator>::`RTTI Complete Object Locator'
	DD	00H
	DD	00H
	DD	FLAT:??_R0?AV?$CDynamicPoolEx@VCHeaderDecorator@NEffectUpdateDecorator@@@@@8
	DD	FLAT:??_R3?$CDynamicPoolEx@VCHeaderDecorator@NEffectUpdateDecorator@@@@8
rdata$r	ENDS
;	COMDAT ??_7?$CDynamicPoolEx@VCTextureAnimationCCWDecorator@NEffectUpdateDecorator@@@@6B@
CONST	SEGMENT
??_7?$CDynamicPoolEx@VCTextureAnimationCCWDecorator@NEffectUpdateDecorator@@@@6B@ DD FLAT:??_R4?$CDynamicPoolEx@VCTextureAnimationCCWDecorator@NEffectUpdateDecorator@@@@6B@ ; CDynamicPoolEx<NEffectUpdateDecorator::CTextureAnimationCCWDecorator>::`vftable'
	DD	FLAT:??_E?$CDynamicPoolEx@VCTextureAnimationCCWDecorator@NEffectUpdateDecorator@@@@UAEPAXI@Z
CONST	ENDS
;	COMDAT ??_7?$CDynamicPoolEx@VCTextureAnimationRandomDecorator@NEffectUpdateDecorator@@@@6B@
CONST	SEGMENT
??_7?$CDynamicPoolEx@VCTextureAnimationRandomDecorator@NEffectUpdateDecorator@@@@6B@ DD FLAT:??_R4?$CDynamicPoolEx@VCTextureAnimationRandomDecorator@NEffectUpdateDecorator@@@@6B@ ; CDynamicPoolEx<NEffectUpdateDecorator::CTextureAnimationRandomDecorator>::`vftable'
	DD	FLAT:??_E?$CDynamicPoolEx@VCTextureAnimationRandomDecorator@NEffectUpdateDecorator@@@@UAEPAXI@Z
CONST	ENDS
;	COMDAT ??_7?$CDynamicPoolEx@VCAirResistanceDecorator@NEffectUpdateDecorator@@@@6B@
CONST	SEGMENT
??_7?$CDynamicPoolEx@VCAirResistanceDecorator@NEffectUpdateDecorator@@@@6B@ DD FLAT:??_R4?$CDynamicPoolEx@VCAirResistanceDecorator@NEffectUpdateDecorator@@@@6B@ ; CDynamicPoolEx<NEffectUpdateDecorator::CAirResistanceDecorator>::`vftable'
	DD	FLAT:??_E?$CDynamicPoolEx@VCAirResistanceDecorator@NEffectUpdateDecorator@@@@UAEPAXI@Z
CONST	ENDS
CONST	SEGMENT
?_Fake_alloc@std@@3U_Fake_allocator@1@B	ORG $+1		; std::_Fake_alloc
CONST	ENDS
;	COMDAT ??_7?$CDynamicPoolEx@VCGravityDecorator@NEffectUpdateDecorator@@@@6B@
CONST	SEGMENT
??_7?$CDynamicPoolEx@VCGravityDecorator@NEffectUpdateDecorator@@@@6B@ DD FLAT:??_R4?$CDynamicPoolEx@VCGravityDecorator@NEffectUpdateDecorator@@@@6B@ ; CDynamicPoolEx<NEffectUpdateDecorator::CGravityDecorator>::`vftable'
	DD	FLAT:??_E?$CDynamicPoolEx@VCGravityDecorator@NEffectUpdateDecorator@@@@UAEPAXI@Z
CONST	ENDS
;	COMDAT ??_7?$CDynamicPoolEx@VCRotationDecorator@NEffectUpdateDecorator@@@@6B@
CONST	SEGMENT
??_7?$CDynamicPoolEx@VCRotationDecorator@NEffectUpdateDecorator@@@@6B@ DD FLAT:??_R4?$CDynamicPoolEx@VCRotationDecorator@NEffectUpdateDecorator@@@@6B@ ; CDynamicPoolEx<NEffectUpdateDecorator::CRotationDecorator>::`vftable'
	DD	FLAT:??_E?$CDynamicPoolEx@VCRotationDecorator@NEffectUpdateDecorator@@@@UAEPAXI@Z
CONST	ENDS
;	COMDAT ??_7?$CDynamicPool@VCItemData@@@@6B@
CONST	SEGMENT
??_7?$CDynamicPool@VCItemData@@@@6B@ DD FLAT:??_R4?$CDynamicPool@VCItemData@@@@6B@ ; CDynamicPool<CItemData>::`vftable'
	DD	FLAT:??_E?$CDynamicPool@VCItemData@@@@UAEPAXI@Z
CONST	ENDS
PUBLIC	??_H@YGXPAXIIP6EPAX0@Z@Z			; `vector constructor iterator'
PUBLIC	?__empty_global_delete@@YAXPAX@Z		; __empty_global_delete
PUBLIC	?__empty_global_delete@@YAXPAXI@Z		; __empty_global_delete
PUBLIC	___local_stdio_printf_options
PUBLIC	_sprintf
PUBLIC	??0exception@std@@QAE@ABV01@@Z			; std::exception::exception
PUBLIC	??1exception@std@@UAE@XZ			; std::exception::~exception
PUBLIC	?what@exception@std@@UBEPBDXZ			; std::exception::what
PUBLIC	??_Gexception@std@@UAEPAXI@Z			; std::exception::`scalar deleting destructor'
PUBLIC	??0bad_alloc@std@@QAE@ABV01@@Z			; std::bad_alloc::bad_alloc
PUBLIC	??_Gbad_alloc@std@@UAEPAXI@Z			; std::bad_alloc::`scalar deleting destructor'
PUBLIC	??0bad_array_new_length@std@@QAE@XZ		; std::bad_array_new_length::bad_array_new_length
PUBLIC	??1bad_array_new_length@std@@UAE@XZ		; std::bad_array_new_length::~bad_array_new_length
PUBLIC	??0bad_array_new_length@std@@QAE@ABV01@@Z	; std::bad_array_new_length::bad_array_new_length
PUBLIC	??_Gbad_array_new_length@std@@UAEPAXI@Z		; std::bad_array_new_length::`scalar deleting destructor'
PUBLIC	?_Throw_bad_array_new_length@std@@YAXXZ		; std::_Throw_bad_array_new_length
PUBLIC	?_Xlen_string@std@@YAXXZ			; std::_Xlen_string
PUBLIC	??1?$basic_string@DU?$char_traits@D@std@@V?$allocator@D@2@@std@@QAE@XZ ; std::basic_string<char,std::char_traits<char>,std::allocator<char> >::~basic_string<char,std::char_traits<char>,std::allocator<char> >
PUBLIC	?assign@?$basic_string@DU?$char_traits@D@std@@V?$allocator@D@2@@std@@QAEAAV12@QBDI@Z ; std::basic_string<char,std::char_traits<char>,std::allocator<char> >::assign
PUBLIC	??0D3DXVECTOR3@@QAE@XZ				; D3DXVECTOR3::D3DXVECTOR3
PUBLIC	??1?$vector@V?$basic_string@DU?$char_traits@D@std@@V?$allocator@D@2@@std@@V?$allocator@V?$basic_string@DU?$char_traits@D@std@@V?$allocator@D@2@@std@@@2@@std@@QAE@XZ ; std::vector<std::basic_string<char,std::char_traits<char>,std::allocator<char> >,std::allocator<std::basic_string<char,std::char_traits<char>,std::allocator<char> > > >::~vector<std::basic_string<char,std::char_traits<char>,std::allocator<char> >,std::allocator<std::basic_string<char,std::char_traits<char>,std::allocator<char> > > >
PUBLIC	?_Destroy@?$vector@V?$basic_string@DU?$char_traits@D@std@@V?$allocator@D@2@@std@@V?$allocator@V?$basic_string@DU?$char_traits@D@std@@V?$allocator@D@2@@std@@@2@@std@@AAEXPAV?$basic_string@DU?$char_traits@D@std@@V?$allocator@D@2@@2@0@Z ; std::vector<std::basic_string<char,std::char_traits<char>,std::allocator<char> >,std::allocator<std::basic_string<char,std::char_traits<char>,std::allocator<char> > > >::_Destroy
PUBLIC	??$_Allocate_manually_vector_aligned@U_Default_allocate_traits@std@@@std@@YAPAXI@Z ; std::_Allocate_manually_vector_aligned<std::_Default_allocate_traits>
PUBLIC	??0CItemData@@QAE@XZ				; CItemData::CItemData
PUBLIC	??1CItemData@@UAE@XZ				; CItemData::~CItemData
PUBLIC	?Clear@CItemData@@QAEXXZ			; CItemData::Clear
PUBLIC	?SetSummary@CItemData@@QAEXABV?$basic_string@DU?$char_traits@D@std@@V?$allocator@D@2@@std@@@Z ; CItemData::SetSummary
PUBLIC	?SetDescription@CItemData@@QAEXABV?$basic_string@DU?$char_traits@D@std@@V?$allocator@D@2@@std@@@Z ; CItemData::SetDescription
PUBLIC	?GetModelThing@CItemData@@QAEPAVCGraphicThing@@XZ ; CItemData::GetModelThing
PUBLIC	?GetSubModelThing@CItemData@@QAEPAVCGraphicThing@@XZ ; CItemData::GetSubModelThing
PUBLIC	?GetDropModelThing@CItemData@@QAEPAVCGraphicThing@@XZ ; CItemData::GetDropModelThing
PUBLIC	?GetIconImage@CItemData@@QAEPAVCGraphicSubImage@@XZ ; CItemData::GetIconImage
PUBLIC	?GetLODModelThingCount@CItemData@@QAEKXZ	; CItemData::GetLODModelThingCount
PUBLIC	?GetLODModelThingPointer@CItemData@@QAEHKPAPAVCGraphicThing@@@Z ; CItemData::GetLODModelThingPointer
PUBLIC	?GetAttachingDataCount@CItemData@@QAEKXZ	; CItemData::GetAttachingDataCount
PUBLIC	?GetCollisionDataPointer@CItemData@@QAEHKPAPBUSAttachingData@NRaceData@@@Z ; CItemData::GetCollisionDataPointer
PUBLIC	?GetAttachingDataPointer@CItemData@@QAEHKPAPBUSAttachingData@NRaceData@@@Z ; CItemData::GetAttachingDataPointer
PUBLIC	?GetTable@CItemData@@QBEPBUSItemTable_r156@1@XZ	; CItemData::GetTable
PUBLIC	?GetIndex@CItemData@@QBEKXZ			; CItemData::GetIndex
PUBLIC	?GetName@CItemData@@QBEPBDXZ			; CItemData::GetName
PUBLIC	?GetDescription@CItemData@@QBEPBDXZ		; CItemData::GetDescription
PUBLIC	?GetSummary@CItemData@@QBEPBDXZ			; CItemData::GetSummary
PUBLIC	?GetType@CItemData@@QBEEXZ			; CItemData::GetType
PUBLIC	?GetSubType@CItemData@@QBEEXZ			; CItemData::GetSubType
PUBLIC	?GetRefine@CItemData@@QBEIXZ			; CItemData::GetRefine
PUBLIC	?GetUseTypeString@CItemData@@QBEPBDXZ		; CItemData::GetUseTypeString
PUBLIC	?GetWeaponType@CItemData@@QBEKXZ		; CItemData::GetWeaponType
PUBLIC	?GetSize@CItemData@@QBEEXZ			; CItemData::GetSize
PUBLIC	?IsAntiFlag@CItemData@@QBEHK@Z			; CItemData::IsAntiFlag
PUBLIC	?IsFlag@CItemData@@QBEHK@Z			; CItemData::IsFlag
PUBLIC	?IsWearableFlag@CItemData@@QBEHK@Z		; CItemData::IsWearableFlag
PUBLIC	?HasNextGrade@CItemData@@QBEHXZ			; CItemData::HasNextGrade
PUBLIC	?GetWearFlags@CItemData@@QBEKXZ			; CItemData::GetWearFlags
PUBLIC	?GetIBuyItemPrice@CItemData@@QBEKXZ		; CItemData::GetIBuyItemPrice
PUBLIC	?GetISellItemPrice@CItemData@@QBEKXZ		; CItemData::GetISellItemPrice
PUBLIC	?GetLimit@CItemData@@QBEHEPAUSItemLimit@1@@Z	; CItemData::GetLimit
PUBLIC	?GetApply@CItemData@@QBEHEPAUSItemApply@1@@Z	; CItemData::GetApply
PUBLIC	?GetValue@CItemData@@QBEJE@Z			; CItemData::GetValue
PUBLIC	?GetSocket@CItemData@@QBEJE@Z			; CItemData::GetSocket
PUBLIC	?SetSocket@CItemData@@QAEJEK@Z			; CItemData::SetSocket
PUBLIC	?GetSocketCount@CItemData@@QBEHXZ		; CItemData::GetSocketCount
PUBLIC	?GetIconNumber@CItemData@@QBEKXZ		; CItemData::GetIconNumber
PUBLIC	?GetSpecularPoweru@CItemData@@QBEIXZ		; CItemData::GetSpecularPoweru
PUBLIC	?GetSpecularPowerf@CItemData@@QBEMXZ		; CItemData::GetSpecularPowerf
PUBLIC	?IsEquipment@CItemData@@QBEHXZ			; CItemData::IsEquipment
PUBLIC	?SetDefaultItemData@CItemData@@QAEXPBD0@Z	; CItemData::SetDefaultItemData
PUBLIC	?SetItemTableData@CItemData@@QAEXPAUSItemTable_r156@1@@Z ; CItemData::SetItemTableData
PUBLIC	?SetItemShiningTableData@CItemData@@QAEXEPBD@Z	; CItemData::SetItemShiningTableData
PUBLIC	?__LoadFiles@CItemData@@IAEXXZ			; CItemData::__LoadFiles
PUBLIC	?__SetIconImage@CItemData@@IAEXPBD@Z		; CItemData::__SetIconImage
PUBLIC	??1?$vector@PAVCGraphicThing@@V?$allocator@PAVCGraphicThing@@@std@@@std@@QAE@XZ ; std::vector<CGraphicThing *,std::allocator<CGraphicThing *> >::~vector<CGraphicThing *,std::allocator<CGraphicThing *> >
PUBLIC	?_Xlength@?$vector@PAVCGraphicThing@@V?$allocator@PAVCGraphicThing@@@std@@@std@@CAXXZ ; std::vector<CGraphicThing *,std::allocator<CGraphicThing *> >::_Xlength
PUBLIC	??1?$vector@USAttachingData@NRaceData@@V?$allocator@USAttachingData@NRaceData@@@std@@@std@@QAE@XZ ; std::vector<NRaceData::SAttachingData,std::allocator<NRaceData::SAttachingData> >::~vector<NRaceData::SAttachingData,std::allocator<NRaceData::SAttachingData> >
PUBLIC	?SetAuraScaleTableData@CItemData@@QAEXEEMMMM@Z	; CItemData::SetAuraScaleTableData
PUBLIC	?GetAuraMeshScaleVector@CItemData@@QAEAAUD3DXVECTOR3@@EE@Z ; CItemData::GetAuraMeshScaleVector
PUBLIC	?GetAuraParticleScale@CItemData@@QAEMEE@Z	; CItemData::GetAuraParticleScale
PUBLIC	?SetAuraEffectID@CItemData@@QAEXPBD@Z		; CItemData::SetAuraEffectID
PUBLIC	?DestroySystem@CItemData@@SAXXZ			; CItemData::DestroySystem
PUBLIC	?New@CItemData@@SAPAV1@XZ			; CItemData::New
PUBLIC	?Delete@CItemData@@SAXPAV1@@Z			; CItemData::Delete
PUBLIC	?GetItemParticleScale@CItemData@@QAEMEE@Z	; CItemData::GetItemParticleScale
PUBLIC	?SetItemTableScaleData@CItemData@@QAEXEEMMMM@Z	; CItemData::SetItemTableScaleData
PUBLIC	?GetItemScaleVector@CItemData@@QAEAAUD3DXVECTOR3@@EE@Z ; CItemData::GetItemScaleVector
PUBLIC	??_GCItemData@@UAEPAXI@Z			; CItemData::`scalar deleting destructor'
PUBLIC	??1?$CDynamicPool@VCItemData@@@@UAE@XZ		; CDynamicPool<CItemData>::~CDynamicPool<CItemData>
PUBLIC	?Delete@?$CDynamicPool@VCItemData@@@@KAXPAVCItemData@@@Z ; CDynamicPool<CItemData>::Delete
PUBLIC	?_Xlength@?$vector@PAVCItemData@@V?$allocator@PAVCItemData@@@std@@@std@@CAXXZ ; std::vector<CItemData *,std::allocator<CItemData *> >::_Xlength
PUBLIC	??1?$CDynamicPoolEx@VCRotationDecorator@NEffectUpdateDecorator@@@@UAE@XZ ; CDynamicPoolEx<NEffectUpdateDecorator::CRotationDecorator>::~CDynamicPoolEx<NEffectUpdateDecorator::CRotationDecorator>
PUBLIC	?Delete@?$CDynamicPoolEx@VCRotationDecorator@NEffectUpdateDecorator@@@@KAXPAVCRotationDecorator@NEffectUpdateDecorator@@@Z ; CDynamicPoolEx<NEffectUpdateDecorator::CRotationDecorator>::Delete
PUBLIC	??1?$CDynamicPoolEx@VCGravityDecorator@NEffectUpdateDecorator@@@@UAE@XZ ; CDynamicPoolEx<NEffectUpdateDecorator::CGravityDecorator>::~CDynamicPoolEx<NEffectUpdateDecorator::CGravityDecorator>
PUBLIC	?Delete@?$CDynamicPoolEx@VCGravityDecorator@NEffectUpdateDecorator@@@@KAXPAVCGravityDecorator@NEffectUpdateDecorator@@@Z ; CDynamicPoolEx<NEffectUpdateDecorator::CGravityDecorator>::Delete
PUBLIC	??1?$CDynamicPoolEx@VCAirResistanceDecorator@NEffectUpdateDecorator@@@@UAE@XZ ; CDynamicPoolEx<NEffectUpdateDecorator::CAirResistanceDecorator>::~CDynamicPoolEx<NEffectUpdateDecorator::CAirResistanceDecorator>
PUBLIC	?Delete@?$CDynamicPoolEx@VCAirResistanceDecorator@NEffectUpdateDecorator@@@@KAXPAVCAirResistanceDecorator@NEffectUpdateDecorator@@@Z ; CDynamicPoolEx<NEffectUpdateDecorator::CAirResistanceDecorator>::Delete
PUBLIC	??1?$CDynamicPoolEx@VCTextureAnimationRandomDecorator@NEffectUpdateDecorator@@@@UAE@XZ ; CDynamicPoolEx<NEffectUpdateDecorator::CTextureAnimationRandomDecorator>::~CDynamicPoolEx<NEffectUpdateDecorator::CTextureAnimationRandomDecorator>
PUBLIC	?Delete@?$CDynamicPoolEx@VCTextureAnimationRandomDecorator@NEffectUpdateDecorator@@@@KAXPAVCTextureAnimationRandomDecorator@NEffectUpdateDecorator@@@Z ; CDynamicPoolEx<NEffectUpdateDecorator::CTextureAnimationRandomDecorator>::Delete
PUBLIC	??1?$CDynamicPoolEx@VCTextureAnimationCCWDecorator@NEffectUpdateDecorator@@@@UAE@XZ ; CDynamicPoolEx<NEffectUpdateDecorator::CTextureAnimationCCWDecorator>::~CDynamicPoolEx<NEffectUpdateDecorator::CTextureAnimationCCWDecorator>
PUBLIC	?Delete@?$CDynamicPoolEx@VCTextureAnimationCCWDecorator@NEffectUpdateDecorator@@@@KAXPAVCTextureAnimationCCWDecorator@NEffectUpdateDecorator@@@Z ; CDynamicPoolEx<NEffectUpdateDecorator::CTextureAnimationCCWDecorator>::Delete
PUBLIC	??1?$CDynamicPoolEx@VCTextureAnimationCWDecorator@NEffectUpdateDecorator@@@@UAE@XZ ; CDynamicPoolEx<NEffectUpdateDecorator::CTextureAnimationCWDecorator>::~CDynamicPoolEx<NEffectUpdateDecorator::CTextureAnimationCWDecorator>
PUBLIC	?Delete@?$CDynamicPoolEx@VCTextureAnimationCWDecorator@NEffectUpdateDecorator@@@@KAXPAVCTextureAnimationCWDecorator@NEffectUpdateDecorator@@@Z ; CDynamicPoolEx<NEffectUpdateDecorator::CTextureAnimationCWDecorator>::Delete
PUBLIC	??1?$CDynamicPoolEx@VCNullDecorator@NEffectUpdateDecorator@@@@UAE@XZ ; CDynamicPoolEx<NEffectUpdateDecorator::CNullDecorator>::~CDynamicPoolEx<NEffectUpdateDecorator::CNullDecorator>
PUBLIC	?Delete@?$CDynamicPoolEx@VCNullDecorator@NEffectUpdateDecorator@@@@KAXPAVCNullDecorator@NEffectUpdateDecorator@@@Z ; CDynamicPoolEx<NEffectUpdateDecorator::CNullDecorator>::Delete
PUBLIC	??1?$CDynamicPoolEx@VCHeaderDecorator@NEffectUpdateDecorator@@@@UAE@XZ ; CDynamicPoolEx<NEffectUpdateDecorator::CHeaderDecorator>::~CDynamicPoolEx<NEffectUpdateDecorator::CHeaderDecorator>
PUBLIC	?Delete@?$CDynamicPoolEx@VCHeaderDecorator@NEffectUpdateDecorator@@@@KAXPAVCHeaderDecorator@NEffectUpdateDecorator@@@Z ; CDynamicPoolEx<NEffectUpdateDecorator::CHeaderDecorator>::Delete
PUBLIC	??$_Emplace_reallocate@ABQAVCItemData@@@?$vector@PAVCItemData@@V?$allocator@PAVCItemData@@@std@@@std@@QAEPAPAVCItemData@@QAPAV2@ABQAV2@@Z ; std::vector<CItemData *,std::allocator<CItemData *> >::_Emplace_reallocate<CItemData * const &>
PUBLIC	??$_Resize_reallocate@U_Value_init_tag@std@@@?$vector@PAVCGraphicThing@@V?$allocator@PAVCGraphicThing@@@std@@@std@@AAEXIABU_Value_init_tag@1@@Z ; std::vector<CGraphicThing *,std::allocator<CGraphicThing *> >::_Resize_reallocate<std::_Value_init_tag>
PUBLIC	??$_Copy_memmove@PAPAVCItemData@@PAPAV1@@std@@YAPAPAVCItemData@@PAPAV1@00@Z ; std::_Copy_memmove<CItemData * *,CItemData * *>
PUBLIC	??$_Zero_range@PAPAVCGraphicThing@@@std@@YAPAPAVCGraphicThing@@QAPAV1@0@Z ; std::_Zero_range<CGraphicThing * *>
PUBLIC	??$_Copy_memmove@PAPAVCGraphicThing@@PAPAV1@@std@@YAPAPAVCGraphicThing@@PAPAV1@00@Z ; std::_Copy_memmove<CGraphicThing * *,CGraphicThing * *>
PUBLIC	?_OptionsStorage@?1??__local_stdio_printf_options@@9@4_KA ; `__local_stdio_printf_options'::`2'::_OptionsStorage
PUBLIC	??_7exception@std@@6B@				; std::exception::`vftable'
PUBLIC	??_C@_0BC@EOODALEL@Unknown?5exception@		; `string'
PUBLIC	??_7bad_alloc@std@@6B@				; std::bad_alloc::`vftable'
PUBLIC	??_7bad_array_new_length@std@@6B@		; std::bad_array_new_length::`vftable'
PUBLIC	??_C@_0BF@KINCDENJ@bad?5array?5new?5length@	; `string'
PUBLIC	__TI3?AVbad_array_new_length@std@@
PUBLIC	__CTA3?AVbad_array_new_length@std@@
PUBLIC	??_R0?AVbad_array_new_length@std@@@8		; std::bad_array_new_length `RTTI Type Descriptor'
PUBLIC	__CT??_R0?AVbad_array_new_length@std@@@8??0bad_array_new_length@std@@QAE@ABV01@@Z12
PUBLIC	??_R0?AVbad_alloc@std@@@8			; std::bad_alloc `RTTI Type Descriptor'
PUBLIC	__CT??_R0?AVbad_alloc@std@@@8??0bad_alloc@std@@QAE@ABV01@@Z12
PUBLIC	??_R0?AVexception@std@@@8			; std::exception `RTTI Type Descriptor'
PUBLIC	__CT??_R0?AVexception@std@@@8??0exception@std@@QAE@ABV01@@Z12
PUBLIC	??_C@_0BA@JFNIOLAK@string?5too?5long@		; `string'
PUBLIC	??_C@_00CNPNBAHC@@				; `string'
PUBLIC	??_R4exception@std@@6B@				; std::exception::`RTTI Complete Object Locator'
PUBLIC	??_R3exception@std@@8				; std::exception::`RTTI Class Hierarchy Descriptor'
PUBLIC	??_R2exception@std@@8				; std::exception::`RTTI Base Class Array'
PUBLIC	??_R1A@?0A@EA@exception@std@@8			; std::exception::`RTTI Base Class Descriptor at (0,-1,0,64)'
PUBLIC	??_R4bad_alloc@std@@6B@				; std::bad_alloc::`RTTI Complete Object Locator'
PUBLIC	??_R3bad_alloc@std@@8				; std::bad_alloc::`RTTI Class Hierarchy Descriptor'
PUBLIC	??_R2bad_alloc@std@@8				; std::bad_alloc::`RTTI Base Class Array'
PUBLIC	??_R1A@?0A@EA@bad_alloc@std@@8			; std::bad_alloc::`RTTI Base Class Descriptor at (0,-1,0,64)'
PUBLIC	??_R4bad_array_new_length@std@@6B@		; std::bad_array_new_length::`RTTI Complete Object Locator'
PUBLIC	??_R3bad_array_new_length@std@@8		; std::bad_array_new_length::`RTTI Class Hierarchy Descriptor'
PUBLIC	??_R2bad_array_new_length@std@@8		; std::bad_array_new_length::`RTTI Base Class Array'
PUBLIC	??_R1A@?0A@EA@bad_array_new_length@std@@8	; std::bad_array_new_length::`RTTI Base Class Descriptor at (0,-1,0,64)'
PUBLIC	?ms_kPool@?$CPooledObject@VCHeaderDecorator@NEffectUpdateDecorator@@@@1V?$CDynamicPoolEx@VCHeaderDecorator@NEffectUpdateDecorator@@@@A ; CPooledObject<NEffectUpdateDecorator::CHeaderDecorator>::ms_kPool
PUBLIC	?ms_kPool@?$CPooledObject@VCNullDecorator@NEffectUpdateDecorator@@@@1V?$CDynamicPoolEx@VCNullDecorator@NEffectUpdateDecorator@@@@A ; CPooledObject<NEffectUpdateDecorator::CNullDecorator>::ms_kPool
PUBLIC	?ms_kPool@?$CPooledObject@VCTextureAnimationCWDecorator@NEffectUpdateDecorator@@@@1V?$CDynamicPoolEx@VCTextureAnimationCWDecorator@NEffectUpdateDecorator@@@@A ; CPooledObject<NEffectUpdateDecorator::CTextureAnimationCWDecorator>::ms_kPool
PUBLIC	?ms_kPool@?$CPooledObject@VCTextureAnimationCCWDecorator@NEffectUpdateDecorator@@@@1V?$CDynamicPoolEx@VCTextureAnimationCCWDecorator@NEffectUpdateDecorator@@@@A ; CPooledObject<NEffectUpdateDecorator::CTextureAnimationCCWDecorator>::ms_kPool
PUBLIC	?ms_kPool@?$CPooledObject@VCTextureAnimationRandomDecorator@NEffectUpdateDecorator@@@@1V?$CDynamicPoolEx@VCTextureAnimationRandomDecorator@NEffectUpdateDecorator@@@@A ; CPooledObject<NEffectUpdateDecorator::CTextureAnimationRandomDecorator>::ms_kPool
PUBLIC	?ms_kPool@?$CPooledObject@VCAirResistanceDecorator@NEffectUpdateDecorator@@@@1V?$CDynamicPoolEx@VCAirResistanceDecorator@NEffectUpdateDecorator@@@@A ; CPooledObject<NEffectUpdateDecorator::CAirResistanceDecorator>::ms_kPool
PUBLIC	?ms_kPool@?$CPooledObject@VCGravityDecorator@NEffectUpdateDecorator@@@@1V?$CDynamicPoolEx@VCGravityDecorator@NEffectUpdateDecorator@@@@A ; CPooledObject<NEffectUpdateDecorator::CGravityDecorator>::ms_kPool
PUBLIC	?ms_kPool@?$CPooledObject@VCRotationDecorator@NEffectUpdateDecorator@@@@1V?$CDynamicPoolEx@VCRotationDecorator@NEffectUpdateDecorator@@@@A ; CPooledObject<NEffectUpdateDecorator::CRotationDecorator>::ms_kPool
PUBLIC	?ms_singleton@?$CSingleton@VCEffectManager@@@@0PAVCEffectManager@@A ; CSingleton<CEffectManager>::ms_singleton
PUBLIC	?ms_singleton@?$CSingleton@VCResourceManager@@@@0PAVCResourceManager@@A ; CSingleton<CResourceManager>::ms_singleton
PUBLIC	?ms_kPool@CItemData@@2V?$CDynamicPool@VCItemData@@@@A ; CItemData::ms_kPool
PUBLIC	??_7CItemData@@6B@				; CItemData::`vftable'
PUBLIC	??_C@_0CD@GGDHOLJD@d?3?1ymir?5work?1item?1etc?1item_bag?4@ ; `string'
PUBLIC	??_C@_0BE@FMGIELLL@icon?1item?127995?4tga@	; `string'
PUBLIC	??_C@_0CI@CPFNJMPO@?$CFs?5not?5found?4?5CItemData?3?3__SetI@ ; `string'
PUBLIC	??_C@_0N@OHMMNDLH@NOT_USE_TYPE@			; `string'
PUBLIC	??_C@_0L@JIILHJGL@USE_TUNING@			; `string'
PUBLIC	??_C@_0P@MKAMDACK@USE_DETACHMENT@		; `string'
PUBLIC	??_C@_0BB@IPDHFONJ@USE_CLEAN_SOCKET@		; `string'
PUBLIC	??_C@_0BF@OFJOINJA@USE_CHANGE_ATTRIBUTE@	; `string'
PUBLIC	??_C@_0BC@CNMGHFMD@USE_ADD_ATTRIBUTE@		; `string'
PUBLIC	??_C@_0BD@OPDAABAO@USE_ADD_ATTRIBUTE2@		; `string'
PUBLIC	??_C@_0BJ@NMHGAPML@USE_ADD_ACCESSORY_SOCKET@	; `string'
PUBLIC	??_C@_0BO@CNHACOAA@USE_PUT_INTO_ACCESSORY_SOCKET@ ; `string'
PUBLIC	??_C@_0BJ@FLCFGEDJ@USE_PUT_INTO_BELT_SOCKET@	; `string'
PUBLIC	??_C@_0BJ@MMJPLFIL@USE_PUT_INTO_RING_SOCKET@	; `string'
PUBLIC	??_C@_0BI@JBGADBGG@USE_CHANGE_COSTUME_ATTR@	; `string'
PUBLIC	??_C@_0BH@GEFCODLD@USE_RESET_COSTUME_ATTR@	; `string'
PUBLIC	??_C@_0BJ@FNHNMEGH@USE_PUT_INTO_AURA_SOCKET@	; `string'
PUBLIC	??_C@_0BE@EDLAOIMA@USE_ELEMENT_UPGRADE@		; `string'
PUBLIC	??_C@_0BG@EOPNNGGH@USE_ELEMENT_DOWNGRADE@	; `string'
PUBLIC	??_C@_0BD@LMCFGGAB@USE_ELEMENT_CHANGE@		; `string'
PUBLIC	??_C@_0BG@BNJKFJLI@USE_CHANGE_ATTRIBUTE2@	; `string'
PUBLIC	??_C@_0BB@HEDGKPKE@USE_UNKNOWN_TYPE@		; `string'
PUBLIC	??_C@_0BA@FOIKENOD@vector?5too?5long@		; `string'
PUBLIC	??_R4CItemData@@6B@				; CItemData::`RTTI Complete Object Locator'
PUBLIC	??_R0?AVCItemData@@@8				; CItemData `RTTI Type Descriptor'
PUBLIC	??_R3CItemData@@8				; CItemData::`RTTI Class Hierarchy Descriptor'
PUBLIC	??_R2CItemData@@8				; CItemData::`RTTI Base Class Array'
PUBLIC	??_R1A@?0A@EA@CItemData@@8			; CItemData::`RTTI Base Class Descriptor at (0,-1,0,64)'
PUBLIC	__real@42c80000
PUBLIC	__xmm@41f00000000000000000000000000000
EXTRN	??2@YAPAXI@Z:PROC				; operator new
EXTRN	??3@YAXPAX@Z:PROC				; operator delete
EXTRN	??3@YAXPAXI@Z:PROC				; operator delete
EXTRN	_atexit:PROC
EXTRN	__invalid_parameter_noinfo_noreturn:PROC
EXTRN	___stdio_common_vsprintf:PROC
EXTRN	___std_exception_copy:PROC
EXTRN	___std_exception_destroy:PROC
EXTRN	??_Eexception@std@@UAEPAXI@Z:PROC		; std::exception::`vector deleting destructor'
EXTRN	??_Ebad_alloc@std@@UAEPAXI@Z:PROC		; std::bad_alloc::`vector deleting destructor'
EXTRN	??_Ebad_array_new_length@std@@UAEPAXI@Z:PROC	; std::bad_array_new_length::`vector deleting destructor'
EXTRN	?_Xlength_error@std@@YAXPBD@Z:PROC		; std::_Xlength_error
EXTRN	?TraceError@@YAXPBDZZ:PROC			; TraceError
EXTRN	?RegisterEffect2@CEffectManager@@QAEHPBDPAK_N0@Z:PROC ; CEffectManager::RegisterEffect2
EXTRN	?GetResourcePointer@CResourceManager@@QAEPAVCResource@@PBD@Z:PROC ; CResourceManager::GetResourcePointer
EXTRN	?IsFileExist@CResourceManager@@QAE_NPBD@Z:PROC	; CResourceManager::IsFileExist
EXTRN	??_ECItemData@@UAEPAXI@Z:PROC			; CItemData::`vector deleting destructor'
EXTRN	@__security_check_cookie@4:PROC
EXTRN	__CxxThrowException@8:PROC
EXTRN	___CxxFrameHandler3:PROC
EXTRN	_memcpy:PROC
EXTRN	_memmove:PROC
EXTRN	_memset:PROC
EXTRN	___security_cookie:DWORD
EXTRN	__fltused:DWORD
;	COMDAT ?_OptionsStorage@?1??__local_stdio_printf_options@@9@4_KA
_BSS	SEGMENT
?_OptionsStorage@?1??__local_stdio_printf_options@@9@4_KA DQ 01H DUP (?) ; `__local_stdio_printf_options'::`2'::_OptionsStorage
_BSS	ENDS
;	COMDAT ?ms_singleton@?$CSingleton@VCEffectManager@@@@0PAVCEffectManager@@A
_BSS	SEGMENT
?ms_singleton@?$CSingleton@VCEffectManager@@@@0PAVCEffectManager@@A DD 01H DUP (?) ; CSingleton<CEffectManager>::ms_singleton
_BSS	ENDS
;	COMDAT ?ms_singleton@?$CSingleton@VCResourceManager@@@@0PAVCResourceManager@@A
_BSS	SEGMENT
?ms_singleton@?$CSingleton@VCResourceManager@@@@0PAVCResourceManager@@A DD 01H DUP (?) ; CSingleton<CResourceManager>::ms_singleton
_BSS	ENDS
CRT$XCU	SEGMENT
??ms_kPool$initializer$@CItemData@@2P6AXXZA@@3P6AXXZA DD FLAT:??__E?ms_kPool@CItemData@@2V?$CDynamicPool@VCItemData@@@@A@@YAXXZ ; ??ms_kPool$initializer$@CItemData@@2P6AXXZA@@3P6AXXZA
CRT$XCU	ENDS
;	COMDAT __xmm@41f00000000000000000000000000000
CONST	SEGMENT
__xmm@41f00000000000000000000000000000 DB 00H, 00H, 00H, 00H, 00H, 00H, 00H
	DB	00H, 00H, 00H, 00H, 00H, 00H, 00H, 0f0H, 'A'
CONST	ENDS
;	COMDAT __real@42c80000
CONST	SEGMENT
__real@42c80000 DD 042c80000r			; 100
CONST	ENDS
;	COMDAT ??_R1A@?0A@EA@CItemData@@8
rdata$r	SEGMENT
??_R1A@?0A@EA@CItemData@@8 DD FLAT:??_R0?AVCItemData@@@8 ; CItemData::`RTTI Base Class Descriptor at (0,-1,0,64)'
	DD	00H
	DD	00H
	DD	0ffffffffH
	DD	00H
	DD	040H
	DD	FLAT:??_R3CItemData@@8
rdata$r	ENDS
;	COMDAT ??_R2CItemData@@8
rdata$r	SEGMENT
??_R2CItemData@@8 DD FLAT:??_R1A@?0A@EA@CItemData@@8	; CItemData::`RTTI Base Class Array'
rdata$r	ENDS
;	COMDAT ??_R3CItemData@@8
rdata$r	SEGMENT
??_R3CItemData@@8 DD 00H				; CItemData::`RTTI Class Hierarchy Descriptor'
	DD	00H
	DD	01H
	DD	FLAT:??_R2CItemData@@8
rdata$r	ENDS
;	COMDAT ??_R0?AVCItemData@@@8
data$rs	SEGMENT
??_R0?AVCItemData@@@8 DD FLAT:??_7type_info@@6B@	; CItemData `RTTI Type Descriptor'
	DD	00H
	DB	'.?AVCItemData@@', 00H
data$rs	ENDS
;	COMDAT ??_R4CItemData@@6B@
rdata$r	SEGMENT
??_R4CItemData@@6B@ DD 00H				; CItemData::`RTTI Complete Object Locator'
	DD	00H
	DD	00H
	DD	FLAT:??_R0?AVCItemData@@@8
	DD	FLAT:??_R3CItemData@@8
rdata$r	ENDS
;	COMDAT ??_C@_0BA@FOIKENOD@vector?5too?5long@
CONST	SEGMENT
??_C@_0BA@FOIKENOD@vector?5too?5long@ DB 'vector too long', 00H ; `string'
CONST	ENDS
;	COMDAT ??_C@_0BB@HEDGKPKE@USE_UNKNOWN_TYPE@
CONST	SEGMENT
??_C@_0BB@HEDGKPKE@USE_UNKNOWN_TYPE@ DB 'USE_UNKNOWN_TYPE', 00H ; `string'
CONST	ENDS
;	COMDAT ??_C@_0BG@BNJKFJLI@USE_CHANGE_ATTRIBUTE2@
CONST	SEGMENT
??_C@_0BG@BNJKFJLI@USE_CHANGE_ATTRIBUTE2@ DB 'USE_CHANGE_ATTRIBUTE2', 00H ; `string'
CONST	ENDS
;	COMDAT ??_C@_0BD@LMCFGGAB@USE_ELEMENT_CHANGE@
CONST	SEGMENT
??_C@_0BD@LMCFGGAB@USE_ELEMENT_CHANGE@ DB 'USE_ELEMENT_CHANGE', 00H ; `string'
CONST	ENDS
;	COMDAT ??_C@_0BG@EOPNNGGH@USE_ELEMENT_DOWNGRADE@
CONST	SEGMENT
??_C@_0BG@EOPNNGGH@USE_ELEMENT_DOWNGRADE@ DB 'USE_ELEMENT_DOWNGRADE', 00H ; `string'
CONST	ENDS
;	COMDAT ??_C@_0BE@EDLAOIMA@USE_ELEMENT_UPGRADE@
CONST	SEGMENT
??_C@_0BE@EDLAOIMA@USE_ELEMENT_UPGRADE@ DB 'USE_ELEMENT_UPGRADE', 00H ; `string'
CONST	ENDS
;	COMDAT ??_C@_0BJ@FNHNMEGH@USE_PUT_INTO_AURA_SOCKET@
CONST	SEGMENT
??_C@_0BJ@FNHNMEGH@USE_PUT_INTO_AURA_SOCKET@ DB 'USE_PUT_INTO_AURA_SOCKET'
	DB	00H						; `string'
CONST	ENDS
;	COMDAT ??_C@_0BH@GEFCODLD@USE_RESET_COSTUME_ATTR@
CONST	SEGMENT
??_C@_0BH@GEFCODLD@USE_RESET_COSTUME_ATTR@ DB 'USE_RESET_COSTUME_ATTR', 00H ; `string'
CONST	ENDS
;	COMDAT ??_C@_0BI@JBGADBGG@USE_CHANGE_COSTUME_ATTR@
CONST	SEGMENT
??_C@_0BI@JBGADBGG@USE_CHANGE_COSTUME_ATTR@ DB 'USE_CHANGE_COSTUME_ATTR', 00H ; `string'
CONST	ENDS
;	COMDAT ??_C@_0BJ@MMJPLFIL@USE_PUT_INTO_RING_SOCKET@
CONST	SEGMENT
??_C@_0BJ@MMJPLFIL@USE_PUT_INTO_RING_SOCKET@ DB 'USE_PUT_INTO_RING_SOCKET'
	DB	00H						; `string'
CONST	ENDS
;	COMDAT ??_C@_0BJ@FLCFGEDJ@USE_PUT_INTO_BELT_SOCKET@
CONST	SEGMENT
??_C@_0BJ@FLCFGEDJ@USE_PUT_INTO_BELT_SOCKET@ DB 'USE_PUT_INTO_BELT_SOCKET'
	DB	00H						; `string'
CONST	ENDS
;	COMDAT ??_C@_0BO@CNHACOAA@USE_PUT_INTO_ACCESSORY_SOCKET@
CONST	SEGMENT
??_C@_0BO@CNHACOAA@USE_PUT_INTO_ACCESSORY_SOCKET@ DB 'USE_PUT_INTO_ACCESS'
	DB	'ORY_SOCKET', 00H				; `string'
CONST	ENDS
;	COMDAT ??_C@_0BJ@NMHGAPML@USE_ADD_ACCESSORY_SOCKET@
CONST	SEGMENT
??_C@_0BJ@NMHGAPML@USE_ADD_ACCESSORY_SOCKET@ DB 'USE_ADD_ACCESSORY_SOCKET'
	DB	00H						; `string'
CONST	ENDS
;	COMDAT ??_C@_0BD@OPDAABAO@USE_ADD_ATTRIBUTE2@
CONST	SEGMENT
??_C@_0BD@OPDAABAO@USE_ADD_ATTRIBUTE2@ DB 'USE_ADD_ATTRIBUTE2', 00H ; `string'
CONST	ENDS
;	COMDAT ??_C@_0BC@CNMGHFMD@USE_ADD_ATTRIBUTE@
CONST	SEGMENT
??_C@_0BC@CNMGHFMD@USE_ADD_ATTRIBUTE@ DB 'USE_ADD_ATTRIBUTE', 00H ; `string'
CONST	ENDS
;	COMDAT ??_C@_0BF@OFJOINJA@USE_CHANGE_ATTRIBUTE@
CONST	SEGMENT
??_C@_0BF@OFJOINJA@USE_CHANGE_ATTRIBUTE@ DB 'USE_CHANGE_ATTRIBUTE', 00H ; `string'
CONST	ENDS
;	COMDAT ??_C@_0BB@IPDHFONJ@USE_CLEAN_SOCKET@
CONST	SEGMENT
??_C@_0BB@IPDHFONJ@USE_CLEAN_SOCKET@ DB 'USE_CLEAN_SOCKET', 00H ; `string'
CONST	ENDS
;	COMDAT ??_C@_0P@MKAMDACK@USE_DETACHMENT@
CONST	SEGMENT
??_C@_0P@MKAMDACK@USE_DETACHMENT@ DB 'USE_DETACHMENT', 00H ; `string'
CONST	ENDS
;	COMDAT ??_C@_0L@JIILHJGL@USE_TUNING@
CONST	SEGMENT
??_C@_0L@JIILHJGL@USE_TUNING@ DB 'USE_TUNING', 00H	; `string'
CONST	ENDS
;	COMDAT ??_C@_0N@OHMMNDLH@NOT_USE_TYPE@
CONST	SEGMENT
??_C@_0N@OHMMNDLH@NOT_USE_TYPE@ DB 'NOT_USE_TYPE', 00H	; `string'
CONST	ENDS
;	COMDAT ??_C@_0CI@CPFNJMPO@?$CFs?5not?5found?4?5CItemData?3?3__SetI@
CONST	SEGMENT
??_C@_0CI@CPFNJMPO@?$CFs?5not?5found?4?5CItemData?3?3__SetI@ DB '%s not f'
	DB	'ound. CItemData::__SetIconImage', 00H	; `string'
CONST	ENDS
;	COMDAT ??_C@_0BE@FMGIELLL@icon?1item?127995?4tga@
CONST	SEGMENT
??_C@_0BE@FMGIELLL@icon?1item?127995?4tga@ DB 'icon/item/27995.tga', 00H ; `string'
CONST	ENDS
;	COMDAT ?c_szAlterIconImage@?4??__SetIconImage@CItemData@@IAEXPBD@Z@4PBDB
_DATA	SEGMENT
?c_szAlterIconImage@?4??__SetIconImage@CItemData@@IAEXPBD@Z@4PBDB DD FLAT:??_C@_0BE@FMGIELLL@icon?1item?127995?4tga@ ; `CItemData::__SetIconImage'::`5'::c_szAlterIconImage
_DATA	ENDS
;	COMDAT ??_C@_0CD@GGDHOLJD@d?3?1ymir?5work?1item?1etc?1item_bag?4@
CONST	SEGMENT
??_C@_0CD@GGDHOLJD@d?3?1ymir?5work?1item?1etc?1item_bag?4@ DB 'd:/ymir wo'
	DB	'rk/item/etc/item_bag.gr2', 00H		; `string'
CONST	ENDS
;	COMDAT ??_7CItemData@@6B@
CONST	SEGMENT
??_7CItemData@@6B@ DD FLAT:??_R4CItemData@@6B@		; CItemData::`vftable'
	DD	FLAT:??_ECItemData@@UAEPAXI@Z
CONST	ENDS
_DATA	SEGMENT
?ms_kPool@CItemData@@2V?$CDynamicPool@VCItemData@@@@A DD FLAT:??_7?$CDynamicPool@VCItemData@@@@6B@ ; CItemData::ms_kPool
	DD	00H
	DD	00H
	DD	00H
	DD	00H
	DD	00H
	DD	00H
	DD	00H
	DD	00H
_DATA	ENDS
;	COMDAT ?ms_kPool@?$CPooledObject@VCRotationDecorator@NEffectUpdateDecorator@@@@1V?$CDynamicPoolEx@VCRotationDecorator@NEffectUpdateDecorator@@@@A
_DATA	SEGMENT
?ms_kPool@?$CPooledObject@VCRotationDecorator@NEffectUpdateDecorator@@@@1V?$CDynamicPoolEx@VCRotationDecorator@NEffectUpdateDecorator@@@@A DD FLAT:??_7?$CDynamicPoolEx@VCRotationDecorator@NEffectUpdateDecorator@@@@6B@ ; CPooledObject<NEffectUpdateDecorator::CRotationDecorator>::ms_kPool
	DD	00H
	DD	00H
	DD	00H
	DD	00H
	DD	00H
	DD	00H
	DD	00H
	DD	00H
_DATA	ENDS
;	COMDAT ?ms_kPool@?$CPooledObject@VCGravityDecorator@NEffectUpdateDecorator@@@@1V?$CDynamicPoolEx@VCGravityDecorator@NEffectUpdateDecorator@@@@A
_DATA	SEGMENT
?ms_kPool@?$CPooledObject@VCGravityDecorator@NEffectUpdateDecorator@@@@1V?$CDynamicPoolEx@VCGravityDecorator@NEffectUpdateDecorator@@@@A DD FLAT:??_7?$CDynamicPoolEx@VCGravityDecorator@NEffectUpdateDecorator@@@@6B@ ; CPooledObject<NEffectUpdateDecorator::CGravityDecorator>::ms_kPool
	DD	00H
	DD	00H
	DD	00H
	DD	00H
	DD	00H
	DD	00H
	DD	00H
	DD	00H
_DATA	ENDS
;	COMDAT ?ms_kPool@?$CPooledObject@VCAirResistanceDecorator@NEffectUpdateDecorator@@@@1V?$CDynamicPoolEx@VCAirResistanceDecorator@NEffectUpdateDecorator@@@@A
_DATA	SEGMENT
?ms_kPool@?$CPooledObject@VCAirResistanceDecorator@NEffectUpdateDecorator@@@@1V?$CDynamicPoolEx@VCAirResistanceDecorator@NEffectUpdateDecorator@@@@A DD FLAT:??_7?$CDynamicPoolEx@VCAirResistanceDecorator@NEffectUpdateDecorator@@@@6B@ ; CPooledObject<NEffectUpdateDecorator::CAirResistanceDecorator>::ms_kPool
	DD	00H
	DD	00H
	DD	00H
	DD	00H
	DD	00H
	DD	00H
	DD	00H
	DD	00H
_DATA	ENDS
;	COMDAT ?ms_kPool@?$CPooledObject@VCTextureAnimationRandomDecorator@NEffectUpdateDecorator@@@@1V?$CDynamicPoolEx@VCTextureAnimationRandomDecorator@NEffectUpdateDecorator@@@@A
_DATA	SEGMENT
?ms_kPool@?$CPooledObject@VCTextureAnimationRandomDecorator@NEffectUpdateDecorator@@@@1V?$CDynamicPoolEx@VCTextureAnimationRandomDecorator@NEffectUpdateDecorator@@@@A DD FLAT:??_7?$CDynamicPoolEx@VCTextureAnimationRandomDecorator@NEffectUpdateDecorator@@@@6B@ ; CPooledObject<NEffectUpdateDecorator::CTextureAnimationRandomDecorator>::ms_kPool
	DD	00H
	DD	00H
	DD	00H
	DD	00H
	DD	00H
	DD	00H
	DD	00H
	DD	00H
_DATA	ENDS
;	COMDAT ?ms_kPool@?$CPooledObject@VCTextureAnimationCCWDecorator@NEffectUpdateDecorator@@@@1V?$CDynamicPoolEx@VCTextureAnimationCCWDecorator@NEffectUpdateDecorator@@@@A
_DATA	SEGMENT
?ms_kPool@?$CPooledObject@VCTextureAnimationCCWDecorator@NEffectUpdateDecorator@@@@1V?$CDynamicPoolEx@VCTextureAnimationCCWDecorator@NEffectUpdateDecorator@@@@A DD FLAT:??_7?$CDynamicPoolEx@VCTextureAnimationCCWDecorator@NEffectUpdateDecorator@@@@6B@ ; CPooledObject<NEffectUpdateDecorator::CTextureAnimationCCWDecorator>::ms_kPool
	DD	00H
	DD	00H
	DD	00H
	DD	00H
	DD	00H
	DD	00H
	DD	00H
	DD	00H
_DATA	ENDS
;	COMDAT ?ms_kPool@?$CPooledObject@VCTextureAnimationCWDecorator@NEffectUpdateDecorator@@@@1V?$CDynamicPoolEx@VCTextureAnimationCWDecorator@NEffectUpdateDecorator@@@@A
_DATA	SEGMENT
?ms_kPool@?$CPooledObject@VCTextureAnimationCWDecorator@NEffectUpdateDecorator@@@@1V?$CDynamicPoolEx@VCTextureAnimationCWDecorator@NEffectUpdateDecorator@@@@A DD FLAT:??_7?$CDynamicPoolEx@VCTextureAnimationCWDecorator@NEffectUpdateDecorator@@@@6B@ ; CPooledObject<NEffectUpdateDecorator::CTextureAnimationCWDecorator>::ms_kPool
	DD	00H
	DD	00H
	DD	00H
	DD	00H
	DD	00H
	DD	00H
	DD	00H
	DD	00H
_DATA	ENDS
;	COMDAT ?ms_kPool@?$CPooledObject@VCNullDecorator@NEffectUpdateDecorator@@@@1V?$CDynamicPoolEx@VCNullDecorator@NEffectUpdateDecorator@@@@A
_DATA	SEGMENT
?ms_kPool@?$CPooledObject@VCNullDecorator@NEffectUpdateDecorator@@@@1V?$CDynamicPoolEx@VCNullDecorator@NEffectUpdateDecorator@@@@A DD FLAT:??_7?$CDynamicPoolEx@VCNullDecorator@NEffectUpdateDecorator@@@@6B@ ; CPooledObject<NEffectUpdateDecorator::CNullDecorator>::ms_kPool
	DD	00H
	DD	00H
	DD	00H
	DD	00H
	DD	00H
	DD	00H
	DD	00H
	DD	00H
_DATA	ENDS
;	COMDAT ?ms_kPool@?$CPooledObject@VCHeaderDecorator@NEffectUpdateDecorator@@@@1V?$CDynamicPoolEx@VCHeaderDecorator@NEffectUpdateDecorator@@@@A
_DATA	SEGMENT
?ms_kPool@?$CPooledObject@VCHeaderDecorator@NEffectUpdateDecorator@@@@1V?$CDynamicPoolEx@VCHeaderDecorator@NEffectUpdateDecorator@@@@A DD FLAT:??_7?$CDynamicPoolEx@VCHeaderDecorator@NEffectUpdateDecorator@@@@6B@ ; CPooledObject<NEffectUpdateDecorator::CHeaderDecorator>::ms_kPool
	DD	00H
	DD	00H
	DD	00H
	DD	00H
	DD	00H
	DD	00H
	DD	00H
	DD	00H
_DATA	ENDS
;	COMDAT ??_R1A@?0A@EA@bad_array_new_length@std@@8
rdata$r	SEGMENT
??_R1A@?0A@EA@bad_array_new_length@std@@8 DD FLAT:??_R0?AVbad_array_new_length@std@@@8 ; std::bad_array_new_length::`RTTI Base Class Descriptor at (0,-1,0,64)'
	DD	02H
	DD	00H
	DD	0ffffffffH
	DD	00H
	DD	040H
	DD	FLAT:??_R3bad_array_new_length@std@@8
rdata$r	ENDS
;	COMDAT ??_R2bad_array_new_length@std@@8
rdata$r	SEGMENT
??_R2bad_array_new_length@std@@8 DD FLAT:??_R1A@?0A@EA@bad_array_new_length@std@@8 ; std::bad_array_new_length::`RTTI Base Class Array'
	DD	FLAT:??_R1A@?0A@EA@bad_alloc@std@@8
	DD	FLAT:??_R1A@?0A@EA@exception@std@@8
rdata$r	ENDS
;	COMDAT ??_R3bad_array_new_length@std@@8
rdata$r	SEGMENT
??_R3bad_array_new_length@std@@8 DD 00H			; std::bad_array_new_length::`RTTI Class Hierarchy Descriptor'
	DD	00H
	DD	03H
	DD	FLAT:??_R2bad_array_new_length@std@@8
rdata$r	ENDS
;	COMDAT ??_R4bad_array_new_length@std@@6B@
rdata$r	SEGMENT
??_R4bad_array_new_length@std@@6B@ DD 00H		; std::bad_array_new_length::`RTTI Complete Object Locator'
	DD	00H
	DD	00H
	DD	FLAT:??_R0?AVbad_array_new_length@std@@@8
	DD	FLAT:??_R3bad_array_new_length@std@@8
rdata$r	ENDS
;	COMDAT ??_R1A@?0A@EA@bad_alloc@std@@8
rdata$r	SEGMENT
??_R1A@?0A@EA@bad_alloc@std@@8 DD FLAT:??_R0?AVbad_alloc@std@@@8 ; std::bad_alloc::`RTTI Base Class Descriptor at (0,-1,0,64)'
	DD	01H
	DD	00H
	DD	0ffffffffH
	DD	00H
	DD	040H
	DD	FLAT:??_R3bad_alloc@std@@8
rdata$r	ENDS
;	COMDAT ??_R2bad_alloc@std@@8
rdata$r	SEGMENT
??_R2bad_alloc@std@@8 DD FLAT:??_R1A@?0A@EA@bad_alloc@std@@8 ; std::bad_alloc::`RTTI Base Class Array'
	DD	FLAT:??_R1A@?0A@EA@exception@std@@8
rdata$r	ENDS
;	COMDAT ??_R3bad_alloc@std@@8
rdata$r	SEGMENT
??_R3bad_alloc@std@@8 DD 00H				; std::bad_alloc::`RTTI Class Hierarchy Descriptor'
	DD	00H
	DD	02H
	DD	FLAT:??_R2bad_alloc@std@@8
rdata$r	ENDS
;	COMDAT ??_R4bad_alloc@std@@6B@
rdata$r	SEGMENT
??_R4bad_alloc@std@@6B@ DD 00H				; std::bad_alloc::`RTTI Complete Object Locator'
	DD	00H
	DD	00H
	DD	FLAT:??_R0?AVbad_alloc@std@@@8
	DD	FLAT:??_R3bad_alloc@std@@8
rdata$r	ENDS
;	COMDAT ??_R1A@?0A@EA@exception@std@@8
rdata$r	SEGMENT
??_R1A@?0A@EA@exception@std@@8 DD FLAT:??_R0?AVexception@std@@@8 ; std::exception::`RTTI Base Class Descriptor at (0,-1,0,64)'
	DD	00H
	DD	00H
	DD	0ffffffffH
	DD	00H
	DD	040H
	DD	FLAT:??_R3exception@std@@8
rdata$r	ENDS
;	COMDAT ??_R2exception@std@@8
rdata$r	SEGMENT
??_R2exception@std@@8 DD FLAT:??_R1A@?0A@EA@exception@std@@8 ; std::exception::`RTTI Base Class Array'
rdata$r	ENDS
;	COMDAT ??_R3exception@std@@8
rdata$r	SEGMENT
??_R3exception@std@@8 DD 00H				; std::exception::`RTTI Class Hierarchy Descriptor'
	DD	00H
	DD	01H
	DD	FLAT:??_R2exception@std@@8
rdata$r	ENDS
;	COMDAT ??_R4exception@std@@6B@
rdata$r	SEGMENT
??_R4exception@std@@6B@ DD 00H				; std::exception::`RTTI Complete Object Locator'
	DD	00H
	DD	00H
	DD	FLAT:??_R0?AVexception@std@@@8
	DD	FLAT:??_R3exception@std@@8
rdata$r	ENDS
;	COMDAT ??_C@_00CNPNBAHC@@
CONST	SEGMENT
??_C@_00CNPNBAHC@@ DB 00H				; `string'
CONST	ENDS
;	COMDAT ??_C@_0BA@JFNIOLAK@string?5too?5long@
CONST	SEGMENT
??_C@_0BA@JFNIOLAK@string?5too?5long@ DB 'string too long', 00H ; `string'
CONST	ENDS
;	COMDAT __CT??_R0?AVexception@std@@@8??0exception@std@@QAE@ABV01@@Z12
xdata$x	SEGMENT
__CT??_R0?AVexception@std@@@8??0exception@std@@QAE@ABV01@@Z12 DD 00H
	DD	FLAT:??_R0?AVexception@std@@@8
	DD	00H
	DD	0ffffffffH
	ORG $+4
	DD	0cH
	DD	FLAT:??0exception@std@@QAE@ABV01@@Z
xdata$x	ENDS
;	COMDAT ??_R0?AVexception@std@@@8
data$r	SEGMENT
??_R0?AVexception@std@@@8 DD FLAT:??_7type_info@@6B@	; std::exception `RTTI Type Descriptor'
	DD	00H
	DB	'.?AVexception@std@@', 00H
data$r	ENDS
;	COMDAT __CT??_R0?AVbad_alloc@std@@@8??0bad_alloc@std@@QAE@ABV01@@Z12
xdata$x	SEGMENT
__CT??_R0?AVbad_alloc@std@@@8??0bad_alloc@std@@QAE@ABV01@@Z12 DD 010H
	DD	FLAT:??_R0?AVbad_alloc@std@@@8
	DD	00H
	DD	0ffffffffH
	ORG $+4
	DD	0cH
	DD	FLAT:??0bad_alloc@std@@QAE@ABV01@@Z
xdata$x	ENDS
;	COMDAT ??_R0?AVbad_alloc@std@@@8
data$r	SEGMENT
??_R0?AVbad_alloc@std@@@8 DD FLAT:??_7type_info@@6B@	; std::bad_alloc `RTTI Type Descriptor'
	DD	00H
	DB	'.?AVbad_alloc@std@@', 00H
data$r	ENDS
;	COMDAT __CT??_R0?AVbad_array_new_length@std@@@8??0bad_array_new_length@std@@QAE@ABV01@@Z12
xdata$x	SEGMENT
__CT??_R0?AVbad_array_new_length@std@@@8??0bad_array_new_length@std@@QAE@ABV01@@Z12 DD 00H
	DD	FLAT:??_R0?AVbad_array_new_length@std@@@8
	DD	00H
	DD	0ffffffffH
	ORG $+4
	DD	0cH
	DD	FLAT:??0bad_array_new_length@std@@QAE@ABV01@@Z
xdata$x	ENDS
;	COMDAT ??_R0?AVbad_array_new_length@std@@@8
data$r	SEGMENT
??_R0?AVbad_array_new_length@std@@@8 DD FLAT:??_7type_info@@6B@ ; std::bad_array_new_length `RTTI Type Descriptor'
	DD	00H
	DB	'.?AVbad_array_new_length@std@@', 00H
data$r	ENDS
;	COMDAT __CTA3?AVbad_array_new_length@std@@
xdata$x	SEGMENT
__CTA3?AVbad_array_new_length@std@@ DD 03H
	DD	FLAT:__CT??_R0?AVbad_array_new_length@std@@@8??0bad_array_new_length@std@@QAE@ABV01@@Z12
	DD	FLAT:__CT??_R0?AVbad_alloc@std@@@8??0bad_alloc@std@@QAE@ABV01@@Z12
	DD	FLAT:__CT??_R0?AVexception@std@@@8??0exception@std@@QAE@ABV01@@Z12
xdata$x	ENDS
;	COMDAT __TI3?AVbad_array_new_length@std@@
xdata$x	SEGMENT
__TI3?AVbad_array_new_length@std@@ DD 00H
	DD	FLAT:??1bad_array_new_length@std@@UAE@XZ
	DD	00H
	DD	FLAT:__CTA3?AVbad_array_new_length@std@@
xdata$x	ENDS
;	COMDAT ??_C@_0BF@KINCDENJ@bad?5array?5new?5length@
CONST	SEGMENT
??_C@_0BF@KINCDENJ@bad?5array?5new?5length@ DB 'bad array new length', 00H ; `string'
CONST	ENDS
;	COMDAT ??_7bad_array_new_length@std@@6B@
CONST	SEGMENT
??_7bad_array_new_length@std@@6B@ DD FLAT:??_R4bad_array_new_length@std@@6B@ ; std::bad_array_new_length::`vftable'
	DD	FLAT:??_Ebad_array_new_length@std@@UAEPAXI@Z
	DD	FLAT:?what@exception@std@@UBEPBDXZ
CONST	ENDS
;	COMDAT ??_7bad_alloc@std@@6B@
CONST	SEGMENT
??_7bad_alloc@std@@6B@ DD FLAT:??_R4bad_alloc@std@@6B@	; std::bad_alloc::`vftable'
	DD	FLAT:??_Ebad_alloc@std@@UAEPAXI@Z
	DD	FLAT:?what@exception@std@@UBEPBDXZ
CONST	ENDS
;	COMDAT ??_C@_0BC@EOODALEL@Unknown?5exception@
CONST	SEGMENT
??_C@_0BC@EOODALEL@Unknown?5exception@ DB 'Unknown exception', 00H ; `string'
CONST	ENDS
;	COMDAT ??_7exception@std@@6B@
CONST	SEGMENT
??_7exception@std@@6B@ DD FLAT:??_R4exception@std@@6B@	; std::exception::`vftable'
	DD	FLAT:??_Eexception@std@@UAEPAXI@Z
	DD	FLAT:?what@exception@std@@UBEPBDXZ
CONST	ENDS
;	COMDAT xdata$x
xdata$x	SEGMENT
__unwindtable$?Alloc@?$CDynamicPool@VCItemData@@@@QAEPAVCItemData@@XZ DD 0ffffffffH
	DD	FLAT:__unwindfunclet$?Alloc@?$CDynamicPool@VCItemData@@@@QAEPAVCItemData@@XZ$0
__ehfuncinfo$?Alloc@?$CDynamicPool@VCItemData@@@@QAEPAVCItemData@@XZ DD 019930522H
	DD	01H
	DD	FLAT:__unwindtable$?Alloc@?$CDynamicPool@VCItemData@@@@QAEPAVCItemData@@XZ
	DD	2 DUP(00H)
	DD	2 DUP(00H)
	DD	00H
	DD	01H
xdata$x	ENDS
;	COMDAT xdata$x
xdata$x	SEGMENT
__unwindtable$?New@CItemData@@SAPAV1@XZ DD 0ffffffffH
	DD	FLAT:__unwindfunclet$?New@CItemData@@SAPAV1@XZ$0
__ehfuncinfo$?New@CItemData@@SAPAV1@XZ DD 019930522H
	DD	01H
	DD	FLAT:__unwindtable$?New@CItemData@@SAPAV1@XZ
	DD	2 DUP(00H)
	DD	2 DUP(00H)
	DD	00H
	DD	01H
xdata$x	ENDS
;	COMDAT xdata$x
xdata$x	SEGMENT
__ehfuncinfo$??0CItemData@@QAE@XZ DD 019930522H
	DD	09H
	DD	FLAT:__unwindtable$??0CItemData@@QAE@XZ
	DD	2 DUP(00H)
	DD	2 DUP(00H)
	DD	00H
	DD	01H
__unwindtable$??0CItemData@@QAE@XZ DD 0ffffffffH
	DD	FLAT:__unwindfunclet$??0CItemData@@QAE@XZ$0
	DD	00H
	DD	FLAT:__unwindfunclet$??0CItemData@@QAE@XZ$1
	DD	01H
	DD	FLAT:__unwindfunclet$??0CItemData@@QAE@XZ$2
	DD	02H
	DD	FLAT:__unwindfunclet$??0CItemData@@QAE@XZ$3
	DD	03H
	DD	FLAT:__unwindfunclet$??0CItemData@@QAE@XZ$4
	DD	04H
	DD	FLAT:__unwindfunclet$??0CItemData@@QAE@XZ$5
	DD	05H
	DD	FLAT:__unwindfunclet$??0CItemData@@QAE@XZ$6
	DD	06H
	DD	FLAT:__unwindfunclet$??0CItemData@@QAE@XZ$7
	DD	07H
	DD	FLAT:__unwindfunclet$??0CItemData@@QAE@XZ$8
xdata$x	ENDS
;	COMDAT CRT$XCU
CRT$XCU	SEGMENT
??ms_kPool$initializer$@?$CPooledObject@VCHeaderDecorator@NEffectUpdateDecorator@@@@1P6AXXZA@@3P6AXXZA DD FLAT:??__E?ms_kPool@?$CPooledObject@VCHeaderDecorator@NEffectUpdateDecorator@@@@1V?$CDynamicPoolEx@VCHeaderDecorator@NEffectUpdateDecorator@@@@A@@YAXXZ ; ??ms_kPool$initializer$@?$CPooledObject@VCHeaderDecorator@NEffectUpdateDecorator@@@@1P6AXXZA@@3P6AXXZA
CRT$XCU	ENDS
;	COMDAT CRT$XCU
CRT$XCU	SEGMENT
??ms_kPool$initializer$@?$CPooledObject@VCNullDecorator@NEffectUpdateDecorator@@@@1P6AXXZA@@3P6AXXZA DD FLAT:??__E?ms_kPool@?$CPooledObject@VCNullDecorator@NEffectUpdateDecorator@@@@1V?$CDynamicPoolEx@VCNullDecorator@NEffectUpdateDecorator@@@@A@@YAXXZ ; ??ms_kPool$initializer$@?$CPooledObject@VCNullDecorator@NEffectUpdateDecorator@@@@1P6AXXZA@@3P6AXXZA
CRT$XCU	ENDS
;	COMDAT CRT$XCU
CRT$XCU	SEGMENT
??ms_kPool$initializer$@?$CPooledObject@VCTextureAnimationCWDecorator@NEffectUpdateDecorator@@@@1P6AXXZA@@3P6AXXZA DD FLAT:??__E?ms_kPool@?$CPooledObject@VCTextureAnimationCWDecorator@NEffectUpdateDecorator@@@@1V?$CDynamicPoolEx@VCTextureAnimationCWDecorator@NEffectUpdateDecorator@@@@A@@YAXXZ ; ??ms_kPool$initializer$@?$CPooledObject@VCTextureAnimationCWDecorator@NEffectUpdateDecorator@@@@1P6AXXZA@@3P6AXXZA
CRT$XCU	ENDS
;	COMDAT CRT$XCU
CRT$XCU	SEGMENT
??ms_kPool$initializer$@?$CPooledObject@VCTextureAnimationCCWDecorator@NEffectUpdateDecorator@@@@1P6AXXZA@@3P6AXXZA DD FLAT:??__E?ms_kPool@?$CPooledObject@VCTextureAnimationCCWDecorator@NEffectUpdateDecorator@@@@1V?$CDynamicPoolEx@VCTextureAnimationCCWDecorator@NEffectUpdateDecorator@@@@A@@YAXXZ ; ??ms_kPool$initializer$@?$CPooledObject@VCTextureAnimationCCWDecorator@NEffectUpdateDecorator@@@@1P6AXXZA@@3P6AXXZA
CRT$XCU	ENDS
;	COMDAT CRT$XCU
CRT$XCU	SEGMENT
??ms_kPool$initializer$@?$CPooledObject@VCTextureAnimationRandomDecorator@NEffectUpdateDecorator@@@@1P6AXXZA@@3P6AXXZA DD FLAT:??__E?ms_kPool@?$CPooledObject@VCTextureAnimationRandomDecorator@NEffectUpdateDecorator@@@@1V?$CDynamicPoolEx@VCTextureAnimationRandomDecorator@NEffectUpdateDecorator@@@@A@@YAXXZ ; ??ms_kPool$initializer$@?$CPooledObject@VCTextureAnimationRandomDecorator@NEffectUpdateDecorator@@@@1P6AXXZA@@3P6AXXZA
CRT$XCU	ENDS
;	COMDAT CRT$XCU
CRT$XCU	SEGMENT
??ms_kPool$initializer$@?$CPooledObject@VCAirResistanceDecorator@NEffectUpdateDecorator@@@@1P6AXXZA@@3P6AXXZA DD FLAT:??__E?ms_kPool@?$CPooledObject@VCAirResistanceDecorator@NEffectUpdateDecorator@@@@1V?$CDynamicPoolEx@VCAirResistanceDecorator@NEffectUpdateDecorator@@@@A@@YAXXZ ; ??ms_kPool$initializer$@?$CPooledObject@VCAirResistanceDecorator@NEffectUpdateDecorator@@@@1P6AXXZA@@3P6AXXZA
CRT$XCU	ENDS
;	COMDAT CRT$XCU
CRT$XCU	SEGMENT
??ms_kPool$initializer$@?$CPooledObject@VCGravityDecorator@NEffectUpdateDecorator@@@@1P6AXXZA@@3P6AXXZA DD FLAT:??__E?ms_kPool@?$CPooledObject@VCGravityDecorator@NEffectUpdateDecorator@@@@1V?$CDynamicPoolEx@VCGravityDecorator@NEffectUpdateDecorator@@@@A@@YAXXZ ; ??ms_kPool$initializer$@?$CPooledObject@VCGravityDecorator@NEffectUpdateDecorator@@@@1P6AXXZA@@3P6AXXZA
CRT$XCU	ENDS
;	COMDAT CRT$XCU
CRT$XCU	SEGMENT
??ms_kPool$initializer$@?$CPooledObject@VCRotationDecorator@NEffectUpdateDecorator@@@@1P6AXXZA@@3P6AXXZA DD FLAT:??__E?ms_kPool@?$CPooledObject@VCRotationDecorator@NEffectUpdateDecorator@@@@1V?$CDynamicPoolEx@VCRotationDecorator@NEffectUpdateDecorator@@@@A@@YAXXZ ; ??ms_kPool$initializer$@?$CPooledObject@VCRotationDecorator@NEffectUpdateDecorator@@@@1P6AXXZA@@3P6AXXZA
CRT$XCU	ENDS
; Function compile flags: /Ogtp
; File D:\visual studio 2019\visual studio 2019\VC\Tools\MSVC\14.29.30133\include\xutility
;	COMDAT ??$_Copy_memmove@PAPAVCGraphicThing@@PAPAV1@@std@@YAPAPAVCGraphicThing@@PAPAV1@00@Z
_TEXT	SEGMENT
__First$ = 8						; size = 4
__Last$ = 12						; size = 4
__Dest$ = 16						; size = 4
??$_Copy_memmove@PAPAVCGraphicThing@@PAPAV1@@std@@YAPAPAVCGraphicThing@@PAPAV1@00@Z PROC ; std::_Copy_memmove<CGraphicThing * *,CGraphicThing * *>, COMDAT

; 4058 : _OutCtgIt _Copy_memmove(_CtgIt _First, _CtgIt _Last, _OutCtgIt _Dest) {

  00000	55		 push	 ebp
  00001	8b ec		 mov	 ebp, esp

; 4059 :     auto _FirstPtr              = _To_address(_First);
; 4060 :     auto _LastPtr               = _To_address(_Last);
; 4061 :     auto _DestPtr               = _To_address(_Dest);
; 4062 :     const char* const _First_ch = const_cast<const char*>(reinterpret_cast<const volatile char*>(_FirstPtr));
; 4063 :     const char* const _Last_ch  = const_cast<const char*>(reinterpret_cast<const volatile char*>(_LastPtr));
; 4064 :     char* const _Dest_ch        = const_cast<char*>(reinterpret_cast<const volatile char*>(_DestPtr));
; 4065 :     const auto _Count           = static_cast<size_t>(_Last_ch - _First_ch);

  00003	8b 45 08	 mov	 eax, DWORD PTR __First$[ebp]
  00006	56		 push	 esi

; 4066 :     _CSTD memmove(_Dest_ch, _First_ch, _Count);

  00007	8b 75 10	 mov	 esi, DWORD PTR __Dest$[ebp]
  0000a	57		 push	 edi
  0000b	8b 7d 0c	 mov	 edi, DWORD PTR __Last$[ebp]
  0000e	2b f8		 sub	 edi, eax
  00010	57		 push	 edi
  00011	50		 push	 eax
  00012	56		 push	 esi
  00013	e8 00 00 00 00	 call	 _memmove
  00018	83 c4 0c	 add	 esp, 12			; 0000000cH

; 4067 :     if constexpr (is_pointer_v<_OutCtgIt>) {
; 4068 :         return reinterpret_cast<_OutCtgIt>(_Dest_ch + _Count);

  0001b	8d 04 37	 lea	 eax, DWORD PTR [edi+esi]
  0001e	5f		 pop	 edi
  0001f	5e		 pop	 esi

; 4069 :     } else {
; 4070 :         return _Dest + (_LastPtr - _FirstPtr);
; 4071 :     }
; 4072 : }

  00020	5d		 pop	 ebp
  00021	c3		 ret	 0
??$_Copy_memmove@PAPAVCGraphicThing@@PAPAV1@@std@@YAPAPAVCGraphicThing@@PAPAV1@00@Z ENDP ; std::_Copy_memmove<CGraphicThing * *,CGraphicThing * *>
_TEXT	ENDS
; Function compile flags: /Ogtp
; File D:\visual studio 2019\visual studio 2019\VC\Tools\MSVC\14.29.30133\include\xmemory
;	COMDAT ??$_Zero_range@PAPAVCGraphicThing@@@std@@YAPAPAVCGraphicThing@@QAPAV1@0@Z
_TEXT	SEGMENT
__First$ = 8						; size = 4
__Last$ = 12						; size = 4
??$_Zero_range@PAPAVCGraphicThing@@@std@@YAPAPAVCGraphicThing@@QAPAV1@0@Z PROC ; std::_Zero_range<CGraphicThing * *>, COMDAT

; 1789 : _Ptr _Zero_range(const _Ptr _First, const _Ptr _Last) { // fill [_First, _Last) with zeroes

  00000	55		 push	 ebp
  00001	8b ec		 mov	 ebp, esp

; 1790 :     char* const _First_ch = reinterpret_cast<char*>(_To_address(_First));
; 1791 :     char* const _Last_ch  = reinterpret_cast<char*>(_To_address(_Last));
; 1792 :     _CSTD memset(_First_ch, 0, static_cast<size_t>(_Last_ch - _First_ch));

  00003	8b 55 08	 mov	 edx, DWORD PTR __First$[ebp]
  00006	8b 4d 0c	 mov	 ecx, DWORD PTR __Last$[ebp]
  00009	2b ca		 sub	 ecx, edx
  0000b	51		 push	 ecx
  0000c	6a 00		 push	 0
  0000e	52		 push	 edx
  0000f	e8 00 00 00 00	 call	 _memset

; 1793 :     return _Last;

  00014	8b 45 0c	 mov	 eax, DWORD PTR __Last$[ebp]
  00017	83 c4 0c	 add	 esp, 12			; 0000000cH

; 1794 : }

  0001a	5d		 pop	 ebp
  0001b	c3		 ret	 0
??$_Zero_range@PAPAVCGraphicThing@@@std@@YAPAPAVCGraphicThing@@QAPAV1@0@Z ENDP ; std::_Zero_range<CGraphicThing * *>
_TEXT	ENDS
; Function compile flags: /Ogtp
; File D:\visual studio 2019\visual studio 2019\VC\Tools\MSVC\14.29.30133\include\xutility
;	COMDAT ??$_Copy_memmove@PAPAVCItemData@@PAPAV1@@std@@YAPAPAVCItemData@@PAPAV1@00@Z
_TEXT	SEGMENT
__First$ = 8						; size = 4
__Last$ = 12						; size = 4
__Dest$ = 16						; size = 4
??$_Copy_memmove@PAPAVCItemData@@PAPAV1@@std@@YAPAPAVCItemData@@PAPAV1@00@Z PROC ; std::_Copy_memmove<CItemData * *,CItemData * *>, COMDAT

; 4058 : _OutCtgIt _Copy_memmove(_CtgIt _First, _CtgIt _Last, _OutCtgIt _Dest) {

  00000	55		 push	 ebp
  00001	8b ec		 mov	 ebp, esp

; 4059 :     auto _FirstPtr              = _To_address(_First);
; 4060 :     auto _LastPtr               = _To_address(_Last);
; 4061 :     auto _DestPtr               = _To_address(_Dest);
; 4062 :     const char* const _First_ch = const_cast<const char*>(reinterpret_cast<const volatile char*>(_FirstPtr));
; 4063 :     const char* const _Last_ch  = const_cast<const char*>(reinterpret_cast<const volatile char*>(_LastPtr));
; 4064 :     char* const _Dest_ch        = const_cast<char*>(reinterpret_cast<const volatile char*>(_DestPtr));
; 4065 :     const auto _Count           = static_cast<size_t>(_Last_ch - _First_ch);

  00003	8b 45 08	 mov	 eax, DWORD PTR __First$[ebp]
  00006	56		 push	 esi

; 4066 :     _CSTD memmove(_Dest_ch, _First_ch, _Count);

  00007	8b 75 10	 mov	 esi, DWORD PTR __Dest$[ebp]
  0000a	57		 push	 edi
  0000b	8b 7d 0c	 mov	 edi, DWORD PTR __Last$[ebp]
  0000e	2b f8		 sub	 edi, eax
  00010	57		 push	 edi
  00011	50		 push	 eax
  00012	56		 push	 esi
  00013	e8 00 00 00 00	 call	 _memmove
  00018	83 c4 0c	 add	 esp, 12			; 0000000cH

; 4067 :     if constexpr (is_pointer_v<_OutCtgIt>) {
; 4068 :         return reinterpret_cast<_OutCtgIt>(_Dest_ch + _Count);

  0001b	8d 04 37	 lea	 eax, DWORD PTR [edi+esi]
  0001e	5f		 pop	 edi
  0001f	5e		 pop	 esi

; 4069 :     } else {
; 4070 :         return _Dest + (_LastPtr - _FirstPtr);
; 4071 :     }
; 4072 : }

  00020	5d		 pop	 ebp
  00021	c3		 ret	 0
??$_Copy_memmove@PAPAVCItemData@@PAPAV1@@std@@YAPAPAVCItemData@@PAPAV1@00@Z ENDP ; std::_Copy_memmove<CItemData * *,CItemData * *>
_TEXT	ENDS
; Function compile flags: /Ogtp
; File D:\visual studio 2019\visual studio 2019\VC\Tools\MSVC\14.29.30133\include\vector
; File D:\visual studio 2019\visual studio 2019\VC\Tools\MSVC\14.29.30133\include\xmemory
; File D:\visual studio 2019\visual studio 2019\VC\Tools\MSVC\14.29.30133\include\vector
; File D:\visual studio 2019\visual studio 2019\VC\Tools\MSVC\14.29.30133\include\xmemory
; File D:\visual studio 2019\visual studio 2019\VC\Tools\MSVC\14.29.30133\include\vector
; File D:\visual studio 2019\visual studio 2019\VC\Tools\MSVC\14.29.30133\include\xmemory
; File D:\visual studio 2019\visual studio 2019\VC\Tools\MSVC\14.29.30133\include\vector
; File D:\visual studio 2019\visual studio 2019\VC\Tools\MSVC\14.29.30133\include\xmemory
; File D:\visual studio 2019\visual studio 2019\VC\Tools\MSVC\14.29.30133\include\vector
; File D:\visual studio 2019\visual studio 2019\VC\Tools\MSVC\14.29.30133\include\xmemory
; File D:\visual studio 2019\visual studio 2019\VC\Tools\MSVC\14.29.30133\include\vector
; File D:\visual studio 2019\visual studio 2019\VC\Tools\MSVC\14.29.30133\include\xmemory
; File D:\visual studio 2019\visual studio 2019\VC\Tools\MSVC\14.29.30133\include\vector
; File D:\visual studio 2019\visual studio 2019\VC\Tools\MSVC\14.29.30133\include\xmemory
; File D:\visual studio 2019\visual studio 2019\VC\Tools\MSVC\14.29.30133\include\vector
; File D:\visual studio 2019\visual studio 2019\VC\Tools\MSVC\14.29.30133\include\xmemory
; File D:\visual studio 2019\visual studio 2019\VC\Tools\MSVC\14.29.30133\include\vector
;	COMDAT ??$_Resize_reallocate@U_Value_init_tag@std@@@?$vector@PAVCGraphicThing@@V?$allocator@PAVCGraphicThing@@@std@@@std@@AAEXIABU_Value_init_tag@1@@Z
_TEXT	SEGMENT
__Oldsize$1$ = -4					; size = 4
__Newsize$ = 8						; size = 4
__Val$ = 12						; size = 4
??$_Resize_reallocate@U_Value_init_tag@std@@@?$vector@PAVCGraphicThing@@V?$allocator@PAVCGraphicThing@@@std@@@std@@AAEXIABU_Value_init_tag@1@@Z PROC ; std::vector<CGraphicThing *,std::allocator<CGraphicThing *> >::_Resize_reallocate<std::_Value_init_tag>, COMDAT
; _this$ = ecx

; 1216 :     _CONSTEXPR20_CONTAINER void _Resize_reallocate(const size_type _Newsize, const _Ty2& _Val) {

  00000	55		 push	 ebp
  00001	8b ec		 mov	 ebp, esp
  00003	51		 push	 ecx
  00004	53		 push	 ebx

; 1217 :         if (_Newsize > max_size()) {

  00005	8b 5d 08	 mov	 ebx, DWORD PTR __Newsize$[ebp]
  00008	56		 push	 esi
  00009	8b f1		 mov	 esi, ecx
  0000b	57		 push	 edi
  0000c	81 fb ff ff ff
	3f		 cmp	 ebx, 1073741823		; 3fffffffH
  00012	0f 87 ea 00 00
	00		 ja	 $LN82@Resize_rea

; 1219 :         }
; 1220 : 
; 1221 :         auto& _My_data    = _Mypair._Myval2;
; 1222 :         pointer& _Myfirst = _My_data._Myfirst;
; 1223 :         pointer& _Mylast  = _My_data._Mylast;
; 1224 : 
; 1225 :         const auto _Oldsize          = static_cast<size_type>(_Mylast - _Myfirst);

  00018	8b 4e 04	 mov	 ecx, DWORD PTR [esi+4]

; 1675 :         if (_Oldcapacity > _Max - _Oldcapacity / 2) {

  0001b	b8 ff ff ff 3f	 mov	 eax, 1073741823		; 3fffffffH

; 1219 :         }
; 1220 : 
; 1221 :         auto& _My_data    = _Mypair._Myval2;
; 1222 :         pointer& _Myfirst = _My_data._Myfirst;
; 1223 :         pointer& _Mylast  = _My_data._Mylast;
; 1224 : 
; 1225 :         const auto _Oldsize          = static_cast<size_type>(_Mylast - _Myfirst);

  00020	2b 0e		 sub	 ecx, DWORD PTR [esi]
  00022	c1 f9 02	 sar	 ecx, 2
  00025	89 4d fc	 mov	 DWORD PTR __Oldsize$1$[ebp], ecx

; 1546 :         return static_cast<size_type>(_My_data._Myend - _My_data._Myfirst);

  00028	8b 4e 08	 mov	 ecx, DWORD PTR [esi+8]
  0002b	2b 0e		 sub	 ecx, DWORD PTR [esi]
  0002d	c1 f9 02	 sar	 ecx, 2

; 1675 :         if (_Oldcapacity > _Max - _Oldcapacity / 2) {

  00030	8b d1		 mov	 edx, ecx
  00032	d1 ea		 shr	 edx, 1
  00034	2b c2		 sub	 eax, edx
  00036	3b c8		 cmp	 ecx, eax
  00038	76 12		 jbe	 SHORT $LN10@Resize_rea

; 1676 :             return _Max; // geometric growth would overflow

  0003a	bf fc ff ff ff	 mov	 edi, -4			; fffffffcH
; File D:\visual studio 2019\visual studio 2019\VC\Tools\MSVC\14.29.30133\include\xmemory

; 229  :             return _Allocate_manually_vector_aligned<_Traits>(_Bytes);

  0003f	57		 push	 edi
  00040	e8 00 00 00 00	 call	 ??$_Allocate_manually_vector_aligned@U_Default_allocate_traits@std@@@std@@YAPAXI@Z ; std::_Allocate_manually_vector_aligned<std::_Default_allocate_traits>
  00045	83 c4 04	 add	 esp, 4
  00048	8b d8		 mov	 ebx, eax
  0004a	eb 42		 jmp	 SHORT $LN21@Resize_rea
$LN10@Resize_rea:
; File D:\visual studio 2019\visual studio 2019\VC\Tools\MSVC\14.29.30133\include\vector

; 1679 :         const size_type _Geometric = _Oldcapacity + _Oldcapacity / 2;

  0004c	8d 3c 0a	 lea	 edi, DWORD PTR [edx+ecx]

; 1680 : 
; 1681 :         if (_Geometric < _Newsize) {

  0004f	3b fb		 cmp	 edi, ebx
  00051	73 1a		 jae	 SHORT $LN11@Resize_rea

; 1682 :             return _Newsize; // geometric growth would be insufficient

  00053	8b fb		 mov	 edi, ebx
$LN18@Resize_rea:
; File D:\visual studio 2019\visual studio 2019\VC\Tools\MSVC\14.29.30133\include\xmemory

; 65   :     return _Count * _Ty_size;

  00055	c1 e7 02	 shl	 edi, 2

; 228  :         if (_Bytes >= _Big_allocation_threshold) { // boost the alignment of big allocations to help autovectorization

  00058	81 ff 00 10 00
	00		 cmp	 edi, 4096		; 00001000H
  0005e	72 1b		 jb	 SHORT $LN22@Resize_rea

; 229  :             return _Allocate_manually_vector_aligned<_Traits>(_Bytes);

  00060	57		 push	 edi
  00061	e8 00 00 00 00	 call	 ??$_Allocate_manually_vector_aligned@U_Default_allocate_traits@std@@@std@@YAPAXI@Z ; std::_Allocate_manually_vector_aligned<std::_Default_allocate_traits>
  00066	83 c4 04	 add	 esp, 4
  00069	8b d8		 mov	 ebx, eax
  0006b	eb 21		 jmp	 SHORT $LN21@Resize_rea
$LN11@Resize_rea:

; 60   :         if (_Count > _Max_possible) {

  0006d	81 ff ff ff ff
	3f		 cmp	 edi, 1073741823		; 3fffffffH
  00073	0f 87 8e 00 00
	00		 ja	 $LN83@Resize_rea
  00079	eb da		 jmp	 SHORT $LN18@Resize_rea
$LN22@Resize_rea:

; 234  :     if (_Bytes != 0) {

  0007b	85 ff		 test	 edi, edi
  0007d	74 0d		 je	 SHORT $LN23@Resize_rea

; 79   :         return ::operator new(_Bytes);

  0007f	57		 push	 edi
  00080	e8 00 00 00 00	 call	 ??2@YAPAXI@Z		; operator new
  00085	83 c4 04	 add	 esp, 4

; 235  :         return _Traits::_Allocate(_Bytes);

  00088	8b d8		 mov	 ebx, eax
  0008a	eb 02		 jmp	 SHORT $LN21@Resize_rea
$LN23@Resize_rea:

; 236  :     }
; 237  : 
; 238  :     return nullptr;

  0008c	33 db		 xor	 ebx, ebx
$LN21@Resize_rea:
; File D:\visual studio 2019\visual studio 2019\VC\Tools\MSVC\14.29.30133\include\vector

; 1229 :         const pointer _Appended_first = _Newvec + _Oldsize;

  0008e	8b 55 fc	 mov	 edx, DWORD PTR __Oldsize$1$[ebp]
; File D:\visual studio 2019\visual studio 2019\VC\Tools\MSVC\14.29.30133\include\xmemory

; 1807 :             _Zero_range(_PFirst, _PFirst + _Count);

  00091	8b 45 08	 mov	 eax, DWORD PTR __Newsize$[ebp]
  00094	2b c2		 sub	 eax, edx
; File D:\visual studio 2019\visual studio 2019\VC\Tools\MSVC\14.29.30133\include\vector

; 1229 :         const pointer _Appended_first = _Newvec + _Oldsize;

  00096	8d 0c 93	 lea	 ecx, DWORD PTR [ebx+edx*4]
; File D:\visual studio 2019\visual studio 2019\VC\Tools\MSVC\14.29.30133\include\xmemory

; 1807 :             _Zero_range(_PFirst, _PFirst + _Count);

  00099	8d 04 81	 lea	 eax, DWORD PTR [ecx+eax*4]
  0009c	50		 push	 eax
  0009d	51		 push	 ecx
  0009e	e8 00 00 00 00	 call	 ??$_Zero_range@PAPAVCGraphicThing@@@std@@YAPAPAVCGraphicThing@@QAPAV1@0@Z ; std::_Zero_range<CGraphicThing * *>

; 1711 :             _Copy_memmove(_UFirst, _ULast, _Unfancy(_Dest));

  000a3	53		 push	 ebx
  000a4	ff 76 04	 push	 DWORD PTR [esi+4]
  000a7	ff 36		 push	 DWORD PTR [esi]
  000a9	e8 00 00 00 00	 call	 ??$_Copy_memmove@PAPAVCGraphicThing@@PAPAV1@@std@@YAPAPAVCGraphicThing@@PAPAV1@00@Z ; std::_Copy_memmove<CGraphicThing * *,CGraphicThing * *>
; File D:\visual studio 2019\visual studio 2019\VC\Tools\MSVC\14.29.30133\include\vector

; 1732 :         if (_Myfirst) { // destroy and deallocate old array

  000ae	8b 06		 mov	 eax, DWORD PTR [esi]
; File D:\visual studio 2019\visual studio 2019\VC\Tools\MSVC\14.29.30133\include\xmemory

; 1711 :             _Copy_memmove(_UFirst, _ULast, _Unfancy(_Dest));

  000b0	83 c4 14	 add	 esp, 20			; 00000014H
; File D:\visual studio 2019\visual studio 2019\VC\Tools\MSVC\14.29.30133\include\vector

; 1732 :         if (_Myfirst) { // destroy and deallocate old array

  000b3	85 c0		 test	 eax, eax
  000b5	74 2c		 je	 SHORT $LN65@Resize_rea

; 1733 :             _Destroy(_Myfirst, _Mylast);
; 1734 :             _Getal().deallocate(_Myfirst, static_cast<size_type>(_Myend - _Myfirst));

  000b7	8b 4e 08	 mov	 ecx, DWORD PTR [esi+8]
  000ba	2b c8		 sub	 ecx, eax
; File D:\visual studio 2019\visual studio 2019\VC\Tools\MSVC\14.29.30133\include\xmemory

; 797  :         _Deallocate<_New_alignof<_Ty>>(_Ptr, sizeof(_Ty) * _Count);

  000bc	83 e1 fc	 and	 ecx, -4			; fffffffcH

; 251  :         if (_Bytes >= _Big_allocation_threshold) { // boost the alignment of big allocations to help autovectorization

  000bf	81 f9 00 10 00
	00		 cmp	 ecx, 4096		; 00001000H
  000c5	72 12		 jb	 SHORT $LN75@Resize_rea

; 150  :     const uintptr_t _Ptr_container   = _Ptr_user[-1];

  000c7	8b 50 fc	 mov	 edx, DWORD PTR [eax-4]
  000ca	83 c1 23	 add	 ecx, 35			; 00000023H

; 151  : 
; 152  :     // If the following asserts, it likely means that we are performing
; 153  :     // an aligned delete on memory coming from an unaligned allocation.
; 154  :     _STL_ASSERT(_Ptr_user[-2] == _Big_allocation_sentinel, "invalid argument");
; 155  : 
; 156  :     // Extra paranoia on aligned allocation/deallocation; ensure _Ptr_container is
; 157  :     // in range [_Min_back_shift, _Non_user_size]
; 158  : #ifdef _DEBUG
; 159  :     constexpr uintptr_t _Min_back_shift = 2 * sizeof(void*);
; 160  : #else // ^^^ _DEBUG ^^^ // vvv !_DEBUG vvv
; 161  :     constexpr uintptr_t _Min_back_shift = sizeof(void*);
; 162  : #endif // _DEBUG
; 163  :     const uintptr_t _Back_shift = reinterpret_cast<uintptr_t>(_Ptr) - _Ptr_container;

  000cd	2b c2		 sub	 eax, edx

; 164  :     _STL_VERIFY(_Back_shift >= _Min_back_shift && _Back_shift <= _Non_user_size, "invalid argument");

  000cf	83 c0 fc	 add	 eax, -4			; fffffffcH
  000d2	83 f8 1f	 cmp	 eax, 31			; 0000001fH
  000d5	77 26		 ja	 SHORT $LN72@Resize_rea

; 165  :     _Ptr = reinterpret_cast<void*>(_Ptr_container);

  000d7	8b c2		 mov	 eax, edx
$LN75@Resize_rea:

; 255  :         ::operator delete(_Ptr, _Bytes);

  000d9	51		 push	 ecx
  000da	50		 push	 eax
  000db	e8 00 00 00 00	 call	 ??3@YAXPAXI@Z		; operator delete
  000e0	83 c4 08	 add	 esp, 8
$LN65@Resize_rea:
; File D:\visual studio 2019\visual studio 2019\VC\Tools\MSVC\14.29.30133\include\vector

; 1738 :         _Mylast  = _Newvec + _Newsize;

  000e3	8b 45 08	 mov	 eax, DWORD PTR __Newsize$[ebp]
  000e6	89 1e		 mov	 DWORD PTR [esi], ebx
  000e8	8d 04 83	 lea	 eax, DWORD PTR [ebx+eax*4]
  000eb	89 46 04	 mov	 DWORD PTR [esi+4], eax

; 1739 :         _Myend   = _Newvec + _Newcapacity;

  000ee	8d 04 1f	 lea	 eax, DWORD PTR [edi+ebx]
  000f1	5f		 pop	 edi
  000f2	89 46 08	 mov	 DWORD PTR [esi+8], eax
  000f5	5e		 pop	 esi
  000f6	5b		 pop	 ebx

; 1242 :     }

  000f7	8b e5		 mov	 esp, ebp
  000f9	5d		 pop	 ebp
  000fa	c2 08 00	 ret	 8
$LN72@Resize_rea:
; File D:\visual studio 2019\visual studio 2019\VC\Tools\MSVC\14.29.30133\include\xmemory

; 164  :     _STL_VERIFY(_Back_shift >= _Min_back_shift && _Back_shift <= _Non_user_size, "invalid argument");

  000fd	e8 00 00 00 00	 call	 __invalid_parameter_noinfo_noreturn
$LN82@Resize_rea:
; File D:\visual studio 2019\visual studio 2019\VC\Tools\MSVC\14.29.30133\include\vector

; 1218 :             _Xlength();

  00102	e8 00 00 00 00	 call	 ?_Xlength@?$vector@PAVCGraphicThing@@V?$allocator@PAVCGraphicThing@@@std@@@std@@CAXXZ ; std::vector<CGraphicThing *,std::allocator<CGraphicThing *> >::_Xlength
$LN83@Resize_rea:
; File D:\visual studio 2019\visual studio 2019\VC\Tools\MSVC\14.29.30133\include\xmemory

; 61   :             _Throw_bad_array_new_length(); // multiply overflow

  00107	e8 00 00 00 00	 call	 ?_Throw_bad_array_new_length@std@@YAXXZ ; std::_Throw_bad_array_new_length
$LN80@Resize_rea:
  0010c	cc		 int	 3
??$_Resize_reallocate@U_Value_init_tag@std@@@?$vector@PAVCGraphicThing@@V?$allocator@PAVCGraphicThing@@@std@@@std@@AAEXIABU_Value_init_tag@1@@Z ENDP ; std::vector<CGraphicThing *,std::allocator<CGraphicThing *> >::_Resize_reallocate<std::_Value_init_tag>
_TEXT	ENDS
; Function compile flags: /Ogtp
;	COMDAT ??__F?ms_kPool@?$CPooledObject@VCRotationDecorator@NEffectUpdateDecorator@@@@1V?$CDynamicPoolEx@VCRotationDecorator@NEffectUpdateDecorator@@@@A@@YAXXZ
text$yd	SEGMENT
??__F?ms_kPool@?$CPooledObject@VCRotationDecorator@NEffectUpdateDecorator@@@@1V?$CDynamicPoolEx@VCRotationDecorator@NEffectUpdateDecorator@@@@A@@YAXXZ PROC ; `dynamic atexit destructor for 'CPooledObject<NEffectUpdateDecorator::CRotationDecorator>::ms_kPool'', COMDAT
  00000	b9 00 00 00 00	 mov	 ecx, OFFSET ?ms_kPool@?$CPooledObject@VCRotationDecorator@NEffectUpdateDecorator@@@@1V?$CDynamicPoolEx@VCRotationDecorator@NEffectUpdateDecorator@@@@A ; CPooledObject<NEffectUpdateDecorator::CRotationDecorator>::ms_kPool
  00005	e9 00 00 00 00	 jmp	 ??1?$CDynamicPoolEx@VCRotationDecorator@NEffectUpdateDecorator@@@@UAE@XZ ; CDynamicPoolEx<NEffectUpdateDecorator::CRotationDecorator>::~CDynamicPoolEx<NEffectUpdateDecorator::CRotationDecorator>
??__F?ms_kPool@?$CPooledObject@VCRotationDecorator@NEffectUpdateDecorator@@@@1V?$CDynamicPoolEx@VCRotationDecorator@NEffectUpdateDecorator@@@@A@@YAXXZ ENDP ; `dynamic atexit destructor for 'CPooledObject<NEffectUpdateDecorator::CRotationDecorator>::ms_kPool''
text$yd	ENDS
; Function compile flags: /Ogtp
; File C:\Users\ALEXANDER\Desktop\Cliente\COPY_FISH_WON_NEW\Binario\Client\eterLib\Pool.h
;	COMDAT ??__E?ms_kPool@?$CPooledObject@VCRotationDecorator@NEffectUpdateDecorator@@@@1V?$CDynamicPoolEx@VCRotationDecorator@NEffectUpdateDecorator@@@@A@@YAXXZ
text$di	SEGMENT
??__E?ms_kPool@?$CPooledObject@VCRotationDecorator@NEffectUpdateDecorator@@@@1V?$CDynamicPoolEx@VCRotationDecorator@NEffectUpdateDecorator@@@@A@@YAXXZ PROC ; `dynamic initializer for 'CPooledObject<NEffectUpdateDecorator::CRotationDecorator>::ms_kPool'', COMDAT

; 272  : template <class T> CDynamicPoolEx<T> CPooledObject<T>::ms_kPool;

  00000	68 00 00 00 00	 push	 OFFSET ??__F?ms_kPool@?$CPooledObject@VCRotationDecorator@NEffectUpdateDecorator@@@@1V?$CDynamicPoolEx@VCRotationDecorator@NEffectUpdateDecorator@@@@A@@YAXXZ ; `dynamic atexit destructor for 'CPooledObject<NEffectUpdateDecorator::CRotationDecorator>::ms_kPool''
  00005	e8 00 00 00 00	 call	 _atexit
  0000a	59		 pop	 ecx
  0000b	c3		 ret	 0
??__E?ms_kPool@?$CPooledObject@VCRotationDecorator@NEffectUpdateDecorator@@@@1V?$CDynamicPoolEx@VCRotationDecorator@NEffectUpdateDecorator@@@@A@@YAXXZ ENDP ; `dynamic initializer for 'CPooledObject<NEffectUpdateDecorator::CRotationDecorator>::ms_kPool''
text$di	ENDS
; Function compile flags: /Ogtp
;	COMDAT ??__F?ms_kPool@?$CPooledObject@VCGravityDecorator@NEffectUpdateDecorator@@@@1V?$CDynamicPoolEx@VCGravityDecorator@NEffectUpdateDecorator@@@@A@@YAXXZ
text$yd	SEGMENT
??__F?ms_kPool@?$CPooledObject@VCGravityDecorator@NEffectUpdateDecorator@@@@1V?$CDynamicPoolEx@VCGravityDecorator@NEffectUpdateDecorator@@@@A@@YAXXZ PROC ; `dynamic atexit destructor for 'CPooledObject<NEffectUpdateDecorator::CGravityDecorator>::ms_kPool'', COMDAT
  00000	b9 00 00 00 00	 mov	 ecx, OFFSET ?ms_kPool@?$CPooledObject@VCGravityDecorator@NEffectUpdateDecorator@@@@1V?$CDynamicPoolEx@VCGravityDecorator@NEffectUpdateDecorator@@@@A ; CPooledObject<NEffectUpdateDecorator::CGravityDecorator>::ms_kPool
  00005	e9 00 00 00 00	 jmp	 ??1?$CDynamicPoolEx@VCGravityDecorator@NEffectUpdateDecorator@@@@UAE@XZ ; CDynamicPoolEx<NEffectUpdateDecorator::CGravityDecorator>::~CDynamicPoolEx<NEffectUpdateDecorator::CGravityDecorator>
??__F?ms_kPool@?$CPooledObject@VCGravityDecorator@NEffectUpdateDecorator@@@@1V?$CDynamicPoolEx@VCGravityDecorator@NEffectUpdateDecorator@@@@A@@YAXXZ ENDP ; `dynamic atexit destructor for 'CPooledObject<NEffectUpdateDecorator::CGravityDecorator>::ms_kPool''
text$yd	ENDS
; Function compile flags: /Ogtp
; File C:\Users\ALEXANDER\Desktop\Cliente\COPY_FISH_WON_NEW\Binario\Client\eterLib\Pool.h
;	COMDAT ??__E?ms_kPool@?$CPooledObject@VCGravityDecorator@NEffectUpdateDecorator@@@@1V?$CDynamicPoolEx@VCGravityDecorator@NEffectUpdateDecorator@@@@A@@YAXXZ
text$di	SEGMENT
??__E?ms_kPool@?$CPooledObject@VCGravityDecorator@NEffectUpdateDecorator@@@@1V?$CDynamicPoolEx@VCGravityDecorator@NEffectUpdateDecorator@@@@A@@YAXXZ PROC ; `dynamic initializer for 'CPooledObject<NEffectUpdateDecorator::CGravityDecorator>::ms_kPool'', COMDAT

; 272  : template <class T> CDynamicPoolEx<T> CPooledObject<T>::ms_kPool;

  00000	68 00 00 00 00	 push	 OFFSET ??__F?ms_kPool@?$CPooledObject@VCGravityDecorator@NEffectUpdateDecorator@@@@1V?$CDynamicPoolEx@VCGravityDecorator@NEffectUpdateDecorator@@@@A@@YAXXZ ; `dynamic atexit destructor for 'CPooledObject<NEffectUpdateDecorator::CGravityDecorator>::ms_kPool''
  00005	e8 00 00 00 00	 call	 _atexit
  0000a	59		 pop	 ecx
  0000b	c3		 ret	 0
??__E?ms_kPool@?$CPooledObject@VCGravityDecorator@NEffectUpdateDecorator@@@@1V?$CDynamicPoolEx@VCGravityDecorator@NEffectUpdateDecorator@@@@A@@YAXXZ ENDP ; `dynamic initializer for 'CPooledObject<NEffectUpdateDecorator::CGravityDecorator>::ms_kPool''
text$di	ENDS
; Function compile flags: /Ogtp
;	COMDAT ??__F?ms_kPool@?$CPooledObject@VCAirResistanceDecorator@NEffectUpdateDecorator@@@@1V?$CDynamicPoolEx@VCAirResistanceDecorator@NEffectUpdateDecorator@@@@A@@YAXXZ
text$yd	SEGMENT
??__F?ms_kPool@?$CPooledObject@VCAirResistanceDecorator@NEffectUpdateDecorator@@@@1V?$CDynamicPoolEx@VCAirResistanceDecorator@NEffectUpdateDecorator@@@@A@@YAXXZ PROC ; `dynamic atexit destructor for 'CPooledObject<NEffectUpdateDecorator::CAirResistanceDecorator>::ms_kPool'', COMDAT
  00000	b9 00 00 00 00	 mov	 ecx, OFFSET ?ms_kPool@?$CPooledObject@VCAirResistanceDecorator@NEffectUpdateDecorator@@@@1V?$CDynamicPoolEx@VCAirResistanceDecorator@NEffectUpdateDecorator@@@@A ; CPooledObject<NEffectUpdateDecorator::CAirResistanceDecorator>::ms_kPool
  00005	e9 00 00 00 00	 jmp	 ??1?$CDynamicPoolEx@VCAirResistanceDecorator@NEffectUpdateDecorator@@@@UAE@XZ ; CDynamicPoolEx<NEffectUpdateDecorator::CAirResistanceDecorator>::~CDynamicPoolEx<NEffectUpdateDecorator::CAirResistanceDecorator>
??__F?ms_kPool@?$CPooledObject@VCAirResistanceDecorator@NEffectUpdateDecorator@@@@1V?$CDynamicPoolEx@VCAirResistanceDecorator@NEffectUpdateDecorator@@@@A@@YAXXZ ENDP ; `dynamic atexit destructor for 'CPooledObject<NEffectUpdateDecorator::CAirResistanceDecorator>::ms_kPool''
text$yd	ENDS
; Function compile flags: /Ogtp
; File C:\Users\ALEXANDER\Desktop\Cliente\COPY_FISH_WON_NEW\Binario\Client\eterLib\Pool.h
;	COMDAT ??__E?ms_kPool@?$CPooledObject@VCAirResistanceDecorator@NEffectUpdateDecorator@@@@1V?$CDynamicPoolEx@VCAirResistanceDecorator@NEffectUpdateDecorator@@@@A@@YAXXZ
text$di	SEGMENT
??__E?ms_kPool@?$CPooledObject@VCAirResistanceDecorator@NEffectUpdateDecorator@@@@1V?$CDynamicPoolEx@VCAirResistanceDecorator@NEffectUpdateDecorator@@@@A@@YAXXZ PROC ; `dynamic initializer for 'CPooledObject<NEffectUpdateDecorator::CAirResistanceDecorator>::ms_kPool'', COMDAT

; 272  : template <class T> CDynamicPoolEx<T> CPooledObject<T>::ms_kPool;

  00000	68 00 00 00 00	 push	 OFFSET ??__F?ms_kPool@?$CPooledObject@VCAirResistanceDecorator@NEffectUpdateDecorator@@@@1V?$CDynamicPoolEx@VCAirResistanceDecorator@NEffectUpdateDecorator@@@@A@@YAXXZ ; `dynamic atexit destructor for 'CPooledObject<NEffectUpdateDecorator::CAirResistanceDecorator>::ms_kPool''
  00005	e8 00 00 00 00	 call	 _atexit
  0000a	59		 pop	 ecx
  0000b	c3		 ret	 0
??__E?ms_kPool@?$CPooledObject@VCAirResistanceDecorator@NEffectUpdateDecorator@@@@1V?$CDynamicPoolEx@VCAirResistanceDecorator@NEffectUpdateDecorator@@@@A@@YAXXZ ENDP ; `dynamic initializer for 'CPooledObject<NEffectUpdateDecorator::CAirResistanceDecorator>::ms_kPool''
text$di	ENDS
; Function compile flags: /Ogtp
;	COMDAT ??__F?ms_kPool@?$CPooledObject@VCTextureAnimationRandomDecorator@NEffectUpdateDecorator@@@@1V?$CDynamicPoolEx@VCTextureAnimationRandomDecorator@NEffectUpdateDecorator@@@@A@@YAXXZ
text$yd	SEGMENT
??__F?ms_kPool@?$CPooledObject@VCTextureAnimationRandomDecorator@NEffectUpdateDecorator@@@@1V?$CDynamicPoolEx@VCTextureAnimationRandomDecorator@NEffectUpdateDecorator@@@@A@@YAXXZ PROC ; `dynamic atexit destructor for 'CPooledObject<NEffectUpdateDecorator::CTextureAnimationRandomDecorator>::ms_kPool'', COMDAT
  00000	b9 00 00 00 00	 mov	 ecx, OFFSET ?ms_kPool@?$CPooledObject@VCTextureAnimationRandomDecorator@NEffectUpdateDecorator@@@@1V?$CDynamicPoolEx@VCTextureAnimationRandomDecorator@NEffectUpdateDecorator@@@@A ; CPooledObject<NEffectUpdateDecorator::CTextureAnimationRandomDecorator>::ms_kPool
  00005	e9 00 00 00 00	 jmp	 ??1?$CDynamicPoolEx@VCTextureAnimationRandomDecorator@NEffectUpdateDecorator@@@@UAE@XZ ; CDynamicPoolEx<NEffectUpdateDecorator::CTextureAnimationRandomDecorator>::~CDynamicPoolEx<NEffectUpdateDecorator::CTextureAnimationRandomDecorator>
??__F?ms_kPool@?$CPooledObject@VCTextureAnimationRandomDecorator@NEffectUpdateDecorator@@@@1V?$CDynamicPoolEx@VCTextureAnimationRandomDecorator@NEffectUpdateDecorator@@@@A@@YAXXZ ENDP ; `dynamic atexit destructor for 'CPooledObject<NEffectUpdateDecorator::CTextureAnimationRandomDecorator>::ms_kPool''
text$yd	ENDS
; Function compile flags: /Ogtp
; File C:\Users\ALEXANDER\Desktop\Cliente\COPY_FISH_WON_NEW\Binario\Client\eterLib\Pool.h
;	COMDAT ??__E?ms_kPool@?$CPooledObject@VCTextureAnimationRandomDecorator@NEffectUpdateDecorator@@@@1V?$CDynamicPoolEx@VCTextureAnimationRandomDecorator@NEffectUpdateDecorator@@@@A@@YAXXZ
text$di	SEGMENT
??__E?ms_kPool@?$CPooledObject@VCTextureAnimationRandomDecorator@NEffectUpdateDecorator@@@@1V?$CDynamicPoolEx@VCTextureAnimationRandomDecorator@NEffectUpdateDecorator@@@@A@@YAXXZ PROC ; `dynamic initializer for 'CPooledObject<NEffectUpdateDecorator::CTextureAnimationRandomDecorator>::ms_kPool'', COMDAT

; 272  : template <class T> CDynamicPoolEx<T> CPooledObject<T>::ms_kPool;

  00000	68 00 00 00 00	 push	 OFFSET ??__F?ms_kPool@?$CPooledObject@VCTextureAnimationRandomDecorator@NEffectUpdateDecorator@@@@1V?$CDynamicPoolEx@VCTextureAnimationRandomDecorator@NEffectUpdateDecorator@@@@A@@YAXXZ ; `dynamic atexit destructor for 'CPooledObject<NEffectUpdateDecorator::CTextureAnimationRandomDecorator>::ms_kPool''
  00005	e8 00 00 00 00	 call	 _atexit
  0000a	59		 pop	 ecx
  0000b	c3		 ret	 0
??__E?ms_kPool@?$CPooledObject@VCTextureAnimationRandomDecorator@NEffectUpdateDecorator@@@@1V?$CDynamicPoolEx@VCTextureAnimationRandomDecorator@NEffectUpdateDecorator@@@@A@@YAXXZ ENDP ; `dynamic initializer for 'CPooledObject<NEffectUpdateDecorator::CTextureAnimationRandomDecorator>::ms_kPool''
text$di	ENDS
; Function compile flags: /Ogtp
;	COMDAT ??__F?ms_kPool@?$CPooledObject@VCTextureAnimationCCWDecorator@NEffectUpdateDecorator@@@@1V?$CDynamicPoolEx@VCTextureAnimationCCWDecorator@NEffectUpdateDecorator@@@@A@@YAXXZ
text$yd	SEGMENT
??__F?ms_kPool@?$CPooledObject@VCTextureAnimationCCWDecorator@NEffectUpdateDecorator@@@@1V?$CDynamicPoolEx@VCTextureAnimationCCWDecorator@NEffectUpdateDecorator@@@@A@@YAXXZ PROC ; `dynamic atexit destructor for 'CPooledObject<NEffectUpdateDecorator::CTextureAnimationCCWDecorator>::ms_kPool'', COMDAT
  00000	b9 00 00 00 00	 mov	 ecx, OFFSET ?ms_kPool@?$CPooledObject@VCTextureAnimationCCWDecorator@NEffectUpdateDecorator@@@@1V?$CDynamicPoolEx@VCTextureAnimationCCWDecorator@NEffectUpdateDecorator@@@@A ; CPooledObject<NEffectUpdateDecorator::CTextureAnimationCCWDecorator>::ms_kPool
  00005	e9 00 00 00 00	 jmp	 ??1?$CDynamicPoolEx@VCTextureAnimationCCWDecorator@NEffectUpdateDecorator@@@@UAE@XZ ; CDynamicPoolEx<NEffectUpdateDecorator::CTextureAnimationCCWDecorator>::~CDynamicPoolEx<NEffectUpdateDecorator::CTextureAnimationCCWDecorator>
??__F?ms_kPool@?$CPooledObject@VCTextureAnimationCCWDecorator@NEffectUpdateDecorator@@@@1V?$CDynamicPoolEx@VCTextureAnimationCCWDecorator@NEffectUpdateDecorator@@@@A@@YAXXZ ENDP ; `dynamic atexit destructor for 'CPooledObject<NEffectUpdateDecorator::CTextureAnimationCCWDecorator>::ms_kPool''
text$yd	ENDS
; Function compile flags: /Ogtp
; File C:\Users\ALEXANDER\Desktop\Cliente\COPY_FISH_WON_NEW\Binario\Client\eterLib\Pool.h
;	COMDAT ??__E?ms_kPool@?$CPooledObject@VCTextureAnimationCCWDecorator@NEffectUpdateDecorator@@@@1V?$CDynamicPoolEx@VCTextureAnimationCCWDecorator@NEffectUpdateDecorator@@@@A@@YAXXZ
text$di	SEGMENT
??__E?ms_kPool@?$CPooledObject@VCTextureAnimationCCWDecorator@NEffectUpdateDecorator@@@@1V?$CDynamicPoolEx@VCTextureAnimationCCWDecorator@NEffectUpdateDecorator@@@@A@@YAXXZ PROC ; `dynamic initializer for 'CPooledObject<NEffectUpdateDecorator::CTextureAnimationCCWDecorator>::ms_kPool'', COMDAT

; 272  : template <class T> CDynamicPoolEx<T> CPooledObject<T>::ms_kPool;

  00000	68 00 00 00 00	 push	 OFFSET ??__F?ms_kPool@?$CPooledObject@VCTextureAnimationCCWDecorator@NEffectUpdateDecorator@@@@1V?$CDynamicPoolEx@VCTextureAnimationCCWDecorator@NEffectUpdateDecorator@@@@A@@YAXXZ ; `dynamic atexit destructor for 'CPooledObject<NEffectUpdateDecorator::CTextureAnimationCCWDecorator>::ms_kPool''
  00005	e8 00 00 00 00	 call	 _atexit
  0000a	59		 pop	 ecx
  0000b	c3		 ret	 0
??__E?ms_kPool@?$CPooledObject@VCTextureAnimationCCWDecorator@NEffectUpdateDecorator@@@@1V?$CDynamicPoolEx@VCTextureAnimationCCWDecorator@NEffectUpdateDecorator@@@@A@@YAXXZ ENDP ; `dynamic initializer for 'CPooledObject<NEffectUpdateDecorator::CTextureAnimationCCWDecorator>::ms_kPool''
text$di	ENDS
; Function compile flags: /Ogtp
;	COMDAT ??__F?ms_kPool@?$CPooledObject@VCTextureAnimationCWDecorator@NEffectUpdateDecorator@@@@1V?$CDynamicPoolEx@VCTextureAnimationCWDecorator@NEffectUpdateDecorator@@@@A@@YAXXZ
text$yd	SEGMENT
??__F?ms_kPool@?$CPooledObject@VCTextureAnimationCWDecorator@NEffectUpdateDecorator@@@@1V?$CDynamicPoolEx@VCTextureAnimationCWDecorator@NEffectUpdateDecorator@@@@A@@YAXXZ PROC ; `dynamic atexit destructor for 'CPooledObject<NEffectUpdateDecorator::CTextureAnimationCWDecorator>::ms_kPool'', COMDAT
  00000	b9 00 00 00 00	 mov	 ecx, OFFSET ?ms_kPool@?$CPooledObject@VCTextureAnimationCWDecorator@NEffectUpdateDecorator@@@@1V?$CDynamicPoolEx@VCTextureAnimationCWDecorator@NEffectUpdateDecorator@@@@A ; CPooledObject<NEffectUpdateDecorator::CTextureAnimationCWDecorator>::ms_kPool
  00005	e9 00 00 00 00	 jmp	 ??1?$CDynamicPoolEx@VCTextureAnimationCWDecorator@NEffectUpdateDecorator@@@@UAE@XZ ; CDynamicPoolEx<NEffectUpdateDecorator::CTextureAnimationCWDecorator>::~CDynamicPoolEx<NEffectUpdateDecorator::CTextureAnimationCWDecorator>
??__F?ms_kPool@?$CPooledObject@VCTextureAnimationCWDecorator@NEffectUpdateDecorator@@@@1V?$CDynamicPoolEx@VCTextureAnimationCWDecorator@NEffectUpdateDecorator@@@@A@@YAXXZ ENDP ; `dynamic atexit destructor for 'CPooledObject<NEffectUpdateDecorator::CTextureAnimationCWDecorator>::ms_kPool''
text$yd	ENDS
; Function compile flags: /Ogtp
; File C:\Users\ALEXANDER\Desktop\Cliente\COPY_FISH_WON_NEW\Binario\Client\eterLib\Pool.h
;	COMDAT ??__E?ms_kPool@?$CPooledObject@VCTextureAnimationCWDecorator@NEffectUpdateDecorator@@@@1V?$CDynamicPoolEx@VCTextureAnimationCWDecorator@NEffectUpdateDecorator@@@@A@@YAXXZ
text$di	SEGMENT
??__E?ms_kPool@?$CPooledObject@VCTextureAnimationCWDecorator@NEffectUpdateDecorator@@@@1V?$CDynamicPoolEx@VCTextureAnimationCWDecorator@NEffectUpdateDecorator@@@@A@@YAXXZ PROC ; `dynamic initializer for 'CPooledObject<NEffectUpdateDecorator::CTextureAnimationCWDecorator>::ms_kPool'', COMDAT

; 272  : template <class T> CDynamicPoolEx<T> CPooledObject<T>::ms_kPool;

  00000	68 00 00 00 00	 push	 OFFSET ??__F?ms_kPool@?$CPooledObject@VCTextureAnimationCWDecorator@NEffectUpdateDecorator@@@@1V?$CDynamicPoolEx@VCTextureAnimationCWDecorator@NEffectUpdateDecorator@@@@A@@YAXXZ ; `dynamic atexit destructor for 'CPooledObject<NEffectUpdateDecorator::CTextureAnimationCWDecorator>::ms_kPool''
  00005	e8 00 00 00 00	 call	 _atexit
  0000a	59		 pop	 ecx
  0000b	c3		 ret	 0
??__E?ms_kPool@?$CPooledObject@VCTextureAnimationCWDecorator@NEffectUpdateDecorator@@@@1V?$CDynamicPoolEx@VCTextureAnimationCWDecorator@NEffectUpdateDecorator@@@@A@@YAXXZ ENDP ; `dynamic initializer for 'CPooledObject<NEffectUpdateDecorator::CTextureAnimationCWDecorator>::ms_kPool''
text$di	ENDS
; Function compile flags: /Ogtp
;	COMDAT ??__F?ms_kPool@?$CPooledObject@VCNullDecorator@NEffectUpdateDecorator@@@@1V?$CDynamicPoolEx@VCNullDecorator@NEffectUpdateDecorator@@@@A@@YAXXZ
text$yd	SEGMENT
??__F?ms_kPool@?$CPooledObject@VCNullDecorator@NEffectUpdateDecorator@@@@1V?$CDynamicPoolEx@VCNullDecorator@NEffectUpdateDecorator@@@@A@@YAXXZ PROC ; `dynamic atexit destructor for 'CPooledObject<NEffectUpdateDecorator::CNullDecorator>::ms_kPool'', COMDAT
  00000	b9 00 00 00 00	 mov	 ecx, OFFSET ?ms_kPool@?$CPooledObject@VCNullDecorator@NEffectUpdateDecorator@@@@1V?$CDynamicPoolEx@VCNullDecorator@NEffectUpdateDecorator@@@@A ; CPooledObject<NEffectUpdateDecorator::CNullDecorator>::ms_kPool
  00005	e9 00 00 00 00	 jmp	 ??1?$CDynamicPoolEx@VCNullDecorator@NEffectUpdateDecorator@@@@UAE@XZ ; CDynamicPoolEx<NEffectUpdateDecorator::CNullDecorator>::~CDynamicPoolEx<NEffectUpdateDecorator::CNullDecorator>
??__F?ms_kPool@?$CPooledObject@VCNullDecorator@NEffectUpdateDecorator@@@@1V?$CDynamicPoolEx@VCNullDecorator@NEffectUpdateDecorator@@@@A@@YAXXZ ENDP ; `dynamic atexit destructor for 'CPooledObject<NEffectUpdateDecorator::CNullDecorator>::ms_kPool''
text$yd	ENDS
; Function compile flags: /Ogtp
; File C:\Users\ALEXANDER\Desktop\Cliente\COPY_FISH_WON_NEW\Binario\Client\eterLib\Pool.h
;	COMDAT ??__E?ms_kPool@?$CPooledObject@VCNullDecorator@NEffectUpdateDecorator@@@@1V?$CDynamicPoolEx@VCNullDecorator@NEffectUpdateDecorator@@@@A@@YAXXZ
text$di	SEGMENT
??__E?ms_kPool@?$CPooledObject@VCNullDecorator@NEffectUpdateDecorator@@@@1V?$CDynamicPoolEx@VCNullDecorator@NEffectUpdateDecorator@@@@A@@YAXXZ PROC ; `dynamic initializer for 'CPooledObject<NEffectUpdateDecorator::CNullDecorator>::ms_kPool'', COMDAT

; 272  : template <class T> CDynamicPoolEx<T> CPooledObject<T>::ms_kPool;

  00000	68 00 00 00 00	 push	 OFFSET ??__F?ms_kPool@?$CPooledObject@VCNullDecorator@NEffectUpdateDecorator@@@@1V?$CDynamicPoolEx@VCNullDecorator@NEffectUpdateDecorator@@@@A@@YAXXZ ; `dynamic atexit destructor for 'CPooledObject<NEffectUpdateDecorator::CNullDecorator>::ms_kPool''
  00005	e8 00 00 00 00	 call	 _atexit
  0000a	59		 pop	 ecx
  0000b	c3		 ret	 0
??__E?ms_kPool@?$CPooledObject@VCNullDecorator@NEffectUpdateDecorator@@@@1V?$CDynamicPoolEx@VCNullDecorator@NEffectUpdateDecorator@@@@A@@YAXXZ ENDP ; `dynamic initializer for 'CPooledObject<NEffectUpdateDecorator::CNullDecorator>::ms_kPool''
text$di	ENDS
; Function compile flags: /Ogtp
;	COMDAT ??__F?ms_kPool@?$CPooledObject@VCHeaderDecorator@NEffectUpdateDecorator@@@@1V?$CDynamicPoolEx@VCHeaderDecorator@NEffectUpdateDecorator@@@@A@@YAXXZ
text$yd	SEGMENT
??__F?ms_kPool@?$CPooledObject@VCHeaderDecorator@NEffectUpdateDecorator@@@@1V?$CDynamicPoolEx@VCHeaderDecorator@NEffectUpdateDecorator@@@@A@@YAXXZ PROC ; `dynamic atexit destructor for 'CPooledObject<NEffectUpdateDecorator::CHeaderDecorator>::ms_kPool'', COMDAT
  00000	b9 00 00 00 00	 mov	 ecx, OFFSET ?ms_kPool@?$CPooledObject@VCHeaderDecorator@NEffectUpdateDecorator@@@@1V?$CDynamicPoolEx@VCHeaderDecorator@NEffectUpdateDecorator@@@@A ; CPooledObject<NEffectUpdateDecorator::CHeaderDecorator>::ms_kPool
  00005	e9 00 00 00 00	 jmp	 ??1?$CDynamicPoolEx@VCHeaderDecorator@NEffectUpdateDecorator@@@@UAE@XZ ; CDynamicPoolEx<NEffectUpdateDecorator::CHeaderDecorator>::~CDynamicPoolEx<NEffectUpdateDecorator::CHeaderDecorator>
??__F?ms_kPool@?$CPooledObject@VCHeaderDecorator@NEffectUpdateDecorator@@@@1V?$CDynamicPoolEx@VCHeaderDecorator@NEffectUpdateDecorator@@@@A@@YAXXZ ENDP ; `dynamic atexit destructor for 'CPooledObject<NEffectUpdateDecorator::CHeaderDecorator>::ms_kPool''
text$yd	ENDS
; Function compile flags: /Ogtp
; File C:\Users\ALEXANDER\Desktop\Cliente\COPY_FISH_WON_NEW\Binario\Client\eterLib\Pool.h
;	COMDAT ??__E?ms_kPool@?$CPooledObject@VCHeaderDecorator@NEffectUpdateDecorator@@@@1V?$CDynamicPoolEx@VCHeaderDecorator@NEffectUpdateDecorator@@@@A@@YAXXZ
text$di	SEGMENT
??__E?ms_kPool@?$CPooledObject@VCHeaderDecorator@NEffectUpdateDecorator@@@@1V?$CDynamicPoolEx@VCHeaderDecorator@NEffectUpdateDecorator@@@@A@@YAXXZ PROC ; `dynamic initializer for 'CPooledObject<NEffectUpdateDecorator::CHeaderDecorator>::ms_kPool'', COMDAT

; 272  : template <class T> CDynamicPoolEx<T> CPooledObject<T>::ms_kPool;

  00000	68 00 00 00 00	 push	 OFFSET ??__F?ms_kPool@?$CPooledObject@VCHeaderDecorator@NEffectUpdateDecorator@@@@1V?$CDynamicPoolEx@VCHeaderDecorator@NEffectUpdateDecorator@@@@A@@YAXXZ ; `dynamic atexit destructor for 'CPooledObject<NEffectUpdateDecorator::CHeaderDecorator>::ms_kPool''
  00005	e8 00 00 00 00	 call	 _atexit
  0000a	59		 pop	 ecx
  0000b	c3		 ret	 0
??__E?ms_kPool@?$CPooledObject@VCHeaderDecorator@NEffectUpdateDecorator@@@@1V?$CDynamicPoolEx@VCHeaderDecorator@NEffectUpdateDecorator@@@@A@@YAXXZ ENDP ; `dynamic initializer for 'CPooledObject<NEffectUpdateDecorator::CHeaderDecorator>::ms_kPool''
text$di	ENDS
; Function compile flags: /Ogtp
; File D:\visual studio 2019\visual studio 2019\VC\Tools\MSVC\14.29.30133\include\vector
; File D:\visual studio 2019\visual studio 2019\VC\Tools\MSVC\14.29.30133\include\xmemory
; File D:\visual studio 2019\visual studio 2019\VC\Tools\MSVC\14.29.30133\include\vector
; File D:\visual studio 2019\visual studio 2019\VC\Tools\MSVC\14.29.30133\include\xmemory
; File D:\visual studio 2019\visual studio 2019\VC\Tools\MSVC\14.29.30133\include\vector
; File D:\visual studio 2019\visual studio 2019\VC\Tools\MSVC\14.29.30133\include\xmemory
; File D:\visual studio 2019\visual studio 2019\VC\Tools\MSVC\14.29.30133\include\vector
; File D:\visual studio 2019\visual studio 2019\VC\Tools\MSVC\14.29.30133\include\xmemory
; File D:\visual studio 2019\visual studio 2019\VC\Tools\MSVC\14.29.30133\include\vector
; File D:\visual studio 2019\visual studio 2019\VC\Tools\MSVC\14.29.30133\include\xmemory
; File D:\visual studio 2019\visual studio 2019\VC\Tools\MSVC\14.29.30133\include\vector
; File D:\visual studio 2019\visual studio 2019\VC\Tools\MSVC\14.29.30133\include\xmemory
; File D:\visual studio 2019\visual studio 2019\VC\Tools\MSVC\14.29.30133\include\vector
; File D:\visual studio 2019\visual studio 2019\VC\Tools\MSVC\14.29.30133\include\xmemory
; File D:\visual studio 2019\visual studio 2019\VC\Tools\MSVC\14.29.30133\include\vector
; File D:\visual studio 2019\visual studio 2019\VC\Tools\MSVC\14.29.30133\include\xmemory
; File D:\visual studio 2019\visual studio 2019\VC\Tools\MSVC\14.29.30133\include\vector
; File D:\visual studio 2019\visual studio 2019\VC\Tools\MSVC\14.29.30133\include\xmemory
; File D:\visual studio 2019\visual studio 2019\VC\Tools\MSVC\14.29.30133\include\vector
;	COMDAT ??$_Emplace_reallocate@ABQAVCItemData@@@?$vector@PAVCItemData@@V?$allocator@PAVCItemData@@@std@@@std@@QAEPAPAVCItemData@@QAPAV2@ABQAV2@@Z
_TEXT	SEGMENT
__Newsize$1$ = -8					; size = 4
tv641 = -4						; size = 4
__Whereoff$1$ = -4					; size = 4
__Whereptr$ = 8						; size = 4
_<_Val_0>$ = 12						; size = 4
??$_Emplace_reallocate@ABQAVCItemData@@@?$vector@PAVCItemData@@V?$allocator@PAVCItemData@@@std@@@std@@QAEPAPAVCItemData@@QAPAV2@ABQAV2@@Z PROC ; std::vector<CItemData *,std::allocator<CItemData *> >::_Emplace_reallocate<CItemData * const &>, COMDAT
; _this$ = ecx

; 752  :     _CONSTEXPR20_CONTAINER pointer _Emplace_reallocate(const pointer _Whereptr, _Valty&&... _Val) {

  00000	55		 push	 ebp
  00001	8b ec		 mov	 ebp, esp
  00003	83 ec 08	 sub	 esp, 8

; 753  :         // reallocate and insert by perfectly forwarding _Val at _Whereptr
; 754  :         _Alty& _Al        = _Getal();
; 755  :         auto& _My_data    = _Mypair._Myval2;
; 756  :         pointer& _Myfirst = _My_data._Myfirst;
; 757  :         pointer& _Mylast  = _My_data._Mylast;
; 758  : 
; 759  :         _STL_INTERNAL_CHECK(_Mylast == _My_data._Myend); // check that we have no unused capacity
; 760  : 
; 761  :         const auto _Whereoff = static_cast<size_type>(_Whereptr - _Myfirst);

  00006	8b 45 08	 mov	 eax, DWORD PTR __Whereptr$[ebp]
  00009	53		 push	 ebx
  0000a	56		 push	 esi
  0000b	8b f1		 mov	 esi, ecx
  0000d	57		 push	 edi
  0000e	8b 0e		 mov	 ecx, DWORD PTR [esi]
  00010	2b c1		 sub	 eax, ecx
  00012	c1 f8 02	 sar	 eax, 2
  00015	89 45 fc	 mov	 DWORD PTR __Whereoff$1$[ebp], eax

; 762  :         const auto _Oldsize  = static_cast<size_type>(_Mylast - _Myfirst);

  00018	8b 46 04	 mov	 eax, DWORD PTR [esi+4]
  0001b	2b c1		 sub	 eax, ecx
  0001d	c1 f8 02	 sar	 eax, 2

; 763  : 
; 764  :         if (_Oldsize == max_size()) {

  00020	3d ff ff ff 3f	 cmp	 eax, 1073741823		; 3fffffffH
  00025	0f 84 06 01 00
	00		 je	 $LN96@Emplace_re

; 1546 :         return static_cast<size_type>(_My_data._Myend - _My_data._Myfirst);

  0002b	8b 56 08	 mov	 edx, DWORD PTR [esi+8]

; 766  :         }
; 767  : 
; 768  :         const size_type _Newsize     = _Oldsize + 1;

  0002e	8d 78 01	 lea	 edi, DWORD PTR [eax+1]

; 1546 :         return static_cast<size_type>(_My_data._Myend - _My_data._Myfirst);

  00031	2b d1		 sub	 edx, ecx

; 766  :         }
; 767  : 
; 768  :         const size_type _Newsize     = _Oldsize + 1;

  00033	89 7d f8	 mov	 DWORD PTR __Newsize$1$[ebp], edi

; 1546 :         return static_cast<size_type>(_My_data._Myend - _My_data._Myfirst);

  00036	c1 fa 02	 sar	 edx, 2

; 1675 :         if (_Oldcapacity > _Max - _Oldcapacity / 2) {

  00039	b8 ff ff ff 3f	 mov	 eax, 1073741823		; 3fffffffH
  0003e	8b ca		 mov	 ecx, edx
  00040	d1 e9		 shr	 ecx, 1
  00042	2b c1		 sub	 eax, ecx
  00044	3b d0		 cmp	 edx, eax
  00046	76 12		 jbe	 SHORT $LN12@Emplace_re

; 1676 :             return _Max; // geometric growth would overflow

  00048	bb fc ff ff ff	 mov	 ebx, -4			; fffffffcH
; File D:\visual studio 2019\visual studio 2019\VC\Tools\MSVC\14.29.30133\include\xmemory

; 229  :             return _Allocate_manually_vector_aligned<_Traits>(_Bytes);

  0004d	53		 push	 ebx
  0004e	e8 00 00 00 00	 call	 ??$_Allocate_manually_vector_aligned@U_Default_allocate_traits@std@@@std@@YAPAXI@Z ; std::_Allocate_manually_vector_aligned<std::_Default_allocate_traits>
  00053	83 c4 04	 add	 esp, 4
  00056	8b f8		 mov	 edi, eax
  00058	eb 41		 jmp	 SHORT $LN23@Emplace_re
$LN12@Emplace_re:
; File D:\visual studio 2019\visual studio 2019\VC\Tools\MSVC\14.29.30133\include\vector

; 1679 :         const size_type _Geometric = _Oldcapacity + _Oldcapacity / 2;

  0005a	8d 04 11	 lea	 eax, DWORD PTR [ecx+edx]
; File D:\visual studio 2019\visual studio 2019\VC\Tools\MSVC\14.29.30133\include\xmemory

; 60   :         if (_Count > _Max_possible) {

  0005d	8b df		 mov	 ebx, edi
  0005f	3b c7		 cmp	 eax, edi
  00061	0f 43 d8	 cmovae	 ebx, eax
  00064	81 fb ff ff ff
	3f		 cmp	 ebx, 1073741823		; 3fffffffH
  0006a	0f 87 c6 00 00
	00		 ja	 $LN97@Emplace_re

; 62   :         }
; 63   :     }
; 64   : 
; 65   :     return _Count * _Ty_size;

  00070	c1 e3 02	 shl	 ebx, 2

; 228  :         if (_Bytes >= _Big_allocation_threshold) { // boost the alignment of big allocations to help autovectorization

  00073	81 fb 00 10 00
	00		 cmp	 ebx, 4096		; 00001000H
  00079	72 0d		 jb	 SHORT $LN24@Emplace_re

; 229  :             return _Allocate_manually_vector_aligned<_Traits>(_Bytes);

  0007b	53		 push	 ebx
  0007c	e8 00 00 00 00	 call	 ??$_Allocate_manually_vector_aligned@U_Default_allocate_traits@std@@@std@@YAPAXI@Z ; std::_Allocate_manually_vector_aligned<std::_Default_allocate_traits>
  00081	83 c4 04	 add	 esp, 4
  00084	8b f8		 mov	 edi, eax
  00086	eb 13		 jmp	 SHORT $LN23@Emplace_re
$LN24@Emplace_re:

; 230  :         }
; 231  :     }
; 232  : #endif // defined(_M_IX86) || defined(_M_X64)
; 233  : 
; 234  :     if (_Bytes != 0) {

  00088	85 db		 test	 ebx, ebx
  0008a	74 0d		 je	 SHORT $LN25@Emplace_re

; 79   :         return ::operator new(_Bytes);

  0008c	53		 push	 ebx
  0008d	e8 00 00 00 00	 call	 ??2@YAPAXI@Z		; operator new
  00092	83 c4 04	 add	 esp, 4

; 235  :         return _Traits::_Allocate(_Bytes);

  00095	8b f8		 mov	 edi, eax
  00097	eb 02		 jmp	 SHORT $LN23@Emplace_re
$LN25@Emplace_re:

; 236  :     }
; 237  : 
; 238  :     return nullptr;

  00099	33 ff		 xor	 edi, edi
$LN23@Emplace_re:
; File D:\visual studio 2019\visual studio 2019\VC\Tools\MSVC\14.29.30133\include\vector

; 776  :         _Alty_traits::construct(_Al, _Unfancy(_Newvec + _Whereoff), _STD forward<_Valty>(_Val)...);

  0009b	8b 45 fc	 mov	 eax, DWORD PTR __Whereoff$1$[ebp]
  0009e	8d 0c 87	 lea	 ecx, DWORD PTR [edi+eax*4]
  000a1	8b 45 0c	 mov	 eax, DWORD PTR _<_Val_0>$[ebp]
  000a4	89 4d fc	 mov	 DWORD PTR tv641[ebp], ecx
  000a7	8b 00		 mov	 eax, DWORD PTR [eax]
  000a9	89 01		 mov	 DWORD PTR [ecx], eax

; 777  :         _Constructed_first = _Newvec + _Whereoff;
; 778  : 
; 779  :         if (_Whereptr == _Mylast) { // at back, provide strong guarantee

  000ab	8b 4e 04	 mov	 ecx, DWORD PTR [esi+4]
  000ae	8b 45 08	 mov	 eax, DWORD PTR __Whereptr$[ebp]
  000b1	8b 16		 mov	 edx, DWORD PTR [esi]
  000b3	3b c1		 cmp	 eax, ecx
  000b5	75 04		 jne	 SHORT $LN4@Emplace_re
; File D:\visual studio 2019\visual studio 2019\VC\Tools\MSVC\14.29.30133\include\xmemory

; 1711 :             _Copy_memmove(_UFirst, _ULast, _Unfancy(_Dest));

  000b7	8b c7		 mov	 eax, edi
; File D:\visual studio 2019\visual studio 2019\VC\Tools\MSVC\14.29.30133\include\vector

; 781  :         } else { // provide basic guarantee

  000b9	eb 17		 jmp	 SHORT $LN60@Emplace_re
$LN4@Emplace_re:
; File D:\visual studio 2019\visual studio 2019\VC\Tools\MSVC\14.29.30133\include\xmemory

; 1711 :             _Copy_memmove(_UFirst, _ULast, _Unfancy(_Dest));

  000bb	57		 push	 edi
  000bc	50		 push	 eax
  000bd	52		 push	 edx
  000be	e8 00 00 00 00	 call	 ??$_Copy_memmove@PAPAVCItemData@@PAPAV1@@std@@YAPAPAVCItemData@@PAPAV1@00@Z ; std::_Copy_memmove<CItemData * *,CItemData * *>
; File D:\visual studio 2019\visual studio 2019\VC\Tools\MSVC\14.29.30133\include\vector

; 784  :             _Umove(_Whereptr, _Mylast, _Newvec + _Whereoff + 1);

  000c3	8b 45 fc	 mov	 eax, DWORD PTR tv641[ebp]
; File D:\visual studio 2019\visual studio 2019\VC\Tools\MSVC\14.29.30133\include\xmemory

; 1711 :             _Copy_memmove(_UFirst, _ULast, _Unfancy(_Dest));

  000c6	83 c4 0c	 add	 esp, 12			; 0000000cH
  000c9	8b 55 08	 mov	 edx, DWORD PTR __Whereptr$[ebp]
; File D:\visual studio 2019\visual studio 2019\VC\Tools\MSVC\14.29.30133\include\vector

; 784  :             _Umove(_Whereptr, _Mylast, _Newvec + _Whereoff + 1);

  000cc	83 c0 04	 add	 eax, 4
; File D:\visual studio 2019\visual studio 2019\VC\Tools\MSVC\14.29.30133\include\xmemory

; 1711 :             _Copy_memmove(_UFirst, _ULast, _Unfancy(_Dest));

  000cf	8b 4e 04	 mov	 ecx, DWORD PTR [esi+4]
$LN60@Emplace_re:
; File D:\visual studio 2019\visual studio 2019\VC\Tools\MSVC\14.29.30133\include\vector

; 784  :             _Umove(_Whereptr, _Mylast, _Newvec + _Whereoff + 1);

  000d2	50		 push	 eax
  000d3	51		 push	 ecx
  000d4	52		 push	 edx
  000d5	e8 00 00 00 00	 call	 ??$_Copy_memmove@PAPAVCItemData@@PAPAV1@@std@@YAPAPAVCItemData@@PAPAV1@00@Z ; std::_Copy_memmove<CItemData * *,CItemData * *>

; 1732 :         if (_Myfirst) { // destroy and deallocate old array

  000da	8b 06		 mov	 eax, DWORD PTR [esi]

; 784  :             _Umove(_Whereptr, _Mylast, _Newvec + _Whereoff + 1);

  000dc	83 c4 0c	 add	 esp, 12			; 0000000cH

; 1732 :         if (_Myfirst) { // destroy and deallocate old array

  000df	85 c0		 test	 eax, eax
  000e1	74 2c		 je	 SHORT $LN78@Emplace_re

; 1733 :             _Destroy(_Myfirst, _Mylast);
; 1734 :             _Getal().deallocate(_Myfirst, static_cast<size_type>(_Myend - _Myfirst));

  000e3	8b 4e 08	 mov	 ecx, DWORD PTR [esi+8]
  000e6	2b c8		 sub	 ecx, eax
; File D:\visual studio 2019\visual studio 2019\VC\Tools\MSVC\14.29.30133\include\xmemory

; 797  :         _Deallocate<_New_alignof<_Ty>>(_Ptr, sizeof(_Ty) * _Count);

  000e8	83 e1 fc	 and	 ecx, -4			; fffffffcH

; 251  :         if (_Bytes >= _Big_allocation_threshold) { // boost the alignment of big allocations to help autovectorization

  000eb	81 f9 00 10 00
	00		 cmp	 ecx, 4096		; 00001000H
  000f1	72 12		 jb	 SHORT $LN88@Emplace_re

; 150  :     const uintptr_t _Ptr_container   = _Ptr_user[-1];

  000f3	8b 50 fc	 mov	 edx, DWORD PTR [eax-4]
  000f6	83 c1 23	 add	 ecx, 35			; 00000023H

; 151  : 
; 152  :     // If the following asserts, it likely means that we are performing
; 153  :     // an aligned delete on memory coming from an unaligned allocation.
; 154  :     _STL_ASSERT(_Ptr_user[-2] == _Big_allocation_sentinel, "invalid argument");
; 155  : 
; 156  :     // Extra paranoia on aligned allocation/deallocation; ensure _Ptr_container is
; 157  :     // in range [_Min_back_shift, _Non_user_size]
; 158  : #ifdef _DEBUG
; 159  :     constexpr uintptr_t _Min_back_shift = 2 * sizeof(void*);
; 160  : #else // ^^^ _DEBUG ^^^ // vvv !_DEBUG vvv
; 161  :     constexpr uintptr_t _Min_back_shift = sizeof(void*);
; 162  : #endif // _DEBUG
; 163  :     const uintptr_t _Back_shift = reinterpret_cast<uintptr_t>(_Ptr) - _Ptr_container;

  000f9	2b c2		 sub	 eax, edx

; 164  :     _STL_VERIFY(_Back_shift >= _Min_back_shift && _Back_shift <= _Non_user_size, "invalid argument");

  000fb	83 c0 fc	 add	 eax, -4			; fffffffcH
  000fe	83 f8 1f	 cmp	 eax, 31			; 0000001fH
  00101	77 29		 ja	 SHORT $LN85@Emplace_re

; 165  :     _Ptr = reinterpret_cast<void*>(_Ptr_container);

  00103	8b c2		 mov	 eax, edx
$LN88@Emplace_re:

; 255  :         ::operator delete(_Ptr, _Bytes);

  00105	51		 push	 ecx
  00106	50		 push	 eax
  00107	e8 00 00 00 00	 call	 ??3@YAXPAXI@Z		; operator delete
  0010c	83 c4 08	 add	 esp, 8
$LN78@Emplace_re:
; File D:\visual studio 2019\visual studio 2019\VC\Tools\MSVC\14.29.30133\include\vector

; 1738 :         _Mylast  = _Newvec + _Newsize;

  0010f	8b 45 f8	 mov	 eax, DWORD PTR __Newsize$1$[ebp]
  00112	89 3e		 mov	 DWORD PTR [esi], edi
  00114	8d 0c 87	 lea	 ecx, DWORD PTR [edi+eax*4]

; 785  :         }
; 786  :         _CATCH_ALL
; 787  :         _Destroy(_Constructed_first, _Constructed_last);
; 788  :         _Al.deallocate(_Newvec, _Newcapacity);
; 789  :         _RERAISE;
; 790  :         _CATCH_END
; 791  : 
; 792  :         _Change_array(_Newvec, _Newsize, _Newcapacity);
; 793  :         return _Newvec + _Whereoff;

  00117	8b 45 fc	 mov	 eax, DWORD PTR tv641[ebp]

; 1738 :         _Mylast  = _Newvec + _Newsize;

  0011a	89 4e 04	 mov	 DWORD PTR [esi+4], ecx

; 1739 :         _Myend   = _Newvec + _Newcapacity;

  0011d	8d 0c 3b	 lea	 ecx, DWORD PTR [ebx+edi]

; 785  :         }
; 786  :         _CATCH_ALL
; 787  :         _Destroy(_Constructed_first, _Constructed_last);
; 788  :         _Al.deallocate(_Newvec, _Newcapacity);
; 789  :         _RERAISE;
; 790  :         _CATCH_END
; 791  : 
; 792  :         _Change_array(_Newvec, _Newsize, _Newcapacity);
; 793  :         return _Newvec + _Whereoff;

  00120	5f		 pop	 edi

; 1739 :         _Myend   = _Newvec + _Newcapacity;

  00121	89 4e 08	 mov	 DWORD PTR [esi+8], ecx

; 785  :         }
; 786  :         _CATCH_ALL
; 787  :         _Destroy(_Constructed_first, _Constructed_last);
; 788  :         _Al.deallocate(_Newvec, _Newcapacity);
; 789  :         _RERAISE;
; 790  :         _CATCH_END
; 791  : 
; 792  :         _Change_array(_Newvec, _Newsize, _Newcapacity);
; 793  :         return _Newvec + _Whereoff;

  00124	5e		 pop	 esi
  00125	5b		 pop	 ebx

; 794  :     }

  00126	8b e5		 mov	 esp, ebp
  00128	5d		 pop	 ebp
  00129	c2 08 00	 ret	 8
$LN85@Emplace_re:
; File D:\visual studio 2019\visual studio 2019\VC\Tools\MSVC\14.29.30133\include\xmemory

; 164  :     _STL_VERIFY(_Back_shift >= _Min_back_shift && _Back_shift <= _Non_user_size, "invalid argument");

  0012c	e8 00 00 00 00	 call	 __invalid_parameter_noinfo_noreturn
$LN96@Emplace_re:
; File D:\visual studio 2019\visual studio 2019\VC\Tools\MSVC\14.29.30133\include\vector

; 765  :             _Xlength();

  00131	e8 00 00 00 00	 call	 ?_Xlength@?$vector@PAVCItemData@@V?$allocator@PAVCItemData@@@std@@@std@@CAXXZ ; std::vector<CItemData *,std::allocator<CItemData *> >::_Xlength
$LN97@Emplace_re:
; File D:\visual studio 2019\visual studio 2019\VC\Tools\MSVC\14.29.30133\include\xmemory

; 61   :             _Throw_bad_array_new_length(); // multiply overflow

  00136	e8 00 00 00 00	 call	 ?_Throw_bad_array_new_length@std@@YAXXZ ; std::_Throw_bad_array_new_length
$LN94@Emplace_re:
  0013b	cc		 int	 3
??$_Emplace_reallocate@ABQAVCItemData@@@?$vector@PAVCItemData@@V?$allocator@PAVCItemData@@@std@@@std@@QAEPAPAVCItemData@@QAPAV2@ABQAV2@@Z ENDP ; std::vector<CItemData *,std::allocator<CItemData *> >::_Emplace_reallocate<CItemData * const &>
_TEXT	ENDS
; Function compile flags: /Ogtp
;	COMDAT ??_G?$CDynamicPoolEx@VCHeaderDecorator@NEffectUpdateDecorator@@@@UAEPAXI@Z
_TEXT	SEGMENT
___flags$ = 8						; size = 4
??_G?$CDynamicPoolEx@VCHeaderDecorator@NEffectUpdateDecorator@@@@UAEPAXI@Z PROC ; CDynamicPoolEx<NEffectUpdateDecorator::CHeaderDecorator>::`scalar deleting destructor', COMDAT
; _this$ = ecx
  00000	55		 push	 ebp
  00001	8b ec		 mov	 ebp, esp
  00003	56		 push	 esi
  00004	8b f1		 mov	 esi, ecx
  00006	e8 00 00 00 00	 call	 ??1?$CDynamicPoolEx@VCHeaderDecorator@NEffectUpdateDecorator@@@@UAE@XZ ; CDynamicPoolEx<NEffectUpdateDecorator::CHeaderDecorator>::~CDynamicPoolEx<NEffectUpdateDecorator::CHeaderDecorator>
  0000b	f6 45 08 01	 test	 BYTE PTR ___flags$[ebp], 1
  0000f	74 0b		 je	 SHORT $LN4@scalar
  00011	6a 24		 push	 36			; 00000024H
  00013	56		 push	 esi
  00014	e8 00 00 00 00	 call	 ??3@YAXPAXI@Z		; operator delete
  00019	83 c4 08	 add	 esp, 8
$LN4@scalar:
  0001c	8b c6		 mov	 eax, esi
  0001e	5e		 pop	 esi
  0001f	5d		 pop	 ebp
  00020	c2 04 00	 ret	 4
??_G?$CDynamicPoolEx@VCHeaderDecorator@NEffectUpdateDecorator@@@@UAEPAXI@Z ENDP ; CDynamicPoolEx<NEffectUpdateDecorator::CHeaderDecorator>::`scalar deleting destructor'
_TEXT	ENDS
; Function compile flags: /Ogtp
; File C:\Users\ALEXANDER\Desktop\Cliente\COPY_FISH_WON_NEW\Binario\Client\eterLib\Pool.h
;	COMDAT ?Delete@?$CDynamicPoolEx@VCHeaderDecorator@NEffectUpdateDecorator@@@@KAXPAVCHeaderDecorator@NEffectUpdateDecorator@@@Z
_TEXT	SEGMENT
_pkData$ = 8						; size = 4
?Delete@?$CDynamicPoolEx@VCHeaderDecorator@NEffectUpdateDecorator@@@@KAXPAVCHeaderDecorator@NEffectUpdateDecorator@@@Z PROC ; CDynamicPoolEx<NEffectUpdateDecorator::CHeaderDecorator>::Delete, COMDAT

; 224  : 			::operator delete(pkData);

  00000	e9 00 00 00 00	 jmp	 ??3@YAXPAX@Z		; operator delete
?Delete@?$CDynamicPoolEx@VCHeaderDecorator@NEffectUpdateDecorator@@@@KAXPAVCHeaderDecorator@NEffectUpdateDecorator@@@Z ENDP ; CDynamicPoolEx<NEffectUpdateDecorator::CHeaderDecorator>::Delete
_TEXT	ENDS
; Function compile flags: /Ogtp
; File C:\Users\ALEXANDER\Desktop\Cliente\COPY_FISH_WON_NEW\Binario\Client\eterLib\Pool.h
; File D:\visual studio 2019\visual studio 2019\VC\Tools\MSVC\14.29.30133\include\vector
; File D:\visual studio 2019\visual studio 2019\VC\Tools\MSVC\14.29.30133\include\algorithm
; File C:\Users\ALEXANDER\Desktop\Cliente\COPY_FISH_WON_NEW\Binario\Client\eterLib\Pool.h
; File D:\visual studio 2019\visual studio 2019\VC\Tools\MSVC\14.29.30133\include\algorithm
; File C:\Users\ALEXANDER\Desktop\Cliente\COPY_FISH_WON_NEW\Binario\Client\eterLib\Pool.h
; File D:\visual studio 2019\visual studio 2019\VC\Tools\MSVC\14.29.30133\include\algorithm
; File C:\Users\ALEXANDER\Desktop\Cliente\COPY_FISH_WON_NEW\Binario\Client\eterLib\Pool.h
; File D:\visual studio 2019\visual studio 2019\VC\Tools\MSVC\14.29.30133\include\vector
; File D:\visual studio 2019\visual studio 2019\VC\Tools\MSVC\14.29.30133\include\xmemory
; File D:\visual studio 2019\visual studio 2019\VC\Tools\MSVC\14.29.30133\include\vector
; File D:\visual studio 2019\visual studio 2019\VC\Tools\MSVC\14.29.30133\include\xmemory
; File D:\visual studio 2019\visual studio 2019\VC\Tools\MSVC\14.29.30133\include\vector
; File D:\visual studio 2019\visual studio 2019\VC\Tools\MSVC\14.29.30133\include\xmemory
; File D:\visual studio 2019\visual studio 2019\VC\Tools\MSVC\14.29.30133\include\vector
; File D:\visual studio 2019\visual studio 2019\VC\Tools\MSVC\14.29.30133\include\xmemory
; File D:\visual studio 2019\visual studio 2019\VC\Tools\MSVC\14.29.30133\include\vector
; File C:\Users\ALEXANDER\Desktop\Cliente\COPY_FISH_WON_NEW\Binario\Client\eterLib\Pool.h
; File D:\visual studio 2019\visual studio 2019\VC\Tools\MSVC\14.29.30133\include\xmemory
; File C:\Users\ALEXANDER\Desktop\Cliente\COPY_FISH_WON_NEW\Binario\Client\eterLib\Pool.h
;	COMDAT ??1?$CDynamicPoolEx@VCHeaderDecorator@NEffectUpdateDecorator@@@@UAE@XZ
_TEXT	SEGMENT
??1?$CDynamicPoolEx@VCHeaderDecorator@NEffectUpdateDecorator@@@@UAE@XZ PROC ; CDynamicPoolEx<NEffectUpdateDecorator::CHeaderDecorator>::~CDynamicPoolEx<NEffectUpdateDecorator::CHeaderDecorator>, COMDAT
; _this$ = ecx

; 132  : 		{

  00000	53		 push	 ebx
  00001	56		 push	 esi
  00002	57		 push	 edi
  00003	8b f9		 mov	 edi, ecx
  00005	c7 07 00 00 00
	00		 mov	 DWORD PTR [edi], OFFSET ??_7?$CDynamicPoolEx@VCHeaderDecorator@NEffectUpdateDecorator@@@@6B@
; File D:\visual studio 2019\visual studio 2019\VC\Tools\MSVC\14.29.30133\include\vector

; 41   :     _CONSTEXPR20_CONTAINER _Vector_const_iterator(_Tptr _Parg, const _Container_base* _Pvector) noexcept : _Ptr(_Parg) {

  0000b	8b 5f 08	 mov	 ebx, DWORD PTR [edi+8]
  0000e	8b 77 04	 mov	 esi, DWORD PTR [edi+4]
; File D:\visual studio 2019\visual studio 2019\VC\Tools\MSVC\14.29.30133\include\algorithm

; 232  :     for (; _UFirst != _ULast; ++_UFirst) {

  00011	3b f3		 cmp	 esi, ebx
  00013	74 14		 je	 SHORT $LN19@CDynamicPo
$LL20@CDynamicPo:
; File C:\Users\ALEXANDER\Desktop\Cliente\COPY_FISH_WON_NEW\Binario\Client\eterLib\Pool.h

; 224  : 			::operator delete(pkData);

  00015	ff 36		 push	 DWORD PTR [esi]
  00017	e8 00 00 00 00	 call	 ??3@YAXPAX@Z		; operator delete
; File D:\visual studio 2019\visual studio 2019\VC\Tools\MSVC\14.29.30133\include\algorithm

; 232  :     for (; _UFirst != _ULast; ++_UFirst) {

  0001c	83 c6 04	 add	 esi, 4
; File C:\Users\ALEXANDER\Desktop\Cliente\COPY_FISH_WON_NEW\Binario\Client\eterLib\Pool.h

; 224  : 			::operator delete(pkData);

  0001f	83 c4 04	 add	 esp, 4
; File D:\visual studio 2019\visual studio 2019\VC\Tools\MSVC\14.29.30133\include\algorithm

; 232  :     for (; _UFirst != _ULast; ++_UFirst) {

  00022	3b f3		 cmp	 esi, ebx
  00024	75 ef		 jne	 SHORT $LL20@CDynamicPo
  00026	8b 77 04	 mov	 esi, DWORD PTR [edi+4]
$LN19@CDynamicPo:
; File C:\Users\ALEXANDER\Desktop\Cliente\COPY_FISH_WON_NEW\Binario\Client\eterLib\Pool.h

; 162  : 			m_kVct_pkFree.clear();

  00029	8b 47 10	 mov	 eax, DWORD PTR [edi+16]
  0002c	89 77 08	 mov	 DWORD PTR [edi+8], esi
  0002f	89 47 14	 mov	 DWORD PTR [edi+20], eax
; File D:\visual studio 2019\visual studio 2019\VC\Tools\MSVC\14.29.30133\include\vector

; 1750 :         if (_Myfirst) { // destroy and deallocate old array

  00032	85 c0		 test	 eax, eax
  00034	74 41		 je	 SHORT $LN27@CDynamicPo

; 1751 :             _Destroy(_Myfirst, _Mylast);
; 1752 :             _Getal().deallocate(_Myfirst, static_cast<size_type>(_Myend - _Myfirst));

  00036	8b 4f 18	 mov	 ecx, DWORD PTR [edi+24]
  00039	2b c8		 sub	 ecx, eax
; File D:\visual studio 2019\visual studio 2019\VC\Tools\MSVC\14.29.30133\include\xmemory

; 797  :         _Deallocate<_New_alignof<_Ty>>(_Ptr, sizeof(_Ty) * _Count);

  0003b	83 e1 fc	 and	 ecx, -4			; fffffffcH

; 251  :         if (_Bytes >= _Big_allocation_threshold) { // boost the alignment of big allocations to help autovectorization

  0003e	81 f9 00 10 00
	00		 cmp	 ecx, 4096		; 00001000H
  00044	72 12		 jb	 SHORT $LN43@CDynamicPo

; 150  :     const uintptr_t _Ptr_container   = _Ptr_user[-1];

  00046	8b 50 fc	 mov	 edx, DWORD PTR [eax-4]
  00049	83 c1 23	 add	 ecx, 35			; 00000023H

; 151  : 
; 152  :     // If the following asserts, it likely means that we are performing
; 153  :     // an aligned delete on memory coming from an unaligned allocation.
; 154  :     _STL_ASSERT(_Ptr_user[-2] == _Big_allocation_sentinel, "invalid argument");
; 155  : 
; 156  :     // Extra paranoia on aligned allocation/deallocation; ensure _Ptr_container is
; 157  :     // in range [_Min_back_shift, _Non_user_size]
; 158  : #ifdef _DEBUG
; 159  :     constexpr uintptr_t _Min_back_shift = 2 * sizeof(void*);
; 160  : #else // ^^^ _DEBUG ^^^ // vvv !_DEBUG vvv
; 161  :     constexpr uintptr_t _Min_back_shift = sizeof(void*);
; 162  : #endif // _DEBUG
; 163  :     const uintptr_t _Back_shift = reinterpret_cast<uintptr_t>(_Ptr) - _Ptr_container;

  0004c	2b c2		 sub	 eax, edx

; 164  :     _STL_VERIFY(_Back_shift >= _Min_back_shift && _Back_shift <= _Non_user_size, "invalid argument");

  0004e	83 c0 fc	 add	 eax, -4			; fffffffcH
  00051	83 f8 1f	 cmp	 eax, 31			; 0000001fH
  00054	77 6d		 ja	 SHORT $LN65@CDynamicPo

; 165  :     _Ptr = reinterpret_cast<void*>(_Ptr_container);

  00056	8b c2		 mov	 eax, edx
$LN43@CDynamicPo:

; 255  :         ::operator delete(_Ptr, _Bytes);

  00058	51		 push	 ecx
  00059	50		 push	 eax
  0005a	e8 00 00 00 00	 call	 ??3@YAXPAXI@Z		; operator delete
; File D:\visual studio 2019\visual studio 2019\VC\Tools\MSVC\14.29.30133\include\vector

; 1754 :             _Myfirst = nullptr;

  0005f	c7 47 10 00 00
	00 00		 mov	 DWORD PTR [edi+16], 0
; File D:\visual studio 2019\visual studio 2019\VC\Tools\MSVC\14.29.30133\include\xmemory

; 255  :         ::operator delete(_Ptr, _Bytes);

  00066	83 c4 08	 add	 esp, 8
; File D:\visual studio 2019\visual studio 2019\VC\Tools\MSVC\14.29.30133\include\vector

; 1755 :             _Mylast  = nullptr;

  00069	c7 47 14 00 00
	00 00		 mov	 DWORD PTR [edi+20], 0

; 1756 :             _Myend   = nullptr;

  00070	c7 47 18 00 00
	00 00		 mov	 DWORD PTR [edi+24], 0
$LN27@CDynamicPo:

; 1750 :         if (_Myfirst) { // destroy and deallocate old array

  00077	8b 47 04	 mov	 eax, DWORD PTR [edi+4]
  0007a	85 c0		 test	 eax, eax
  0007c	74 41		 je	 SHORT $LN52@CDynamicPo

; 1751 :             _Destroy(_Myfirst, _Mylast);
; 1752 :             _Getal().deallocate(_Myfirst, static_cast<size_type>(_Myend - _Myfirst));

  0007e	8b 4f 0c	 mov	 ecx, DWORD PTR [edi+12]
  00081	2b c8		 sub	 ecx, eax
; File D:\visual studio 2019\visual studio 2019\VC\Tools\MSVC\14.29.30133\include\xmemory

; 797  :         _Deallocate<_New_alignof<_Ty>>(_Ptr, sizeof(_Ty) * _Count);

  00083	83 e1 fc	 and	 ecx, -4			; fffffffcH

; 251  :         if (_Bytes >= _Big_allocation_threshold) { // boost the alignment of big allocations to help autovectorization

  00086	81 f9 00 10 00
	00		 cmp	 ecx, 4096		; 00001000H
  0008c	72 12		 jb	 SHORT $LN68@CDynamicPo

; 150  :     const uintptr_t _Ptr_container   = _Ptr_user[-1];

  0008e	8b 50 fc	 mov	 edx, DWORD PTR [eax-4]
  00091	83 c1 23	 add	 ecx, 35			; 00000023H

; 151  : 
; 152  :     // If the following asserts, it likely means that we are performing
; 153  :     // an aligned delete on memory coming from an unaligned allocation.
; 154  :     _STL_ASSERT(_Ptr_user[-2] == _Big_allocation_sentinel, "invalid argument");
; 155  : 
; 156  :     // Extra paranoia on aligned allocation/deallocation; ensure _Ptr_container is
; 157  :     // in range [_Min_back_shift, _Non_user_size]
; 158  : #ifdef _DEBUG
; 159  :     constexpr uintptr_t _Min_back_shift = 2 * sizeof(void*);
; 160  : #else // ^^^ _DEBUG ^^^ // vvv !_DEBUG vvv
; 161  :     constexpr uintptr_t _Min_back_shift = sizeof(void*);
; 162  : #endif // _DEBUG
; 163  :     const uintptr_t _Back_shift = reinterpret_cast<uintptr_t>(_Ptr) - _Ptr_container;

  00094	2b c2		 sub	 eax, edx

; 164  :     _STL_VERIFY(_Back_shift >= _Min_back_shift && _Back_shift <= _Non_user_size, "invalid argument");

  00096	83 c0 fc	 add	 eax, -4			; fffffffcH
  00099	83 f8 1f	 cmp	 eax, 31			; 0000001fH
  0009c	77 25		 ja	 SHORT $LN65@CDynamicPo

; 165  :     _Ptr = reinterpret_cast<void*>(_Ptr_container);

  0009e	8b c2		 mov	 eax, edx
$LN68@CDynamicPo:

; 255  :         ::operator delete(_Ptr, _Bytes);

  000a0	51		 push	 ecx
  000a1	50		 push	 eax
  000a2	e8 00 00 00 00	 call	 ??3@YAXPAXI@Z		; operator delete
; File D:\visual studio 2019\visual studio 2019\VC\Tools\MSVC\14.29.30133\include\vector

; 1754 :             _Myfirst = nullptr;

  000a7	c7 47 04 00 00
	00 00		 mov	 DWORD PTR [edi+4], 0
; File D:\visual studio 2019\visual studio 2019\VC\Tools\MSVC\14.29.30133\include\xmemory

; 255  :         ::operator delete(_Ptr, _Bytes);

  000ae	83 c4 08	 add	 esp, 8
; File D:\visual studio 2019\visual studio 2019\VC\Tools\MSVC\14.29.30133\include\vector

; 1755 :             _Mylast  = nullptr;

  000b1	c7 47 08 00 00
	00 00		 mov	 DWORD PTR [edi+8], 0

; 1756 :             _Myend   = nullptr;

  000b8	c7 47 0c 00 00
	00 00		 mov	 DWORD PTR [edi+12], 0
$LN52@CDynamicPo:
  000bf	5f		 pop	 edi
; File C:\Users\ALEXANDER\Desktop\Cliente\COPY_FISH_WON_NEW\Binario\Client\eterLib\Pool.h

; 142  : 		}

  000c0	5e		 pop	 esi
  000c1	5b		 pop	 ebx
  000c2	c3		 ret	 0
$LN65@CDynamicPo:
; File D:\visual studio 2019\visual studio 2019\VC\Tools\MSVC\14.29.30133\include\xmemory

; 164  :     _STL_VERIFY(_Back_shift >= _Min_back_shift && _Back_shift <= _Non_user_size, "invalid argument");

  000c3	e8 00 00 00 00	 call	 __invalid_parameter_noinfo_noreturn
$LN77@CDynamicPo:
  000c8	cc		 int	 3
??1?$CDynamicPoolEx@VCHeaderDecorator@NEffectUpdateDecorator@@@@UAE@XZ ENDP ; CDynamicPoolEx<NEffectUpdateDecorator::CHeaderDecorator>::~CDynamicPoolEx<NEffectUpdateDecorator::CHeaderDecorator>
_TEXT	ENDS
; Function compile flags: /Ogtp
;	COMDAT ??_G?$CDynamicPoolEx@VCNullDecorator@NEffectUpdateDecorator@@@@UAEPAXI@Z
_TEXT	SEGMENT
___flags$ = 8						; size = 4
??_G?$CDynamicPoolEx@VCNullDecorator@NEffectUpdateDecorator@@@@UAEPAXI@Z PROC ; CDynamicPoolEx<NEffectUpdateDecorator::CNullDecorator>::`scalar deleting destructor', COMDAT
; _this$ = ecx
  00000	55		 push	 ebp
  00001	8b ec		 mov	 ebp, esp
  00003	56		 push	 esi
  00004	8b f1		 mov	 esi, ecx
  00006	e8 00 00 00 00	 call	 ??1?$CDynamicPoolEx@VCNullDecorator@NEffectUpdateDecorator@@@@UAE@XZ ; CDynamicPoolEx<NEffectUpdateDecorator::CNullDecorator>::~CDynamicPoolEx<NEffectUpdateDecorator::CNullDecorator>
  0000b	f6 45 08 01	 test	 BYTE PTR ___flags$[ebp], 1
  0000f	74 0b		 je	 SHORT $LN4@scalar
  00011	6a 24		 push	 36			; 00000024H
  00013	56		 push	 esi
  00014	e8 00 00 00 00	 call	 ??3@YAXPAXI@Z		; operator delete
  00019	83 c4 08	 add	 esp, 8
$LN4@scalar:
  0001c	8b c6		 mov	 eax, esi
  0001e	5e		 pop	 esi
  0001f	5d		 pop	 ebp
  00020	c2 04 00	 ret	 4
??_G?$CDynamicPoolEx@VCNullDecorator@NEffectUpdateDecorator@@@@UAEPAXI@Z ENDP ; CDynamicPoolEx<NEffectUpdateDecorator::CNullDecorator>::`scalar deleting destructor'
_TEXT	ENDS
; Function compile flags: /Ogtp
; File C:\Users\ALEXANDER\Desktop\Cliente\COPY_FISH_WON_NEW\Binario\Client\eterLib\Pool.h
;	COMDAT ?Delete@?$CDynamicPoolEx@VCNullDecorator@NEffectUpdateDecorator@@@@KAXPAVCNullDecorator@NEffectUpdateDecorator@@@Z
_TEXT	SEGMENT
_pkData$ = 8						; size = 4
?Delete@?$CDynamicPoolEx@VCNullDecorator@NEffectUpdateDecorator@@@@KAXPAVCNullDecorator@NEffectUpdateDecorator@@@Z PROC ; CDynamicPoolEx<NEffectUpdateDecorator::CNullDecorator>::Delete, COMDAT

; 224  : 			::operator delete(pkData);

  00000	e9 00 00 00 00	 jmp	 ??3@YAXPAX@Z		; operator delete
?Delete@?$CDynamicPoolEx@VCNullDecorator@NEffectUpdateDecorator@@@@KAXPAVCNullDecorator@NEffectUpdateDecorator@@@Z ENDP ; CDynamicPoolEx<NEffectUpdateDecorator::CNullDecorator>::Delete
_TEXT	ENDS
; Function compile flags: /Ogtp
; File C:\Users\ALEXANDER\Desktop\Cliente\COPY_FISH_WON_NEW\Binario\Client\eterLib\Pool.h
; File D:\visual studio 2019\visual studio 2019\VC\Tools\MSVC\14.29.30133\include\vector
; File D:\visual studio 2019\visual studio 2019\VC\Tools\MSVC\14.29.30133\include\algorithm
; File C:\Users\ALEXANDER\Desktop\Cliente\COPY_FISH_WON_NEW\Binario\Client\eterLib\Pool.h
; File D:\visual studio 2019\visual studio 2019\VC\Tools\MSVC\14.29.30133\include\algorithm
; File C:\Users\ALEXANDER\Desktop\Cliente\COPY_FISH_WON_NEW\Binario\Client\eterLib\Pool.h
; File D:\visual studio 2019\visual studio 2019\VC\Tools\MSVC\14.29.30133\include\algorithm
; File C:\Users\ALEXANDER\Desktop\Cliente\COPY_FISH_WON_NEW\Binario\Client\eterLib\Pool.h
; File D:\visual studio 2019\visual studio 2019\VC\Tools\MSVC\14.29.30133\include\vector
; File D:\visual studio 2019\visual studio 2019\VC\Tools\MSVC\14.29.30133\include\xmemory
; File D:\visual studio 2019\visual studio 2019\VC\Tools\MSVC\14.29.30133\include\vector
; File D:\visual studio 2019\visual studio 2019\VC\Tools\MSVC\14.29.30133\include\xmemory
; File D:\visual studio 2019\visual studio 2019\VC\Tools\MSVC\14.29.30133\include\vector
; File D:\visual studio 2019\visual studio 2019\VC\Tools\MSVC\14.29.30133\include\xmemory
; File D:\visual studio 2019\visual studio 2019\VC\Tools\MSVC\14.29.30133\include\vector
; File D:\visual studio 2019\visual studio 2019\VC\Tools\MSVC\14.29.30133\include\xmemory
; File D:\visual studio 2019\visual studio 2019\VC\Tools\MSVC\14.29.30133\include\vector
; File C:\Users\ALEXANDER\Desktop\Cliente\COPY_FISH_WON_NEW\Binario\Client\eterLib\Pool.h
; File D:\visual studio 2019\visual studio 2019\VC\Tools\MSVC\14.29.30133\include\xmemory
; File C:\Users\ALEXANDER\Desktop\Cliente\COPY_FISH_WON_NEW\Binario\Client\eterLib\Pool.h
;	COMDAT ??1?$CDynamicPoolEx@VCNullDecorator@NEffectUpdateDecorator@@@@UAE@XZ
_TEXT	SEGMENT
??1?$CDynamicPoolEx@VCNullDecorator@NEffectUpdateDecorator@@@@UAE@XZ PROC ; CDynamicPoolEx<NEffectUpdateDecorator::CNullDecorator>::~CDynamicPoolEx<NEffectUpdateDecorator::CNullDecorator>, COMDAT
; _this$ = ecx

; 132  : 		{

  00000	53		 push	 ebx
  00001	56		 push	 esi
  00002	57		 push	 edi
  00003	8b f9		 mov	 edi, ecx
  00005	c7 07 00 00 00
	00		 mov	 DWORD PTR [edi], OFFSET ??_7?$CDynamicPoolEx@VCNullDecorator@NEffectUpdateDecorator@@@@6B@
; File D:\visual studio 2019\visual studio 2019\VC\Tools\MSVC\14.29.30133\include\vector

; 41   :     _CONSTEXPR20_CONTAINER _Vector_const_iterator(_Tptr _Parg, const _Container_base* _Pvector) noexcept : _Ptr(_Parg) {

  0000b	8b 5f 08	 mov	 ebx, DWORD PTR [edi+8]
  0000e	8b 77 04	 mov	 esi, DWORD PTR [edi+4]
; File D:\visual studio 2019\visual studio 2019\VC\Tools\MSVC\14.29.30133\include\algorithm

; 232  :     for (; _UFirst != _ULast; ++_UFirst) {

  00011	3b f3		 cmp	 esi, ebx
  00013	74 14		 je	 SHORT $LN19@CDynamicPo
$LL20@CDynamicPo:
; File C:\Users\ALEXANDER\Desktop\Cliente\COPY_FISH_WON_NEW\Binario\Client\eterLib\Pool.h

; 224  : 			::operator delete(pkData);

  00015	ff 36		 push	 DWORD PTR [esi]
  00017	e8 00 00 00 00	 call	 ??3@YAXPAX@Z		; operator delete
; File D:\visual studio 2019\visual studio 2019\VC\Tools\MSVC\14.29.30133\include\algorithm

; 232  :     for (; _UFirst != _ULast; ++_UFirst) {

  0001c	83 c6 04	 add	 esi, 4
; File C:\Users\ALEXANDER\Desktop\Cliente\COPY_FISH_WON_NEW\Binario\Client\eterLib\Pool.h

; 224  : 			::operator delete(pkData);

  0001f	83 c4 04	 add	 esp, 4
; File D:\visual studio 2019\visual studio 2019\VC\Tools\MSVC\14.29.30133\include\algorithm

; 232  :     for (; _UFirst != _ULast; ++_UFirst) {

  00022	3b f3		 cmp	 esi, ebx
  00024	75 ef		 jne	 SHORT $LL20@CDynamicPo
  00026	8b 77 04	 mov	 esi, DWORD PTR [edi+4]
$LN19@CDynamicPo:
; File C:\Users\ALEXANDER\Desktop\Cliente\COPY_FISH_WON_NEW\Binario\Client\eterLib\Pool.h

; 162  : 			m_kVct_pkFree.clear();

  00029	8b 47 10	 mov	 eax, DWORD PTR [edi+16]
  0002c	89 77 08	 mov	 DWORD PTR [edi+8], esi
  0002f	89 47 14	 mov	 DWORD PTR [edi+20], eax
; File D:\visual studio 2019\visual studio 2019\VC\Tools\MSVC\14.29.30133\include\vector

; 1750 :         if (_Myfirst) { // destroy and deallocate old array

  00032	85 c0		 test	 eax, eax
  00034	74 41		 je	 SHORT $LN27@CDynamicPo

; 1751 :             _Destroy(_Myfirst, _Mylast);
; 1752 :             _Getal().deallocate(_Myfirst, static_cast<size_type>(_Myend - _Myfirst));

  00036	8b 4f 18	 mov	 ecx, DWORD PTR [edi+24]
  00039	2b c8		 sub	 ecx, eax
; File D:\visual studio 2019\visual studio 2019\VC\Tools\MSVC\14.29.30133\include\xmemory

; 797  :         _Deallocate<_New_alignof<_Ty>>(_Ptr, sizeof(_Ty) * _Count);

  0003b	83 e1 fc	 and	 ecx, -4			; fffffffcH

; 251  :         if (_Bytes >= _Big_allocation_threshold) { // boost the alignment of big allocations to help autovectorization

  0003e	81 f9 00 10 00
	00		 cmp	 ecx, 4096		; 00001000H
  00044	72 12		 jb	 SHORT $LN43@CDynamicPo

; 150  :     const uintptr_t _Ptr_container   = _Ptr_user[-1];

  00046	8b 50 fc	 mov	 edx, DWORD PTR [eax-4]
  00049	83 c1 23	 add	 ecx, 35			; 00000023H

; 151  : 
; 152  :     // If the following asserts, it likely means that we are performing
; 153  :     // an aligned delete on memory coming from an unaligned allocation.
; 154  :     _STL_ASSERT(_Ptr_user[-2] == _Big_allocation_sentinel, "invalid argument");
; 155  : 
; 156  :     // Extra paranoia on aligned allocation/deallocation; ensure _Ptr_container is
; 157  :     // in range [_Min_back_shift, _Non_user_size]
; 158  : #ifdef _DEBUG
; 159  :     constexpr uintptr_t _Min_back_shift = 2 * sizeof(void*);
; 160  : #else // ^^^ _DEBUG ^^^ // vvv !_DEBUG vvv
; 161  :     constexpr uintptr_t _Min_back_shift = sizeof(void*);
; 162  : #endif // _DEBUG
; 163  :     const uintptr_t _Back_shift = reinterpret_cast<uintptr_t>(_Ptr) - _Ptr_container;

  0004c	2b c2		 sub	 eax, edx

; 164  :     _STL_VERIFY(_Back_shift >= _Min_back_shift && _Back_shift <= _Non_user_size, "invalid argument");

  0004e	83 c0 fc	 add	 eax, -4			; fffffffcH
  00051	83 f8 1f	 cmp	 eax, 31			; 0000001fH
  00054	77 6d		 ja	 SHORT $LN65@CDynamicPo

; 165  :     _Ptr = reinterpret_cast<void*>(_Ptr_container);

  00056	8b c2		 mov	 eax, edx
$LN43@CDynamicPo:

; 255  :         ::operator delete(_Ptr, _Bytes);

  00058	51		 push	 ecx
  00059	50		 push	 eax
  0005a	e8 00 00 00 00	 call	 ??3@YAXPAXI@Z		; operator delete
; File D:\visual studio 2019\visual studio 2019\VC\Tools\MSVC\14.29.30133\include\vector

; 1754 :             _Myfirst = nullptr;

  0005f	c7 47 10 00 00
	00 00		 mov	 DWORD PTR [edi+16], 0
; File D:\visual studio 2019\visual studio 2019\VC\Tools\MSVC\14.29.30133\include\xmemory

; 255  :         ::operator delete(_Ptr, _Bytes);

  00066	83 c4 08	 add	 esp, 8
; File D:\visual studio 2019\visual studio 2019\VC\Tools\MSVC\14.29.30133\include\vector

; 1755 :             _Mylast  = nullptr;

  00069	c7 47 14 00 00
	00 00		 mov	 DWORD PTR [edi+20], 0

; 1756 :             _Myend   = nullptr;

  00070	c7 47 18 00 00
	00 00		 mov	 DWORD PTR [edi+24], 0
$LN27@CDynamicPo:

; 1750 :         if (_Myfirst) { // destroy and deallocate old array

  00077	8b 47 04	 mov	 eax, DWORD PTR [edi+4]
  0007a	85 c0		 test	 eax, eax
  0007c	74 41		 je	 SHORT $LN52@CDynamicPo

; 1751 :             _Destroy(_Myfirst, _Mylast);
; 1752 :             _Getal().deallocate(_Myfirst, static_cast<size_type>(_Myend - _Myfirst));

  0007e	8b 4f 0c	 mov	 ecx, DWORD PTR [edi+12]
  00081	2b c8		 sub	 ecx, eax
; File D:\visual studio 2019\visual studio 2019\VC\Tools\MSVC\14.29.30133\include\xmemory

; 797  :         _Deallocate<_New_alignof<_Ty>>(_Ptr, sizeof(_Ty) * _Count);

  00083	83 e1 fc	 and	 ecx, -4			; fffffffcH

; 251  :         if (_Bytes >= _Big_allocation_threshold) { // boost the alignment of big allocations to help autovectorization

  00086	81 f9 00 10 00
	00		 cmp	 ecx, 4096		; 00001000H
  0008c	72 12		 jb	 SHORT $LN68@CDynamicPo

; 150  :     const uintptr_t _Ptr_container   = _Ptr_user[-1];

  0008e	8b 50 fc	 mov	 edx, DWORD PTR [eax-4]
  00091	83 c1 23	 add	 ecx, 35			; 00000023H

; 151  : 
; 152  :     // If the following asserts, it likely means that we are performing
; 153  :     // an aligned delete on memory coming from an unaligned allocation.
; 154  :     _STL_ASSERT(_Ptr_user[-2] == _Big_allocation_sentinel, "invalid argument");
; 155  : 
; 156  :     // Extra paranoia on aligned allocation/deallocation; ensure _Ptr_container is
; 157  :     // in range [_Min_back_shift, _Non_user_size]
; 158  : #ifdef _DEBUG
; 159  :     constexpr uintptr_t _Min_back_shift = 2 * sizeof(void*);
; 160  : #else // ^^^ _DEBUG ^^^ // vvv !_DEBUG vvv
; 161  :     constexpr uintptr_t _Min_back_shift = sizeof(void*);
; 162  : #endif // _DEBUG
; 163  :     const uintptr_t _Back_shift = reinterpret_cast<uintptr_t>(_Ptr) - _Ptr_container;

  00094	2b c2		 sub	 eax, edx

; 164  :     _STL_VERIFY(_Back_shift >= _Min_back_shift && _Back_shift <= _Non_user_size, "invalid argument");

  00096	83 c0 fc	 add	 eax, -4			; fffffffcH
  00099	83 f8 1f	 cmp	 eax, 31			; 0000001fH
  0009c	77 25		 ja	 SHORT $LN65@CDynamicPo

; 165  :     _Ptr = reinterpret_cast<void*>(_Ptr_container);

  0009e	8b c2		 mov	 eax, edx
$LN68@CDynamicPo:

; 255  :         ::operator delete(_Ptr, _Bytes);

  000a0	51		 push	 ecx
  000a1	50		 push	 eax
  000a2	e8 00 00 00 00	 call	 ??3@YAXPAXI@Z		; operator delete
; File D:\visual studio 2019\visual studio 2019\VC\Tools\MSVC\14.29.30133\include\vector

; 1754 :             _Myfirst = nullptr;

  000a7	c7 47 04 00 00
	00 00		 mov	 DWORD PTR [edi+4], 0
; File D:\visual studio 2019\visual studio 2019\VC\Tools\MSVC\14.29.30133\include\xmemory

; 255  :         ::operator delete(_Ptr, _Bytes);

  000ae	83 c4 08	 add	 esp, 8
; File D:\visual studio 2019\visual studio 2019\VC\Tools\MSVC\14.29.30133\include\vector

; 1755 :             _Mylast  = nullptr;

  000b1	c7 47 08 00 00
	00 00		 mov	 DWORD PTR [edi+8], 0

; 1756 :             _Myend   = nullptr;

  000b8	c7 47 0c 00 00
	00 00		 mov	 DWORD PTR [edi+12], 0
$LN52@CDynamicPo:
  000bf	5f		 pop	 edi
; File C:\Users\ALEXANDER\Desktop\Cliente\COPY_FISH_WON_NEW\Binario\Client\eterLib\Pool.h

; 142  : 		}

  000c0	5e		 pop	 esi
  000c1	5b		 pop	 ebx
  000c2	c3		 ret	 0
$LN65@CDynamicPo:
; File D:\visual studio 2019\visual studio 2019\VC\Tools\MSVC\14.29.30133\include\xmemory

; 164  :     _STL_VERIFY(_Back_shift >= _Min_back_shift && _Back_shift <= _Non_user_size, "invalid argument");

  000c3	e8 00 00 00 00	 call	 __invalid_parameter_noinfo_noreturn
$LN77@CDynamicPo:
  000c8	cc		 int	 3
??1?$CDynamicPoolEx@VCNullDecorator@NEffectUpdateDecorator@@@@UAE@XZ ENDP ; CDynamicPoolEx<NEffectUpdateDecorator::CNullDecorator>::~CDynamicPoolEx<NEffectUpdateDecorator::CNullDecorator>
_TEXT	ENDS
; Function compile flags: /Ogtp
;	COMDAT ??_G?$CDynamicPoolEx@VCTextureAnimationCWDecorator@NEffectUpdateDecorator@@@@UAEPAXI@Z
_TEXT	SEGMENT
___flags$ = 8						; size = 4
??_G?$CDynamicPoolEx@VCTextureAnimationCWDecorator@NEffectUpdateDecorator@@@@UAEPAXI@Z PROC ; CDynamicPoolEx<NEffectUpdateDecorator::CTextureAnimationCWDecorator>::`scalar deleting destructor', COMDAT
; _this$ = ecx
  00000	55		 push	 ebp
  00001	8b ec		 mov	 ebp, esp
  00003	56		 push	 esi
  00004	8b f1		 mov	 esi, ecx
  00006	e8 00 00 00 00	 call	 ??1?$CDynamicPoolEx@VCTextureAnimationCWDecorator@NEffectUpdateDecorator@@@@UAE@XZ ; CDynamicPoolEx<NEffectUpdateDecorator::CTextureAnimationCWDecorator>::~CDynamicPoolEx<NEffectUpdateDecorator::CTextureAnimationCWDecorator>
  0000b	f6 45 08 01	 test	 BYTE PTR ___flags$[ebp], 1
  0000f	74 0b		 je	 SHORT $LN4@scalar
  00011	6a 24		 push	 36			; 00000024H
  00013	56		 push	 esi
  00014	e8 00 00 00 00	 call	 ??3@YAXPAXI@Z		; operator delete
  00019	83 c4 08	 add	 esp, 8
$LN4@scalar:
  0001c	8b c6		 mov	 eax, esi
  0001e	5e		 pop	 esi
  0001f	5d		 pop	 ebp
  00020	c2 04 00	 ret	 4
??_G?$CDynamicPoolEx@VCTextureAnimationCWDecorator@NEffectUpdateDecorator@@@@UAEPAXI@Z ENDP ; CDynamicPoolEx<NEffectUpdateDecorator::CTextureAnimationCWDecorator>::`scalar deleting destructor'
_TEXT	ENDS
; Function compile flags: /Ogtp
; File C:\Users\ALEXANDER\Desktop\Cliente\COPY_FISH_WON_NEW\Binario\Client\eterLib\Pool.h
;	COMDAT ?Delete@?$CDynamicPoolEx@VCTextureAnimationCWDecorator@NEffectUpdateDecorator@@@@KAXPAVCTextureAnimationCWDecorator@NEffectUpdateDecorator@@@Z
_TEXT	SEGMENT
_pkData$ = 8						; size = 4
?Delete@?$CDynamicPoolEx@VCTextureAnimationCWDecorator@NEffectUpdateDecorator@@@@KAXPAVCTextureAnimationCWDecorator@NEffectUpdateDecorator@@@Z PROC ; CDynamicPoolEx<NEffectUpdateDecorator::CTextureAnimationCWDecorator>::Delete, COMDAT

; 224  : 			::operator delete(pkData);

  00000	e9 00 00 00 00	 jmp	 ??3@YAXPAX@Z		; operator delete
?Delete@?$CDynamicPoolEx@VCTextureAnimationCWDecorator@NEffectUpdateDecorator@@@@KAXPAVCTextureAnimationCWDecorator@NEffectUpdateDecorator@@@Z ENDP ; CDynamicPoolEx<NEffectUpdateDecorator::CTextureAnimationCWDecorator>::Delete
_TEXT	ENDS
; Function compile flags: /Ogtp
; File C:\Users\ALEXANDER\Desktop\Cliente\COPY_FISH_WON_NEW\Binario\Client\eterLib\Pool.h
; File D:\visual studio 2019\visual studio 2019\VC\Tools\MSVC\14.29.30133\include\vector
; File D:\visual studio 2019\visual studio 2019\VC\Tools\MSVC\14.29.30133\include\algorithm
; File C:\Users\ALEXANDER\Desktop\Cliente\COPY_FISH_WON_NEW\Binario\Client\eterLib\Pool.h
; File D:\visual studio 2019\visual studio 2019\VC\Tools\MSVC\14.29.30133\include\algorithm
; File C:\Users\ALEXANDER\Desktop\Cliente\COPY_FISH_WON_NEW\Binario\Client\eterLib\Pool.h
; File D:\visual studio 2019\visual studio 2019\VC\Tools\MSVC\14.29.30133\include\algorithm
; File C:\Users\ALEXANDER\Desktop\Cliente\COPY_FISH_WON_NEW\Binario\Client\eterLib\Pool.h
; File D:\visual studio 2019\visual studio 2019\VC\Tools\MSVC\14.29.30133\include\vector
; File D:\visual studio 2019\visual studio 2019\VC\Tools\MSVC\14.29.30133\include\xmemory
; File D:\visual studio 2019\visual studio 2019\VC\Tools\MSVC\14.29.30133\include\vector
; File D:\visual studio 2019\visual studio 2019\VC\Tools\MSVC\14.29.30133\include\xmemory
; File D:\visual studio 2019\visual studio 2019\VC\Tools\MSVC\14.29.30133\include\vector
; File D:\visual studio 2019\visual studio 2019\VC\Tools\MSVC\14.29.30133\include\xmemory
; File D:\visual studio 2019\visual studio 2019\VC\Tools\MSVC\14.29.30133\include\vector
; File D:\visual studio 2019\visual studio 2019\VC\Tools\MSVC\14.29.30133\include\xmemory
; File D:\visual studio 2019\visual studio 2019\VC\Tools\MSVC\14.29.30133\include\vector
; File C:\Users\ALEXANDER\Desktop\Cliente\COPY_FISH_WON_NEW\Binario\Client\eterLib\Pool.h
; File D:\visual studio 2019\visual studio 2019\VC\Tools\MSVC\14.29.30133\include\xmemory
; File C:\Users\ALEXANDER\Desktop\Cliente\COPY_FISH_WON_NEW\Binario\Client\eterLib\Pool.h
;	COMDAT ??1?$CDynamicPoolEx@VCTextureAnimationCWDecorator@NEffectUpdateDecorator@@@@UAE@XZ
_TEXT	SEGMENT
??1?$CDynamicPoolEx@VCTextureAnimationCWDecorator@NEffectUpdateDecorator@@@@UAE@XZ PROC ; CDynamicPoolEx<NEffectUpdateDecorator::CTextureAnimationCWDecorator>::~CDynamicPoolEx<NEffectUpdateDecorator::CTextureAnimationCWDecorator>, COMDAT
; _this$ = ecx

; 132  : 		{

  00000	53		 push	 ebx
  00001	56		 push	 esi
  00002	57		 push	 edi
  00003	8b f9		 mov	 edi, ecx
  00005	c7 07 00 00 00
	00		 mov	 DWORD PTR [edi], OFFSET ??_7?$CDynamicPoolEx@VCTextureAnimationCWDecorator@NEffectUpdateDecorator@@@@6B@
; File D:\visual studio 2019\visual studio 2019\VC\Tools\MSVC\14.29.30133\include\vector

; 41   :     _CONSTEXPR20_CONTAINER _Vector_const_iterator(_Tptr _Parg, const _Container_base* _Pvector) noexcept : _Ptr(_Parg) {

  0000b	8b 5f 08	 mov	 ebx, DWORD PTR [edi+8]
  0000e	8b 77 04	 mov	 esi, DWORD PTR [edi+4]
; File D:\visual studio 2019\visual studio 2019\VC\Tools\MSVC\14.29.30133\include\algorithm

; 232  :     for (; _UFirst != _ULast; ++_UFirst) {

  00011	3b f3		 cmp	 esi, ebx
  00013	74 14		 je	 SHORT $LN19@CDynamicPo
$LL20@CDynamicPo:
; File C:\Users\ALEXANDER\Desktop\Cliente\COPY_FISH_WON_NEW\Binario\Client\eterLib\Pool.h

; 224  : 			::operator delete(pkData);

  00015	ff 36		 push	 DWORD PTR [esi]
  00017	e8 00 00 00 00	 call	 ??3@YAXPAX@Z		; operator delete
; File D:\visual studio 2019\visual studio 2019\VC\Tools\MSVC\14.29.30133\include\algorithm

; 232  :     for (; _UFirst != _ULast; ++_UFirst) {

  0001c	83 c6 04	 add	 esi, 4
; File C:\Users\ALEXANDER\Desktop\Cliente\COPY_FISH_WON_NEW\Binario\Client\eterLib\Pool.h

; 224  : 			::operator delete(pkData);

  0001f	83 c4 04	 add	 esp, 4
; File D:\visual studio 2019\visual studio 2019\VC\Tools\MSVC\14.29.30133\include\algorithm

; 232  :     for (; _UFirst != _ULast; ++_UFirst) {

  00022	3b f3		 cmp	 esi, ebx
  00024	75 ef		 jne	 SHORT $LL20@CDynamicPo
  00026	8b 77 04	 mov	 esi, DWORD PTR [edi+4]
$LN19@CDynamicPo:
; File C:\Users\ALEXANDER\Desktop\Cliente\COPY_FISH_WON_NEW\Binario\Client\eterLib\Pool.h

; 162  : 			m_kVct_pkFree.clear();

  00029	8b 47 10	 mov	 eax, DWORD PTR [edi+16]
  0002c	89 77 08	 mov	 DWORD PTR [edi+8], esi
  0002f	89 47 14	 mov	 DWORD PTR [edi+20], eax
; File D:\visual studio 2019\visual studio 2019\VC\Tools\MSVC\14.29.30133\include\vector

; 1750 :         if (_Myfirst) { // destroy and deallocate old array

  00032	85 c0		 test	 eax, eax
  00034	74 41		 je	 SHORT $LN27@CDynamicPo

; 1751 :             _Destroy(_Myfirst, _Mylast);
; 1752 :             _Getal().deallocate(_Myfirst, static_cast<size_type>(_Myend - _Myfirst));

  00036	8b 4f 18	 mov	 ecx, DWORD PTR [edi+24]
  00039	2b c8		 sub	 ecx, eax
; File D:\visual studio 2019\visual studio 2019\VC\Tools\MSVC\14.29.30133\include\xmemory

; 797  :         _Deallocate<_New_alignof<_Ty>>(_Ptr, sizeof(_Ty) * _Count);

  0003b	83 e1 fc	 and	 ecx, -4			; fffffffcH

; 251  :         if (_Bytes >= _Big_allocation_threshold) { // boost the alignment of big allocations to help autovectorization

  0003e	81 f9 00 10 00
	00		 cmp	 ecx, 4096		; 00001000H
  00044	72 12		 jb	 SHORT $LN43@CDynamicPo

; 150  :     const uintptr_t _Ptr_container   = _Ptr_user[-1];

  00046	8b 50 fc	 mov	 edx, DWORD PTR [eax-4]
  00049	83 c1 23	 add	 ecx, 35			; 00000023H

; 151  : 
; 152  :     // If the following asserts, it likely means that we are performing
; 153  :     // an aligned delete on memory coming from an unaligned allocation.
; 154  :     _STL_ASSERT(_Ptr_user[-2] == _Big_allocation_sentinel, "invalid argument");
; 155  : 
; 156  :     // Extra paranoia on aligned allocation/deallocation; ensure _Ptr_container is
; 157  :     // in range [_Min_back_shift, _Non_user_size]
; 158  : #ifdef _DEBUG
; 159  :     constexpr uintptr_t _Min_back_shift = 2 * sizeof(void*);
; 160  : #else // ^^^ _DEBUG ^^^ // vvv !_DEBUG vvv
; 161  :     constexpr uintptr_t _Min_back_shift = sizeof(void*);
; 162  : #endif // _DEBUG
; 163  :     const uintptr_t _Back_shift = reinterpret_cast<uintptr_t>(_Ptr) - _Ptr_container;

  0004c	2b c2		 sub	 eax, edx

; 164  :     _STL_VERIFY(_Back_shift >= _Min_back_shift && _Back_shift <= _Non_user_size, "invalid argument");

  0004e	83 c0 fc	 add	 eax, -4			; fffffffcH
  00051	83 f8 1f	 cmp	 eax, 31			; 0000001fH
  00054	77 6d		 ja	 SHORT $LN65@CDynamicPo

; 165  :     _Ptr = reinterpret_cast<void*>(_Ptr_container);

  00056	8b c2		 mov	 eax, edx
$LN43@CDynamicPo:

; 255  :         ::operator delete(_Ptr, _Bytes);

  00058	51		 push	 ecx
  00059	50		 push	 eax
  0005a	e8 00 00 00 00	 call	 ??3@YAXPAXI@Z		; operator delete
; File D:\visual studio 2019\visual studio 2019\VC\Tools\MSVC\14.29.30133\include\vector

; 1754 :             _Myfirst = nullptr;

  0005f	c7 47 10 00 00
	00 00		 mov	 DWORD PTR [edi+16], 0
; File D:\visual studio 2019\visual studio 2019\VC\Tools\MSVC\14.29.30133\include\xmemory

; 255  :         ::operator delete(_Ptr, _Bytes);

  00066	83 c4 08	 add	 esp, 8
; File D:\visual studio 2019\visual studio 2019\VC\Tools\MSVC\14.29.30133\include\vector

; 1755 :             _Mylast  = nullptr;

  00069	c7 47 14 00 00
	00 00		 mov	 DWORD PTR [edi+20], 0

; 1756 :             _Myend   = nullptr;

  00070	c7 47 18 00 00
	00 00		 mov	 DWORD PTR [edi+24], 0
$LN27@CDynamicPo:

; 1750 :         if (_Myfirst) { // destroy and deallocate old array

  00077	8b 47 04	 mov	 eax, DWORD PTR [edi+4]
  0007a	85 c0		 test	 eax, eax
  0007c	74 41		 je	 SHORT $LN52@CDynamicPo

; 1751 :             _Destroy(_Myfirst, _Mylast);
; 1752 :             _Getal().deallocate(_Myfirst, static_cast<size_type>(_Myend - _Myfirst));

  0007e	8b 4f 0c	 mov	 ecx, DWORD PTR [edi+12]
  00081	2b c8		 sub	 ecx, eax
; File D:\visual studio 2019\visual studio 2019\VC\Tools\MSVC\14.29.30133\include\xmemory

; 797  :         _Deallocate<_New_alignof<_Ty>>(_Ptr, sizeof(_Ty) * _Count);

  00083	83 e1 fc	 and	 ecx, -4			; fffffffcH

; 251  :         if (_Bytes >= _Big_allocation_threshold) { // boost the alignment of big allocations to help autovectorization

  00086	81 f9 00 10 00
	00		 cmp	 ecx, 4096		; 00001000H
  0008c	72 12		 jb	 SHORT $LN68@CDynamicPo

; 150  :     const uintptr_t _Ptr_container   = _Ptr_user[-1];

  0008e	8b 50 fc	 mov	 edx, DWORD PTR [eax-4]
  00091	83 c1 23	 add	 ecx, 35			; 00000023H

; 151  : 
; 152  :     // If the following asserts, it likely means that we are performing
; 153  :     // an aligned delete on memory coming from an unaligned allocation.
; 154  :     _STL_ASSERT(_Ptr_user[-2] == _Big_allocation_sentinel, "invalid argument");
; 155  : 
; 156  :     // Extra paranoia on aligned allocation/deallocation; ensure _Ptr_container is
; 157  :     // in range [_Min_back_shift, _Non_user_size]
; 158  : #ifdef _DEBUG
; 159  :     constexpr uintptr_t _Min_back_shift = 2 * sizeof(void*);
; 160  : #else // ^^^ _DEBUG ^^^ // vvv !_DEBUG vvv
; 161  :     constexpr uintptr_t _Min_back_shift = sizeof(void*);
; 162  : #endif // _DEBUG
; 163  :     const uintptr_t _Back_shift = reinterpret_cast<uintptr_t>(_Ptr) - _Ptr_container;

  00094	2b c2		 sub	 eax, edx

; 164  :     _STL_VERIFY(_Back_shift >= _Min_back_shift && _Back_shift <= _Non_user_size, "invalid argument");

  00096	83 c0 fc	 add	 eax, -4			; fffffffcH
  00099	83 f8 1f	 cmp	 eax, 31			; 0000001fH
  0009c	77 25		 ja	 SHORT $LN65@CDynamicPo

; 165  :     _Ptr = reinterpret_cast<void*>(_Ptr_container);

  0009e	8b c2		 mov	 eax, edx
$LN68@CDynamicPo:

; 255  :         ::operator delete(_Ptr, _Bytes);

  000a0	51		 push	 ecx
  000a1	50		 push	 eax
  000a2	e8 00 00 00 00	 call	 ??3@YAXPAXI@Z		; operator delete
; File D:\visual studio 2019\visual studio 2019\VC\Tools\MSVC\14.29.30133\include\vector

; 1754 :             _Myfirst = nullptr;

  000a7	c7 47 04 00 00
	00 00		 mov	 DWORD PTR [edi+4], 0
; File D:\visual studio 2019\visual studio 2019\VC\Tools\MSVC\14.29.30133\include\xmemory

; 255  :         ::operator delete(_Ptr, _Bytes);

  000ae	83 c4 08	 add	 esp, 8
; File D:\visual studio 2019\visual studio 2019\VC\Tools\MSVC\14.29.30133\include\vector

; 1755 :             _Mylast  = nullptr;

  000b1	c7 47 08 00 00
	00 00		 mov	 DWORD PTR [edi+8], 0

; 1756 :             _Myend   = nullptr;

  000b8	c7 47 0c 00 00
	00 00		 mov	 DWORD PTR [edi+12], 0
$LN52@CDynamicPo:
  000bf	5f		 pop	 edi
; File C:\Users\ALEXANDER\Desktop\Cliente\COPY_FISH_WON_NEW\Binario\Client\eterLib\Pool.h

; 142  : 		}

  000c0	5e		 pop	 esi
  000c1	5b		 pop	 ebx
  000c2	c3		 ret	 0
$LN65@CDynamicPo:
; File D:\visual studio 2019\visual studio 2019\VC\Tools\MSVC\14.29.30133\include\xmemory

; 164  :     _STL_VERIFY(_Back_shift >= _Min_back_shift && _Back_shift <= _Non_user_size, "invalid argument");

  000c3	e8 00 00 00 00	 call	 __invalid_parameter_noinfo_noreturn
$LN77@CDynamicPo:
  000c8	cc		 int	 3
??1?$CDynamicPoolEx@VCTextureAnimationCWDecorator@NEffectUpdateDecorator@@@@UAE@XZ ENDP ; CDynamicPoolEx<NEffectUpdateDecorator::CTextureAnimationCWDecorator>::~CDynamicPoolEx<NEffectUpdateDecorator::CTextureAnimationCWDecorator>
_TEXT	ENDS
; Function compile flags: /Ogtp
;	COMDAT ??_G?$CDynamicPoolEx@VCTextureAnimationCCWDecorator@NEffectUpdateDecorator@@@@UAEPAXI@Z
_TEXT	SEGMENT
___flags$ = 8						; size = 4
??_G?$CDynamicPoolEx@VCTextureAnimationCCWDecorator@NEffectUpdateDecorator@@@@UAEPAXI@Z PROC ; CDynamicPoolEx<NEffectUpdateDecorator::CTextureAnimationCCWDecorator>::`scalar deleting destructor', COMDAT
; _this$ = ecx
  00000	55		 push	 ebp
  00001	8b ec		 mov	 ebp, esp
  00003	56		 push	 esi
  00004	8b f1		 mov	 esi, ecx
  00006	e8 00 00 00 00	 call	 ??1?$CDynamicPoolEx@VCTextureAnimationCCWDecorator@NEffectUpdateDecorator@@@@UAE@XZ ; CDynamicPoolEx<NEffectUpdateDecorator::CTextureAnimationCCWDecorator>::~CDynamicPoolEx<NEffectUpdateDecorator::CTextureAnimationCCWDecorator>
  0000b	f6 45 08 01	 test	 BYTE PTR ___flags$[ebp], 1
  0000f	74 0b		 je	 SHORT $LN4@scalar
  00011	6a 24		 push	 36			; 00000024H
  00013	56		 push	 esi
  00014	e8 00 00 00 00	 call	 ??3@YAXPAXI@Z		; operator delete
  00019	83 c4 08	 add	 esp, 8
$LN4@scalar:
  0001c	8b c6		 mov	 eax, esi
  0001e	5e		 pop	 esi
  0001f	5d		 pop	 ebp
  00020	c2 04 00	 ret	 4
??_G?$CDynamicPoolEx@VCTextureAnimationCCWDecorator@NEffectUpdateDecorator@@@@UAEPAXI@Z ENDP ; CDynamicPoolEx<NEffectUpdateDecorator::CTextureAnimationCCWDecorator>::`scalar deleting destructor'
_TEXT	ENDS
; Function compile flags: /Ogtp
; File C:\Users\ALEXANDER\Desktop\Cliente\COPY_FISH_WON_NEW\Binario\Client\eterLib\Pool.h
;	COMDAT ?Delete@?$CDynamicPoolEx@VCTextureAnimationCCWDecorator@NEffectUpdateDecorator@@@@KAXPAVCTextureAnimationCCWDecorator@NEffectUpdateDecorator@@@Z
_TEXT	SEGMENT
_pkData$ = 8						; size = 4
?Delete@?$CDynamicPoolEx@VCTextureAnimationCCWDecorator@NEffectUpdateDecorator@@@@KAXPAVCTextureAnimationCCWDecorator@NEffectUpdateDecorator@@@Z PROC ; CDynamicPoolEx<NEffectUpdateDecorator::CTextureAnimationCCWDecorator>::Delete, COMDAT

; 224  : 			::operator delete(pkData);

  00000	e9 00 00 00 00	 jmp	 ??3@YAXPAX@Z		; operator delete
?Delete@?$CDynamicPoolEx@VCTextureAnimationCCWDecorator@NEffectUpdateDecorator@@@@KAXPAVCTextureAnimationCCWDecorator@NEffectUpdateDecorator@@@Z ENDP ; CDynamicPoolEx<NEffectUpdateDecorator::CTextureAnimationCCWDecorator>::Delete
_TEXT	ENDS
; Function compile flags: /Ogtp
; File C:\Users\ALEXANDER\Desktop\Cliente\COPY_FISH_WON_NEW\Binario\Client\eterLib\Pool.h
; File D:\visual studio 2019\visual studio 2019\VC\Tools\MSVC\14.29.30133\include\vector
; File D:\visual studio 2019\visual studio 2019\VC\Tools\MSVC\14.29.30133\include\algorithm
; File C:\Users\ALEXANDER\Desktop\Cliente\COPY_FISH_WON_NEW\Binario\Client\eterLib\Pool.h
; File D:\visual studio 2019\visual studio 2019\VC\Tools\MSVC\14.29.30133\include\algorithm
; File C:\Users\ALEXANDER\Desktop\Cliente\COPY_FISH_WON_NEW\Binario\Client\eterLib\Pool.h
; File D:\visual studio 2019\visual studio 2019\VC\Tools\MSVC\14.29.30133\include\algorithm
; File C:\Users\ALEXANDER\Desktop\Cliente\COPY_FISH_WON_NEW\Binario\Client\eterLib\Pool.h
; File D:\visual studio 2019\visual studio 2019\VC\Tools\MSVC\14.29.30133\include\vector
; File D:\visual studio 2019\visual studio 2019\VC\Tools\MSVC\14.29.30133\include\xmemory
; File D:\visual studio 2019\visual studio 2019\VC\Tools\MSVC\14.29.30133\include\vector
; File D:\visual studio 2019\visual studio 2019\VC\Tools\MSVC\14.29.30133\include\xmemory
; File D:\visual studio 2019\visual studio 2019\VC\Tools\MSVC\14.29.30133\include\vector
; File D:\visual studio 2019\visual studio 2019\VC\Tools\MSVC\14.29.30133\include\xmemory
; File D:\visual studio 2019\visual studio 2019\VC\Tools\MSVC\14.29.30133\include\vector
; File D:\visual studio 2019\visual studio 2019\VC\Tools\MSVC\14.29.30133\include\xmemory
; File D:\visual studio 2019\visual studio 2019\VC\Tools\MSVC\14.29.30133\include\vector
; File C:\Users\ALEXANDER\Desktop\Cliente\COPY_FISH_WON_NEW\Binario\Client\eterLib\Pool.h
; File D:\visual studio 2019\visual studio 2019\VC\Tools\MSVC\14.29.30133\include\xmemory
; File C:\Users\ALEXANDER\Desktop\Cliente\COPY_FISH_WON_NEW\Binario\Client\eterLib\Pool.h
;	COMDAT ??1?$CDynamicPoolEx@VCTextureAnimationCCWDecorator@NEffectUpdateDecorator@@@@UAE@XZ
_TEXT	SEGMENT
??1?$CDynamicPoolEx@VCTextureAnimationCCWDecorator@NEffectUpdateDecorator@@@@UAE@XZ PROC ; CDynamicPoolEx<NEffectUpdateDecorator::CTextureAnimationCCWDecorator>::~CDynamicPoolEx<NEffectUpdateDecorator::CTextureAnimationCCWDecorator>, COMDAT
; _this$ = ecx

; 132  : 		{

  00000	53		 push	 ebx
  00001	56		 push	 esi
  00002	57		 push	 edi
  00003	8b f9		 mov	 edi, ecx
  00005	c7 07 00 00 00
	00		 mov	 DWORD PTR [edi], OFFSET ??_7?$CDynamicPoolEx@VCTextureAnimationCCWDecorator@NEffectUpdateDecorator@@@@6B@
; File D:\visual studio 2019\visual studio 2019\VC\Tools\MSVC\14.29.30133\include\vector

; 41   :     _CONSTEXPR20_CONTAINER _Vector_const_iterator(_Tptr _Parg, const _Container_base* _Pvector) noexcept : _Ptr(_Parg) {

  0000b	8b 5f 08	 mov	 ebx, DWORD PTR [edi+8]
  0000e	8b 77 04	 mov	 esi, DWORD PTR [edi+4]
; File D:\visual studio 2019\visual studio 2019\VC\Tools\MSVC\14.29.30133\include\algorithm

; 232  :     for (; _UFirst != _ULast; ++_UFirst) {

  00011	3b f3		 cmp	 esi, ebx
  00013	74 14		 je	 SHORT $LN19@CDynamicPo
$LL20@CDynamicPo:
; File C:\Users\ALEXANDER\Desktop\Cliente\COPY_FISH_WON_NEW\Binario\Client\eterLib\Pool.h

; 224  : 			::operator delete(pkData);

  00015	ff 36		 push	 DWORD PTR [esi]
  00017	e8 00 00 00 00	 call	 ??3@YAXPAX@Z		; operator delete
; File D:\visual studio 2019\visual studio 2019\VC\Tools\MSVC\14.29.30133\include\algorithm

; 232  :     for (; _UFirst != _ULast; ++_UFirst) {

  0001c	83 c6 04	 add	 esi, 4
; File C:\Users\ALEXANDER\Desktop\Cliente\COPY_FISH_WON_NEW\Binario\Client\eterLib\Pool.h

; 224  : 			::operator delete(pkData);

  0001f	83 c4 04	 add	 esp, 4
; File D:\visual studio 2019\visual studio 2019\VC\Tools\MSVC\14.29.30133\include\algorithm

; 232  :     for (; _UFirst != _ULast; ++_UFirst) {

  00022	3b f3		 cmp	 esi, ebx
  00024	75 ef		 jne	 SHORT $LL20@CDynamicPo
  00026	8b 77 04	 mov	 esi, DWORD PTR [edi+4]
$LN19@CDynamicPo:
; File C:\Users\ALEXANDER\Desktop\Cliente\COPY_FISH_WON_NEW\Binario\Client\eterLib\Pool.h

; 162  : 			m_kVct_pkFree.clear();

  00029	8b 47 10	 mov	 eax, DWORD PTR [edi+16]
  0002c	89 77 08	 mov	 DWORD PTR [edi+8], esi
  0002f	89 47 14	 mov	 DWORD PTR [edi+20], eax
; File D:\visual studio 2019\visual studio 2019\VC\Tools\MSVC\14.29.30133\include\vector

; 1750 :         if (_Myfirst) { // destroy and deallocate old array

  00032	85 c0		 test	 eax, eax
  00034	74 41		 je	 SHORT $LN27@CDynamicPo

; 1751 :             _Destroy(_Myfirst, _Mylast);
; 1752 :             _Getal().deallocate(_Myfirst, static_cast<size_type>(_Myend - _Myfirst));

  00036	8b 4f 18	 mov	 ecx, DWORD PTR [edi+24]
  00039	2b c8		 sub	 ecx, eax
; File D:\visual studio 2019\visual studio 2019\VC\Tools\MSVC\14.29.30133\include\xmemory

; 797  :         _Deallocate<_New_alignof<_Ty>>(_Ptr, sizeof(_Ty) * _Count);

  0003b	83 e1 fc	 and	 ecx, -4			; fffffffcH

; 251  :         if (_Bytes >= _Big_allocation_threshold) { // boost the alignment of big allocations to help autovectorization

  0003e	81 f9 00 10 00
	00		 cmp	 ecx, 4096		; 00001000H
  00044	72 12		 jb	 SHORT $LN43@CDynamicPo

; 150  :     const uintptr_t _Ptr_container   = _Ptr_user[-1];

  00046	8b 50 fc	 mov	 edx, DWORD PTR [eax-4]
  00049	83 c1 23	 add	 ecx, 35			; 00000023H

; 151  : 
; 152  :     // If the following asserts, it likely means that we are performing
; 153  :     // an aligned delete on memory coming from an unaligned allocation.
; 154  :     _STL_ASSERT(_Ptr_user[-2] == _Big_allocation_sentinel, "invalid argument");
; 155  : 
; 156  :     // Extra paranoia on aligned allocation/deallocation; ensure _Ptr_container is
; 157  :     // in range [_Min_back_shift, _Non_user_size]
; 158  : #ifdef _DEBUG
; 159  :     constexpr uintptr_t _Min_back_shift = 2 * sizeof(void*);
; 160  : #else // ^^^ _DEBUG ^^^ // vvv !_DEBUG vvv
; 161  :     constexpr uintptr_t _Min_back_shift = sizeof(void*);
; 162  : #endif // _DEBUG
; 163  :     const uintptr_t _Back_shift = reinterpret_cast<uintptr_t>(_Ptr) - _Ptr_container;

  0004c	2b c2		 sub	 eax, edx

; 164  :     _STL_VERIFY(_Back_shift >= _Min_back_shift && _Back_shift <= _Non_user_size, "invalid argument");

  0004e	83 c0 fc	 add	 eax, -4			; fffffffcH
  00051	83 f8 1f	 cmp	 eax, 31			; 0000001fH
  00054	77 6d		 ja	 SHORT $LN65@CDynamicPo

; 165  :     _Ptr = reinterpret_cast<void*>(_Ptr_container);

  00056	8b c2		 mov	 eax, edx
$LN43@CDynamicPo:

; 255  :         ::operator delete(_Ptr, _Bytes);

  00058	51		 push	 ecx
  00059	50		 push	 eax
  0005a	e8 00 00 00 00	 call	 ??3@YAXPAXI@Z		; operator delete
; File D:\visual studio 2019\visual studio 2019\VC\Tools\MSVC\14.29.30133\include\vector

; 1754 :             _Myfirst = nullptr;

  0005f	c7 47 10 00 00
	00 00		 mov	 DWORD PTR [edi+16], 0
; File D:\visual studio 2019\visual studio 2019\VC\Tools\MSVC\14.29.30133\include\xmemory

; 255  :         ::operator delete(_Ptr, _Bytes);

  00066	83 c4 08	 add	 esp, 8
; File D:\visual studio 2019\visual studio 2019\VC\Tools\MSVC\14.29.30133\include\vector

; 1755 :             _Mylast  = nullptr;

  00069	c7 47 14 00 00
	00 00		 mov	 DWORD PTR [edi+20], 0

; 1756 :             _Myend   = nullptr;

  00070	c7 47 18 00 00
	00 00		 mov	 DWORD PTR [edi+24], 0
$LN27@CDynamicPo:

; 1750 :         if (_Myfirst) { // destroy and deallocate old array

  00077	8b 47 04	 mov	 eax, DWORD PTR [edi+4]
  0007a	85 c0		 test	 eax, eax
  0007c	74 41		 je	 SHORT $LN52@CDynamicPo

; 1751 :             _Destroy(_Myfirst, _Mylast);
; 1752 :             _Getal().deallocate(_Myfirst, static_cast<size_type>(_Myend - _Myfirst));

  0007e	8b 4f 0c	 mov	 ecx, DWORD PTR [edi+12]
  00081	2b c8		 sub	 ecx, eax
; File D:\visual studio 2019\visual studio 2019\VC\Tools\MSVC\14.29.30133\include\xmemory

; 797  :         _Deallocate<_New_alignof<_Ty>>(_Ptr, sizeof(_Ty) * _Count);

  00083	83 e1 fc	 and	 ecx, -4			; fffffffcH

; 251  :         if (_Bytes >= _Big_allocation_threshold) { // boost the alignment of big allocations to help autovectorization

  00086	81 f9 00 10 00
	00		 cmp	 ecx, 4096		; 00001000H
  0008c	72 12		 jb	 SHORT $LN68@CDynamicPo

; 150  :     const uintptr_t _Ptr_container   = _Ptr_user[-1];

  0008e	8b 50 fc	 mov	 edx, DWORD PTR [eax-4]
  00091	83 c1 23	 add	 ecx, 35			; 00000023H

; 151  : 
; 152  :     // If the following asserts, it likely means that we are performing
; 153  :     // an aligned delete on memory coming from an unaligned allocation.
; 154  :     _STL_ASSERT(_Ptr_user[-2] == _Big_allocation_sentinel, "invalid argument");
; 155  : 
; 156  :     // Extra paranoia on aligned allocation/deallocation; ensure _Ptr_container is
; 157  :     // in range [_Min_back_shift, _Non_user_size]
; 158  : #ifdef _DEBUG
; 159  :     constexpr uintptr_t _Min_back_shift = 2 * sizeof(void*);
; 160  : #else // ^^^ _DEBUG ^^^ // vvv !_DEBUG vvv
; 161  :     constexpr uintptr_t _Min_back_shift = sizeof(void*);
; 162  : #endif // _DEBUG
; 163  :     const uintptr_t _Back_shift = reinterpret_cast<uintptr_t>(_Ptr) - _Ptr_container;

  00094	2b c2		 sub	 eax, edx

; 164  :     _STL_VERIFY(_Back_shift >= _Min_back_shift && _Back_shift <= _Non_user_size, "invalid argument");

  00096	83 c0 fc	 add	 eax, -4			; fffffffcH
  00099	83 f8 1f	 cmp	 eax, 31			; 0000001fH
  0009c	77 25		 ja	 SHORT $LN65@CDynamicPo

; 165  :     _Ptr = reinterpret_cast<void*>(_Ptr_container);

  0009e	8b c2		 mov	 eax, edx
$LN68@CDynamicPo:

; 255  :         ::operator delete(_Ptr, _Bytes);

  000a0	51		 push	 ecx
  000a1	50		 push	 eax
  000a2	e8 00 00 00 00	 call	 ??3@YAXPAXI@Z		; operator delete
; File D:\visual studio 2019\visual studio 2019\VC\Tools\MSVC\14.29.30133\include\vector

; 1754 :             _Myfirst = nullptr;

  000a7	c7 47 04 00 00
	00 00		 mov	 DWORD PTR [edi+4], 0
; File D:\visual studio 2019\visual studio 2019\VC\Tools\MSVC\14.29.30133\include\xmemory

; 255  :         ::operator delete(_Ptr, _Bytes);

  000ae	83 c4 08	 add	 esp, 8
; File D:\visual studio 2019\visual studio 2019\VC\Tools\MSVC\14.29.30133\include\vector

; 1755 :             _Mylast  = nullptr;

  000b1	c7 47 08 00 00
	00 00		 mov	 DWORD PTR [edi+8], 0

; 1756 :             _Myend   = nullptr;

  000b8	c7 47 0c 00 00
	00 00		 mov	 DWORD PTR [edi+12], 0
$LN52@CDynamicPo:
  000bf	5f		 pop	 edi
; File C:\Users\ALEXANDER\Desktop\Cliente\COPY_FISH_WON_NEW\Binario\Client\eterLib\Pool.h

; 142  : 		}

  000c0	5e		 pop	 esi
  000c1	5b		 pop	 ebx
  000c2	c3		 ret	 0
$LN65@CDynamicPo:
; File D:\visual studio 2019\visual studio 2019\VC\Tools\MSVC\14.29.30133\include\xmemory

; 164  :     _STL_VERIFY(_Back_shift >= _Min_back_shift && _Back_shift <= _Non_user_size, "invalid argument");

  000c3	e8 00 00 00 00	 call	 __invalid_parameter_noinfo_noreturn
$LN77@CDynamicPo:
  000c8	cc		 int	 3
??1?$CDynamicPoolEx@VCTextureAnimationCCWDecorator@NEffectUpdateDecorator@@@@UAE@XZ ENDP ; CDynamicPoolEx<NEffectUpdateDecorator::CTextureAnimationCCWDecorator>::~CDynamicPoolEx<NEffectUpdateDecorator::CTextureAnimationCCWDecorator>
_TEXT	ENDS
; Function compile flags: /Ogtp
;	COMDAT ??_G?$CDynamicPoolEx@VCTextureAnimationRandomDecorator@NEffectUpdateDecorator@@@@UAEPAXI@Z
_TEXT	SEGMENT
___flags$ = 8						; size = 4
??_G?$CDynamicPoolEx@VCTextureAnimationRandomDecorator@NEffectUpdateDecorator@@@@UAEPAXI@Z PROC ; CDynamicPoolEx<NEffectUpdateDecorator::CTextureAnimationRandomDecorator>::`scalar deleting destructor', COMDAT
; _this$ = ecx
  00000	55		 push	 ebp
  00001	8b ec		 mov	 ebp, esp
  00003	56		 push	 esi
  00004	8b f1		 mov	 esi, ecx
  00006	e8 00 00 00 00	 call	 ??1?$CDynamicPoolEx@VCTextureAnimationRandomDecorator@NEffectUpdateDecorator@@@@UAE@XZ ; CDynamicPoolEx<NEffectUpdateDecorator::CTextureAnimationRandomDecorator>::~CDynamicPoolEx<NEffectUpdateDecorator::CTextureAnimationRandomDecorator>
  0000b	f6 45 08 01	 test	 BYTE PTR ___flags$[ebp], 1
  0000f	74 0b		 je	 SHORT $LN4@scalar
  00011	6a 24		 push	 36			; 00000024H
  00013	56		 push	 esi
  00014	e8 00 00 00 00	 call	 ??3@YAXPAXI@Z		; operator delete
  00019	83 c4 08	 add	 esp, 8
$LN4@scalar:
  0001c	8b c6		 mov	 eax, esi
  0001e	5e		 pop	 esi
  0001f	5d		 pop	 ebp
  00020	c2 04 00	 ret	 4
??_G?$CDynamicPoolEx@VCTextureAnimationRandomDecorator@NEffectUpdateDecorator@@@@UAEPAXI@Z ENDP ; CDynamicPoolEx<NEffectUpdateDecorator::CTextureAnimationRandomDecorator>::`scalar deleting destructor'
_TEXT	ENDS
; Function compile flags: /Ogtp
; File C:\Users\ALEXANDER\Desktop\Cliente\COPY_FISH_WON_NEW\Binario\Client\eterLib\Pool.h
;	COMDAT ?Delete@?$CDynamicPoolEx@VCTextureAnimationRandomDecorator@NEffectUpdateDecorator@@@@KAXPAVCTextureAnimationRandomDecorator@NEffectUpdateDecorator@@@Z
_TEXT	SEGMENT
_pkData$ = 8						; size = 4
?Delete@?$CDynamicPoolEx@VCTextureAnimationRandomDecorator@NEffectUpdateDecorator@@@@KAXPAVCTextureAnimationRandomDecorator@NEffectUpdateDecorator@@@Z PROC ; CDynamicPoolEx<NEffectUpdateDecorator::CTextureAnimationRandomDecorator>::Delete, COMDAT

; 224  : 			::operator delete(pkData);

  00000	e9 00 00 00 00	 jmp	 ??3@YAXPAX@Z		; operator delete
?Delete@?$CDynamicPoolEx@VCTextureAnimationRandomDecorator@NEffectUpdateDecorator@@@@KAXPAVCTextureAnimationRandomDecorator@NEffectUpdateDecorator@@@Z ENDP ; CDynamicPoolEx<NEffectUpdateDecorator::CTextureAnimationRandomDecorator>::Delete
_TEXT	ENDS
; Function compile flags: /Ogtp
; File C:\Users\ALEXANDER\Desktop\Cliente\COPY_FISH_WON_NEW\Binario\Client\eterLib\Pool.h
; File D:\visual studio 2019\visual studio 2019\VC\Tools\MSVC\14.29.30133\include\vector
; File D:\visual studio 2019\visual studio 2019\VC\Tools\MSVC\14.29.30133\include\algorithm
; File C:\Users\ALEXANDER\Desktop\Cliente\COPY_FISH_WON_NEW\Binario\Client\eterLib\Pool.h
; File D:\visual studio 2019\visual studio 2019\VC\Tools\MSVC\14.29.30133\include\algorithm
; File C:\Users\ALEXANDER\Desktop\Cliente\COPY_FISH_WON_NEW\Binario\Client\eterLib\Pool.h
; File D:\visual studio 2019\visual studio 2019\VC\Tools\MSVC\14.29.30133\include\algorithm
; File C:\Users\ALEXANDER\Desktop\Cliente\COPY_FISH_WON_NEW\Binario\Client\eterLib\Pool.h
; File D:\visual studio 2019\visual studio 2019\VC\Tools\MSVC\14.29.30133\include\vector
; File D:\visual studio 2019\visual studio 2019\VC\Tools\MSVC\14.29.30133\include\xmemory
; File D:\visual studio 2019\visual studio 2019\VC\Tools\MSVC\14.29.30133\include\vector
; File D:\visual studio 2019\visual studio 2019\VC\Tools\MSVC\14.29.30133\include\xmemory
; File D:\visual studio 2019\visual studio 2019\VC\Tools\MSVC\14.29.30133\include\vector
; File D:\visual studio 2019\visual studio 2019\VC\Tools\MSVC\14.29.30133\include\xmemory
; File D:\visual studio 2019\visual studio 2019\VC\Tools\MSVC\14.29.30133\include\vector
; File D:\visual studio 2019\visual studio 2019\VC\Tools\MSVC\14.29.30133\include\xmemory
; File D:\visual studio 2019\visual studio 2019\VC\Tools\MSVC\14.29.30133\include\vector
; File C:\Users\ALEXANDER\Desktop\Cliente\COPY_FISH_WON_NEW\Binario\Client\eterLib\Pool.h
; File D:\visual studio 2019\visual studio 2019\VC\Tools\MSVC\14.29.30133\include\xmemory
; File C:\Users\ALEXANDER\Desktop\Cliente\COPY_FISH_WON_NEW\Binario\Client\eterLib\Pool.h
;	COMDAT ??1?$CDynamicPoolEx@VCTextureAnimationRandomDecorator@NEffectUpdateDecorator@@@@UAE@XZ
_TEXT	SEGMENT
??1?$CDynamicPoolEx@VCTextureAnimationRandomDecorator@NEffectUpdateDecorator@@@@UAE@XZ PROC ; CDynamicPoolEx<NEffectUpdateDecorator::CTextureAnimationRandomDecorator>::~CDynamicPoolEx<NEffectUpdateDecorator::CTextureAnimationRandomDecorator>, COMDAT
; _this$ = ecx

; 132  : 		{

  00000	53		 push	 ebx
  00001	56		 push	 esi
  00002	57		 push	 edi
  00003	8b f9		 mov	 edi, ecx
  00005	c7 07 00 00 00
	00		 mov	 DWORD PTR [edi], OFFSET ??_7?$CDynamicPoolEx@VCTextureAnimationRandomDecorator@NEffectUpdateDecorator@@@@6B@
; File D:\visual studio 2019\visual studio 2019\VC\Tools\MSVC\14.29.30133\include\vector

; 41   :     _CONSTEXPR20_CONTAINER _Vector_const_iterator(_Tptr _Parg, const _Container_base* _Pvector) noexcept : _Ptr(_Parg) {

  0000b	8b 5f 08	 mov	 ebx, DWORD PTR [edi+8]
  0000e	8b 77 04	 mov	 esi, DWORD PTR [edi+4]
; File D:\visual studio 2019\visual studio 2019\VC\Tools\MSVC\14.29.30133\include\algorithm

; 232  :     for (; _UFirst != _ULast; ++_UFirst) {

  00011	3b f3		 cmp	 esi, ebx
  00013	74 14		 je	 SHORT $LN19@CDynamicPo
$LL20@CDynamicPo:
; File C:\Users\ALEXANDER\Desktop\Cliente\COPY_FISH_WON_NEW\Binario\Client\eterLib\Pool.h

; 224  : 			::operator delete(pkData);

  00015	ff 36		 push	 DWORD PTR [esi]
  00017	e8 00 00 00 00	 call	 ??3@YAXPAX@Z		; operator delete
; File D:\visual studio 2019\visual studio 2019\VC\Tools\MSVC\14.29.30133\include\algorithm

; 232  :     for (; _UFirst != _ULast; ++_UFirst) {

  0001c	83 c6 04	 add	 esi, 4
; File C:\Users\ALEXANDER\Desktop\Cliente\COPY_FISH_WON_NEW\Binario\Client\eterLib\Pool.h

; 224  : 			::operator delete(pkData);

  0001f	83 c4 04	 add	 esp, 4
; File D:\visual studio 2019\visual studio 2019\VC\Tools\MSVC\14.29.30133\include\algorithm

; 232  :     for (; _UFirst != _ULast; ++_UFirst) {

  00022	3b f3		 cmp	 esi, ebx
  00024	75 ef		 jne	 SHORT $LL20@CDynamicPo
  00026	8b 77 04	 mov	 esi, DWORD PTR [edi+4]
$LN19@CDynamicPo:
; File C:\Users\ALEXANDER\Desktop\Cliente\COPY_FISH_WON_NEW\Binario\Client\eterLib\Pool.h

; 162  : 			m_kVct_pkFree.clear();

  00029	8b 47 10	 mov	 eax, DWORD PTR [edi+16]
  0002c	89 77 08	 mov	 DWORD PTR [edi+8], esi
  0002f	89 47 14	 mov	 DWORD PTR [edi+20], eax
; File D:\visual studio 2019\visual studio 2019\VC\Tools\MSVC\14.29.30133\include\vector

; 1750 :         if (_Myfirst) { // destroy and deallocate old array

  00032	85 c0		 test	 eax, eax
  00034	74 41		 je	 SHORT $LN27@CDynamicPo

; 1751 :             _Destroy(_Myfirst, _Mylast);
; 1752 :             _Getal().deallocate(_Myfirst, static_cast<size_type>(_Myend - _Myfirst));

  00036	8b 4f 18	 mov	 ecx, DWORD PTR [edi+24]
  00039	2b c8		 sub	 ecx, eax
; File D:\visual studio 2019\visual studio 2019\VC\Tools\MSVC\14.29.30133\include\xmemory

; 797  :         _Deallocate<_New_alignof<_Ty>>(_Ptr, sizeof(_Ty) * _Count);

  0003b	83 e1 fc	 and	 ecx, -4			; fffffffcH

; 251  :         if (_Bytes >= _Big_allocation_threshold) { // boost the alignment of big allocations to help autovectorization

  0003e	81 f9 00 10 00
	00		 cmp	 ecx, 4096		; 00001000H
  00044	72 12		 jb	 SHORT $LN43@CDynamicPo

; 150  :     const uintptr_t _Ptr_container   = _Ptr_user[-1];

  00046	8b 50 fc	 mov	 edx, DWORD PTR [eax-4]
  00049	83 c1 23	 add	 ecx, 35			; 00000023H

; 151  : 
; 152  :     // If the following asserts, it likely means that we are performing
; 153  :     // an aligned delete on memory coming from an unaligned allocation.
; 154  :     _STL_ASSERT(_Ptr_user[-2] == _Big_allocation_sentinel, "invalid argument");
; 155  : 
; 156  :     // Extra paranoia on aligned allocation/deallocation; ensure _Ptr_container is
; 157  :     // in range [_Min_back_shift, _Non_user_size]
; 158  : #ifdef _DEBUG
; 159  :     constexpr uintptr_t _Min_back_shift = 2 * sizeof(void*);
; 160  : #else // ^^^ _DEBUG ^^^ // vvv !_DEBUG vvv
; 161  :     constexpr uintptr_t _Min_back_shift = sizeof(void*);
; 162  : #endif // _DEBUG
; 163  :     const uintptr_t _Back_shift = reinterpret_cast<uintptr_t>(_Ptr) - _Ptr_container;

  0004c	2b c2		 sub	 eax, edx

; 164  :     _STL_VERIFY(_Back_shift >= _Min_back_shift && _Back_shift <= _Non_user_size, "invalid argument");

  0004e	83 c0 fc	 add	 eax, -4			; fffffffcH
  00051	83 f8 1f	 cmp	 eax, 31			; 0000001fH
  00054	77 6d		 ja	 SHORT $LN65@CDynamicPo

; 165  :     _Ptr = reinterpret_cast<void*>(_Ptr_container);

  00056	8b c2		 mov	 eax, edx
$LN43@CDynamicPo:

; 255  :         ::operator delete(_Ptr, _Bytes);

  00058	51		 push	 ecx
  00059	50		 push	 eax
  0005a	e8 00 00 00 00	 call	 ??3@YAXPAXI@Z		; operator delete
; File D:\visual studio 2019\visual studio 2019\VC\Tools\MSVC\14.29.30133\include\vector

; 1754 :             _Myfirst = nullptr;

  0005f	c7 47 10 00 00
	00 00		 mov	 DWORD PTR [edi+16], 0
; File D:\visual studio 2019\visual studio 2019\VC\Tools\MSVC\14.29.30133\include\xmemory

; 255  :         ::operator delete(_Ptr, _Bytes);

  00066	83 c4 08	 add	 esp, 8
; File D:\visual studio 2019\visual studio 2019\VC\Tools\MSVC\14.29.30133\include\vector

; 1755 :             _Mylast  = nullptr;

  00069	c7 47 14 00 00
	00 00		 mov	 DWORD PTR [edi+20], 0

; 1756 :             _Myend   = nullptr;

  00070	c7 47 18 00 00
	00 00		 mov	 DWORD PTR [edi+24], 0
$LN27@CDynamicPo:

; 1750 :         if (_Myfirst) { // destroy and deallocate old array

  00077	8b 47 04	 mov	 eax, DWORD PTR [edi+4]
  0007a	85 c0		 test	 eax, eax
  0007c	74 41		 je	 SHORT $LN52@CDynamicPo

; 1751 :             _Destroy(_Myfirst, _Mylast);
; 1752 :             _Getal().deallocate(_Myfirst, static_cast<size_type>(_Myend - _Myfirst));

  0007e	8b 4f 0c	 mov	 ecx, DWORD PTR [edi+12]
  00081	2b c8		 sub	 ecx, eax
; File D:\visual studio 2019\visual studio 2019\VC\Tools\MSVC\14.29.30133\include\xmemory

; 797  :         _Deallocate<_New_alignof<_Ty>>(_Ptr, sizeof(_Ty) * _Count);

  00083	83 e1 fc	 and	 ecx, -4			; fffffffcH

; 251  :         if (_Bytes >= _Big_allocation_threshold) { // boost the alignment of big allocations to help autovectorization

  00086	81 f9 00 10 00
	00		 cmp	 ecx, 4096		; 00001000H
  0008c	72 12		 jb	 SHORT $LN68@CDynamicPo

; 150  :     const uintptr_t _Ptr_container   = _Ptr_user[-1];

  0008e	8b 50 fc	 mov	 edx, DWORD PTR [eax-4]
  00091	83 c1 23	 add	 ecx, 35			; 00000023H

; 151  : 
; 152  :     // If the following asserts, it likely means that we are performing
; 153  :     // an aligned delete on memory coming from an unaligned allocation.
; 154  :     _STL_ASSERT(_Ptr_user[-2] == _Big_allocation_sentinel, "invalid argument");
; 155  : 
; 156  :     // Extra paranoia on aligned allocation/deallocation; ensure _Ptr_container is
; 157  :     // in range [_Min_back_shift, _Non_user_size]
; 158  : #ifdef _DEBUG
; 159  :     constexpr uintptr_t _Min_back_shift = 2 * sizeof(void*);
; 160  : #else // ^^^ _DEBUG ^^^ // vvv !_DEBUG vvv
; 161  :     constexpr uintptr_t _Min_back_shift = sizeof(void*);
; 162  : #endif // _DEBUG
; 163  :     const uintptr_t _Back_shift = reinterpret_cast<uintptr_t>(_Ptr) - _Ptr_container;

  00094	2b c2		 sub	 eax, edx

; 164  :     _STL_VERIFY(_Back_shift >= _Min_back_shift && _Back_shift <= _Non_user_size, "invalid argument");

  00096	83 c0 fc	 add	 eax, -4			; fffffffcH
  00099	83 f8 1f	 cmp	 eax, 31			; 0000001fH
  0009c	77 25		 ja	 SHORT $LN65@CDynamicPo

; 165  :     _Ptr = reinterpret_cast<void*>(_Ptr_container);

  0009e	8b c2		 mov	 eax, edx
$LN68@CDynamicPo:

; 255  :         ::operator delete(_Ptr, _Bytes);

  000a0	51		 push	 ecx
  000a1	50		 push	 eax
  000a2	e8 00 00 00 00	 call	 ??3@YAXPAXI@Z		; operator delete
; File D:\visual studio 2019\visual studio 2019\VC\Tools\MSVC\14.29.30133\include\vector

; 1754 :             _Myfirst = nullptr;

  000a7	c7 47 04 00 00
	00 00		 mov	 DWORD PTR [edi+4], 0
; File D:\visual studio 2019\visual studio 2019\VC\Tools\MSVC\14.29.30133\include\xmemory

; 255  :         ::operator delete(_Ptr, _Bytes);

  000ae	83 c4 08	 add	 esp, 8
; File D:\visual studio 2019\visual studio 2019\VC\Tools\MSVC\14.29.30133\include\vector

; 1755 :             _Mylast  = nullptr;

  000b1	c7 47 08 00 00
	00 00		 mov	 DWORD PTR [edi+8], 0

; 1756 :             _Myend   = nullptr;

  000b8	c7 47 0c 00 00
	00 00		 mov	 DWORD PTR [edi+12], 0
$LN52@CDynamicPo:
  000bf	5f		 pop	 edi
; File C:\Users\ALEXANDER\Desktop\Cliente\COPY_FISH_WON_NEW\Binario\Client\eterLib\Pool.h

; 142  : 		}

  000c0	5e		 pop	 esi
  000c1	5b		 pop	 ebx
  000c2	c3		 ret	 0
$LN65@CDynamicPo:
; File D:\visual studio 2019\visual studio 2019\VC\Tools\MSVC\14.29.30133\include\xmemory

; 164  :     _STL_VERIFY(_Back_shift >= _Min_back_shift && _Back_shift <= _Non_user_size, "invalid argument");

  000c3	e8 00 00 00 00	 call	 __invalid_parameter_noinfo_noreturn
$LN77@CDynamicPo:
  000c8	cc		 int	 3
??1?$CDynamicPoolEx@VCTextureAnimationRandomDecorator@NEffectUpdateDecorator@@@@UAE@XZ ENDP ; CDynamicPoolEx<NEffectUpdateDecorator::CTextureAnimationRandomDecorator>::~CDynamicPoolEx<NEffectUpdateDecorator::CTextureAnimationRandomDecorator>
_TEXT	ENDS
; Function compile flags: /Ogtp
;	COMDAT ??_G?$CDynamicPoolEx@VCAirResistanceDecorator@NEffectUpdateDecorator@@@@UAEPAXI@Z
_TEXT	SEGMENT
___flags$ = 8						; size = 4
??_G?$CDynamicPoolEx@VCAirResistanceDecorator@NEffectUpdateDecorator@@@@UAEPAXI@Z PROC ; CDynamicPoolEx<NEffectUpdateDecorator::CAirResistanceDecorator>::`scalar deleting destructor', COMDAT
; _this$ = ecx
  00000	55		 push	 ebp
  00001	8b ec		 mov	 ebp, esp
  00003	56		 push	 esi
  00004	8b f1		 mov	 esi, ecx
  00006	e8 00 00 00 00	 call	 ??1?$CDynamicPoolEx@VCAirResistanceDecorator@NEffectUpdateDecorator@@@@UAE@XZ ; CDynamicPoolEx<NEffectUpdateDecorator::CAirResistanceDecorator>::~CDynamicPoolEx<NEffectUpdateDecorator::CAirResistanceDecorator>
  0000b	f6 45 08 01	 test	 BYTE PTR ___flags$[ebp], 1
  0000f	74 0b		 je	 SHORT $LN4@scalar
  00011	6a 24		 push	 36			; 00000024H
  00013	56		 push	 esi
  00014	e8 00 00 00 00	 call	 ??3@YAXPAXI@Z		; operator delete
  00019	83 c4 08	 add	 esp, 8
$LN4@scalar:
  0001c	8b c6		 mov	 eax, esi
  0001e	5e		 pop	 esi
  0001f	5d		 pop	 ebp
  00020	c2 04 00	 ret	 4
??_G?$CDynamicPoolEx@VCAirResistanceDecorator@NEffectUpdateDecorator@@@@UAEPAXI@Z ENDP ; CDynamicPoolEx<NEffectUpdateDecorator::CAirResistanceDecorator>::`scalar deleting destructor'
_TEXT	ENDS
; Function compile flags: /Ogtp
; File C:\Users\ALEXANDER\Desktop\Cliente\COPY_FISH_WON_NEW\Binario\Client\eterLib\Pool.h
;	COMDAT ?Delete@?$CDynamicPoolEx@VCAirResistanceDecorator@NEffectUpdateDecorator@@@@KAXPAVCAirResistanceDecorator@NEffectUpdateDecorator@@@Z
_TEXT	SEGMENT
_pkData$ = 8						; size = 4
?Delete@?$CDynamicPoolEx@VCAirResistanceDecorator@NEffectUpdateDecorator@@@@KAXPAVCAirResistanceDecorator@NEffectUpdateDecorator@@@Z PROC ; CDynamicPoolEx<NEffectUpdateDecorator::CAirResistanceDecorator>::Delete, COMDAT

; 224  : 			::operator delete(pkData);

  00000	e9 00 00 00 00	 jmp	 ??3@YAXPAX@Z		; operator delete
?Delete@?$CDynamicPoolEx@VCAirResistanceDecorator@NEffectUpdateDecorator@@@@KAXPAVCAirResistanceDecorator@NEffectUpdateDecorator@@@Z ENDP ; CDynamicPoolEx<NEffectUpdateDecorator::CAirResistanceDecorator>::Delete
_TEXT	ENDS
; Function compile flags: /Ogtp
; File C:\Users\ALEXANDER\Desktop\Cliente\COPY_FISH_WON_NEW\Binario\Client\eterLib\Pool.h
; File D:\visual studio 2019\visual studio 2019\VC\Tools\MSVC\14.29.30133\include\vector
; File D:\visual studio 2019\visual studio 2019\VC\Tools\MSVC\14.29.30133\include\algorithm
; File C:\Users\ALEXANDER\Desktop\Cliente\COPY_FISH_WON_NEW\Binario\Client\eterLib\Pool.h
; File D:\visual studio 2019\visual studio 2019\VC\Tools\MSVC\14.29.30133\include\algorithm
; File C:\Users\ALEXANDER\Desktop\Cliente\COPY_FISH_WON_NEW\Binario\Client\eterLib\Pool.h
; File D:\visual studio 2019\visual studio 2019\VC\Tools\MSVC\14.29.30133\include\algorithm
; File C:\Users\ALEXANDER\Desktop\Cliente\COPY_FISH_WON_NEW\Binario\Client\eterLib\Pool.h
; File D:\visual studio 2019\visual studio 2019\VC\Tools\MSVC\14.29.30133\include\vector
; File D:\visual studio 2019\visual studio 2019\VC\Tools\MSVC\14.29.30133\include\xmemory
; File D:\visual studio 2019\visual studio 2019\VC\Tools\MSVC\14.29.30133\include\vector
; File D:\visual studio 2019\visual studio 2019\VC\Tools\MSVC\14.29.30133\include\xmemory
; File D:\visual studio 2019\visual studio 2019\VC\Tools\MSVC\14.29.30133\include\vector
; File D:\visual studio 2019\visual studio 2019\VC\Tools\MSVC\14.29.30133\include\xmemory
; File D:\visual studio 2019\visual studio 2019\VC\Tools\MSVC\14.29.30133\include\vector
; File D:\visual studio 2019\visual studio 2019\VC\Tools\MSVC\14.29.30133\include\xmemory
; File D:\visual studio 2019\visual studio 2019\VC\Tools\MSVC\14.29.30133\include\vector
; File C:\Users\ALEXANDER\Desktop\Cliente\COPY_FISH_WON_NEW\Binario\Client\eterLib\Pool.h
; File D:\visual studio 2019\visual studio 2019\VC\Tools\MSVC\14.29.30133\include\xmemory
; File C:\Users\ALEXANDER\Desktop\Cliente\COPY_FISH_WON_NEW\Binario\Client\eterLib\Pool.h
;	COMDAT ??1?$CDynamicPoolEx@VCAirResistanceDecorator@NEffectUpdateDecorator@@@@UAE@XZ
_TEXT	SEGMENT
??1?$CDynamicPoolEx@VCAirResistanceDecorator@NEffectUpdateDecorator@@@@UAE@XZ PROC ; CDynamicPoolEx<NEffectUpdateDecorator::CAirResistanceDecorator>::~CDynamicPoolEx<NEffectUpdateDecorator::CAirResistanceDecorator>, COMDAT
; _this$ = ecx

; 132  : 		{

  00000	53		 push	 ebx
  00001	56		 push	 esi
  00002	57		 push	 edi
  00003	8b f9		 mov	 edi, ecx
  00005	c7 07 00 00 00
	00		 mov	 DWORD PTR [edi], OFFSET ??_7?$CDynamicPoolEx@VCAirResistanceDecorator@NEffectUpdateDecorator@@@@6B@
; File D:\visual studio 2019\visual studio 2019\VC\Tools\MSVC\14.29.30133\include\vector

; 41   :     _CONSTEXPR20_CONTAINER _Vector_const_iterator(_Tptr _Parg, const _Container_base* _Pvector) noexcept : _Ptr(_Parg) {

  0000b	8b 5f 08	 mov	 ebx, DWORD PTR [edi+8]
  0000e	8b 77 04	 mov	 esi, DWORD PTR [edi+4]
; File D:\visual studio 2019\visual studio 2019\VC\Tools\MSVC\14.29.30133\include\algorithm

; 232  :     for (; _UFirst != _ULast; ++_UFirst) {

  00011	3b f3		 cmp	 esi, ebx
  00013	74 14		 je	 SHORT $LN19@CDynamicPo
$LL20@CDynamicPo:
; File C:\Users\ALEXANDER\Desktop\Cliente\COPY_FISH_WON_NEW\Binario\Client\eterLib\Pool.h

; 224  : 			::operator delete(pkData);

  00015	ff 36		 push	 DWORD PTR [esi]
  00017	e8 00 00 00 00	 call	 ??3@YAXPAX@Z		; operator delete
; File D:\visual studio 2019\visual studio 2019\VC\Tools\MSVC\14.29.30133\include\algorithm

; 232  :     for (; _UFirst != _ULast; ++_UFirst) {

  0001c	83 c6 04	 add	 esi, 4
; File C:\Users\ALEXANDER\Desktop\Cliente\COPY_FISH_WON_NEW\Binario\Client\eterLib\Pool.h

; 224  : 			::operator delete(pkData);

  0001f	83 c4 04	 add	 esp, 4
; File D:\visual studio 2019\visual studio 2019\VC\Tools\MSVC\14.29.30133\include\algorithm

; 232  :     for (; _UFirst != _ULast; ++_UFirst) {

  00022	3b f3		 cmp	 esi, ebx
  00024	75 ef		 jne	 SHORT $LL20@CDynamicPo
  00026	8b 77 04	 mov	 esi, DWORD PTR [edi+4]
$LN19@CDynamicPo:
; File C:\Users\ALEXANDER\Desktop\Cliente\COPY_FISH_WON_NEW\Binario\Client\eterLib\Pool.h

; 162  : 			m_kVct_pkFree.clear();

  00029	8b 47 10	 mov	 eax, DWORD PTR [edi+16]
  0002c	89 77 08	 mov	 DWORD PTR [edi+8], esi
  0002f	89 47 14	 mov	 DWORD PTR [edi+20], eax
; File D:\visual studio 2019\visual studio 2019\VC\Tools\MSVC\14.29.30133\include\vector

; 1750 :         if (_Myfirst) { // destroy and deallocate old array

  00032	85 c0		 test	 eax, eax
  00034	74 41		 je	 SHORT $LN27@CDynamicPo

; 1751 :             _Destroy(_Myfirst, _Mylast);
; 1752 :             _Getal().deallocate(_Myfirst, static_cast<size_type>(_Myend - _Myfirst));

  00036	8b 4f 18	 mov	 ecx, DWORD PTR [edi+24]
  00039	2b c8		 sub	 ecx, eax
; File D:\visual studio 2019\visual studio 2019\VC\Tools\MSVC\14.29.30133\include\xmemory

; 797  :         _Deallocate<_New_alignof<_Ty>>(_Ptr, sizeof(_Ty) * _Count);

  0003b	83 e1 fc	 and	 ecx, -4			; fffffffcH

; 251  :         if (_Bytes >= _Big_allocation_threshold) { // boost the alignment of big allocations to help autovectorization

  0003e	81 f9 00 10 00
	00		 cmp	 ecx, 4096		; 00001000H
  00044	72 12		 jb	 SHORT $LN43@CDynamicPo

; 150  :     const uintptr_t _Ptr_container   = _Ptr_user[-1];

  00046	8b 50 fc	 mov	 edx, DWORD PTR [eax-4]
  00049	83 c1 23	 add	 ecx, 35			; 00000023H

; 151  : 
; 152  :     // If the following asserts, it likely means that we are performing
; 153  :     // an aligned delete on memory coming from an unaligned allocation.
; 154  :     _STL_ASSERT(_Ptr_user[-2] == _Big_allocation_sentinel, "invalid argument");
; 155  : 
; 156  :     // Extra paranoia on aligned allocation/deallocation; ensure _Ptr_container is
; 157  :     // in range [_Min_back_shift, _Non_user_size]
; 158  : #ifdef _DEBUG
; 159  :     constexpr uintptr_t _Min_back_shift = 2 * sizeof(void*);
; 160  : #else // ^^^ _DEBUG ^^^ // vvv !_DEBUG vvv
; 161  :     constexpr uintptr_t _Min_back_shift = sizeof(void*);
; 162  : #endif // _DEBUG
; 163  :     const uintptr_t _Back_shift = reinterpret_cast<uintptr_t>(_Ptr) - _Ptr_container;

  0004c	2b c2		 sub	 eax, edx

; 164  :     _STL_VERIFY(_Back_shift >= _Min_back_shift && _Back_shift <= _Non_user_size, "invalid argument");

  0004e	83 c0 fc	 add	 eax, -4			; fffffffcH
  00051	83 f8 1f	 cmp	 eax, 31			; 0000001fH
  00054	77 6d		 ja	 SHORT $LN65@CDynamicPo

; 165  :     _Ptr = reinterpret_cast<void*>(_Ptr_container);

  00056	8b c2		 mov	 eax, edx
$LN43@CDynamicPo:

; 255  :         ::operator delete(_Ptr, _Bytes);

  00058	51		 push	 ecx
  00059	50		 push	 eax
  0005a	e8 00 00 00 00	 call	 ??3@YAXPAXI@Z		; operator delete
; File D:\visual studio 2019\visual studio 2019\VC\Tools\MSVC\14.29.30133\include\vector

; 1754 :             _Myfirst = nullptr;

  0005f	c7 47 10 00 00
	00 00		 mov	 DWORD PTR [edi+16], 0
; File D:\visual studio 2019\visual studio 2019\VC\Tools\MSVC\14.29.30133\include\xmemory

; 255  :         ::operator delete(_Ptr, _Bytes);

  00066	83 c4 08	 add	 esp, 8
; File D:\visual studio 2019\visual studio 2019\VC\Tools\MSVC\14.29.30133\include\vector

; 1755 :             _Mylast  = nullptr;

  00069	c7 47 14 00 00
	00 00		 mov	 DWORD PTR [edi+20], 0

; 1756 :             _Myend   = nullptr;

  00070	c7 47 18 00 00
	00 00		 mov	 DWORD PTR [edi+24], 0
$LN27@CDynamicPo:

; 1750 :         if (_Myfirst) { // destroy and deallocate old array

  00077	8b 47 04	 mov	 eax, DWORD PTR [edi+4]
  0007a	85 c0		 test	 eax, eax
  0007c	74 41		 je	 SHORT $LN52@CDynamicPo

; 1751 :             _Destroy(_Myfirst, _Mylast);
; 1752 :             _Getal().deallocate(_Myfirst, static_cast<size_type>(_Myend - _Myfirst));

  0007e	8b 4f 0c	 mov	 ecx, DWORD PTR [edi+12]
  00081	2b c8		 sub	 ecx, eax
; File D:\visual studio 2019\visual studio 2019\VC\Tools\MSVC\14.29.30133\include\xmemory

; 797  :         _Deallocate<_New_alignof<_Ty>>(_Ptr, sizeof(_Ty) * _Count);

  00083	83 e1 fc	 and	 ecx, -4			; fffffffcH

; 251  :         if (_Bytes >= _Big_allocation_threshold) { // boost the alignment of big allocations to help autovectorization

  00086	81 f9 00 10 00
	00		 cmp	 ecx, 4096		; 00001000H
  0008c	72 12		 jb	 SHORT $LN68@CDynamicPo

; 150  :     const uintptr_t _Ptr_container   = _Ptr_user[-1];

  0008e	8b 50 fc	 mov	 edx, DWORD PTR [eax-4]
  00091	83 c1 23	 add	 ecx, 35			; 00000023H

; 151  : 
; 152  :     // If the following asserts, it likely means that we are performing
; 153  :     // an aligned delete on memory coming from an unaligned allocation.
; 154  :     _STL_ASSERT(_Ptr_user[-2] == _Big_allocation_sentinel, "invalid argument");
; 155  : 
; 156  :     // Extra paranoia on aligned allocation/deallocation; ensure _Ptr_container is
; 157  :     // in range [_Min_back_shift, _Non_user_size]
; 158  : #ifdef _DEBUG
; 159  :     constexpr uintptr_t _Min_back_shift = 2 * sizeof(void*);
; 160  : #else // ^^^ _DEBUG ^^^ // vvv !_DEBUG vvv
; 161  :     constexpr uintptr_t _Min_back_shift = sizeof(void*);
; 162  : #endif // _DEBUG
; 163  :     const uintptr_t _Back_shift = reinterpret_cast<uintptr_t>(_Ptr) - _Ptr_container;

  00094	2b c2		 sub	 eax, edx

; 164  :     _STL_VERIFY(_Back_shift >= _Min_back_shift && _Back_shift <= _Non_user_size, "invalid argument");

  00096	83 c0 fc	 add	 eax, -4			; fffffffcH
  00099	83 f8 1f	 cmp	 eax, 31			; 0000001fH
  0009c	77 25		 ja	 SHORT $LN65@CDynamicPo

; 165  :     _Ptr = reinterpret_cast<void*>(_Ptr_container);

  0009e	8b c2		 mov	 eax, edx
$LN68@CDynamicPo:

; 255  :         ::operator delete(_Ptr, _Bytes);

  000a0	51		 push	 ecx
  000a1	50		 push	 eax
  000a2	e8 00 00 00 00	 call	 ??3@YAXPAXI@Z		; operator delete
; File D:\visual studio 2019\visual studio 2019\VC\Tools\MSVC\14.29.30133\include\vector

; 1754 :             _Myfirst = nullptr;

  000a7	c7 47 04 00 00
	00 00		 mov	 DWORD PTR [edi+4], 0
; File D:\visual studio 2019\visual studio 2019\VC\Tools\MSVC\14.29.30133\include\xmemory

; 255  :         ::operator delete(_Ptr, _Bytes);

  000ae	83 c4 08	 add	 esp, 8
; File D:\visual studio 2019\visual studio 2019\VC\Tools\MSVC\14.29.30133\include\vector

; 1755 :             _Mylast  = nullptr;

  000b1	c7 47 08 00 00
	00 00		 mov	 DWORD PTR [edi+8], 0

; 1756 :             _Myend   = nullptr;

  000b8	c7 47 0c 00 00
	00 00		 mov	 DWORD PTR [edi+12], 0
$LN52@CDynamicPo:
  000bf	5f		 pop	 edi
; File C:\Users\ALEXANDER\Desktop\Cliente\COPY_FISH_WON_NEW\Binario\Client\eterLib\Pool.h

; 142  : 		}

  000c0	5e		 pop	 esi
  000c1	5b		 pop	 ebx
  000c2	c3		 ret	 0
$LN65@CDynamicPo:
; File D:\visual studio 2019\visual studio 2019\VC\Tools\MSVC\14.29.30133\include\xmemory

; 164  :     _STL_VERIFY(_Back_shift >= _Min_back_shift && _Back_shift <= _Non_user_size, "invalid argument");

  000c3	e8 00 00 00 00	 call	 __invalid_parameter_noinfo_noreturn
$LN77@CDynamicPo:
  000c8	cc		 int	 3
??1?$CDynamicPoolEx@VCAirResistanceDecorator@NEffectUpdateDecorator@@@@UAE@XZ ENDP ; CDynamicPoolEx<NEffectUpdateDecorator::CAirResistanceDecorator>::~CDynamicPoolEx<NEffectUpdateDecorator::CAirResistanceDecorator>
_TEXT	ENDS
; Function compile flags: /Ogtp
;	COMDAT ??_G?$CDynamicPoolEx@VCGravityDecorator@NEffectUpdateDecorator@@@@UAEPAXI@Z
_TEXT	SEGMENT
___flags$ = 8						; size = 4
??_G?$CDynamicPoolEx@VCGravityDecorator@NEffectUpdateDecorator@@@@UAEPAXI@Z PROC ; CDynamicPoolEx<NEffectUpdateDecorator::CGravityDecorator>::`scalar deleting destructor', COMDAT
; _this$ = ecx
  00000	55		 push	 ebp
  00001	8b ec		 mov	 ebp, esp
  00003	56		 push	 esi
  00004	8b f1		 mov	 esi, ecx
  00006	e8 00 00 00 00	 call	 ??1?$CDynamicPoolEx@VCGravityDecorator@NEffectUpdateDecorator@@@@UAE@XZ ; CDynamicPoolEx<NEffectUpdateDecorator::CGravityDecorator>::~CDynamicPoolEx<NEffectUpdateDecorator::CGravityDecorator>
  0000b	f6 45 08 01	 test	 BYTE PTR ___flags$[ebp], 1
  0000f	74 0b		 je	 SHORT $LN4@scalar
  00011	6a 24		 push	 36			; 00000024H
  00013	56		 push	 esi
  00014	e8 00 00 00 00	 call	 ??3@YAXPAXI@Z		; operator delete
  00019	83 c4 08	 add	 esp, 8
$LN4@scalar:
  0001c	8b c6		 mov	 eax, esi
  0001e	5e		 pop	 esi
  0001f	5d		 pop	 ebp
  00020	c2 04 00	 ret	 4
??_G?$CDynamicPoolEx@VCGravityDecorator@NEffectUpdateDecorator@@@@UAEPAXI@Z ENDP ; CDynamicPoolEx<NEffectUpdateDecorator::CGravityDecorator>::`scalar deleting destructor'
_TEXT	ENDS
; Function compile flags: /Ogtp
; File C:\Users\ALEXANDER\Desktop\Cliente\COPY_FISH_WON_NEW\Binario\Client\eterLib\Pool.h
;	COMDAT ?Delete@?$CDynamicPoolEx@VCGravityDecorator@NEffectUpdateDecorator@@@@KAXPAVCGravityDecorator@NEffectUpdateDecorator@@@Z
_TEXT	SEGMENT
_pkData$ = 8						; size = 4
?Delete@?$CDynamicPoolEx@VCGravityDecorator@NEffectUpdateDecorator@@@@KAXPAVCGravityDecorator@NEffectUpdateDecorator@@@Z PROC ; CDynamicPoolEx<NEffectUpdateDecorator::CGravityDecorator>::Delete, COMDAT

; 224  : 			::operator delete(pkData);

  00000	e9 00 00 00 00	 jmp	 ??3@YAXPAX@Z		; operator delete
?Delete@?$CDynamicPoolEx@VCGravityDecorator@NEffectUpdateDecorator@@@@KAXPAVCGravityDecorator@NEffectUpdateDecorator@@@Z ENDP ; CDynamicPoolEx<NEffectUpdateDecorator::CGravityDecorator>::Delete
_TEXT	ENDS
; Function compile flags: /Ogtp
; File C:\Users\ALEXANDER\Desktop\Cliente\COPY_FISH_WON_NEW\Binario\Client\eterLib\Pool.h
; File D:\visual studio 2019\visual studio 2019\VC\Tools\MSVC\14.29.30133\include\vector
; File D:\visual studio 2019\visual studio 2019\VC\Tools\MSVC\14.29.30133\include\algorithm
; File C:\Users\ALEXANDER\Desktop\Cliente\COPY_FISH_WON_NEW\Binario\Client\eterLib\Pool.h
; File D:\visual studio 2019\visual studio 2019\VC\Tools\MSVC\14.29.30133\include\algorithm
; File C:\Users\ALEXANDER\Desktop\Cliente\COPY_FISH_WON_NEW\Binario\Client\eterLib\Pool.h
; File D:\visual studio 2019\visual studio 2019\VC\Tools\MSVC\14.29.30133\include\algorithm
; File C:\Users\ALEXANDER\Desktop\Cliente\COPY_FISH_WON_NEW\Binario\Client\eterLib\Pool.h
; File D:\visual studio 2019\visual studio 2019\VC\Tools\MSVC\14.29.30133\include\vector
; File D:\visual studio 2019\visual studio 2019\VC\Tools\MSVC\14.29.30133\include\xmemory
; File D:\visual studio 2019\visual studio 2019\VC\Tools\MSVC\14.29.30133\include\vector
; File D:\visual studio 2019\visual studio 2019\VC\Tools\MSVC\14.29.30133\include\xmemory
; File D:\visual studio 2019\visual studio 2019\VC\Tools\MSVC\14.29.30133\include\vector
; File D:\visual studio 2019\visual studio 2019\VC\Tools\MSVC\14.29.30133\include\xmemory
; File D:\visual studio 2019\visual studio 2019\VC\Tools\MSVC\14.29.30133\include\vector
; File D:\visual studio 2019\visual studio 2019\VC\Tools\MSVC\14.29.30133\include\xmemory
; File D:\visual studio 2019\visual studio 2019\VC\Tools\MSVC\14.29.30133\include\vector
; File C:\Users\ALEXANDER\Desktop\Cliente\COPY_FISH_WON_NEW\Binario\Client\eterLib\Pool.h
; File D:\visual studio 2019\visual studio 2019\VC\Tools\MSVC\14.29.30133\include\xmemory
; File C:\Users\ALEXANDER\Desktop\Cliente\COPY_FISH_WON_NEW\Binario\Client\eterLib\Pool.h
;	COMDAT ??1?$CDynamicPoolEx@VCGravityDecorator@NEffectUpdateDecorator@@@@UAE@XZ
_TEXT	SEGMENT
??1?$CDynamicPoolEx@VCGravityDecorator@NEffectUpdateDecorator@@@@UAE@XZ PROC ; CDynamicPoolEx<NEffectUpdateDecorator::CGravityDecorator>::~CDynamicPoolEx<NEffectUpdateDecorator::CGravityDecorator>, COMDAT
; _this$ = ecx

; 132  : 		{

  00000	53		 push	 ebx
  00001	56		 push	 esi
  00002	57		 push	 edi
  00003	8b f9		 mov	 edi, ecx
  00005	c7 07 00 00 00
	00		 mov	 DWORD PTR [edi], OFFSET ??_7?$CDynamicPoolEx@VCGravityDecorator@NEffectUpdateDecorator@@@@6B@
; File D:\visual studio 2019\visual studio 2019\VC\Tools\MSVC\14.29.30133\include\vector

; 41   :     _CONSTEXPR20_CONTAINER _Vector_const_iterator(_Tptr _Parg, const _Container_base* _Pvector) noexcept : _Ptr(_Parg) {

  0000b	8b 5f 08	 mov	 ebx, DWORD PTR [edi+8]
  0000e	8b 77 04	 mov	 esi, DWORD PTR [edi+4]
; File D:\visual studio 2019\visual studio 2019\VC\Tools\MSVC\14.29.30133\include\algorithm

; 232  :     for (; _UFirst != _ULast; ++_UFirst) {

  00011	3b f3		 cmp	 esi, ebx
  00013	74 14		 je	 SHORT $LN19@CDynamicPo
$LL20@CDynamicPo:
; File C:\Users\ALEXANDER\Desktop\Cliente\COPY_FISH_WON_NEW\Binario\Client\eterLib\Pool.h

; 224  : 			::operator delete(pkData);

  00015	ff 36		 push	 DWORD PTR [esi]
  00017	e8 00 00 00 00	 call	 ??3@YAXPAX@Z		; operator delete
; File D:\visual studio 2019\visual studio 2019\VC\Tools\MSVC\14.29.30133\include\algorithm

; 232  :     for (; _UFirst != _ULast; ++_UFirst) {

  0001c	83 c6 04	 add	 esi, 4
; File C:\Users\ALEXANDER\Desktop\Cliente\COPY_FISH_WON_NEW\Binario\Client\eterLib\Pool.h

; 224  : 			::operator delete(pkData);

  0001f	83 c4 04	 add	 esp, 4
; File D:\visual studio 2019\visual studio 2019\VC\Tools\MSVC\14.29.30133\include\algorithm

; 232  :     for (; _UFirst != _ULast; ++_UFirst) {

  00022	3b f3		 cmp	 esi, ebx
  00024	75 ef		 jne	 SHORT $LL20@CDynamicPo
  00026	8b 77 04	 mov	 esi, DWORD PTR [edi+4]
$LN19@CDynamicPo:
; File C:\Users\ALEXANDER\Desktop\Cliente\COPY_FISH_WON_NEW\Binario\Client\eterLib\Pool.h

; 162  : 			m_kVct_pkFree.clear();

  00029	8b 47 10	 mov	 eax, DWORD PTR [edi+16]
  0002c	89 77 08	 mov	 DWORD PTR [edi+8], esi
  0002f	89 47 14	 mov	 DWORD PTR [edi+20], eax
; File D:\visual studio 2019\visual studio 2019\VC\Tools\MSVC\14.29.30133\include\vector

; 1750 :         if (_Myfirst) { // destroy and deallocate old array

  00032	85 c0		 test	 eax, eax
  00034	74 41		 je	 SHORT $LN27@CDynamicPo

; 1751 :             _Destroy(_Myfirst, _Mylast);
; 1752 :             _Getal().deallocate(_Myfirst, static_cast<size_type>(_Myend - _Myfirst));

  00036	8b 4f 18	 mov	 ecx, DWORD PTR [edi+24]
  00039	2b c8		 sub	 ecx, eax
; File D:\visual studio 2019\visual studio 2019\VC\Tools\MSVC\14.29.30133\include\xmemory

; 797  :         _Deallocate<_New_alignof<_Ty>>(_Ptr, sizeof(_Ty) * _Count);

  0003b	83 e1 fc	 and	 ecx, -4			; fffffffcH

; 251  :         if (_Bytes >= _Big_allocation_threshold) { // boost the alignment of big allocations to help autovectorization

  0003e	81 f9 00 10 00
	00		 cmp	 ecx, 4096		; 00001000H
  00044	72 12		 jb	 SHORT $LN43@CDynamicPo

; 150  :     const uintptr_t _Ptr_container   = _Ptr_user[-1];

  00046	8b 50 fc	 mov	 edx, DWORD PTR [eax-4]
  00049	83 c1 23	 add	 ecx, 35			; 00000023H

; 151  : 
; 152  :     // If the following asserts, it likely means that we are performing
; 153  :     // an aligned delete on memory coming from an unaligned allocation.
; 154  :     _STL_ASSERT(_Ptr_user[-2] == _Big_allocation_sentinel, "invalid argument");
; 155  : 
; 156  :     // Extra paranoia on aligned allocation/deallocation; ensure _Ptr_container is
; 157  :     // in range [_Min_back_shift, _Non_user_size]
; 158  : #ifdef _DEBUG
; 159  :     constexpr uintptr_t _Min_back_shift = 2 * sizeof(void*);
; 160  : #else // ^^^ _DEBUG ^^^ // vvv !_DEBUG vvv
; 161  :     constexpr uintptr_t _Min_back_shift = sizeof(void*);
; 162  : #endif // _DEBUG
; 163  :     const uintptr_t _Back_shift = reinterpret_cast<uintptr_t>(_Ptr) - _Ptr_container;

  0004c	2b c2		 sub	 eax, edx

; 164  :     _STL_VERIFY(_Back_shift >= _Min_back_shift && _Back_shift <= _Non_user_size, "invalid argument");

  0004e	83 c0 fc	 add	 eax, -4			; fffffffcH
  00051	83 f8 1f	 cmp	 eax, 31			; 0000001fH
  00054	77 6d		 ja	 SHORT $LN65@CDynamicPo

; 165  :     _Ptr = reinterpret_cast<void*>(_Ptr_container);

  00056	8b c2		 mov	 eax, edx
$LN43@CDynamicPo:

; 255  :         ::operator delete(_Ptr, _Bytes);

  00058	51		 push	 ecx
  00059	50		 push	 eax
  0005a	e8 00 00 00 00	 call	 ??3@YAXPAXI@Z		; operator delete
; File D:\visual studio 2019\visual studio 2019\VC\Tools\MSVC\14.29.30133\include\vector

; 1754 :             _Myfirst = nullptr;

  0005f	c7 47 10 00 00
	00 00		 mov	 DWORD PTR [edi+16], 0
; File D:\visual studio 2019\visual studio 2019\VC\Tools\MSVC\14.29.30133\include\xmemory

; 255  :         ::operator delete(_Ptr, _Bytes);

  00066	83 c4 08	 add	 esp, 8
; File D:\visual studio 2019\visual studio 2019\VC\Tools\MSVC\14.29.30133\include\vector

; 1755 :             _Mylast  = nullptr;

  00069	c7 47 14 00 00
	00 00		 mov	 DWORD PTR [edi+20], 0

; 1756 :             _Myend   = nullptr;

  00070	c7 47 18 00 00
	00 00		 mov	 DWORD PTR [edi+24], 0
$LN27@CDynamicPo:

; 1750 :         if (_Myfirst) { // destroy and deallocate old array

  00077	8b 47 04	 mov	 eax, DWORD PTR [edi+4]
  0007a	85 c0		 test	 eax, eax
  0007c	74 41		 je	 SHORT $LN52@CDynamicPo

; 1751 :             _Destroy(_Myfirst, _Mylast);
; 1752 :             _Getal().deallocate(_Myfirst, static_cast<size_type>(_Myend - _Myfirst));

  0007e	8b 4f 0c	 mov	 ecx, DWORD PTR [edi+12]
  00081	2b c8		 sub	 ecx, eax
; File D:\visual studio 2019\visual studio 2019\VC\Tools\MSVC\14.29.30133\include\xmemory

; 797  :         _Deallocate<_New_alignof<_Ty>>(_Ptr, sizeof(_Ty) * _Count);

  00083	83 e1 fc	 and	 ecx, -4			; fffffffcH

; 251  :         if (_Bytes >= _Big_allocation_threshold) { // boost the alignment of big allocations to help autovectorization

  00086	81 f9 00 10 00
	00		 cmp	 ecx, 4096		; 00001000H
  0008c	72 12		 jb	 SHORT $LN68@CDynamicPo

; 150  :     const uintptr_t _Ptr_container   = _Ptr_user[-1];

  0008e	8b 50 fc	 mov	 edx, DWORD PTR [eax-4]
  00091	83 c1 23	 add	 ecx, 35			; 00000023H

; 151  : 
; 152  :     // If the following asserts, it likely means that we are performing
; 153  :     // an aligned delete on memory coming from an unaligned allocation.
; 154  :     _STL_ASSERT(_Ptr_user[-2] == _Big_allocation_sentinel, "invalid argument");
; 155  : 
; 156  :     // Extra paranoia on aligned allocation/deallocation; ensure _Ptr_container is
; 157  :     // in range [_Min_back_shift, _Non_user_size]
; 158  : #ifdef _DEBUG
; 159  :     constexpr uintptr_t _Min_back_shift = 2 * sizeof(void*);
; 160  : #else // ^^^ _DEBUG ^^^ // vvv !_DEBUG vvv
; 161  :     constexpr uintptr_t _Min_back_shift = sizeof(void*);
; 162  : #endif // _DEBUG
; 163  :     const uintptr_t _Back_shift = reinterpret_cast<uintptr_t>(_Ptr) - _Ptr_container;

  00094	2b c2		 sub	 eax, edx

; 164  :     _STL_VERIFY(_Back_shift >= _Min_back_shift && _Back_shift <= _Non_user_size, "invalid argument");

  00096	83 c0 fc	 add	 eax, -4			; fffffffcH
  00099	83 f8 1f	 cmp	 eax, 31			; 0000001fH
  0009c	77 25		 ja	 SHORT $LN65@CDynamicPo

; 165  :     _Ptr = reinterpret_cast<void*>(_Ptr_container);

  0009e	8b c2		 mov	 eax, edx
$LN68@CDynamicPo:

; 255  :         ::operator delete(_Ptr, _Bytes);

  000a0	51		 push	 ecx
  000a1	50		 push	 eax
  000a2	e8 00 00 00 00	 call	 ??3@YAXPAXI@Z		; operator delete
; File D:\visual studio 2019\visual studio 2019\VC\Tools\MSVC\14.29.30133\include\vector

; 1754 :             _Myfirst = nullptr;

  000a7	c7 47 04 00 00
	00 00		 mov	 DWORD PTR [edi+4], 0
; File D:\visual studio 2019\visual studio 2019\VC\Tools\MSVC\14.29.30133\include\xmemory

; 255  :         ::operator delete(_Ptr, _Bytes);

  000ae	83 c4 08	 add	 esp, 8
; File D:\visual studio 2019\visual studio 2019\VC\Tools\MSVC\14.29.30133\include\vector

; 1755 :             _Mylast  = nullptr;

  000b1	c7 47 08 00 00
	00 00		 mov	 DWORD PTR [edi+8], 0

; 1756 :             _Myend   = nullptr;

  000b8	c7 47 0c 00 00
	00 00		 mov	 DWORD PTR [edi+12], 0
$LN52@CDynamicPo:
  000bf	5f		 pop	 edi
; File C:\Users\ALEXANDER\Desktop\Cliente\COPY_FISH_WON_NEW\Binario\Client\eterLib\Pool.h

; 142  : 		}

  000c0	5e		 pop	 esi
  000c1	5b		 pop	 ebx
  000c2	c3		 ret	 0
$LN65@CDynamicPo:
; File D:\visual studio 2019\visual studio 2019\VC\Tools\MSVC\14.29.30133\include\xmemory

; 164  :     _STL_VERIFY(_Back_shift >= _Min_back_shift && _Back_shift <= _Non_user_size, "invalid argument");

  000c3	e8 00 00 00 00	 call	 __invalid_parameter_noinfo_noreturn
$LN77@CDynamicPo:
  000c8	cc		 int	 3
??1?$CDynamicPoolEx@VCGravityDecorator@NEffectUpdateDecorator@@@@UAE@XZ ENDP ; CDynamicPoolEx<NEffectUpdateDecorator::CGravityDecorator>::~CDynamicPoolEx<NEffectUpdateDecorator::CGravityDecorator>
_TEXT	ENDS
; Function compile flags: /Ogtp
;	COMDAT ??_G?$CDynamicPoolEx@VCRotationDecorator@NEffectUpdateDecorator@@@@UAEPAXI@Z
_TEXT	SEGMENT
___flags$ = 8						; size = 4
??_G?$CDynamicPoolEx@VCRotationDecorator@NEffectUpdateDecorator@@@@UAEPAXI@Z PROC ; CDynamicPoolEx<NEffectUpdateDecorator::CRotationDecorator>::`scalar deleting destructor', COMDAT
; _this$ = ecx
  00000	55		 push	 ebp
  00001	8b ec		 mov	 ebp, esp
  00003	56		 push	 esi
  00004	8b f1		 mov	 esi, ecx
  00006	e8 00 00 00 00	 call	 ??1?$CDynamicPoolEx@VCRotationDecorator@NEffectUpdateDecorator@@@@UAE@XZ ; CDynamicPoolEx<NEffectUpdateDecorator::CRotationDecorator>::~CDynamicPoolEx<NEffectUpdateDecorator::CRotationDecorator>
  0000b	f6 45 08 01	 test	 BYTE PTR ___flags$[ebp], 1
  0000f	74 0b		 je	 SHORT $LN4@scalar
  00011	6a 24		 push	 36			; 00000024H
  00013	56		 push	 esi
  00014	e8 00 00 00 00	 call	 ??3@YAXPAXI@Z		; operator delete
  00019	83 c4 08	 add	 esp, 8
$LN4@scalar:
  0001c	8b c6		 mov	 eax, esi
  0001e	5e		 pop	 esi
  0001f	5d		 pop	 ebp
  00020	c2 04 00	 ret	 4
??_G?$CDynamicPoolEx@VCRotationDecorator@NEffectUpdateDecorator@@@@UAEPAXI@Z ENDP ; CDynamicPoolEx<NEffectUpdateDecorator::CRotationDecorator>::`scalar deleting destructor'
_TEXT	ENDS
; Function compile flags: /Ogtp
; File C:\Users\ALEXANDER\Desktop\Cliente\COPY_FISH_WON_NEW\Binario\Client\eterLib\Pool.h
;	COMDAT ?Delete@?$CDynamicPoolEx@VCRotationDecorator@NEffectUpdateDecorator@@@@KAXPAVCRotationDecorator@NEffectUpdateDecorator@@@Z
_TEXT	SEGMENT
_pkData$ = 8						; size = 4
?Delete@?$CDynamicPoolEx@VCRotationDecorator@NEffectUpdateDecorator@@@@KAXPAVCRotationDecorator@NEffectUpdateDecorator@@@Z PROC ; CDynamicPoolEx<NEffectUpdateDecorator::CRotationDecorator>::Delete, COMDAT

; 224  : 			::operator delete(pkData);

  00000	e9 00 00 00 00	 jmp	 ??3@YAXPAX@Z		; operator delete
?Delete@?$CDynamicPoolEx@VCRotationDecorator@NEffectUpdateDecorator@@@@KAXPAVCRotationDecorator@NEffectUpdateDecorator@@@Z ENDP ; CDynamicPoolEx<NEffectUpdateDecorator::CRotationDecorator>::Delete
_TEXT	ENDS
; Function compile flags: /Ogtp
; File C:\Users\ALEXANDER\Desktop\Cliente\COPY_FISH_WON_NEW\Binario\Client\eterLib\Pool.h
; File D:\visual studio 2019\visual studio 2019\VC\Tools\MSVC\14.29.30133\include\vector
; File D:\visual studio 2019\visual studio 2019\VC\Tools\MSVC\14.29.30133\include\algorithm
; File C:\Users\ALEXANDER\Desktop\Cliente\COPY_FISH_WON_NEW\Binario\Client\eterLib\Pool.h
; File D:\visual studio 2019\visual studio 2019\VC\Tools\MSVC\14.29.30133\include\algorithm
; File C:\Users\ALEXANDER\Desktop\Cliente\COPY_FISH_WON_NEW\Binario\Client\eterLib\Pool.h
; File D:\visual studio 2019\visual studio 2019\VC\Tools\MSVC\14.29.30133\include\algorithm
; File C:\Users\ALEXANDER\Desktop\Cliente\COPY_FISH_WON_NEW\Binario\Client\eterLib\Pool.h
; File D:\visual studio 2019\visual studio 2019\VC\Tools\MSVC\14.29.30133\include\vector
; File D:\visual studio 2019\visual studio 2019\VC\Tools\MSVC\14.29.30133\include\xmemory
; File D:\visual studio 2019\visual studio 2019\VC\Tools\MSVC\14.29.30133\include\vector
; File D:\visual studio 2019\visual studio 2019\VC\Tools\MSVC\14.29.30133\include\xmemory
; File D:\visual studio 2019\visual studio 2019\VC\Tools\MSVC\14.29.30133\include\vector
; File D:\visual studio 2019\visual studio 2019\VC\Tools\MSVC\14.29.30133\include\xmemory
; File D:\visual studio 2019\visual studio 2019\VC\Tools\MSVC\14.29.30133\include\vector
; File D:\visual studio 2019\visual studio 2019\VC\Tools\MSVC\14.29.30133\include\xmemory
; File D:\visual studio 2019\visual studio 2019\VC\Tools\MSVC\14.29.30133\include\vector
; File C:\Users\ALEXANDER\Desktop\Cliente\COPY_FISH_WON_NEW\Binario\Client\eterLib\Pool.h
; File D:\visual studio 2019\visual studio 2019\VC\Tools\MSVC\14.29.30133\include\xmemory
; File C:\Users\ALEXANDER\Desktop\Cliente\COPY_FISH_WON_NEW\Binario\Client\eterLib\Pool.h
;	COMDAT ??1?$CDynamicPoolEx@VCRotationDecorator@NEffectUpdateDecorator@@@@UAE@XZ
_TEXT	SEGMENT
??1?$CDynamicPoolEx@VCRotationDecorator@NEffectUpdateDecorator@@@@UAE@XZ PROC ; CDynamicPoolEx<NEffectUpdateDecorator::CRotationDecorator>::~CDynamicPoolEx<NEffectUpdateDecorator::CRotationDecorator>, COMDAT
; _this$ = ecx

; 132  : 		{

  00000	53		 push	 ebx
  00001	56		 push	 esi
  00002	57		 push	 edi
  00003	8b f9		 mov	 edi, ecx
  00005	c7 07 00 00 00
	00		 mov	 DWORD PTR [edi], OFFSET ??_7?$CDynamicPoolEx@VCRotationDecorator@NEffectUpdateDecorator@@@@6B@
; File D:\visual studio 2019\visual studio 2019\VC\Tools\MSVC\14.29.30133\include\vector

; 41   :     _CONSTEXPR20_CONTAINER _Vector_const_iterator(_Tptr _Parg, const _Container_base* _Pvector) noexcept : _Ptr(_Parg) {

  0000b	8b 5f 08	 mov	 ebx, DWORD PTR [edi+8]
  0000e	8b 77 04	 mov	 esi, DWORD PTR [edi+4]
; File D:\visual studio 2019\visual studio 2019\VC\Tools\MSVC\14.29.30133\include\algorithm

; 232  :     for (; _UFirst != _ULast; ++_UFirst) {

  00011	3b f3		 cmp	 esi, ebx
  00013	74 14		 je	 SHORT $LN19@CDynamicPo
$LL20@CDynamicPo:
; File C:\Users\ALEXANDER\Desktop\Cliente\COPY_FISH_WON_NEW\Binario\Client\eterLib\Pool.h

; 224  : 			::operator delete(pkData);

  00015	ff 36		 push	 DWORD PTR [esi]
  00017	e8 00 00 00 00	 call	 ??3@YAXPAX@Z		; operator delete
; File D:\visual studio 2019\visual studio 2019\VC\Tools\MSVC\14.29.30133\include\algorithm

; 232  :     for (; _UFirst != _ULast; ++_UFirst) {

  0001c	83 c6 04	 add	 esi, 4
; File C:\Users\ALEXANDER\Desktop\Cliente\COPY_FISH_WON_NEW\Binario\Client\eterLib\Pool.h

; 224  : 			::operator delete(pkData);

  0001f	83 c4 04	 add	 esp, 4
; File D:\visual studio 2019\visual studio 2019\VC\Tools\MSVC\14.29.30133\include\algorithm

; 232  :     for (; _UFirst != _ULast; ++_UFirst) {

  00022	3b f3		 cmp	 esi, ebx
  00024	75 ef		 jne	 SHORT $LL20@CDynamicPo
  00026	8b 77 04	 mov	 esi, DWORD PTR [edi+4]
$LN19@CDynamicPo:
; File C:\Users\ALEXANDER\Desktop\Cliente\COPY_FISH_WON_NEW\Binario\Client\eterLib\Pool.h

; 162  : 			m_kVct_pkFree.clear();

  00029	8b 47 10	 mov	 eax, DWORD PTR [edi+16]
  0002c	89 77 08	 mov	 DWORD PTR [edi+8], esi
  0002f	89 47 14	 mov	 DWORD PTR [edi+20], eax
; File D:\visual studio 2019\visual studio 2019\VC\Tools\MSVC\14.29.30133\include\vector

; 1750 :         if (_Myfirst) { // destroy and deallocate old array

  00032	85 c0		 test	 eax, eax
  00034	74 41		 je	 SHORT $LN27@CDynamicPo

; 1751 :             _Destroy(_Myfirst, _Mylast);
; 1752 :             _Getal().deallocate(_Myfirst, static_cast<size_type>(_Myend - _Myfirst));

  00036	8b 4f 18	 mov	 ecx, DWORD PTR [edi+24]
  00039	2b c8		 sub	 ecx, eax
; File D:\visual studio 2019\visual studio 2019\VC\Tools\MSVC\14.29.30133\include\xmemory

; 797  :         _Deallocate<_New_alignof<_Ty>>(_Ptr, sizeof(_Ty) * _Count);

  0003b	83 e1 fc	 and	 ecx, -4			; fffffffcH

; 251  :         if (_Bytes >= _Big_allocation_threshold) { // boost the alignment of big allocations to help autovectorization

  0003e	81 f9 00 10 00
	00		 cmp	 ecx, 4096		; 00001000H
  00044	72 12		 jb	 SHORT $LN43@CDynamicPo

; 150  :     const uintptr_t _Ptr_container   = _Ptr_user[-1];

  00046	8b 50 fc	 mov	 edx, DWORD PTR [eax-4]
  00049	83 c1 23	 add	 ecx, 35			; 00000023H

; 151  : 
; 152  :     // If the following asserts, it likely means that we are performing
; 153  :     // an aligned delete on memory coming from an unaligned allocation.
; 154  :     _STL_ASSERT(_Ptr_user[-2] == _Big_allocation_sentinel, "invalid argument");
; 155  : 
; 156  :     // Extra paranoia on aligned allocation/deallocation; ensure _Ptr_container is
; 157  :     // in range [_Min_back_shift, _Non_user_size]
; 158  : #ifdef _DEBUG
; 159  :     constexpr uintptr_t _Min_back_shift = 2 * sizeof(void*);
; 160  : #else // ^^^ _DEBUG ^^^ // vvv !_DEBUG vvv
; 161  :     constexpr uintptr_t _Min_back_shift = sizeof(void*);
; 162  : #endif // _DEBUG
; 163  :     const uintptr_t _Back_shift = reinterpret_cast<uintptr_t>(_Ptr) - _Ptr_container;

  0004c	2b c2		 sub	 eax, edx

; 164  :     _STL_VERIFY(_Back_shift >= _Min_back_shift && _Back_shift <= _Non_user_size, "invalid argument");

  0004e	83 c0 fc	 add	 eax, -4			; fffffffcH
  00051	83 f8 1f	 cmp	 eax, 31			; 0000001fH
  00054	77 6d		 ja	 SHORT $LN65@CDynamicPo

; 165  :     _Ptr = reinterpret_cast<void*>(_Ptr_container);

  00056	8b c2		 mov	 eax, edx
$LN43@CDynamicPo:

; 255  :         ::operator delete(_Ptr, _Bytes);

  00058	51		 push	 ecx
  00059	50		 push	 eax
  0005a	e8 00 00 00 00	 call	 ??3@YAXPAXI@Z		; operator delete
; File D:\visual studio 2019\visual studio 2019\VC\Tools\MSVC\14.29.30133\include\vector

; 1754 :             _Myfirst = nullptr;

  0005f	c7 47 10 00 00
	00 00		 mov	 DWORD PTR [edi+16], 0
; File D:\visual studio 2019\visual studio 2019\VC\Tools\MSVC\14.29.30133\include\xmemory

; 255  :         ::operator delete(_Ptr, _Bytes);

  00066	83 c4 08	 add	 esp, 8
; File D:\visual studio 2019\visual studio 2019\VC\Tools\MSVC\14.29.30133\include\vector

; 1755 :             _Mylast  = nullptr;

  00069	c7 47 14 00 00
	00 00		 mov	 DWORD PTR [edi+20], 0

; 1756 :             _Myend   = nullptr;

  00070	c7 47 18 00 00
	00 00		 mov	 DWORD PTR [edi+24], 0
$LN27@CDynamicPo:

; 1750 :         if (_Myfirst) { // destroy and deallocate old array

  00077	8b 47 04	 mov	 eax, DWORD PTR [edi+4]
  0007a	85 c0		 test	 eax, eax
  0007c	74 41		 je	 SHORT $LN52@CDynamicPo

; 1751 :             _Destroy(_Myfirst, _Mylast);
; 1752 :             _Getal().deallocate(_Myfirst, static_cast<size_type>(_Myend - _Myfirst));

  0007e	8b 4f 0c	 mov	 ecx, DWORD PTR [edi+12]
  00081	2b c8		 sub	 ecx, eax
; File D:\visual studio 2019\visual studio 2019\VC\Tools\MSVC\14.29.30133\include\xmemory

; 797  :         _Deallocate<_New_alignof<_Ty>>(_Ptr, sizeof(_Ty) * _Count);

  00083	83 e1 fc	 and	 ecx, -4			; fffffffcH

; 251  :         if (_Bytes >= _Big_allocation_threshold) { // boost the alignment of big allocations to help autovectorization

  00086	81 f9 00 10 00
	00		 cmp	 ecx, 4096		; 00001000H
  0008c	72 12		 jb	 SHORT $LN68@CDynamicPo

; 150  :     const uintptr_t _Ptr_container   = _Ptr_user[-1];

  0008e	8b 50 fc	 mov	 edx, DWORD PTR [eax-4]
  00091	83 c1 23	 add	 ecx, 35			; 00000023H

; 151  : 
; 152  :     // If the following asserts, it likely means that we are performing
; 153  :     // an aligned delete on memory coming from an unaligned allocation.
; 154  :     _STL_ASSERT(_Ptr_user[-2] == _Big_allocation_sentinel, "invalid argument");
; 155  : 
; 156  :     // Extra paranoia on aligned allocation/deallocation; ensure _Ptr_container is
; 157  :     // in range [_Min_back_shift, _Non_user_size]
; 158  : #ifdef _DEBUG
; 159  :     constexpr uintptr_t _Min_back_shift = 2 * sizeof(void*);
; 160  : #else // ^^^ _DEBUG ^^^ // vvv !_DEBUG vvv
; 161  :     constexpr uintptr_t _Min_back_shift = sizeof(void*);
; 162  : #endif // _DEBUG
; 163  :     const uintptr_t _Back_shift = reinterpret_cast<uintptr_t>(_Ptr) - _Ptr_container;

  00094	2b c2		 sub	 eax, edx

; 164  :     _STL_VERIFY(_Back_shift >= _Min_back_shift && _Back_shift <= _Non_user_size, "invalid argument");

  00096	83 c0 fc	 add	 eax, -4			; fffffffcH
  00099	83 f8 1f	 cmp	 eax, 31			; 0000001fH
  0009c	77 25		 ja	 SHORT $LN65@CDynamicPo

; 165  :     _Ptr = reinterpret_cast<void*>(_Ptr_container);

  0009e	8b c2		 mov	 eax, edx
$LN68@CDynamicPo:

; 255  :         ::operator delete(_Ptr, _Bytes);

  000a0	51		 push	 ecx
  000a1	50		 push	 eax
  000a2	e8 00 00 00 00	 call	 ??3@YAXPAXI@Z		; operator delete
; File D:\visual studio 2019\visual studio 2019\VC\Tools\MSVC\14.29.30133\include\vector

; 1754 :             _Myfirst = nullptr;

  000a7	c7 47 04 00 00
	00 00		 mov	 DWORD PTR [edi+4], 0
; File D:\visual studio 2019\visual studio 2019\VC\Tools\MSVC\14.29.30133\include\xmemory

; 255  :         ::operator delete(_Ptr, _Bytes);

  000ae	83 c4 08	 add	 esp, 8
; File D:\visual studio 2019\visual studio 2019\VC\Tools\MSVC\14.29.30133\include\vector

; 1755 :             _Mylast  = nullptr;

  000b1	c7 47 08 00 00
	00 00		 mov	 DWORD PTR [edi+8], 0

; 1756 :             _Myend   = nullptr;

  000b8	c7 47 0c 00 00
	00 00		 mov	 DWORD PTR [edi+12], 0
$LN52@CDynamicPo:
  000bf	5f		 pop	 edi
; File C:\Users\ALEXANDER\Desktop\Cliente\COPY_FISH_WON_NEW\Binario\Client\eterLib\Pool.h

; 142  : 		}

  000c0	5e		 pop	 esi
  000c1	5b		 pop	 ebx
  000c2	c3		 ret	 0
$LN65@CDynamicPo:
; File D:\visual studio 2019\visual studio 2019\VC\Tools\MSVC\14.29.30133\include\xmemory

; 164  :     _STL_VERIFY(_Back_shift >= _Min_back_shift && _Back_shift <= _Non_user_size, "invalid argument");

  000c3	e8 00 00 00 00	 call	 __invalid_parameter_noinfo_noreturn
$LN77@CDynamicPo:
  000c8	cc		 int	 3
??1?$CDynamicPoolEx@VCRotationDecorator@NEffectUpdateDecorator@@@@UAE@XZ ENDP ; CDynamicPoolEx<NEffectUpdateDecorator::CRotationDecorator>::~CDynamicPoolEx<NEffectUpdateDecorator::CRotationDecorator>
_TEXT	ENDS
; Function compile flags: /Ogtp
;	COMDAT ??__F?ms_kPool@CItemData@@2V?$CDynamicPool@VCItemData@@@@A@@YAXXZ
text$yd	SEGMENT
??__F?ms_kPool@CItemData@@2V?$CDynamicPool@VCItemData@@@@A@@YAXXZ PROC ; `dynamic atexit destructor for 'CItemData::ms_kPool'', COMDAT
  00000	b9 00 00 00 00	 mov	 ecx, OFFSET ?ms_kPool@CItemData@@2V?$CDynamicPool@VCItemData@@@@A ; CItemData::ms_kPool
  00005	e9 00 00 00 00	 jmp	 ??1?$CDynamicPool@VCItemData@@@@UAE@XZ ; CDynamicPool<CItemData>::~CDynamicPool<CItemData>
??__F?ms_kPool@CItemData@@2V?$CDynamicPool@VCItemData@@@@A@@YAXXZ ENDP ; `dynamic atexit destructor for 'CItemData::ms_kPool''
text$yd	ENDS
; Function compile flags: /Ogtp
; File C:\Users\ALEXANDER\Desktop\Cliente\COPY_FISH_WON_NEW\Binario\Client\GameLib\ItemData.cpp
;	COMDAT ??__E?ms_kPool@CItemData@@2V?$CDynamicPool@VCItemData@@@@A@@YAXXZ
text$di	SEGMENT
??__E?ms_kPool@CItemData@@2V?$CDynamicPool@VCItemData@@@@A@@YAXXZ PROC ; `dynamic initializer for 'CItemData::ms_kPool'', COMDAT

; 9    : CDynamicPool<CItemData>		CItemData::ms_kPool;

  00000	68 00 00 00 00	 push	 OFFSET ??__F?ms_kPool@CItemData@@2V?$CDynamicPool@VCItemData@@@@A@@YAXXZ ; `dynamic atexit destructor for 'CItemData::ms_kPool''
  00005	e8 00 00 00 00	 call	 _atexit
  0000a	59		 pop	 ecx
  0000b	c3		 ret	 0
??__E?ms_kPool@CItemData@@2V?$CDynamicPool@VCItemData@@@@A@@YAXXZ ENDP ; `dynamic initializer for 'CItemData::ms_kPool''
text$di	ENDS
; Function compile flags: /Ogtp
;	COMDAT ??_G?$CDynamicPool@VCItemData@@@@UAEPAXI@Z
_TEXT	SEGMENT
___flags$ = 8						; size = 4
??_G?$CDynamicPool@VCItemData@@@@UAEPAXI@Z PROC		; CDynamicPool<CItemData>::`scalar deleting destructor', COMDAT
; _this$ = ecx
  00000	55		 push	 ebp
  00001	8b ec		 mov	 ebp, esp
  00003	56		 push	 esi
  00004	8b f1		 mov	 esi, ecx
  00006	e8 00 00 00 00	 call	 ??1?$CDynamicPool@VCItemData@@@@UAE@XZ ; CDynamicPool<CItemData>::~CDynamicPool<CItemData>
  0000b	f6 45 08 01	 test	 BYTE PTR ___flags$[ebp], 1
  0000f	74 0b		 je	 SHORT $LN4@scalar
  00011	6a 24		 push	 36			; 00000024H
  00013	56		 push	 esi
  00014	e8 00 00 00 00	 call	 ??3@YAXPAXI@Z		; operator delete
  00019	83 c4 08	 add	 esp, 8
$LN4@scalar:
  0001c	8b c6		 mov	 eax, esi
  0001e	5e		 pop	 esi
  0001f	5d		 pop	 ebp
  00020	c2 04 00	 ret	 4
??_G?$CDynamicPool@VCItemData@@@@UAEPAXI@Z ENDP		; CDynamicPool<CItemData>::`scalar deleting destructor'
_TEXT	ENDS
; Function compile flags: /Ogtp
; File D:\visual studio 2019\visual studio 2019\VC\Tools\MSVC\14.29.30133\include\vector
;	COMDAT ?_Xlength@?$vector@PAVCItemData@@V?$allocator@PAVCItemData@@@std@@@std@@CAXXZ
_TEXT	SEGMENT
?_Xlength@?$vector@PAVCItemData@@V?$allocator@PAVCItemData@@@std@@@std@@CAXXZ PROC ; std::vector<CItemData *,std::allocator<CItemData *> >::_Xlength, COMDAT

; 1761 :         _Xlength_error("vector too long");

  00000	68 00 00 00 00	 push	 OFFSET ??_C@_0BA@FOIKENOD@vector?5too?5long@
  00005	e8 00 00 00 00	 call	 ?_Xlength_error@std@@YAXPBD@Z ; std::_Xlength_error
$LN3@Xlength:
  0000a	cc		 int	 3
?_Xlength@?$vector@PAVCItemData@@V?$allocator@PAVCItemData@@@std@@@std@@CAXXZ ENDP ; std::vector<CItemData *,std::allocator<CItemData *> >::_Xlength
_TEXT	ENDS
; Function compile flags: /Ogtp
; File C:\Users\ALEXANDER\Desktop\Cliente\COPY_FISH_WON_NEW\Binario\Client\eterLib\Pool.h
;	COMDAT ?Delete@?$CDynamicPool@VCItemData@@@@KAXPAVCItemData@@@Z
_TEXT	SEGMENT
_pkData$ = 8						; size = 4
?Delete@?$CDynamicPool@VCItemData@@@@KAXPAVCItemData@@@Z PROC ; CDynamicPool<CItemData>::Delete, COMDAT

; 109  : 		{

  00000	55		 push	 ebp
  00001	8b ec		 mov	 ebp, esp

; 110  : 			delete pkData;

  00003	8b 4d 08	 mov	 ecx, DWORD PTR _pkData$[ebp]
  00006	85 c9		 test	 ecx, ecx
  00008	74 06		 je	 SHORT $LN3@Delete
  0000a	8b 01		 mov	 eax, DWORD PTR [ecx]
  0000c	6a 01		 push	 1
  0000e	ff 10		 call	 DWORD PTR [eax]
$LN3@Delete:

; 111  : 		}

  00010	5d		 pop	 ebp
  00011	c3		 ret	 0
?Delete@?$CDynamicPool@VCItemData@@@@KAXPAVCItemData@@@Z ENDP ; CDynamicPool<CItemData>::Delete
_TEXT	ENDS
; Function compile flags: /Ogtp
; File C:\Users\ALEXANDER\Desktop\Cliente\COPY_FISH_WON_NEW\Binario\Client\eterLib\Pool.h
; File D:\visual studio 2019\visual studio 2019\VC\Tools\MSVC\14.29.30133\include\vector
; File D:\visual studio 2019\visual studio 2019\VC\Tools\MSVC\14.29.30133\include\xmemory
; File D:\visual studio 2019\visual studio 2019\VC\Tools\MSVC\14.29.30133\include\vector
; File D:\visual studio 2019\visual studio 2019\VC\Tools\MSVC\14.29.30133\include\xmemory
; File D:\visual studio 2019\visual studio 2019\VC\Tools\MSVC\14.29.30133\include\vector
; File D:\visual studio 2019\visual studio 2019\VC\Tools\MSVC\14.29.30133\include\xmemory
; File D:\visual studio 2019\visual studio 2019\VC\Tools\MSVC\14.29.30133\include\vector
; File D:\visual studio 2019\visual studio 2019\VC\Tools\MSVC\14.29.30133\include\xmemory
; File D:\visual studio 2019\visual studio 2019\VC\Tools\MSVC\14.29.30133\include\vector
; File C:\Users\ALEXANDER\Desktop\Cliente\COPY_FISH_WON_NEW\Binario\Client\eterLib\Pool.h
; File D:\visual studio 2019\visual studio 2019\VC\Tools\MSVC\14.29.30133\include\xmemory
; File C:\Users\ALEXANDER\Desktop\Cliente\COPY_FISH_WON_NEW\Binario\Client\eterLib\Pool.h
;	COMDAT ??1?$CDynamicPool@VCItemData@@@@UAE@XZ
_TEXT	SEGMENT
??1?$CDynamicPool@VCItemData@@@@UAE@XZ PROC		; CDynamicPool<CItemData>::~CDynamicPool<CItemData>, COMDAT
; _this$ = ecx

; 18   : 		{

  00000	56		 push	 esi
  00001	8b f1		 mov	 esi, ecx
  00003	c7 06 00 00 00
	00		 mov	 DWORD PTR [esi], OFFSET ??_7?$CDynamicPool@VCItemData@@@@6B@
; File D:\visual studio 2019\visual studio 2019\VC\Tools\MSVC\14.29.30133\include\vector

; 1750 :         if (_Myfirst) { // destroy and deallocate old array

  00009	8b 46 10	 mov	 eax, DWORD PTR [esi+16]
  0000c	85 c0		 test	 eax, eax
  0000e	74 41		 je	 SHORT $LN6@CDynamicPo

; 1751 :             _Destroy(_Myfirst, _Mylast);
; 1752 :             _Getal().deallocate(_Myfirst, static_cast<size_type>(_Myend - _Myfirst));

  00010	8b 4e 18	 mov	 ecx, DWORD PTR [esi+24]
  00013	2b c8		 sub	 ecx, eax
; File D:\visual studio 2019\visual studio 2019\VC\Tools\MSVC\14.29.30133\include\xmemory

; 797  :         _Deallocate<_New_alignof<_Ty>>(_Ptr, sizeof(_Ty) * _Count);

  00015	83 e1 fc	 and	 ecx, -4			; fffffffcH

; 251  :         if (_Bytes >= _Big_allocation_threshold) { // boost the alignment of big allocations to help autovectorization

  00018	81 f9 00 10 00
	00		 cmp	 ecx, 4096		; 00001000H
  0001e	72 12		 jb	 SHORT $LN22@CDynamicPo

; 150  :     const uintptr_t _Ptr_container   = _Ptr_user[-1];

  00020	8b 50 fc	 mov	 edx, DWORD PTR [eax-4]
  00023	83 c1 23	 add	 ecx, 35			; 00000023H

; 151  : 
; 152  :     // If the following asserts, it likely means that we are performing
; 153  :     // an aligned delete on memory coming from an unaligned allocation.
; 154  :     _STL_ASSERT(_Ptr_user[-2] == _Big_allocation_sentinel, "invalid argument");
; 155  : 
; 156  :     // Extra paranoia on aligned allocation/deallocation; ensure _Ptr_container is
; 157  :     // in range [_Min_back_shift, _Non_user_size]
; 158  : #ifdef _DEBUG
; 159  :     constexpr uintptr_t _Min_back_shift = 2 * sizeof(void*);
; 160  : #else // ^^^ _DEBUG ^^^ // vvv !_DEBUG vvv
; 161  :     constexpr uintptr_t _Min_back_shift = sizeof(void*);
; 162  : #endif // _DEBUG
; 163  :     const uintptr_t _Back_shift = reinterpret_cast<uintptr_t>(_Ptr) - _Ptr_container;

  00026	2b c2		 sub	 eax, edx

; 164  :     _STL_VERIFY(_Back_shift >= _Min_back_shift && _Back_shift <= _Non_user_size, "invalid argument");

  00028	83 c0 fc	 add	 eax, -4			; fffffffcH
  0002b	83 f8 1f	 cmp	 eax, 31			; 0000001fH
  0002e	77 6b		 ja	 SHORT $LN44@CDynamicPo

; 165  :     _Ptr = reinterpret_cast<void*>(_Ptr_container);

  00030	8b c2		 mov	 eax, edx
$LN22@CDynamicPo:

; 255  :         ::operator delete(_Ptr, _Bytes);

  00032	51		 push	 ecx
  00033	50		 push	 eax
  00034	e8 00 00 00 00	 call	 ??3@YAXPAXI@Z		; operator delete
; File D:\visual studio 2019\visual studio 2019\VC\Tools\MSVC\14.29.30133\include\vector

; 1754 :             _Myfirst = nullptr;

  00039	c7 46 10 00 00
	00 00		 mov	 DWORD PTR [esi+16], 0
; File D:\visual studio 2019\visual studio 2019\VC\Tools\MSVC\14.29.30133\include\xmemory

; 255  :         ::operator delete(_Ptr, _Bytes);

  00040	83 c4 08	 add	 esp, 8
; File D:\visual studio 2019\visual studio 2019\VC\Tools\MSVC\14.29.30133\include\vector

; 1755 :             _Mylast  = nullptr;

  00043	c7 46 14 00 00
	00 00		 mov	 DWORD PTR [esi+20], 0

; 1756 :             _Myend   = nullptr;

  0004a	c7 46 18 00 00
	00 00		 mov	 DWORD PTR [esi+24], 0
$LN6@CDynamicPo:

; 1750 :         if (_Myfirst) { // destroy and deallocate old array

  00051	8b 46 04	 mov	 eax, DWORD PTR [esi+4]
  00054	85 c0		 test	 eax, eax
  00056	74 41		 je	 SHORT $LN31@CDynamicPo

; 1751 :             _Destroy(_Myfirst, _Mylast);
; 1752 :             _Getal().deallocate(_Myfirst, static_cast<size_type>(_Myend - _Myfirst));

  00058	8b 4e 0c	 mov	 ecx, DWORD PTR [esi+12]
  0005b	2b c8		 sub	 ecx, eax
; File D:\visual studio 2019\visual studio 2019\VC\Tools\MSVC\14.29.30133\include\xmemory

; 797  :         _Deallocate<_New_alignof<_Ty>>(_Ptr, sizeof(_Ty) * _Count);

  0005d	83 e1 fc	 and	 ecx, -4			; fffffffcH

; 251  :         if (_Bytes >= _Big_allocation_threshold) { // boost the alignment of big allocations to help autovectorization

  00060	81 f9 00 10 00
	00		 cmp	 ecx, 4096		; 00001000H
  00066	72 12		 jb	 SHORT $LN47@CDynamicPo

; 150  :     const uintptr_t _Ptr_container   = _Ptr_user[-1];

  00068	8b 50 fc	 mov	 edx, DWORD PTR [eax-4]
  0006b	83 c1 23	 add	 ecx, 35			; 00000023H

; 151  : 
; 152  :     // If the following asserts, it likely means that we are performing
; 153  :     // an aligned delete on memory coming from an unaligned allocation.
; 154  :     _STL_ASSERT(_Ptr_user[-2] == _Big_allocation_sentinel, "invalid argument");
; 155  : 
; 156  :     // Extra paranoia on aligned allocation/deallocation; ensure _Ptr_container is
; 157  :     // in range [_Min_back_shift, _Non_user_size]
; 158  : #ifdef _DEBUG
; 159  :     constexpr uintptr_t _Min_back_shift = 2 * sizeof(void*);
; 160  : #else // ^^^ _DEBUG ^^^ // vvv !_DEBUG vvv
; 161  :     constexpr uintptr_t _Min_back_shift = sizeof(void*);
; 162  : #endif // _DEBUG
; 163  :     const uintptr_t _Back_shift = reinterpret_cast<uintptr_t>(_Ptr) - _Ptr_container;

  0006e	2b c2		 sub	 eax, edx

; 164  :     _STL_VERIFY(_Back_shift >= _Min_back_shift && _Back_shift <= _Non_user_size, "invalid argument");

  00070	83 c0 fc	 add	 eax, -4			; fffffffcH
  00073	83 f8 1f	 cmp	 eax, 31			; 0000001fH
  00076	77 23		 ja	 SHORT $LN44@CDynamicPo

; 165  :     _Ptr = reinterpret_cast<void*>(_Ptr_container);

  00078	8b c2		 mov	 eax, edx
$LN47@CDynamicPo:

; 255  :         ::operator delete(_Ptr, _Bytes);

  0007a	51		 push	 ecx
  0007b	50		 push	 eax
  0007c	e8 00 00 00 00	 call	 ??3@YAXPAXI@Z		; operator delete
; File D:\visual studio 2019\visual studio 2019\VC\Tools\MSVC\14.29.30133\include\vector

; 1754 :             _Myfirst = nullptr;

  00081	c7 46 04 00 00
	00 00		 mov	 DWORD PTR [esi+4], 0
; File D:\visual studio 2019\visual studio 2019\VC\Tools\MSVC\14.29.30133\include\xmemory

; 255  :         ::operator delete(_Ptr, _Bytes);

  00088	83 c4 08	 add	 esp, 8
; File D:\visual studio 2019\visual studio 2019\VC\Tools\MSVC\14.29.30133\include\vector

; 1755 :             _Mylast  = nullptr;

  0008b	c7 46 08 00 00
	00 00		 mov	 DWORD PTR [esi+8], 0

; 1756 :             _Myend   = nullptr;

  00092	c7 46 0c 00 00
	00 00		 mov	 DWORD PTR [esi+12], 0
$LN31@CDynamicPo:
  00099	5e		 pop	 esi
; File C:\Users\ALEXANDER\Desktop\Cliente\COPY_FISH_WON_NEW\Binario\Client\eterLib\Pool.h

; 26   : 		}

  0009a	c3		 ret	 0
$LN44@CDynamicPo:
; File D:\visual studio 2019\visual studio 2019\VC\Tools\MSVC\14.29.30133\include\xmemory

; 164  :     _STL_VERIFY(_Back_shift >= _Min_back_shift && _Back_shift <= _Non_user_size, "invalid argument");

  0009b	e8 00 00 00 00	 call	 __invalid_parameter_noinfo_noreturn
$LN52@CDynamicPo:
  000a0	cc		 int	 3
??1?$CDynamicPool@VCItemData@@@@UAE@XZ ENDP		; CDynamicPool<CItemData>::~CDynamicPool<CItemData>
_TEXT	ENDS
; Function compile flags: /Ogtp
;	COMDAT ??_GCItemData@@UAEPAXI@Z
_TEXT	SEGMENT
___flags$ = 8						; size = 4
??_GCItemData@@UAEPAXI@Z PROC				; CItemData::`scalar deleting destructor', COMDAT
; _this$ = ecx
  00000	55		 push	 ebp
  00001	8b ec		 mov	 ebp, esp
  00003	56		 push	 esi
  00004	8b f1		 mov	 esi, ecx
  00006	e8 00 00 00 00	 call	 ??1CItemData@@UAE@XZ	; CItemData::~CItemData
  0000b	f6 45 08 01	 test	 BYTE PTR ___flags$[ebp], 1
  0000f	74 0e		 je	 SHORT $LN4@scalar
  00011	68 9c 08 00 00	 push	 2204			; 0000089cH
  00016	56		 push	 esi
  00017	e8 00 00 00 00	 call	 ??3@YAXPAXI@Z		; operator delete
  0001c	83 c4 08	 add	 esp, 8
$LN4@scalar:
  0001f	8b c6		 mov	 eax, esi
  00021	5e		 pop	 esi
  00022	5d		 pop	 ebp
  00023	c2 04 00	 ret	 4
??_GCItemData@@UAEPAXI@Z ENDP				; CItemData::`scalar deleting destructor'
_TEXT	ENDS
; Function compile flags: /Ogtp
; File C:\Users\ALEXANDER\Desktop\Cliente\COPY_FISH_WON_NEW\Binario\Client\GameLib\ItemData.cpp
;	COMDAT ?GetItemScaleVector@CItemData@@QAEAAUD3DXVECTOR3@@EE@Z
_TEXT	SEGMENT
_bJob$ = 8						; size = 1
_bSex$ = 12						; size = 1
?GetItemScaleVector@CItemData@@QAEAAUD3DXVECTOR3@@EE@Z PROC ; CItemData::GetItemScaleVector, COMDAT
; _this$ = ecx

; 190  : {

  00000	55		 push	 ebp
  00001	8b ec		 mov	 ebp, esp

; 191  : 	return m_ItemScaleTable.v3Scale[bSex][bJob];

  00003	0f b6 45 0c	 movzx	 eax, BYTE PTR _bSex$[ebp]
  00007	8d 14 80	 lea	 edx, DWORD PTR [eax+eax*4]
  0000a	0f b6 45 08	 movzx	 eax, BYTE PTR _bJob$[ebp]
  0000e	03 d0		 add	 edx, eax
  00010	8d 04 55 ff 01
	00 00		 lea	 eax, DWORD PTR [edx*2+511]
  00017	03 c2		 add	 eax, edx
  00019	8d 04 81	 lea	 eax, DWORD PTR [ecx+eax*4]

; 192  : }

  0001c	5d		 pop	 ebp
  0001d	c2 08 00	 ret	 8
?GetItemScaleVector@CItemData@@QAEAAUD3DXVECTOR3@@EE@Z ENDP ; CItemData::GetItemScaleVector
_TEXT	ENDS
; Function compile flags: /Ogtp
; File C:\Users\ALEXANDER\Desktop\Cliente\COPY_FISH_WON_NEW\Binario\Client\GameLib\ItemData.cpp
;	COMDAT ?SetItemTableScaleData@CItemData@@QAEXEEMMMM@Z
_TEXT	SEGMENT
_bJob$ = 8						; size = 1
_bSex$ = 12						; size = 1
_fScaleX$ = 16						; size = 4
_fScaleY$ = 20						; size = 4
_fScaleZ$ = 24						; size = 4
_fScaleParticle$ = 28					; size = 4
?SetItemTableScaleData@CItemData@@QAEXEEMMMM@Z PROC	; CItemData::SetItemTableScaleData, COMDAT
; _this$ = ecx

; 182  : {

  00000	55		 push	 ebp
  00001	8b ec		 mov	 ebp, esp

; 183  : 	m_ItemScaleTable.v3Scale[bSex][bJob].x = fScaleX;

  00003	0f b6 45 0c	 movzx	 eax, BYTE PTR _bSex$[ebp]
  00007	f3 0f 10 45 10	 movss	 xmm0, DWORD PTR _fScaleX$[ebp]
  0000c	8d 14 80	 lea	 edx, DWORD PTR [eax+eax*4]
  0000f	0f b6 45 08	 movzx	 eax, BYTE PTR _bJob$[ebp]
  00013	03 d0		 add	 edx, eax
  00015	8d 04 52	 lea	 eax, DWORD PTR [edx+edx*2]
  00018	f3 0f 11 84 81
	fc 07 00 00	 movss	 DWORD PTR [ecx+eax*4+2044], xmm0

; 184  : 	m_ItemScaleTable.v3Scale[bSex][bJob].y = fScaleY;

  00021	f3 0f 10 45 14	 movss	 xmm0, DWORD PTR _fScaleY$[ebp]
  00026	f3 0f 11 84 81
	00 08 00 00	 movss	 DWORD PTR [ecx+eax*4+2048], xmm0

; 185  : 	m_ItemScaleTable.v3Scale[bSex][bJob].z = fScaleZ;

  0002f	8d 04 52	 lea	 eax, DWORD PTR [edx+edx*2]
  00032	f3 0f 10 45 18	 movss	 xmm0, DWORD PTR _fScaleZ$[ebp]
  00037	f3 0f 11 84 81
	04 08 00 00	 movss	 DWORD PTR [ecx+eax*4+2052], xmm0

; 186  : 	m_ItemScaleTable.fScaleParticle[bSex][bJob] = fScaleParticle;

  00040	f3 0f 10 45 1c	 movss	 xmm0, DWORD PTR _fScaleParticle$[ebp]
  00045	f3 0f 11 84 91
	74 08 00 00	 movss	 DWORD PTR [ecx+edx*4+2164], xmm0

; 187  : }

  0004e	5d		 pop	 ebp
  0004f	c2 18 00	 ret	 24			; 00000018H
?SetItemTableScaleData@CItemData@@QAEXEEMMMM@Z ENDP	; CItemData::SetItemTableScaleData
_TEXT	ENDS
; Function compile flags: /Ogtp
; File C:\Users\ALEXANDER\Desktop\Cliente\COPY_FISH_WON_NEW\Binario\Client\GameLib\ItemData.cpp
;	COMDAT ?GetItemParticleScale@CItemData@@QAEMEE@Z
_TEXT	SEGMENT
_byJob$ = 8						; size = 1
_bySex$ = 12						; size = 1
?GetItemParticleScale@CItemData@@QAEMEE@Z PROC		; CItemData::GetItemParticleScale, COMDAT
; _this$ = ecx

; 177  : {

  00000	55		 push	 ebp
  00001	8b ec		 mov	 ebp, esp

; 178  : 	return m_ItemScaleTable.fScaleParticle[bySex][byJob];

  00003	0f b6 45 0c	 movzx	 eax, BYTE PTR _bySex$[ebp]
  00007	8d 14 80	 lea	 edx, DWORD PTR [eax+eax*4]
  0000a	0f b6 45 08	 movzx	 eax, BYTE PTR _byJob$[ebp]
  0000e	03 d0		 add	 edx, eax
  00010	d9 84 91 74 08
	00 00		 fld	 DWORD PTR [ecx+edx*4+2164]

; 179  : }

  00017	5d		 pop	 ebp
  00018	c2 08 00	 ret	 8
?GetItemParticleScale@CItemData@@QAEMEE@Z ENDP		; CItemData::GetItemParticleScale
_TEXT	ENDS
; Function compile flags: /Ogtp
; File C:\Users\ALEXANDER\Desktop\Cliente\COPY_FISH_WON_NEW\Binario\Client\GameLib\ItemData.cpp
; File D:\visual studio 2019\visual studio 2019\VC\Tools\MSVC\14.29.30133\include\vector
; File C:\Users\ALEXANDER\Desktop\Cliente\COPY_FISH_WON_NEW\Binario\Client\GameLib\ItemData.cpp
; File D:\visual studio 2019\visual studio 2019\VC\Tools\MSVC\14.29.30133\include\vector
; File C:\Users\ALEXANDER\Desktop\Cliente\COPY_FISH_WON_NEW\Binario\Client\GameLib\ItemData.cpp
; File D:\visual studio 2019\visual studio 2019\VC\Tools\MSVC\14.29.30133\include\vector
; File C:\Users\ALEXANDER\Desktop\Cliente\COPY_FISH_WON_NEW\Binario\Client\GameLib\ItemData.cpp
;	COMDAT ?Delete@CItemData@@SAXPAV1@@Z
_TEXT	SEGMENT
_pkData$ = 8						; size = 4
_pkItemData$ = 8					; size = 4
?Delete@CItemData@@SAXPAV1@@Z PROC			; CItemData::Delete, COMDAT

; 19   : {

  00000	55		 push	 ebp
  00001	8b ec		 mov	 ebp, esp
  00003	56		 push	 esi

; 20   : 	pkItemData->Clear();

  00004	8b 75 08	 mov	 esi, DWORD PTR _pkItemData$[ebp]
  00007	8b ce		 mov	 ecx, esi
  00009	e8 00 00 00 00	 call	 ?Clear@CItemData@@QAEXXZ ; CItemData::Clear
; File D:\visual studio 2019\visual studio 2019\VC\Tools\MSVC\14.29.30133\include\vector

; 730  :         if (_Mylast != _My_data._Myend) {

  0000e	a1 14 00 00 00	 mov	 eax, DWORD PTR ?ms_kPool@CItemData@@2V?$CDynamicPool@VCItemData@@@@A+20
; File C:\Users\ALEXANDER\Desktop\Cliente\COPY_FISH_WON_NEW\Binario\Client\GameLib\ItemData.cpp

; 21   : 	ms_kPool.Free(pkItemData);

  00013	89 75 08	 mov	 DWORD PTR _pkData$[ebp], esi
; File D:\visual studio 2019\visual studio 2019\VC\Tools\MSVC\14.29.30133\include\vector

; 730  :         if (_Mylast != _My_data._Myend) {

  00016	3b 05 18 00 00
	00		 cmp	 eax, DWORD PTR ?ms_kPool@CItemData@@2V?$CDynamicPool@VCItemData@@@@A+24
  0001c	74 0c		 je	 SHORT $LN8@Delete

; 713  :         _Alty_traits::construct(_Getal(), _Unfancy(_Mylast), _STD forward<_Valty>(_Val)...);

  0001e	89 30		 mov	 DWORD PTR [eax], esi

; 714  :         _Orphan_range(_Mylast, _Mylast);
; 715  :         _Ty& _Result = *_Mylast;
; 716  :         ++_Mylast;

  00020	83 05 14 00 00
	00 04		 add	 DWORD PTR ?ms_kPool@CItemData@@2V?$CDynamicPool@VCItemData@@@@A+20, 4
  00027	5e		 pop	 esi
; File C:\Users\ALEXANDER\Desktop\Cliente\COPY_FISH_WON_NEW\Binario\Client\GameLib\ItemData.cpp

; 22   : }

  00028	5d		 pop	 ebp
  00029	c3		 ret	 0
$LN8@Delete:
; File D:\visual studio 2019\visual studio 2019\VC\Tools\MSVC\14.29.30133\include\vector

; 734  :         _Ty& _Result = *_Emplace_reallocate(_Mylast, _STD forward<_Valty>(_Val)...);

  0002a	8d 4d 08	 lea	 ecx, DWORD PTR _pkData$[ebp]
  0002d	51		 push	 ecx
  0002e	50		 push	 eax
  0002f	b9 10 00 00 00	 mov	 ecx, OFFSET ?ms_kPool@CItemData@@2V?$CDynamicPool@VCItemData@@@@A+16
  00034	e8 00 00 00 00	 call	 ??$_Emplace_reallocate@ABQAVCItemData@@@?$vector@PAVCItemData@@V?$allocator@PAVCItemData@@@std@@@std@@QAEPAPAVCItemData@@QAPAV2@ABQAV2@@Z ; std::vector<CItemData *,std::allocator<CItemData *> >::_Emplace_reallocate<CItemData * const &>
  00039	5e		 pop	 esi
; File C:\Users\ALEXANDER\Desktop\Cliente\COPY_FISH_WON_NEW\Binario\Client\GameLib\ItemData.cpp

; 22   : }

  0003a	5d		 pop	 ebp
  0003b	c3		 ret	 0
?Delete@CItemData@@SAXPAV1@@Z ENDP			; CItemData::Delete
_TEXT	ENDS
; Function compile flags: /Ogtp
; File C:\Users\ALEXANDER\Desktop\Cliente\COPY_FISH_WON_NEW\Binario\Client\GameLib\ItemData.cpp
; File C:\Users\ALEXANDER\Desktop\Cliente\COPY_FISH_WON_NEW\Binario\Client\eterLib\Pool.h
; File D:\visual studio 2019\visual studio 2019\VC\Tools\MSVC\14.29.30133\include\vector
; File C:\Users\ALEXANDER\Desktop\Cliente\COPY_FISH_WON_NEW\Binario\Client\eterLib\Pool.h
; File D:\visual studio 2019\visual studio 2019\VC\Tools\MSVC\14.29.30133\include\vector
; File C:\Users\ALEXANDER\Desktop\Cliente\COPY_FISH_WON_NEW\Binario\Client\GameLib\ItemData.cpp
; File D:\visual studio 2019\visual studio 2019\VC\Tools\MSVC\14.29.30133\include\vector
; File C:\Users\ALEXANDER\Desktop\Cliente\COPY_FISH_WON_NEW\Binario\Client\eterLib\Pool.h
; File C:\Users\ALEXANDER\Desktop\Cliente\COPY_FISH_WON_NEW\Binario\Client\GameLib\ItemData.cpp
; File D:\visual studio 2019\visual studio 2019\VC\Tools\MSVC\14.29.30133\include\vector
; File C:\Users\ALEXANDER\Desktop\Cliente\COPY_FISH_WON_NEW\Binario\Client\eterLib\Pool.h
; File C:\Users\ALEXANDER\Desktop\Cliente\COPY_FISH_WON_NEW\Binario\Client\GameLib\ItemData.cpp
; File C:\Users\ALEXANDER\Desktop\Cliente\COPY_FISH_WON_NEW\Binario\Client\eterLib\Pool.h
; File D:\visual studio 2019\visual studio 2019\VC\Tools\MSVC\14.29.30133\include\vector
; File C:\Users\ALEXANDER\Desktop\Cliente\COPY_FISH_WON_NEW\Binario\Client\GameLib\ItemData.cpp
;	COMDAT ?New@CItemData@@SAPAV1@XZ
_TEXT	SEGMENT
$T2 = -16						; size = 4
_pkNewData$3 = -16					; size = 4
__$EHRec$ = -12						; size = 12
?New@CItemData@@SAPAV1@XZ PROC				; CItemData::New, COMDAT

; 14   : {

  00000	55		 push	 ebp
  00001	8b ec		 mov	 ebp, esp
  00003	6a ff		 push	 -1
  00005	68 00 00 00 00	 push	 __ehhandler$?New@CItemData@@SAPAV1@XZ
  0000a	64 a1 00 00 00
	00		 mov	 eax, DWORD PTR fs:0
  00010	50		 push	 eax
  00011	51		 push	 ecx
  00012	56		 push	 esi
  00013	a1 00 00 00 00	 mov	 eax, DWORD PTR ___security_cookie
  00018	33 c5		 xor	 eax, ebp
  0001a	50		 push	 eax
  0001b	8d 45 f4	 lea	 eax, DWORD PTR __$EHRec$[ebp]
  0001e	64 a3 00 00 00
	00		 mov	 DWORD PTR fs:0, eax
; File C:\Users\ALEXANDER\Desktop\Cliente\COPY_FISH_WON_NEW\Binario\Client\eterLib\Pool.h

; 63   : 			if (m_kVct_pkFree.empty())

  00024	8b 0d 14 00 00
	00		 mov	 ecx, DWORD PTR ?ms_kPool@CItemData@@2V?$CDynamicPool@VCItemData@@@@A+20
  0002a	39 0d 10 00 00
	00		 cmp	 DWORD PTR ?ms_kPool@CItemData@@2V?$CDynamicPool@VCItemData@@@@A+16, ecx
  00030	0f 85 87 00 00
	00		 jne	 $LN4@New

; 65   : 				T* pkNewData=new T;

  00036	68 9c 08 00 00	 push	 2204			; 0000089cH
  0003b	e8 00 00 00 00	 call	 ??2@YAPAXI@Z		; operator new
  00040	83 c4 04	 add	 esp, 4
  00043	89 45 f0	 mov	 DWORD PTR $T2[ebp], eax
  00046	c7 45 fc 00 00
	00 00		 mov	 DWORD PTR __$EHRec$[ebp+8], 0
  0004d	85 c0		 test	 eax, eax
  0004f	74 0b		 je	 SHORT $LN6@New
  00051	8b c8		 mov	 ecx, eax
  00053	e8 00 00 00 00	 call	 ??0CItemData@@QAE@XZ	; CItemData::CItemData
  00058	8b f0		 mov	 esi, eax
  0005a	eb 02		 jmp	 SHORT $LN7@New
$LN6@New:
  0005c	33 f6		 xor	 esi, esi
$LN7@New:
; File D:\visual studio 2019\visual studio 2019\VC\Tools\MSVC\14.29.30133\include\vector

; 730  :         if (_Mylast != _My_data._Myend) {

  0005e	a1 08 00 00 00	 mov	 eax, DWORD PTR ?ms_kPool@CItemData@@2V?$CDynamicPool@VCItemData@@@@A+8
; File C:\Users\ALEXANDER\Desktop\Cliente\COPY_FISH_WON_NEW\Binario\Client\eterLib\Pool.h

; 65   : 				T* pkNewData=new T;

  00063	c7 45 fc ff ff
	ff ff		 mov	 DWORD PTR __$EHRec$[ebp+8], -1
  0006a	89 75 f0	 mov	 DWORD PTR _pkNewData$3[ebp], esi
; File D:\visual studio 2019\visual studio 2019\VC\Tools\MSVC\14.29.30133\include\vector

; 730  :         if (_Mylast != _My_data._Myend) {

  0006d	3b 05 0c 00 00
	00		 cmp	 eax, DWORD PTR ?ms_kPool@CItemData@@2V?$CDynamicPool@VCItemData@@@@A+12
  00073	74 21		 je	 SHORT $LN14@New

; 713  :         _Alty_traits::construct(_Getal(), _Unfancy(_Mylast), _STD forward<_Valty>(_Val)...);

  00075	89 30		 mov	 DWORD PTR [eax], esi
; File C:\Users\ALEXANDER\Desktop\Cliente\COPY_FISH_WON_NEW\Binario\Client\GameLib\ItemData.cpp

; 15   : 	return ms_kPool.Alloc();

  00077	8b c6		 mov	 eax, esi
; File D:\visual studio 2019\visual studio 2019\VC\Tools\MSVC\14.29.30133\include\vector

; 716  :         ++_Mylast;

  00079	83 05 08 00 00
	00 04		 add	 DWORD PTR ?ms_kPool@CItemData@@2V?$CDynamicPool@VCItemData@@@@A+8, 4
; File C:\Users\ALEXANDER\Desktop\Cliente\COPY_FISH_WON_NEW\Binario\Client\eterLib\Pool.h

; 67   : 				++m_uUsedCapacity;

  00080	ff 05 20 00 00
	00		 inc	 DWORD PTR ?ms_kPool@CItemData@@2V?$CDynamicPool@VCItemData@@@@A+32
; File C:\Users\ALEXANDER\Desktop\Cliente\COPY_FISH_WON_NEW\Binario\Client\GameLib\ItemData.cpp

; 16   : }

  00086	8b 4d f4	 mov	 ecx, DWORD PTR __$EHRec$[ebp]
  00089	64 89 0d 00 00
	00 00		 mov	 DWORD PTR fs:0, ecx
  00090	59		 pop	 ecx
  00091	5e		 pop	 esi
  00092	8b e5		 mov	 esp, ebp
  00094	5d		 pop	 ebp
  00095	c3		 ret	 0
$LN14@New:
; File D:\visual studio 2019\visual studio 2019\VC\Tools\MSVC\14.29.30133\include\vector

; 734  :         _Ty& _Result = *_Emplace_reallocate(_Mylast, _STD forward<_Valty>(_Val)...);

  00096	8d 4d f0	 lea	 ecx, DWORD PTR _pkNewData$3[ebp]
  00099	51		 push	 ecx
  0009a	50		 push	 eax
  0009b	b9 04 00 00 00	 mov	 ecx, OFFSET ?ms_kPool@CItemData@@2V?$CDynamicPool@VCItemData@@@@A+4
  000a0	e8 00 00 00 00	 call	 ??$_Emplace_reallocate@ABQAVCItemData@@@?$vector@PAVCItemData@@V?$allocator@PAVCItemData@@@std@@@std@@QAEPAPAVCItemData@@QAPAV2@ABQAV2@@Z ; std::vector<CItemData *,std::allocator<CItemData *> >::_Emplace_reallocate<CItemData * const &>
; File C:\Users\ALEXANDER\Desktop\Cliente\COPY_FISH_WON_NEW\Binario\Client\eterLib\Pool.h

; 67   : 				++m_uUsedCapacity;

  000a5	ff 05 20 00 00
	00		 inc	 DWORD PTR ?ms_kPool@CItemData@@2V?$CDynamicPool@VCItemData@@@@A+32
; File C:\Users\ALEXANDER\Desktop\Cliente\COPY_FISH_WON_NEW\Binario\Client\GameLib\ItemData.cpp

; 15   : 	return ms_kPool.Alloc();

  000ab	8b c6		 mov	 eax, esi

; 16   : }

  000ad	8b 4d f4	 mov	 ecx, DWORD PTR __$EHRec$[ebp]
  000b0	64 89 0d 00 00
	00 00		 mov	 DWORD PTR fs:0, ecx
  000b7	59		 pop	 ecx
  000b8	5e		 pop	 esi
  000b9	8b e5		 mov	 esp, ebp
  000bb	5d		 pop	 ebp
  000bc	c3		 ret	 0
$LN4@New:
; File C:\Users\ALEXANDER\Desktop\Cliente\COPY_FISH_WON_NEW\Binario\Client\eterLib\Pool.h

; 71   : 			T* pkFreeData=m_kVct_pkFree.back();

  000bd	8b 41 fc	 mov	 eax, DWORD PTR [ecx-4]
; File D:\visual studio 2019\visual studio 2019\VC\Tools\MSVC\14.29.30133\include\vector

; 1611 :         return _My_data._Mylast[-1];

  000c0	83 c1 fc	 add	 ecx, -4			; fffffffcH

; 1390 :         --_Mylast;

  000c3	89 0d 14 00 00
	00		 mov	 DWORD PTR ?ms_kPool@CItemData@@2V?$CDynamicPool@VCItemData@@@@A+20, ecx
; File C:\Users\ALEXANDER\Desktop\Cliente\COPY_FISH_WON_NEW\Binario\Client\GameLib\ItemData.cpp

; 16   : }

  000c9	8b 4d f4	 mov	 ecx, DWORD PTR __$EHRec$[ebp]
  000cc	64 89 0d 00 00
	00 00		 mov	 DWORD PTR fs:0, ecx
  000d3	59		 pop	 ecx
  000d4	5e		 pop	 esi
  000d5	8b e5		 mov	 esp, ebp
  000d7	5d		 pop	 ebp
  000d8	c3		 ret	 0
_TEXT	ENDS
;	COMDAT text$x
text$x	SEGMENT
__unwindfunclet$?New@CItemData@@SAPAV1@XZ$0:
  00000	68 9c 08 00 00	 push	 2204			; 0000089cH
  00005	8b 45 f0	 mov	 eax, DWORD PTR $T2[ebp]
  00008	50		 push	 eax
  00009	e8 00 00 00 00	 call	 ??3@YAXPAXI@Z		; operator delete
  0000e	83 c4 08	 add	 esp, 8
  00011	c3		 ret	 0
  00012	cc		 int	 3
  00013	cc		 int	 3
  00014	cc		 int	 3
  00015	cc		 int	 3
  00016	cc		 int	 3
__ehhandler$?New@CItemData@@SAPAV1@XZ:
  00017	90		 npad	 1
  00018	90		 npad	 1
  00019	8b 54 24 08	 mov	 edx, DWORD PTR [esp+8]
  0001d	8d 42 0c	 lea	 eax, DWORD PTR [edx+12]
  00020	8b 4a f4	 mov	 ecx, DWORD PTR [edx-12]
  00023	33 c8		 xor	 ecx, eax
  00025	e8 00 00 00 00	 call	 @__security_check_cookie@4
  0002a	b8 00 00 00 00	 mov	 eax, OFFSET __ehfuncinfo$?New@CItemData@@SAPAV1@XZ
  0002f	e9 00 00 00 00	 jmp	 ___CxxFrameHandler3
text$x	ENDS
?New@CItemData@@SAPAV1@XZ ENDP				; CItemData::New
; Function compile flags: /Ogtp
; File C:\Users\ALEXANDER\Desktop\Cliente\COPY_FISH_WON_NEW\Binario\Client\GameLib\ItemData.cpp
; File D:\visual studio 2019\visual studio 2019\VC\Tools\MSVC\14.29.30133\include\algorithm
; File C:\Users\ALEXANDER\Desktop\Cliente\COPY_FISH_WON_NEW\Binario\Client\GameLib\ItemData.cpp
; File D:\visual studio 2019\visual studio 2019\VC\Tools\MSVC\14.29.30133\include\algorithm
; File C:\Users\ALEXANDER\Desktop\Cliente\COPY_FISH_WON_NEW\Binario\Client\eterLib\Pool.h
; File D:\visual studio 2019\visual studio 2019\VC\Tools\MSVC\14.29.30133\include\algorithm
; File C:\Users\ALEXANDER\Desktop\Cliente\COPY_FISH_WON_NEW\Binario\Client\eterLib\Pool.h
; File C:\Users\ALEXANDER\Desktop\Cliente\COPY_FISH_WON_NEW\Binario\Client\GameLib\ItemData.cpp
; File C:\Users\ALEXANDER\Desktop\Cliente\COPY_FISH_WON_NEW\Binario\Client\eterLib\Pool.h
; File C:\Users\ALEXANDER\Desktop\Cliente\COPY_FISH_WON_NEW\Binario\Client\GameLib\ItemData.cpp
;	COMDAT ?DestroySystem@CItemData@@SAXXZ
_TEXT	SEGMENT
?DestroySystem@CItemData@@SAXXZ PROC			; CItemData::DestroySystem, COMDAT

; 25   : {

  00000	56		 push	 esi
; File D:\visual studio 2019\visual studio 2019\VC\Tools\MSVC\14.29.30133\include\algorithm

; 232  :     for (; _UFirst != _ULast; ++_UFirst) {

  00001	8b 35 04 00 00
	00		 mov	 esi, DWORD PTR ?ms_kPool@CItemData@@2V?$CDynamicPool@VCItemData@@@@A+4
; File C:\Users\ALEXANDER\Desktop\Cliente\COPY_FISH_WON_NEW\Binario\Client\GameLib\ItemData.cpp

; 25   : {

  00007	57		 push	 edi
; File D:\visual studio 2019\visual studio 2019\VC\Tools\MSVC\14.29.30133\include\algorithm

; 231  :     const auto _ULast = _Get_unwrapped(_Last);

  00008	8b 3d 08 00 00
	00		 mov	 edi, DWORD PTR ?ms_kPool@CItemData@@2V?$CDynamicPool@VCItemData@@@@A+8

; 232  :     for (; _UFirst != _ULast; ++_UFirst) {

  0000e	3b f7		 cmp	 esi, edi
  00010	74 2a		 je	 SHORT $LN30@DestroySys
$LL20@DestroySys:
; File C:\Users\ALEXANDER\Desktop\Cliente\COPY_FISH_WON_NEW\Binario\Client\eterLib\Pool.h

; 110  : 			delete pkData;

  00012	8b 0e		 mov	 ecx, DWORD PTR [esi]
  00014	85 c9		 test	 ecx, ecx
  00016	74 06		 je	 SHORT $LN18@DestroySys
  00018	8b 01		 mov	 eax, DWORD PTR [ecx]
  0001a	6a 01		 push	 1
  0001c	ff 10		 call	 DWORD PTR [eax]
$LN18@DestroySys:
; File D:\visual studio 2019\visual studio 2019\VC\Tools\MSVC\14.29.30133\include\algorithm

; 232  :     for (; _UFirst != _ULast; ++_UFirst) {

  0001e	83 c6 04	 add	 esi, 4
  00021	3b f7		 cmp	 esi, edi
  00023	75 ed		 jne	 SHORT $LL20@DestroySys
; File C:\Users\ALEXANDER\Desktop\Cliente\COPY_FISH_WON_NEW\Binario\Client\eterLib\Pool.h

; 51   : 			m_kVct_pkData.clear();

  00025	a1 04 00 00 00	 mov	 eax, DWORD PTR ?ms_kPool@CItemData@@2V?$CDynamicPool@VCItemData@@@@A+4
  0002a	a3 08 00 00 00	 mov	 DWORD PTR ?ms_kPool@CItemData@@2V?$CDynamicPool@VCItemData@@@@A+8, eax
; File C:\Users\ALEXANDER\Desktop\Cliente\COPY_FISH_WON_NEW\Binario\Client\GameLib\ItemData.cpp

; 27   : }

  0002f	a1 10 00 00 00	 mov	 eax, DWORD PTR ?ms_kPool@CItemData@@2V?$CDynamicPool@VCItemData@@@@A+16
  00034	5f		 pop	 edi
  00035	a3 14 00 00 00	 mov	 DWORD PTR ?ms_kPool@CItemData@@2V?$CDynamicPool@VCItemData@@@@A+20, eax
  0003a	5e		 pop	 esi
  0003b	c3		 ret	 0
$LN30@DestroySys:
  0003c	a1 10 00 00 00	 mov	 eax, DWORD PTR ?ms_kPool@CItemData@@2V?$CDynamicPool@VCItemData@@@@A+16
  00041	5f		 pop	 edi
; File C:\Users\ALEXANDER\Desktop\Cliente\COPY_FISH_WON_NEW\Binario\Client\eterLib\Pool.h

; 51   : 			m_kVct_pkData.clear();

  00042	89 35 08 00 00
	00		 mov	 DWORD PTR ?ms_kPool@CItemData@@2V?$CDynamicPool@VCItemData@@@@A+8, esi
; File C:\Users\ALEXANDER\Desktop\Cliente\COPY_FISH_WON_NEW\Binario\Client\GameLib\ItemData.cpp

; 27   : }

  00048	a3 14 00 00 00	 mov	 DWORD PTR ?ms_kPool@CItemData@@2V?$CDynamicPool@VCItemData@@@@A+20, eax
  0004d	5e		 pop	 esi
  0004e	c3		 ret	 0
?DestroySystem@CItemData@@SAXXZ ENDP			; CItemData::DestroySystem
_TEXT	ENDS
; Function compile flags: /Ogtp
; File C:\Users\ALEXANDER\Desktop\Cliente\COPY_FISH_WON_NEW\Binario\Client\GameLib\ItemData.cpp
;	COMDAT ?SetAuraEffectID@CItemData@@QAEXPBD@Z
_TEXT	SEGMENT
_szAuraEffectPath$ = 8					; size = 4
?SetAuraEffectID@CItemData@@QAEXPBD@Z PROC		; CItemData::SetAuraEffectID, COMDAT
; _this$ = ecx

; 501  : {

  00000	55		 push	 ebp
  00001	8b ec		 mov	 ebp, esp

; 502  : 	if (szAuraEffectPath)

  00003	8b 55 08	 mov	 edx, DWORD PTR _szAuraEffectPath$[ebp]
  00006	85 d2		 test	 edx, edx
  00008	74 17		 je	 SHORT $LN2@SetAuraEff

; 503  : 		CEffectManager::Instance().RegisterEffect2(szAuraEffectPath, &m_dwAuraEffectID);

  0000a	6a 00		 push	 0
  0000c	6a 00		 push	 0
  0000e	8d 81 f8 07 00
	00		 lea	 eax, DWORD PTR [ecx+2040]
  00014	8b 0d 00 00 00
	00		 mov	 ecx, DWORD PTR ?ms_singleton@?$CSingleton@VCEffectManager@@@@0PAVCEffectManager@@A ; CSingleton<CEffectManager>::ms_singleton
  0001a	50		 push	 eax
  0001b	52		 push	 edx
  0001c	e8 00 00 00 00	 call	 ?RegisterEffect2@CEffectManager@@QAEHPBDPAK_N0@Z ; CEffectManager::RegisterEffect2
$LN2@SetAuraEff:

; 504  : }

  00021	5d		 pop	 ebp
  00022	c2 04 00	 ret	 4
?SetAuraEffectID@CItemData@@QAEXPBD@Z ENDP		; CItemData::SetAuraEffectID
_TEXT	ENDS
; Function compile flags: /Ogtp
; File C:\Users\ALEXANDER\Desktop\Cliente\COPY_FISH_WON_NEW\Binario\Client\GameLib\ItemData.cpp
;	COMDAT ?GetAuraParticleScale@CItemData@@QAEMEE@Z
_TEXT	SEGMENT
_byJob$ = 8						; size = 1
_bySex$ = 12						; size = 1
?GetAuraParticleScale@CItemData@@QAEMEE@Z PROC		; CItemData::GetAuraParticleScale, COMDAT
; _this$ = ecx

; 496  : {

  00000	55		 push	 ebp
  00001	8b ec		 mov	 ebp, esp

; 497  : 	return m_AuraScaleTable.fParticleScale[bySex][byJob];

  00003	0f b6 45 0c	 movzx	 eax, BYTE PTR _bySex$[ebp]
  00007	83 c0 64	 add	 eax, 100		; 00000064H
  0000a	8d 14 80	 lea	 edx, DWORD PTR [eax+eax*4]
  0000d	0f b6 45 08	 movzx	 eax, BYTE PTR _byJob$[ebp]
  00011	03 d0		 add	 edx, eax
  00013	d9 04 91	 fld	 DWORD PTR [ecx+edx*4]

; 498  : }

  00016	5d		 pop	 ebp
  00017	c2 08 00	 ret	 8
?GetAuraParticleScale@CItemData@@QAEMEE@Z ENDP		; CItemData::GetAuraParticleScale
_TEXT	ENDS
; Function compile flags: /Ogtp
; File C:\Users\ALEXANDER\Desktop\Cliente\COPY_FISH_WON_NEW\Binario\Client\GameLib\ItemData.cpp
;	COMDAT ?GetAuraMeshScaleVector@CItemData@@QAEAAUD3DXVECTOR3@@EE@Z
_TEXT	SEGMENT
_byJob$ = 8						; size = 1
_bySex$ = 12						; size = 1
?GetAuraMeshScaleVector@CItemData@@QAEAAUD3DXVECTOR3@@EE@Z PROC ; CItemData::GetAuraMeshScaleVector, COMDAT
; _this$ = ecx

; 491  : {

  00000	55		 push	 ebp
  00001	8b ec		 mov	 ebp, esp

; 492  : 	return m_AuraScaleTable.v3MeshScale[bySex][byJob];

  00003	0f b6 45 0c	 movzx	 eax, BYTE PTR _bySex$[ebp]
  00007	8d 14 80	 lea	 edx, DWORD PTR [eax+eax*4]
  0000a	0f b6 45 08	 movzx	 eax, BYTE PTR _byJob$[ebp]
  0000e	03 d0		 add	 edx, eax
  00010	8d 82 eb 00 00
	00		 lea	 eax, DWORD PTR [edx+235]
  00016	8d 04 42	 lea	 eax, DWORD PTR [edx+eax*2]
  00019	8d 04 81	 lea	 eax, DWORD PTR [ecx+eax*4]

; 493  : }

  0001c	5d		 pop	 ebp
  0001d	c2 08 00	 ret	 8
?GetAuraMeshScaleVector@CItemData@@QAEAAUD3DXVECTOR3@@EE@Z ENDP ; CItemData::GetAuraMeshScaleVector
_TEXT	ENDS
; Function compile flags: /Ogtp
; File C:\Users\ALEXANDER\Desktop\Cliente\COPY_FISH_WON_NEW\Binario\Client\GameLib\ItemData.cpp
;	COMDAT ?SetAuraScaleTableData@CItemData@@QAEXEEMMMM@Z
_TEXT	SEGMENT
_byJob$ = 8						; size = 1
_bySex$ = 12						; size = 1
_fMeshScaleX$ = 16					; size = 4
_fMeshScaleY$ = 20					; size = 4
_fMeshScaleZ$ = 24					; size = 4
_fParticleScale$ = 28					; size = 4
?SetAuraScaleTableData@CItemData@@QAEXEEMMMM@Z PROC	; CItemData::SetAuraScaleTableData, COMDAT
; _this$ = ecx

; 483  : {

  00000	55		 push	 ebp
  00001	8b ec		 mov	 ebp, esp

; 484  : 	m_AuraScaleTable.v3MeshScale[bySex][byJob].x = fMeshScaleX;

  00003	f3 0f 10 45 10	 movss	 xmm0, DWORD PTR _fMeshScaleX$[ebp]
  00008	53		 push	 ebx
  00009	56		 push	 esi
  0000a	0f b6 75 0c	 movzx	 esi, BYTE PTR _bySex$[ebp]
  0000e	8b d9		 mov	 ebx, ecx
  00010	57		 push	 edi
  00011	0f b6 7d 08	 movzx	 edi, BYTE PTR _byJob$[ebp]
  00015	8d 04 b7	 lea	 eax, DWORD PTR [edi+esi*4]
  00018	03 c6		 add	 eax, esi
  0001a	8d 14 40	 lea	 edx, DWORD PTR [eax+eax*2]
  0001d	f3 0f 11 84 93
	58 07 00 00	 movss	 DWORD PTR [ebx+edx*4+1880], xmm0

; 485  : 	m_AuraScaleTable.v3MeshScale[bySex][byJob].y = fMeshScaleY;

  00026	8d 04 40	 lea	 eax, DWORD PTR [eax+eax*2]
  00029	f3 0f 10 45 14	 movss	 xmm0, DWORD PTR _fMeshScaleY$[ebp]
  0002e	f3 0f 11 84 83
	5c 07 00 00	 movss	 DWORD PTR [ebx+eax*4+1884], xmm0

; 486  : 	m_AuraScaleTable.v3MeshScale[bySex][byJob].z = fMeshScaleZ;
; 487  : 	m_AuraScaleTable.fParticleScale[bySex][byJob] = fParticleScale;

  00037	8d 46 64	 lea	 eax, DWORD PTR [esi+100]
  0003a	f3 0f 10 45 18	 movss	 xmm0, DWORD PTR _fMeshScaleZ$[ebp]
  0003f	8d 0c 87	 lea	 ecx, DWORD PTR [edi+eax*4]
  00042	f3 0f 11 84 93
	60 07 00 00	 movss	 DWORD PTR [ebx+edx*4+1888], xmm0
  0004b	03 c8		 add	 ecx, eax
  0004d	f3 0f 10 45 1c	 movss	 xmm0, DWORD PTR _fParticleScale$[ebp]
  00052	5f		 pop	 edi
  00053	5e		 pop	 esi
  00054	f3 0f 11 04 8b	 movss	 DWORD PTR [ebx+ecx*4], xmm0
  00059	5b		 pop	 ebx

; 488  : }

  0005a	5d		 pop	 ebp
  0005b	c2 18 00	 ret	 24			; 00000018H
?SetAuraScaleTableData@CItemData@@QAEXEEMMMM@Z ENDP	; CItemData::SetAuraScaleTableData
_TEXT	ENDS
; Function compile flags: /Ogtp
; File D:\visual studio 2019\visual studio 2019\VC\Tools\MSVC\14.29.30133\include\vector
; File D:\visual studio 2019\visual studio 2019\VC\Tools\MSVC\14.29.30133\include\xmemory
; File D:\visual studio 2019\visual studio 2019\VC\Tools\MSVC\14.29.30133\include\vector
; File D:\visual studio 2019\visual studio 2019\VC\Tools\MSVC\14.29.30133\include\xstring
; File D:\visual studio 2019\visual studio 2019\VC\Tools\MSVC\14.29.30133\include\xmemory
; File D:\visual studio 2019\visual studio 2019\VC\Tools\MSVC\14.29.30133\include\xstring
; File D:\visual studio 2019\visual studio 2019\VC\Tools\MSVC\14.29.30133\include\xmemory
; File D:\visual studio 2019\visual studio 2019\VC\Tools\MSVC\14.29.30133\include\xstring
; File D:\visual studio 2019\visual studio 2019\VC\Tools\MSVC\14.29.30133\include\xmemory
; File D:\visual studio 2019\visual studio 2019\VC\Tools\MSVC\14.29.30133\include\xstring
; File D:\visual studio 2019\visual studio 2019\VC\Tools\MSVC\14.29.30133\include\xmemory
; File D:\visual studio 2019\visual studio 2019\VC\Tools\MSVC\14.29.30133\include\vector
; File D:\visual studio 2019\visual studio 2019\VC\Tools\MSVC\14.29.30133\include\xmemory
; File D:\visual studio 2019\visual studio 2019\VC\Tools\MSVC\14.29.30133\include\vector
; File D:\visual studio 2019\visual studio 2019\VC\Tools\MSVC\14.29.30133\include\xmemory
; File D:\visual studio 2019\visual studio 2019\VC\Tools\MSVC\14.29.30133\include\vector
; File D:\visual studio 2019\visual studio 2019\VC\Tools\MSVC\14.29.30133\include\xmemory
; File D:\visual studio 2019\visual studio 2019\VC\Tools\MSVC\14.29.30133\include\vector
;	COMDAT ??1?$vector@USAttachingData@NRaceData@@V?$allocator@USAttachingData@NRaceData@@@std@@@std@@QAE@XZ
_TEXT	SEGMENT
__Last$1$ = -4						; size = 4
??1?$vector@USAttachingData@NRaceData@@V?$allocator@USAttachingData@NRaceData@@@std@@@std@@QAE@XZ PROC ; std::vector<NRaceData::SAttachingData,std::allocator<NRaceData::SAttachingData> >::~vector<NRaceData::SAttachingData,std::allocator<NRaceData::SAttachingData> >, COMDAT
; _this$ = ecx

; 698  :     _CONSTEXPR20_CONTAINER ~vector() noexcept {

  00000	55		 push	 ebp
  00001	8b ec		 mov	 ebp, esp
  00003	51		 push	 ecx
  00004	53		 push	 ebx
  00005	8b d9		 mov	 ebx, ecx
  00007	57		 push	 edi

; 1750 :         if (_Myfirst) { // destroy and deallocate old array

  00008	8b 3b		 mov	 edi, DWORD PTR [ebx]
  0000a	85 ff		 test	 edi, edi
  0000c	0f 84 b6 00 00
	00		 je	 $LN4@vector

; 1751 :             _Destroy(_Myfirst, _Mylast);

  00012	8b 43 04	 mov	 eax, DWORD PTR [ebx+4]
  00015	89 45 fc	 mov	 DWORD PTR __Last$1$[ebp], eax
; File D:\visual studio 2019\visual studio 2019\VC\Tools\MSVC\14.29.30133\include\xmemory

; 904  :         for (; _First != _Last; ++_First) {

  00018	3b f8		 cmp	 edi, eax
  0001a	74 58		 je	 SHORT $LN10@vector
; File D:\visual studio 2019\visual studio 2019\VC\Tools\MSVC\14.29.30133\include\vector

; 1751 :             _Destroy(_Myfirst, _Mylast);

  0001c	56		 push	 esi
  0001d	8d 77 20	 lea	 esi, DWORD PTR [edi+32]
$LL11@vector:
; File D:\visual studio 2019\visual studio 2019\VC\Tools\MSVC\14.29.30133\include\xstring

; 2286 :         return _BUF_SIZE <= _Myres;

  00020	8b 0e		 mov	 ecx, DWORD PTR [esi]
  00022	83 f9 10	 cmp	 ecx, 16			; 00000010H

; 4584 :         if (_Mypair._Myval2._Large_string_engaged()) {

  00025	72 2f		 jb	 SHORT $LN33@vector
; File D:\visual studio 2019\visual studio 2019\VC\Tools\MSVC\14.29.30133\include\xmemory

; 797  :         _Deallocate<_New_alignof<_Ty>>(_Ptr, sizeof(_Ty) * _Count);

  00027	8b 46 ec	 mov	 eax, DWORD PTR [esi-20]
; File D:\visual studio 2019\visual studio 2019\VC\Tools\MSVC\14.29.30133\include\xstring

; 4588 :             _Al.deallocate(_Ptr, _Mypair._Myval2._Myres + 1);

  0002a	41		 inc	 ecx
; File D:\visual studio 2019\visual studio 2019\VC\Tools\MSVC\14.29.30133\include\xmemory

; 251  :         if (_Bytes >= _Big_allocation_threshold) { // boost the alignment of big allocations to help autovectorization

  0002b	81 f9 00 10 00
	00		 cmp	 ecx, 4096		; 00001000H
  00031	72 16		 jb	 SHORT $LN43@vector

; 150  :     const uintptr_t _Ptr_container   = _Ptr_user[-1];

  00033	8b 50 fc	 mov	 edx, DWORD PTR [eax-4]
  00036	83 c1 23	 add	 ecx, 35			; 00000023H

; 151  : 
; 152  :     // If the following asserts, it likely means that we are performing
; 153  :     // an aligned delete on memory coming from an unaligned allocation.
; 154  :     _STL_ASSERT(_Ptr_user[-2] == _Big_allocation_sentinel, "invalid argument");
; 155  : 
; 156  :     // Extra paranoia on aligned allocation/deallocation; ensure _Ptr_container is
; 157  :     // in range [_Min_back_shift, _Non_user_size]
; 158  : #ifdef _DEBUG
; 159  :     constexpr uintptr_t _Min_back_shift = 2 * sizeof(void*);
; 160  : #else // ^^^ _DEBUG ^^^ // vvv !_DEBUG vvv
; 161  :     constexpr uintptr_t _Min_back_shift = sizeof(void*);
; 162  : #endif // _DEBUG
; 163  :     const uintptr_t _Back_shift = reinterpret_cast<uintptr_t>(_Ptr) - _Ptr_container;

  00039	2b c2		 sub	 eax, edx

; 164  :     _STL_VERIFY(_Back_shift >= _Min_back_shift && _Back_shift <= _Non_user_size, "invalid argument");

  0003b	83 c0 fc	 add	 eax, -4			; fffffffcH
  0003e	83 f8 1f	 cmp	 eax, 31			; 0000001fH
  00041	0f 87 87 00 00
	00		 ja	 $LN65@vector

; 165  :     _Ptr = reinterpret_cast<void*>(_Ptr_container);

  00047	8b c2		 mov	 eax, edx
$LN43@vector:

; 255  :         ::operator delete(_Ptr, _Bytes);

  00049	51		 push	 ecx
  0004a	50		 push	 eax
  0004b	e8 00 00 00 00	 call	 ??3@YAXPAXI@Z		; operator delete
  00050	8b 45 fc	 mov	 eax, DWORD PTR __Last$1$[ebp]
  00053	83 c4 08	 add	 esp, 8
$LN33@vector:
; File D:\visual studio 2019\visual studio 2019\VC\Tools\MSVC\14.29.30133\include\xstring

; 4599 :             _Mypair._Myval2._Mysize = 0;

  00056	c7 46 fc 00 00
	00 00		 mov	 DWORD PTR [esi-4], 0
; File D:\visual studio 2019\visual studio 2019\VC\Tools\MSVC\14.29.30133\include\xmemory

; 904  :         for (; _First != _Last; ++_First) {

  0005d	83 c7 30	 add	 edi, 48			; 00000030H
; File D:\visual studio 2019\visual studio 2019\VC\Tools\MSVC\14.29.30133\include\xstring

; 4600 :             _Mypair._Myval2._Myres  = _BUF_SIZE - 1;

  00060	c7 06 0f 00 00
	00		 mov	 DWORD PTR [esi], 15	; 0000000fH

; 4601 :             // the _Traits::assign is last so the codegen doesn't think the char write can alias this
; 4602 :             _Traits::assign(_Mypair._Myval2._Bx._Buf[0], _Elem());

  00066	c6 46 ec 00	 mov	 BYTE PTR [esi-20], 0
; File D:\visual studio 2019\visual studio 2019\VC\Tools\MSVC\14.29.30133\include\xmemory

; 904  :         for (; _First != _Last; ++_First) {

  0006a	83 c6 30	 add	 esi, 48			; 00000030H
  0006d	3b f8		 cmp	 edi, eax
  0006f	75 af		 jne	 SHORT $LL11@vector

; 165  :     _Ptr = reinterpret_cast<void*>(_Ptr_container);

  00071	8b 3b		 mov	 edi, DWORD PTR [ebx]
  00073	5e		 pop	 esi
$LN10@vector:
; File D:\visual studio 2019\visual studio 2019\VC\Tools\MSVC\14.29.30133\include\vector

; 1752 :             _Getal().deallocate(_Myfirst, static_cast<size_type>(_Myend - _Myfirst));

  00074	8b 4b 08	 mov	 ecx, DWORD PTR [ebx+8]
  00077	b8 ab aa aa 2a	 mov	 eax, 715827883		; 2aaaaaabH
  0007c	2b cf		 sub	 ecx, edi
  0007e	f7 e9		 imul	 ecx
  00080	c1 fa 03	 sar	 edx, 3
  00083	8b c2		 mov	 eax, edx
  00085	c1 e8 1f	 shr	 eax, 31			; 0000001fH
  00088	03 c2		 add	 eax, edx
; File D:\visual studio 2019\visual studio 2019\VC\Tools\MSVC\14.29.30133\include\xmemory

; 797  :         _Deallocate<_New_alignof<_Ty>>(_Ptr, sizeof(_Ty) * _Count);

  0008a	8d 0c 40	 lea	 ecx, DWORD PTR [eax+eax*2]
  0008d	c1 e1 04	 shl	 ecx, 4

; 251  :         if (_Bytes >= _Big_allocation_threshold) { // boost the alignment of big allocations to help autovectorization

  00090	81 f9 00 10 00
	00		 cmp	 ecx, 4096		; 00001000H
  00096	72 12		 jb	 SHORT $LN68@vector

; 150  :     const uintptr_t _Ptr_container   = _Ptr_user[-1];

  00098	8b 57 fc	 mov	 edx, DWORD PTR [edi-4]
  0009b	83 c1 23	 add	 ecx, 35			; 00000023H

; 151  : 
; 152  :     // If the following asserts, it likely means that we are performing
; 153  :     // an aligned delete on memory coming from an unaligned allocation.
; 154  :     _STL_ASSERT(_Ptr_user[-2] == _Big_allocation_sentinel, "invalid argument");
; 155  : 
; 156  :     // Extra paranoia on aligned allocation/deallocation; ensure _Ptr_container is
; 157  :     // in range [_Min_back_shift, _Non_user_size]
; 158  : #ifdef _DEBUG
; 159  :     constexpr uintptr_t _Min_back_shift = 2 * sizeof(void*);
; 160  : #else // ^^^ _DEBUG ^^^ // vvv !_DEBUG vvv
; 161  :     constexpr uintptr_t _Min_back_shift = sizeof(void*);
; 162  : #endif // _DEBUG
; 163  :     const uintptr_t _Back_shift = reinterpret_cast<uintptr_t>(_Ptr) - _Ptr_container;

  0009e	2b fa		 sub	 edi, edx

; 164  :     _STL_VERIFY(_Back_shift >= _Min_back_shift && _Back_shift <= _Non_user_size, "invalid argument");

  000a0	8d 47 fc	 lea	 eax, DWORD PTR [edi-4]
  000a3	83 f8 1f	 cmp	 eax, 31			; 0000001fH
  000a6	77 26		 ja	 SHORT $LN65@vector

; 165  :     _Ptr = reinterpret_cast<void*>(_Ptr_container);

  000a8	8b fa		 mov	 edi, edx
$LN68@vector:

; 255  :         ::operator delete(_Ptr, _Bytes);

  000aa	51		 push	 ecx
  000ab	57		 push	 edi
  000ac	e8 00 00 00 00	 call	 ??3@YAXPAXI@Z		; operator delete
; File D:\visual studio 2019\visual studio 2019\VC\Tools\MSVC\14.29.30133\include\vector

; 1754 :             _Myfirst = nullptr;

  000b1	c7 03 00 00 00
	00		 mov	 DWORD PTR [ebx], 0
; File D:\visual studio 2019\visual studio 2019\VC\Tools\MSVC\14.29.30133\include\xmemory

; 255  :         ::operator delete(_Ptr, _Bytes);

  000b7	83 c4 08	 add	 esp, 8
; File D:\visual studio 2019\visual studio 2019\VC\Tools\MSVC\14.29.30133\include\vector

; 1755 :             _Mylast  = nullptr;

  000ba	c7 43 04 00 00
	00 00		 mov	 DWORD PTR [ebx+4], 0

; 1756 :             _Myend   = nullptr;

  000c1	c7 43 08 00 00
	00 00		 mov	 DWORD PTR [ebx+8], 0
$LN4@vector:
  000c8	5f		 pop	 edi

; 704  :     }

  000c9	5b		 pop	 ebx
  000ca	8b e5		 mov	 esp, ebp
  000cc	5d		 pop	 ebp
  000cd	c3		 ret	 0
$LN65@vector:
; File D:\visual studio 2019\visual studio 2019\VC\Tools\MSVC\14.29.30133\include\xmemory

; 164  :     _STL_VERIFY(_Back_shift >= _Min_back_shift && _Back_shift <= _Non_user_size, "invalid argument");

  000ce	e8 00 00 00 00	 call	 __invalid_parameter_noinfo_noreturn
$LN76@vector:
  000d3	cc		 int	 3
??1?$vector@USAttachingData@NRaceData@@V?$allocator@USAttachingData@NRaceData@@@std@@@std@@QAE@XZ ENDP ; std::vector<NRaceData::SAttachingData,std::allocator<NRaceData::SAttachingData> >::~vector<NRaceData::SAttachingData,std::allocator<NRaceData::SAttachingData> >
_TEXT	ENDS
; Function compile flags: /Ogtp
; File D:\visual studio 2019\visual studio 2019\VC\Tools\MSVC\14.29.30133\include\vector
;	COMDAT ?_Xlength@?$vector@PAVCGraphicThing@@V?$allocator@PAVCGraphicThing@@@std@@@std@@CAXXZ
_TEXT	SEGMENT
?_Xlength@?$vector@PAVCGraphicThing@@V?$allocator@PAVCGraphicThing@@@std@@@std@@CAXXZ PROC ; std::vector<CGraphicThing *,std::allocator<CGraphicThing *> >::_Xlength, COMDAT

; 1761 :         _Xlength_error("vector too long");

  00000	68 00 00 00 00	 push	 OFFSET ??_C@_0BA@FOIKENOD@vector?5too?5long@
  00005	e8 00 00 00 00	 call	 ?_Xlength_error@std@@YAXPBD@Z ; std::_Xlength_error
$LN3@Xlength:
  0000a	cc		 int	 3
?_Xlength@?$vector@PAVCGraphicThing@@V?$allocator@PAVCGraphicThing@@@std@@@std@@CAXXZ ENDP ; std::vector<CGraphicThing *,std::allocator<CGraphicThing *> >::_Xlength
_TEXT	ENDS
; Function compile flags: /Ogtp
; File D:\visual studio 2019\visual studio 2019\VC\Tools\MSVC\14.29.30133\include\vector
; File D:\visual studio 2019\visual studio 2019\VC\Tools\MSVC\14.29.30133\include\xmemory
; File D:\visual studio 2019\visual studio 2019\VC\Tools\MSVC\14.29.30133\include\vector
; File D:\visual studio 2019\visual studio 2019\VC\Tools\MSVC\14.29.30133\include\xmemory
; File D:\visual studio 2019\visual studio 2019\VC\Tools\MSVC\14.29.30133\include\vector
; File D:\visual studio 2019\visual studio 2019\VC\Tools\MSVC\14.29.30133\include\xmemory
; File D:\visual studio 2019\visual studio 2019\VC\Tools\MSVC\14.29.30133\include\vector
;	COMDAT ??1?$vector@PAVCGraphicThing@@V?$allocator@PAVCGraphicThing@@@std@@@std@@QAE@XZ
_TEXT	SEGMENT
??1?$vector@PAVCGraphicThing@@V?$allocator@PAVCGraphicThing@@@std@@@std@@QAE@XZ PROC ; std::vector<CGraphicThing *,std::allocator<CGraphicThing *> >::~vector<CGraphicThing *,std::allocator<CGraphicThing *> >, COMDAT
; _this$ = ecx

; 698  :     _CONSTEXPR20_CONTAINER ~vector() noexcept {

  00000	56		 push	 esi
  00001	8b f1		 mov	 esi, ecx

; 1750 :         if (_Myfirst) { // destroy and deallocate old array

  00003	8b 06		 mov	 eax, DWORD PTR [esi]
  00005	85 c0		 test	 eax, eax
  00007	74 40		 je	 SHORT $LN4@vector

; 1751 :             _Destroy(_Myfirst, _Mylast);
; 1752 :             _Getal().deallocate(_Myfirst, static_cast<size_type>(_Myend - _Myfirst));

  00009	8b 4e 08	 mov	 ecx, DWORD PTR [esi+8]
  0000c	2b c8		 sub	 ecx, eax
; File D:\visual studio 2019\visual studio 2019\VC\Tools\MSVC\14.29.30133\include\xmemory

; 797  :         _Deallocate<_New_alignof<_Ty>>(_Ptr, sizeof(_Ty) * _Count);

  0000e	83 e1 fc	 and	 ecx, -4			; fffffffcH

; 251  :         if (_Bytes >= _Big_allocation_threshold) { // boost the alignment of big allocations to help autovectorization

  00011	81 f9 00 10 00
	00		 cmp	 ecx, 4096		; 00001000H
  00017	72 12		 jb	 SHORT $LN20@vector

; 150  :     const uintptr_t _Ptr_container   = _Ptr_user[-1];

  00019	8b 50 fc	 mov	 edx, DWORD PTR [eax-4]
  0001c	83 c1 23	 add	 ecx, 35			; 00000023H

; 151  : 
; 152  :     // If the following asserts, it likely means that we are performing
; 153  :     // an aligned delete on memory coming from an unaligned allocation.
; 154  :     _STL_ASSERT(_Ptr_user[-2] == _Big_allocation_sentinel, "invalid argument");
; 155  : 
; 156  :     // Extra paranoia on aligned allocation/deallocation; ensure _Ptr_container is
; 157  :     // in range [_Min_back_shift, _Non_user_size]
; 158  : #ifdef _DEBUG
; 159  :     constexpr uintptr_t _Min_back_shift = 2 * sizeof(void*);
; 160  : #else // ^^^ _DEBUG ^^^ // vvv !_DEBUG vvv
; 161  :     constexpr uintptr_t _Min_back_shift = sizeof(void*);
; 162  : #endif // _DEBUG
; 163  :     const uintptr_t _Back_shift = reinterpret_cast<uintptr_t>(_Ptr) - _Ptr_container;

  0001f	2b c2		 sub	 eax, edx

; 164  :     _STL_VERIFY(_Back_shift >= _Min_back_shift && _Back_shift <= _Non_user_size, "invalid argument");

  00021	83 c0 fc	 add	 eax, -4			; fffffffcH
  00024	83 f8 1f	 cmp	 eax, 31			; 0000001fH
  00027	77 22		 ja	 SHORT $LN17@vector

; 165  :     _Ptr = reinterpret_cast<void*>(_Ptr_container);

  00029	8b c2		 mov	 eax, edx
$LN20@vector:

; 255  :         ::operator delete(_Ptr, _Bytes);

  0002b	51		 push	 ecx
  0002c	50		 push	 eax
  0002d	e8 00 00 00 00	 call	 ??3@YAXPAXI@Z		; operator delete
; File D:\visual studio 2019\visual studio 2019\VC\Tools\MSVC\14.29.30133\include\vector

; 1754 :             _Myfirst = nullptr;

  00032	c7 06 00 00 00
	00		 mov	 DWORD PTR [esi], 0
; File D:\visual studio 2019\visual studio 2019\VC\Tools\MSVC\14.29.30133\include\xmemory

; 255  :         ::operator delete(_Ptr, _Bytes);

  00038	83 c4 08	 add	 esp, 8
; File D:\visual studio 2019\visual studio 2019\VC\Tools\MSVC\14.29.30133\include\vector

; 1755 :             _Mylast  = nullptr;

  0003b	c7 46 04 00 00
	00 00		 mov	 DWORD PTR [esi+4], 0

; 1756 :             _Myend   = nullptr;

  00042	c7 46 08 00 00
	00 00		 mov	 DWORD PTR [esi+8], 0
$LN4@vector:
  00049	5e		 pop	 esi

; 704  :     }

  0004a	c3		 ret	 0
$LN17@vector:
; File D:\visual studio 2019\visual studio 2019\VC\Tools\MSVC\14.29.30133\include\xmemory

; 164  :     _STL_VERIFY(_Back_shift >= _Min_back_shift && _Back_shift <= _Non_user_size, "invalid argument");

  0004b	e8 00 00 00 00	 call	 __invalid_parameter_noinfo_noreturn
$LN25@vector:
  00050	cc		 int	 3
??1?$vector@PAVCGraphicThing@@V?$allocator@PAVCGraphicThing@@@std@@@std@@QAE@XZ ENDP ; std::vector<CGraphicThing *,std::allocator<CGraphicThing *> >::~vector<CGraphicThing *,std::allocator<CGraphicThing *> >
_TEXT	ENDS
; Function compile flags: /Ogtp
; File C:\Users\ALEXANDER\Desktop\Cliente\COPY_FISH_WON_NEW\Binario\Client\GameLib\ItemData.cpp
;	COMDAT ?__SetIconImage@CItemData@@IAEXPBD@Z
_TEXT	SEGMENT
_c_szFileName$ = 8					; size = 4
?__SetIconImage@CItemData@@IAEXPBD@Z PROC		; CItemData::__SetIconImage, COMDAT
; _this$ = ecx

; 155  : {

  00000	55		 push	 ebp
  00001	8b ec		 mov	 ebp, esp
  00003	56		 push	 esi
  00004	57		 push	 edi

; 156  : 	if (!CResourceManager::Instance().IsFileExist(c_szFileName))

  00005	8b 7d 08	 mov	 edi, DWORD PTR _c_szFileName$[ebp]
  00008	8b f1		 mov	 esi, ecx
  0000a	8b 0d 00 00 00
	00		 mov	 ecx, DWORD PTR ?ms_singleton@?$CSingleton@VCResourceManager@@@@0PAVCResourceManager@@A ; CSingleton<CResourceManager>::ms_singleton
  00010	57		 push	 edi
  00011	e8 00 00 00 00	 call	 ?IsFileExist@CResourceManager@@QAE_NPBD@Z ; CResourceManager::IsFileExist
  00016	84 c0		 test	 al, al
  00018	75 35		 jne	 SHORT $LN2@SetIconIma

; 157  : 	{
; 158  : 		TraceError("%s not found. CItemData::__SetIconImage",c_szFileName);

  0001a	57		 push	 edi
  0001b	68 00 00 00 00	 push	 OFFSET ??_C@_0CI@CPFNJMPO@?$CFs?5not?5found?4?5CItemData?3?3__SetI@
  00020	e8 00 00 00 00	 call	 ?TraceError@@YAXPBDZZ	; TraceError
  00025	83 c4 08	 add	 esp, 8

; 159  : 		m_pIconImage = NULL;

  00028	c7 86 ac 00 00
	00 00 00 00 00	 mov	 DWORD PTR [esi+172], 0

; 160  : #ifdef ENABLE_LOAD_ALTER_ITEMICON
; 161  : 		static const char* c_szAlterIconImage = "icon/item/27995.tga";
; 162  : 		if (CResourceManager::Instance().IsFileExist(c_szAlterIconImage))

  00032	8b 0d 00 00 00
	00		 mov	 ecx, DWORD PTR ?ms_singleton@?$CSingleton@VCResourceManager@@@@0PAVCResourceManager@@A ; CSingleton<CResourceManager>::ms_singleton
  00038	ff 35 00 00 00
	00		 push	 DWORD PTR ?c_szAlterIconImage@?4??__SetIconImage@CItemData@@IAEXPBD@Z@4PBDB
  0003e	e8 00 00 00 00	 call	 ?IsFileExist@CResourceManager@@QAE_NPBD@Z ; CResourceManager::IsFileExist
  00043	84 c0		 test	 al, al
  00045	74 23		 je	 SHORT $LN5@SetIconIma

; 163  : 			m_pIconImage = (CGraphicSubImage *)CResourceManager::Instance().GetResourcePointer(c_szAlterIconImage);

  00047	ff 35 00 00 00
	00		 push	 DWORD PTR ?c_szAlterIconImage@?4??__SetIconImage@CItemData@@IAEXPBD@Z@4PBDB

; 164  : #endif
; 165  : 	}

  0004d	eb 0a		 jmp	 SHORT $LN7@SetIconIma
$LN2@SetIconIma:

; 166  : 	else if (m_pIconImage == NULL)

  0004f	83 be ac 00 00
	00 00		 cmp	 DWORD PTR [esi+172], 0
  00056	75 12		 jne	 SHORT $LN5@SetIconIma

; 167  : 		m_pIconImage = (CGraphicSubImage *)CResourceManager::Instance().GetResourcePointer(c_szFileName);

  00058	57		 push	 edi
$LN7@SetIconIma:

; 168  : }

  00059	8b 0d 00 00 00
	00		 mov	 ecx, DWORD PTR ?ms_singleton@?$CSingleton@VCResourceManager@@@@0PAVCResourceManager@@A ; CSingleton<CResourceManager>::ms_singleton
  0005f	e8 00 00 00 00	 call	 ?GetResourcePointer@CResourceManager@@QAEPAVCResource@@PBD@Z ; CResourceManager::GetResourcePointer
  00064	89 86 ac 00 00
	00		 mov	 DWORD PTR [esi+172], eax
$LN5@SetIconIma:
  0006a	5f		 pop	 edi
  0006b	5e		 pop	 esi
  0006c	5d		 pop	 ebp
  0006d	c2 04 00	 ret	 4
?__SetIconImage@CItemData@@IAEXPBD@Z ENDP		; CItemData::__SetIconImage
_TEXT	ENDS
; Function compile flags: /Ogtp
; File C:\Users\ALEXANDER\Desktop\Cliente\COPY_FISH_WON_NEW\Binario\Client\GameLib\ItemData.cpp
; File D:\visual studio 2019\visual studio 2019\VC\Tools\MSVC\14.29.30133\include\xstring
; File C:\Users\ALEXANDER\Desktop\Cliente\COPY_FISH_WON_NEW\Binario\Client\GameLib\ItemData.cpp
; File D:\visual studio 2019\visual studio 2019\VC\Tools\MSVC\14.29.30133\include\xstring
; File C:\Users\ALEXANDER\Desktop\Cliente\COPY_FISH_WON_NEW\Binario\Client\GameLib\ItemData.cpp
; File D:\visual studio 2019\visual studio 2019\VC\Tools\MSVC\14.29.30133\include\xstring
; File C:\Users\ALEXANDER\Desktop\Cliente\COPY_FISH_WON_NEW\Binario\Client\GameLib\ItemData.cpp
; File D:\visual studio 2019\visual studio 2019\VC\Tools\MSVC\14.29.30133\include\xstring
; File C:\Users\ALEXANDER\Desktop\Cliente\COPY_FISH_WON_NEW\Binario\Client\GameLib\ItemData.cpp
; File D:\visual studio 2019\visual studio 2019\VC\Tools\MSVC\14.29.30133\include\xstring
; File C:\Users\ALEXANDER\Desktop\Cliente\COPY_FISH_WON_NEW\Binario\Client\GameLib\ItemData.cpp
; File D:\visual studio 2019\visual studio 2019\VC\Tools\MSVC\14.29.30133\include\xstring
; File C:\Users\ALEXANDER\Desktop\Cliente\COPY_FISH_WON_NEW\Binario\Client\GameLib\ItemData.cpp
; File D:\visual studio 2019\visual studio 2019\VC\Tools\MSVC\14.29.30133\include\vector
; File C:\Users\ALEXANDER\Desktop\Cliente\COPY_FISH_WON_NEW\Binario\Client\GameLib\ItemData.cpp
; File D:\visual studio 2019\visual studio 2019\VC\Tools\MSVC\14.29.30133\include\vector
; File C:\Users\ALEXANDER\Desktop\Cliente\COPY_FISH_WON_NEW\Binario\Client\GameLib\ItemData.cpp
; File D:\visual studio 2019\visual studio 2019\VC\Tools\MSVC\14.29.30133\include\vector
; File D:\visual studio 2019\visual studio 2019\VC\Tools\MSVC\14.29.30133\include\xmemory
; File D:\visual studio 2019\visual studio 2019\VC\Tools\MSVC\14.29.30133\include\vector
; File C:\Users\ALEXANDER\Desktop\Cliente\COPY_FISH_WON_NEW\Binario\Client\GameLib\ItemData.cpp
; File D:\visual studio 2019\visual studio 2019\VC\Tools\MSVC\14.29.30133\include\vector
; File C:\Users\ALEXANDER\Desktop\Cliente\COPY_FISH_WON_NEW\Binario\Client\GameLib\ItemData.cpp
; File D:\visual studio 2019\visual studio 2019\VC\Tools\MSVC\14.29.30133\include\vector
; File D:\visual studio 2019\visual studio 2019\VC\Tools\MSVC\14.29.30133\include\xstring
; File D:\visual studio 2019\visual studio 2019\VC\Tools\MSVC\14.29.30133\include\vector
; File D:\visual studio 2019\visual studio 2019\VC\Tools\MSVC\14.29.30133\include\xstring
; File D:\visual studio 2019\visual studio 2019\VC\Tools\MSVC\14.29.30133\include\vector
; File C:\Users\ALEXANDER\Desktop\Cliente\COPY_FISH_WON_NEW\Binario\Client\GameLib\ItemData.cpp
; File D:\visual studio 2019\visual studio 2019\VC\Tools\MSVC\14.29.30133\include\vector
; File C:\Users\ALEXANDER\Desktop\Cliente\COPY_FISH_WON_NEW\Binario\Client\GameLib\ItemData.cpp
; File D:\visual studio 2019\visual studio 2019\VC\Tools\MSVC\14.29.30133\include\vector
; File C:\Users\ALEXANDER\Desktop\Cliente\COPY_FISH_WON_NEW\Binario\Client\GameLib\ItemData.cpp
;	COMDAT ?__LoadFiles@CItemData@@IAEXXZ
_TEXT	SEGMENT
_i$1$ = -8						; size = 4
$T1 = -1						; size = 1
?__LoadFiles@CItemData@@IAEXXZ PROC			; CItemData::__LoadFiles, COMDAT
; _this$ = ecx

; 128  : {

  00000	55		 push	 ebp
  00001	8b ec		 mov	 ebp, esp
  00003	83 ec 08	 sub	 esp, 8
  00006	57		 push	 edi
  00007	8b f9		 mov	 edi, ecx
; File D:\visual studio 2019\visual studio 2019\VC\Tools\MSVC\14.29.30133\include\xstring

; 3985 :         return size() == 0;

  00009	83 7f 14 00	 cmp	 DWORD PTR [edi+20], 0
; File C:\Users\ALEXANDER\Desktop\Cliente\COPY_FISH_WON_NEW\Binario\Client\GameLib\ItemData.cpp

; 130  : 	if (!m_strModelFileName.empty())

  0000d	74 1d		 je	 SHORT $LN5@LoadFiles
; File D:\visual studio 2019\visual studio 2019\VC\Tools\MSVC\14.29.30133\include\xstring

; 2286 :         return _BUF_SIZE <= _Myres;

  0000f	83 7f 18 10	 cmp	 DWORD PTR [edi+24], 16	; 00000010H

; 3888 :         return _Mypair._Myval2._Myptr();

  00013	8d 47 04	 lea	 eax, DWORD PTR [edi+4]

; 2273 :         if (_Large_string_engaged()) {

  00016	72 02		 jb	 SHORT $LN15@LoadFiles

; 2274 :             _Result = _Unfancy(_Bx._Ptr);

  00018	8b 00		 mov	 eax, DWORD PTR [eax]
$LN15@LoadFiles:
; File C:\Users\ALEXANDER\Desktop\Cliente\COPY_FISH_WON_NEW\Binario\Client\GameLib\ItemData.cpp

; 131  : 		m_pModelThing = (CGraphicThing *)CResourceManager::Instance().GetResourcePointer(m_strModelFileName.c_str());

  0001a	8b 0d 00 00 00
	00		 mov	 ecx, DWORD PTR ?ms_singleton@?$CSingleton@VCResourceManager@@@@0PAVCResourceManager@@A ; CSingleton<CResourceManager>::ms_singleton
  00020	50		 push	 eax
  00021	e8 00 00 00 00	 call	 ?GetResourcePointer@CResourceManager@@QAEPAVCResource@@PBD@Z ; CResourceManager::GetResourcePointer
  00026	89 87 a0 00 00
	00		 mov	 DWORD PTR [edi+160], eax
$LN5@LoadFiles:
; File D:\visual studio 2019\visual studio 2019\VC\Tools\MSVC\14.29.30133\include\xstring

; 3985 :         return size() == 0;

  0002c	83 7f 2c 00	 cmp	 DWORD PTR [edi+44], 0
; File C:\Users\ALEXANDER\Desktop\Cliente\COPY_FISH_WON_NEW\Binario\Client\GameLib\ItemData.cpp

; 133  : 	if (!m_strSubModelFileName.empty())

  00030	74 1d		 je	 SHORT $LN6@LoadFiles
; File D:\visual studio 2019\visual studio 2019\VC\Tools\MSVC\14.29.30133\include\xstring

; 2286 :         return _BUF_SIZE <= _Myres;

  00032	83 7f 30 10	 cmp	 DWORD PTR [edi+48], 16	; 00000010H

; 3888 :         return _Mypair._Myval2._Myptr();

  00036	8d 47 1c	 lea	 eax, DWORD PTR [edi+28]

; 2273 :         if (_Large_string_engaged()) {

  00039	72 02		 jb	 SHORT $LN24@LoadFiles

; 2274 :             _Result = _Unfancy(_Bx._Ptr);

  0003b	8b 00		 mov	 eax, DWORD PTR [eax]
$LN24@LoadFiles:
; File C:\Users\ALEXANDER\Desktop\Cliente\COPY_FISH_WON_NEW\Binario\Client\GameLib\ItemData.cpp

; 134  : 		m_pSubModelThing = (CGraphicThing *)CResourceManager::Instance().GetResourcePointer(m_strSubModelFileName.c_str());

  0003d	8b 0d 00 00 00
	00		 mov	 ecx, DWORD PTR ?ms_singleton@?$CSingleton@VCResourceManager@@@@0PAVCResourceManager@@A ; CSingleton<CResourceManager>::ms_singleton
  00043	50		 push	 eax
  00044	e8 00 00 00 00	 call	 ?GetResourcePointer@CResourceManager@@QAEPAVCResource@@PBD@Z ; CResourceManager::GetResourcePointer
  00049	89 87 a4 00 00
	00		 mov	 DWORD PTR [edi+164], eax
$LN6@LoadFiles:
; File D:\visual studio 2019\visual studio 2019\VC\Tools\MSVC\14.29.30133\include\xstring

; 3985 :         return size() == 0;

  0004f	83 7f 44 00	 cmp	 DWORD PTR [edi+68], 0
; File C:\Users\ALEXANDER\Desktop\Cliente\COPY_FISH_WON_NEW\Binario\Client\GameLib\ItemData.cpp

; 136  : 	if (!m_strDropModelFileName.empty())

  00053	74 1d		 je	 SHORT $LN7@LoadFiles
; File D:\visual studio 2019\visual studio 2019\VC\Tools\MSVC\14.29.30133\include\xstring

; 2286 :         return _BUF_SIZE <= _Myres;

  00055	83 7f 48 10	 cmp	 DWORD PTR [edi+72], 16	; 00000010H

; 3888 :         return _Mypair._Myval2._Myptr();

  00059	8d 47 34	 lea	 eax, DWORD PTR [edi+52]

; 2273 :         if (_Large_string_engaged()) {

  0005c	72 02		 jb	 SHORT $LN33@LoadFiles

; 2274 :             _Result = _Unfancy(_Bx._Ptr);

  0005e	8b 00		 mov	 eax, DWORD PTR [eax]
$LN33@LoadFiles:
; File C:\Users\ALEXANDER\Desktop\Cliente\COPY_FISH_WON_NEW\Binario\Client\GameLib\ItemData.cpp

; 137  : 		m_pDropModelThing = (CGraphicThing *)CResourceManager::Instance().GetResourcePointer(m_strDropModelFileName.c_str());

  00060	8b 0d 00 00 00
	00		 mov	 ecx, DWORD PTR ?ms_singleton@?$CSingleton@VCResourceManager@@@@0PAVCResourceManager@@A ; CSingleton<CResourceManager>::ms_singleton
  00066	50		 push	 eax
  00067	e8 00 00 00 00	 call	 ?GetResourcePointer@CResourceManager@@QAEPAVCResource@@PBD@Z ; CResourceManager::GetResourcePointer
  0006c	89 87 a8 00 00
	00		 mov	 DWORD PTR [edi+168], eax
$LN7@LoadFiles:
; File D:\visual studio 2019\visual studio 2019\VC\Tools\MSVC\14.29.30133\include\vector

; 1531 :         return _My_data._Myfirst == _My_data._Mylast;

  00072	8b 87 94 00 00
	00		 mov	 eax, DWORD PTR [edi+148]
  00078	3b 87 98 00 00
	00		 cmp	 eax, DWORD PTR [edi+152]
; File C:\Users\ALEXANDER\Desktop\Cliente\COPY_FISH_WON_NEW\Binario\Client\GameLib\ItemData.cpp

; 140  : 	if (!m_strLODModelFileNameVector.empty())

  0007e	0f 84 dd 00 00
	00		 je	 $LN3@LoadFiles

; 142  : 		m_pLODModelThingVector.clear();

  00084	53		 push	 ebx
  00085	8d 9f b0 00 00
	00		 lea	 ebx, DWORD PTR [edi+176]
; File D:\visual studio 2019\visual studio 2019\VC\Tools\MSVC\14.29.30133\include\vector

; 1536 :         return static_cast<size_type>(_My_data._Mylast - _My_data._Myfirst);

  0008b	b8 ab aa aa 2a	 mov	 eax, 715827883		; 2aaaaaabH
; File C:\Users\ALEXANDER\Desktop\Cliente\COPY_FISH_WON_NEW\Binario\Client\GameLib\ItemData.cpp

; 142  : 		m_pLODModelThingVector.clear();

  00090	56		 push	 esi
  00091	8b 33		 mov	 esi, DWORD PTR [ebx]
  00093	89 73 04	 mov	 DWORD PTR [ebx+4], esi
; File D:\visual studio 2019\visual studio 2019\VC\Tools\MSVC\14.29.30133\include\vector

; 1536 :         return static_cast<size_type>(_My_data._Mylast - _My_data._Myfirst);

  00096	8b 8f 98 00 00
	00		 mov	 ecx, DWORD PTR [edi+152]
  0009c	2b 8f 94 00 00
	00		 sub	 ecx, DWORD PTR [edi+148]
  000a2	f7 e9		 imul	 ecx
  000a4	c1 fa 02	 sar	 edx, 2
  000a7	8b ca		 mov	 ecx, edx
  000a9	c1 e9 1f	 shr	 ecx, 31			; 0000001fH
  000ac	03 ca		 add	 ecx, edx

; 1259 :         if (_Newsize > _Oldsize) { // append

  000ae	74 2b		 je	 SHORT $LN45@LoadFiles

; 1260 :             const auto _Oldcapacity = static_cast<size_type>(_My_data._Myend - _Myfirst);

  000b0	8b 43 08	 mov	 eax, DWORD PTR [ebx+8]
  000b3	2b c6		 sub	 eax, esi
  000b5	c1 f8 02	 sar	 eax, 2

; 1261 :             if (_Newsize > _Oldcapacity) { // reallocate

  000b8	3b c8		 cmp	 ecx, eax
  000ba	76 0e		 jbe	 SHORT $LN46@LoadFiles

; 1262 :                 _Resize_reallocate(_Newsize, _Val);

  000bc	8d 45 ff	 lea	 eax, DWORD PTR $T1[ebp]
  000bf	50		 push	 eax
  000c0	51		 push	 ecx
  000c1	8b cb		 mov	 ecx, ebx
  000c3	e8 00 00 00 00	 call	 ??$_Resize_reallocate@U_Value_init_tag@std@@@?$vector@PAVCGraphicThing@@V?$allocator@PAVCGraphicThing@@@std@@@std@@AAEXIABU_Value_init_tag@1@@Z ; std::vector<CGraphicThing *,std::allocator<CGraphicThing *> >::_Resize_reallocate<std::_Value_init_tag>

; 1263 :                 return;

  000c8	eb 11		 jmp	 SHORT $LN45@LoadFiles
$LN46@LoadFiles:
; File D:\visual studio 2019\visual studio 2019\VC\Tools\MSVC\14.29.30133\include\xmemory

; 1807 :             _Zero_range(_PFirst, _PFirst + _Count);

  000ca	8d 34 8e	 lea	 esi, DWORD PTR [esi+ecx*4]
  000cd	56		 push	 esi
  000ce	ff 33		 push	 DWORD PTR [ebx]
  000d0	e8 00 00 00 00	 call	 ??$_Zero_range@PAPAVCGraphicThing@@@std@@YAPAPAVCGraphicThing@@QAPAV1@0@Z ; std::_Zero_range<CGraphicThing * *>
  000d5	83 c4 08	 add	 esp, 8
; File D:\visual studio 2019\visual studio 2019\VC\Tools\MSVC\14.29.30133\include\vector

; 1267 :             _Mylast                = _Ufill(_Oldlast, _Newsize - _Oldsize, _Val);

  000d8	89 73 04	 mov	 DWORD PTR [ebx+4], esi
$LN45@LoadFiles:

; 1536 :         return static_cast<size_type>(_My_data._Mylast - _My_data._Myfirst);

  000db	8b 8f 98 00 00
	00		 mov	 ecx, DWORD PTR [edi+152]
  000e1	b8 ab aa aa 2a	 mov	 eax, 715827883		; 2aaaaaabH
  000e6	8b b7 94 00 00
	00		 mov	 esi, DWORD PTR [edi+148]
  000ec	2b ce		 sub	 ecx, esi
  000ee	f7 e9		 imul	 ecx
; File C:\Users\ALEXANDER\Desktop\Cliente\COPY_FISH_WON_NEW\Binario\Client\GameLib\ItemData.cpp

; 145  : 		for (DWORD i = 0; i < m_strLODModelFileNameVector.size(); ++i)

  000f0	c7 45 f8 00 00
	00 00		 mov	 DWORD PTR _i$1$[ebp], 0
; File D:\visual studio 2019\visual studio 2019\VC\Tools\MSVC\14.29.30133\include\vector

; 1536 :         return static_cast<size_type>(_My_data._Mylast - _My_data._Myfirst);

  000f7	c1 fa 02	 sar	 edx, 2
  000fa	8b c2		 mov	 eax, edx
  000fc	c1 e8 1f	 shr	 eax, 31			; 0000001fH
  000ff	03 c2		 add	 eax, edx
; File C:\Users\ALEXANDER\Desktop\Cliente\COPY_FISH_WON_NEW\Binario\Client\GameLib\ItemData.cpp

; 145  : 		for (DWORD i = 0; i < m_strLODModelFileNameVector.size(); ++i)

  00101	74 5c		 je	 SHORT $LN80@LoadFiles
; File D:\visual studio 2019\visual studio 2019\VC\Tools\MSVC\14.29.30133\include\vector

; 1535 :         auto& _My_data = _Mypair._Myval2;

  00103	33 db		 xor	 ebx, ebx
  00105	33 d2		 xor	 edx, edx
  00107	66 0f 1f 84 00
	00 00 00 00	 npad	 9
$LL4@LoadFiles:
; File D:\visual studio 2019\visual studio 2019\VC\Tools\MSVC\14.29.30133\include\xstring

; 2286 :         return _BUF_SIZE <= _Myres;

  00110	83 7c 33 14 10	 cmp	 DWORD PTR [ebx+esi+20], 16 ; 00000010H
; File D:\visual studio 2019\visual studio 2019\VC\Tools\MSVC\14.29.30133\include\vector

; 1556 :         return _My_data._Myfirst[_Pos];

  00115	8d 0c 33	 lea	 ecx, DWORD PTR [ebx+esi]
; File D:\visual studio 2019\visual studio 2019\VC\Tools\MSVC\14.29.30133\include\xstring

; 2273 :         if (_Large_string_engaged()) {

  00118	72 02		 jb	 SHORT $LN70@LoadFiles

; 2274 :             _Result = _Unfancy(_Bx._Ptr);

  0011a	8b 09		 mov	 ecx, DWORD PTR [ecx]
$LN70@LoadFiles:
; File D:\visual studio 2019\visual studio 2019\VC\Tools\MSVC\14.29.30133\include\vector

; 1556 :         return _My_data._Myfirst[_Pos];

  0011c	8b 87 b0 00 00
	00		 mov	 eax, DWORD PTR [edi+176]
; File C:\Users\ALEXANDER\Desktop\Cliente\COPY_FISH_WON_NEW\Binario\Client\GameLib\ItemData.cpp

; 148  : 			m_pLODModelThingVector[i] = (CGraphicThing *)CResourceManager::Instance().GetResourcePointer(c_rstrLODModelFileName.c_str());

  00122	51		 push	 ecx
  00123	8b 0d 00 00 00
	00		 mov	 ecx, DWORD PTR ?ms_singleton@?$CSingleton@VCResourceManager@@@@0PAVCResourceManager@@A ; CSingleton<CResourceManager>::ms_singleton
; File D:\visual studio 2019\visual studio 2019\VC\Tools\MSVC\14.29.30133\include\vector

; 1556 :         return _My_data._Myfirst[_Pos];

  00129	8d 34 90	 lea	 esi, DWORD PTR [eax+edx*4]
; File C:\Users\ALEXANDER\Desktop\Cliente\COPY_FISH_WON_NEW\Binario\Client\GameLib\ItemData.cpp

; 148  : 			m_pLODModelThingVector[i] = (CGraphicThing *)CResourceManager::Instance().GetResourcePointer(c_rstrLODModelFileName.c_str());

  0012c	e8 00 00 00 00	 call	 ?GetResourcePointer@CResourceManager@@QAEPAVCResource@@PBD@Z ; CResourceManager::GetResourcePointer
  00131	ff 45 f8	 inc	 DWORD PTR _i$1$[ebp]
  00134	83 c3 18	 add	 ebx, 24			; 00000018H
  00137	89 06		 mov	 DWORD PTR [esi], eax
; File D:\visual studio 2019\visual studio 2019\VC\Tools\MSVC\14.29.30133\include\vector

; 1536 :         return static_cast<size_type>(_My_data._Mylast - _My_data._Myfirst);

  00139	b8 ab aa aa 2a	 mov	 eax, 715827883		; 2aaaaaabH
  0013e	8b 8f 98 00 00
	00		 mov	 ecx, DWORD PTR [edi+152]
  00144	8b b7 94 00 00
	00		 mov	 esi, DWORD PTR [edi+148]
  0014a	2b ce		 sub	 ecx, esi
  0014c	f7 e9		 imul	 ecx
  0014e	c1 fa 02	 sar	 edx, 2
  00151	8b c2		 mov	 eax, edx
  00153	c1 e8 1f	 shr	 eax, 31			; 0000001fH
  00156	03 c2		 add	 eax, edx
; File C:\Users\ALEXANDER\Desktop\Cliente\COPY_FISH_WON_NEW\Binario\Client\GameLib\ItemData.cpp

; 145  : 		for (DWORD i = 0; i < m_strLODModelFileNameVector.size(); ++i)

  00158	8b 55 f8	 mov	 edx, DWORD PTR _i$1$[ebp]
  0015b	3b d0		 cmp	 edx, eax
  0015d	72 b1		 jb	 SHORT $LL4@LoadFiles
$LN80@LoadFiles:
  0015f	5e		 pop	 esi
  00160	5b		 pop	 ebx
$LN3@LoadFiles:
  00161	5f		 pop	 edi

; 149  : 		}
; 150  : 	}
; 151  : }

  00162	8b e5		 mov	 esp, ebp
  00164	5d		 pop	 ebp
  00165	c3		 ret	 0
?__LoadFiles@CItemData@@IAEXXZ ENDP			; CItemData::__LoadFiles
_TEXT	ENDS
; Function compile flags: /Ogtp
; File C:\Users\ALEXANDER\Desktop\Cliente\COPY_FISH_WON_NEW\Binario\Client\GameLib\ItemData.cpp
;	COMDAT ?SetItemShiningTableData@CItemData@@QAEXEPBD@Z
_TEXT	SEGMENT
_bIndex$ = 8						; size = 1
_szEffectname$ = 12					; size = 4
?SetItemShiningTableData@CItemData@@QAEXEPBD@Z PROC	; CItemData::SetItemShiningTableData, COMDAT
; _this$ = ecx

; 439  : {

  00000	55		 push	 ebp
  00001	8b ec		 mov	 ebp, esp

; 440  : 	sprintf(m_ItemShiningTable.szShinings[bIndex], szEffectname);

  00003	0f b6 45 08	 movzx	 eax, BYTE PTR _bIndex$[ebp]
  00007	81 c1 58 02 00
	00		 add	 ecx, 600		; 00000258H
  0000d	ff 75 0c	 push	 DWORD PTR _szEffectname$[ebp]
  00010	c1 e0 08	 shl	 eax, 8
  00013	03 c1		 add	 eax, ecx
  00015	50		 push	 eax
  00016	e8 00 00 00 00	 call	 _sprintf
  0001b	83 c4 08	 add	 esp, 8

; 441  : }

  0001e	5d		 pop	 ebp
  0001f	c2 08 00	 ret	 8
?SetItemShiningTableData@CItemData@@QAEXEPBD@Z ENDP	; CItemData::SetItemShiningTableData
_TEXT	ENDS
; Function compile flags: /Ogtp
; File C:\Users\ALEXANDER\Desktop\Cliente\COPY_FISH_WON_NEW\Binario\Client\GameLib\ItemData.cpp
;	COMDAT ?SetItemTableData@CItemData@@QAEXPAUSItemTable_r156@1@@Z
_TEXT	SEGMENT
_pItemTable$ = 8					; size = 4
?SetItemTableData@CItemData@@QAEXPAUSItemTable_r156@1@@Z PROC ; CItemData::SetItemTableData, COMDAT
; _this$ = ecx

; 171  : {

  00000	55		 push	 ebp
  00001	8b ec		 mov	 ebp, esp
  00003	56		 push	 esi

; 172  : 	memcpy(&m_ItemTable, pItemTable, sizeof(TItemTable));

  00004	8b 75 08	 mov	 esi, DWORD PTR _pItemTable$[ebp]
  00007	57		 push	 edi
  00008	8d b9 cc 00 00
	00		 lea	 edi, DWORD PTR [ecx+204]
  0000e	b9 27 00 00 00	 mov	 ecx, 39			; 00000027H
  00013	f3 a5		 rep movsd
  00015	5f		 pop	 edi
  00016	5e		 pop	 esi

; 173  : }

  00017	5d		 pop	 ebp
  00018	c2 04 00	 ret	 4
?SetItemTableData@CItemData@@QAEXPAUSItemTable_r156@1@@Z ENDP ; CItemData::SetItemTableData
_TEXT	ENDS
; Function compile flags: /Ogtp
; File C:\Users\ALEXANDER\Desktop\Cliente\COPY_FISH_WON_NEW\Binario\Client\GameLib\ItemData.cpp
; File D:\visual studio 2019\visual studio 2019\VC\Tools\MSVC\14.29.30133\include\xstring
; File C:\Users\ALEXANDER\Desktop\Cliente\COPY_FISH_WON_NEW\Binario\Client\GameLib\ItemData.cpp
; File D:\visual studio 2019\visual studio 2019\VC\Tools\MSVC\14.29.30133\include\xstring
; File C:\Users\ALEXANDER\Desktop\Cliente\COPY_FISH_WON_NEW\Binario\Client\GameLib\ItemData.cpp
; File D:\visual studio 2019\visual studio 2019\VC\Tools\MSVC\14.29.30133\include\xstring
; File C:\Users\ALEXANDER\Desktop\Cliente\COPY_FISH_WON_NEW\Binario\Client\GameLib\ItemData.cpp
; File D:\visual studio 2019\visual studio 2019\VC\Tools\MSVC\14.29.30133\include\xstring
; File C:\Users\ALEXANDER\Desktop\Cliente\COPY_FISH_WON_NEW\Binario\Client\GameLib\ItemData.cpp
; File D:\visual studio 2019\visual studio 2019\VC\Tools\MSVC\14.29.30133\include\xstring
; File C:\Users\ALEXANDER\Desktop\Cliente\COPY_FISH_WON_NEW\Binario\Client\GameLib\ItemData.cpp
; File D:\visual studio 2019\visual studio 2019\VC\Tools\MSVC\14.29.30133\include\xstring
; File C:\Users\ALEXANDER\Desktop\Cliente\COPY_FISH_WON_NEW\Binario\Client\GameLib\ItemData.cpp
;	COMDAT ?SetDefaultItemData@CItemData@@QAEXPBD0@Z
_TEXT	SEGMENT
_c_szIconFileName$ = 8					; size = 4
tv170 = 12						; size = 4
_c_szModelFileName$ = 12				; size = 4
?SetDefaultItemData@CItemData@@QAEXPBD0@Z PROC		; CItemData::SetDefaultItemData, COMDAT
; _this$ = ecx

; 106  : {

  00000	55		 push	 ebp
  00001	8b ec		 mov	 ebp, esp
  00003	53		 push	 ebx
  00004	56		 push	 esi

; 107  : 	if(c_szModelFileName)

  00005	8b 75 0c	 mov	 esi, DWORD PTR _c_szModelFileName$[ebp]
  00008	57		 push	 edi
  00009	8b f9		 mov	 edi, ecx
  0000b	8d 4f 04	 lea	 ecx, DWORD PTR [edi+4]
  0000e	85 f6		 test	 esi, esi
  00010	74 31		 je	 SHORT $LN2@SetDefault
; File D:\visual studio 2019\visual studio 2019\VC\Tools\MSVC\14.29.30133\include\xstring

; 404  :         return _CSTD strlen(reinterpret_cast<const char*>(_First));

  00012	8b d6		 mov	 edx, esi
  00014	8d 42 01	 lea	 eax, DWORD PTR [edx+1]
  00017	89 45 0c	 mov	 DWORD PTR tv170[ebp], eax
  0001a	66 0f 1f 44 00
	00		 npad	 6
$LL53@SetDefault:
  00020	8a 02		 mov	 al, BYTE PTR [edx]
  00022	42		 inc	 edx
  00023	84 c0		 test	 al, al
  00025	75 f9		 jne	 SHORT $LL53@SetDefault
  00027	2b 55 0c	 sub	 edx, DWORD PTR tv170[ebp]

; 3230 :         return assign(_Ptr, _Convert_size<size_type>(_Traits::length(_Ptr)));

  0002a	52		 push	 edx
  0002b	56		 push	 esi
  0002c	e8 00 00 00 00	 call	 ?assign@?$basic_string@DU?$char_traits@D@std@@V?$allocator@D@2@@std@@QAEAAV12@QBDI@Z ; std::basic_string<char,std::char_traits<char>,std::allocator<char> >::assign

; 404  :         return _CSTD strlen(reinterpret_cast<const char*>(_First));

  00031	8b c6		 mov	 eax, esi
  00033	8d 48 01	 lea	 ecx, DWORD PTR [eax+1]
$LL54@SetDefault:
  00036	8a 10		 mov	 dl, BYTE PTR [eax]
  00038	40		 inc	 eax
  00039	84 d2		 test	 dl, dl
  0003b	75 f9		 jne	 SHORT $LL54@SetDefault
  0003d	2b c1		 sub	 eax, ecx

; 3230 :         return assign(_Ptr, _Convert_size<size_type>(_Traits::length(_Ptr)));

  0003f	50		 push	 eax
  00040	56		 push	 esi
; File C:\Users\ALEXANDER\Desktop\Cliente\COPY_FISH_WON_NEW\Binario\Client\GameLib\ItemData.cpp

; 111  : 	}

  00041	eb 13		 jmp	 SHORT $LN56@SetDefault
$LN2@SetDefault:
; File D:\visual studio 2019\visual studio 2019\VC\Tools\MSVC\14.29.30133\include\xstring

; 3230 :         return assign(_Ptr, _Convert_size<size_type>(_Traits::length(_Ptr)));

  00043	6a 00		 push	 0
  00045	68 00 00 00 00	 push	 OFFSET ??_C@_00CNPNBAHC@@
  0004a	e8 00 00 00 00	 call	 ?assign@?$basic_string@DU?$char_traits@D@std@@V?$allocator@D@2@@std@@QAEAAV12@QBDI@Z ; std::basic_string<char,std::char_traits<char>,std::allocator<char> >::assign
  0004f	6a 22		 push	 34			; 00000022H
  00051	68 00 00 00 00	 push	 OFFSET ??_C@_0CD@GGDHOLJD@d?3?1ymir?5work?1item?1etc?1item_bag?4@
$LN56@SetDefault:

; 404  :         return _CSTD strlen(reinterpret_cast<const char*>(_First));

  00056	8d 4f 34	 lea	 ecx, DWORD PTR [edi+52]
  00059	e8 00 00 00 00	 call	 ?assign@?$basic_string@DU?$char_traits@D@std@@V?$allocator@D@2@@std@@QAEAAV12@QBDI@Z ; std::basic_string<char,std::char_traits<char>,std::allocator<char> >::assign
  0005e	8b 55 08	 mov	 edx, DWORD PTR _c_szIconFileName$[ebp]
  00061	8b ca		 mov	 ecx, edx
  00063	8d 71 01	 lea	 esi, DWORD PTR [ecx+1]
$LL55@SetDefault:
  00066	8a 01		 mov	 al, BYTE PTR [ecx]
  00068	41		 inc	 ecx
  00069	84 c0		 test	 al, al
  0006b	75 f9		 jne	 SHORT $LL55@SetDefault
  0006d	2b ce		 sub	 ecx, esi

; 3230 :         return assign(_Ptr, _Convert_size<size_type>(_Traits::length(_Ptr)));

  0006f	51		 push	 ecx
  00070	52		 push	 edx
; File C:\Users\ALEXANDER\Desktop\Cliente\COPY_FISH_WON_NEW\Binario\Client\GameLib\ItemData.cpp

; 117  : 	m_strIconFileName = c_szIconFileName;

  00071	8d 4f 4c	 lea	 ecx, DWORD PTR [edi+76]
; File D:\visual studio 2019\visual studio 2019\VC\Tools\MSVC\14.29.30133\include\xstring

; 3230 :         return assign(_Ptr, _Convert_size<size_type>(_Traits::length(_Ptr)));

  00074	e8 00 00 00 00	 call	 ?assign@?$basic_string@DU?$char_traits@D@std@@V?$allocator@D@2@@std@@QAEAAV12@QBDI@Z ; std::basic_string<char,std::char_traits<char>,std::allocator<char> >::assign
  00079	6a 00		 push	 0
  0007b	68 00 00 00 00	 push	 OFFSET ??_C@_00CNPNBAHC@@
; File C:\Users\ALEXANDER\Desktop\Cliente\COPY_FISH_WON_NEW\Binario\Client\GameLib\ItemData.cpp

; 119  : 	m_strSubModelFileName = "";

  00080	8d 4f 1c	 lea	 ecx, DWORD PTR [edi+28]
; File D:\visual studio 2019\visual studio 2019\VC\Tools\MSVC\14.29.30133\include\xstring

; 3230 :         return assign(_Ptr, _Convert_size<size_type>(_Traits::length(_Ptr)));

  00083	e8 00 00 00 00	 call	 ?assign@?$basic_string@DU?$char_traits@D@std@@V?$allocator@D@2@@std@@QAEAAV12@QBDI@Z ; std::basic_string<char,std::char_traits<char>,std::allocator<char> >::assign
  00088	6a 00		 push	 0
  0008a	68 00 00 00 00	 push	 OFFSET ??_C@_00CNPNBAHC@@
; File C:\Users\ALEXANDER\Desktop\Cliente\COPY_FISH_WON_NEW\Binario\Client\GameLib\ItemData.cpp

; 120  : 	m_strDescription = "";

  0008f	8d 4f 64	 lea	 ecx, DWORD PTR [edi+100]
; File D:\visual studio 2019\visual studio 2019\VC\Tools\MSVC\14.29.30133\include\xstring

; 3230 :         return assign(_Ptr, _Convert_size<size_type>(_Traits::length(_Ptr)));

  00092	e8 00 00 00 00	 call	 ?assign@?$basic_string@DU?$char_traits@D@std@@V?$allocator@D@2@@std@@QAEAAV12@QBDI@Z ; std::basic_string<char,std::char_traits<char>,std::allocator<char> >::assign
  00097	6a 00		 push	 0
  00099	68 00 00 00 00	 push	 OFFSET ??_C@_00CNPNBAHC@@
; File C:\Users\ALEXANDER\Desktop\Cliente\COPY_FISH_WON_NEW\Binario\Client\GameLib\ItemData.cpp

; 121  : 	m_strSummary = "";

  0009e	8d 4f 7c	 lea	 ecx, DWORD PTR [edi+124]
; File D:\visual studio 2019\visual studio 2019\VC\Tools\MSVC\14.29.30133\include\xstring

; 3230 :         return assign(_Ptr, _Convert_size<size_type>(_Traits::length(_Ptr)));

  000a1	e8 00 00 00 00	 call	 ?assign@?$basic_string@DU?$char_traits@D@std@@V?$allocator@D@2@@std@@QAEAAV12@QBDI@Z ; std::basic_string<char,std::char_traits<char>,std::allocator<char> >::assign
  000a6	0f 57 c0	 xorps	 xmm0, xmm0
; File C:\Users\ALEXANDER\Desktop\Cliente\COPY_FISH_WON_NEW\Binario\Client\GameLib\ItemData.cpp

; 124  : 	__LoadFiles();

  000a9	8b cf		 mov	 ecx, edi
  000ab	66 0f d6 87 53
	01 00 00	 movq	 QWORD PTR [edi+339], xmm0
  000b3	c7 87 5b 01 00
	00 00 00 00 00	 mov	 DWORD PTR [edi+347], 0
  000bd	e8 00 00 00 00	 call	 ?__LoadFiles@CItemData@@IAEXXZ ; CItemData::__LoadFiles
  000c2	5f		 pop	 edi
  000c3	5e		 pop	 esi
  000c4	5b		 pop	 ebx

; 125  : }

  000c5	5d		 pop	 ebp
  000c6	c2 08 00	 ret	 8
?SetDefaultItemData@CItemData@@QAEXPBD0@Z ENDP		; CItemData::SetDefaultItemData
_TEXT	ENDS
; Function compile flags: /Ogtp
; File C:\Users\ALEXANDER\Desktop\Cliente\COPY_FISH_WON_NEW\Binario\Client\GameLib\ItemData.cpp
;	COMDAT ?IsEquipment@CItemData@@QBEHXZ
_TEXT	SEGMENT
?IsEquipment@CItemData@@QBEHXZ PROC			; CItemData::IsEquipment, COMDAT
; _this$ = ecx

; 426  : 	switch (GetType())

  00000	e8 00 00 00 00	 call	 ?GetType@CItemData@@QBEEXZ ; CItemData::GetType
  00005	0f b6 c0	 movzx	 eax, al
  00008	83 e8 01	 sub	 eax, 1
  0000b	74 08		 je	 SHORT $LN4@IsEquipmen
  0000d	83 e8 01	 sub	 eax, 1
  00010	74 03		 je	 SHORT $LN4@IsEquipmen

; 431  : 			break;
; 432  : 	}
; 433  : 
; 434  : 	return FALSE;

  00012	33 c0		 xor	 eax, eax

; 435  : }

  00014	c3		 ret	 0
$LN4@IsEquipmen:

; 427  : 	{
; 428  : 		case ITEM_TYPE_WEAPON:
; 429  : 		case ITEM_TYPE_ARMOR:
; 430  : 			return TRUE;

  00015	b8 01 00 00 00	 mov	 eax, 1

; 435  : }

  0001a	c3		 ret	 0
?IsEquipment@CItemData@@QBEHXZ ENDP			; CItemData::IsEquipment
_TEXT	ENDS
; Function compile flags: /Ogtp
; File C:\Users\ALEXANDER\Desktop\Cliente\COPY_FISH_WON_NEW\Binario\Client\GameLib\ItemData.cpp
;	COMDAT ?GetSpecularPowerf@CItemData@@QBEMXZ
_TEXT	SEGMENT
tv78 = -4						; size = 4
?GetSpecularPowerf@CItemData@@QBEMXZ PROC		; CItemData::GetSpecularPowerf, COMDAT
; _this$ = ecx

; 413  : {

  00000	55		 push	 ebp
  00001	8b ec		 mov	 ebp, esp
  00003	51		 push	 ecx

; 414  : 	UINT uSpecularPower=GetSpecularPoweru();

  00004	e8 00 00 00 00	 call	 ?GetSpecularPoweru@CItemData@@QBEIXZ ; CItemData::GetSpecularPoweru
  00009	66 0f 6e c0	 movd	 xmm0, eax

; 415  : 
; 416  : 	return float(uSpecularPower) / 100.0f;

  0000d	f3 0f e6 c0	 cvtdq2pd xmm0, xmm0
  00011	c1 e8 1f	 shr	 eax, 31			; 0000001fH
  00014	f2 0f 58 04 c5
	00 00 00 00	 addsd	 xmm0, QWORD PTR __xmm@41f00000000000000000000000000000[eax*8]
  0001d	66 0f 5a c0	 cvtpd2ps xmm0, xmm0
  00021	f3 0f 5e 05 00
	00 00 00	 divss	 xmm0, DWORD PTR __real@42c80000
  00029	f3 0f 11 45 fc	 movss	 DWORD PTR tv78[ebp], xmm0
  0002e	d9 45 fc	 fld	 DWORD PTR tv78[ebp]

; 417  : }

  00031	8b e5		 mov	 esp, ebp
  00033	5d		 pop	 ebp
  00034	c3		 ret	 0
?GetSpecularPowerf@CItemData@@QBEMXZ ENDP		; CItemData::GetSpecularPowerf
_TEXT	ENDS
; Function compile flags: /Ogtp
; File C:\Users\ALEXANDER\Desktop\Cliente\COPY_FISH_WON_NEW\Binario\Client\GameLib\ItemData.cpp
;	COMDAT ?GetSpecularPoweru@CItemData@@QBEIXZ
_TEXT	SEGMENT
?GetSpecularPoweru@CItemData@@QBEIXZ PROC		; CItemData::GetSpecularPoweru, COMDAT
; _this$ = ecx

; 409  : 	return m_ItemTable.bSpecular;

  00000	0f b6 81 66 01
	00 00		 movzx	 eax, BYTE PTR [ecx+358]

; 410  : }

  00007	c3		 ret	 0
?GetSpecularPoweru@CItemData@@QBEIXZ ENDP		; CItemData::GetSpecularPoweru
_TEXT	ENDS
; Function compile flags: /Ogtp
; File C:\Users\ALEXANDER\Desktop\Cliente\COPY_FISH_WON_NEW\Binario\Client\GameLib\ItemData.cpp
;	COMDAT ?GetIconNumber@CItemData@@QBEKXZ
_TEXT	SEGMENT
?GetIconNumber@CItemData@@QBEKXZ PROC			; CItemData::GetIconNumber, COMDAT
; _this$ = ecx

; 402  : 	return m_ItemTable.dwVnum;

  00000	8b 81 cc 00 00
	00		 mov	 eax, DWORD PTR [ecx+204]

; 403  : //!@#
; 404  : //	return m_ItemTable.dwIconNumber;
; 405  : }

  00006	c3		 ret	 0
?GetIconNumber@CItemData@@QBEKXZ ENDP			; CItemData::GetIconNumber
_TEXT	ENDS
; Function compile flags: /Ogtp
; File C:\Users\ALEXANDER\Desktop\Cliente\COPY_FISH_WON_NEW\Binario\Client\GameLib\ItemData.cpp
;	COMDAT ?GetSocketCount@CItemData@@QBEHXZ
_TEXT	SEGMENT
?GetSocketCount@CItemData@@QBEHXZ PROC			; CItemData::GetSocketCount, COMDAT
; _this$ = ecx

; 397  : 	return m_ItemTable.bGainSocketPct;

  00000	0f b6 81 67 01
	00 00		 movzx	 eax, BYTE PTR [ecx+359]

; 398  : }

  00007	c3		 ret	 0
?GetSocketCount@CItemData@@QBEHXZ ENDP			; CItemData::GetSocketCount
_TEXT	ENDS
; Function compile flags: /Ogtp
; File C:\Users\ALEXANDER\Desktop\Cliente\COPY_FISH_WON_NEW\Binario\Client\GameLib\ItemData.cpp
;	COMDAT ?SetSocket@CItemData@@QAEJEK@Z
_TEXT	SEGMENT
_byIndex$ = 8						; size = 1
_value$ = 12						; size = 4
?SetSocket@CItemData@@QAEJEK@Z PROC			; CItemData::SetSocket, COMDAT
; _this$ = ecx

; 374  : {

  00000	55		 push	 ebp
  00001	8b ec		 mov	 ebp, esp

; 375  : 	if (byIndex >= ITEM_SOCKET_MAX_NUM)

  00003	8a 45 08	 mov	 al, BYTE PTR _byIndex$[ebp]
  00006	8b d1		 mov	 edx, ecx
  00008	3c 03		 cmp	 al, 3
  0000a	72 09		 jb	 SHORT $LN2@SetSocket

; 376  : 	{
; 377  : 		assert(byIndex < ITEM_SOCKET_MAX_NUM);
; 378  : 		return -1;

  0000c	b8 ff ff ff ff	 mov	 eax, -1

; 382  : }

  00011	5d		 pop	 ebp
  00012	c2 08 00	 ret	 8
$LN2@SetSocket:

; 379  : 	}
; 380  : 
; 381  : 	return m_ItemTable.alSockets[byIndex] = value;

  00015	0f b6 c8	 movzx	 ecx, al
  00018	8b 45 0c	 mov	 eax, DWORD PTR _value$[ebp]
  0001b	89 84 8a 53 01
	00 00		 mov	 DWORD PTR [edx+ecx*4+339], eax

; 382  : }

  00022	5d		 pop	 ebp
  00023	c2 08 00	 ret	 8
?SetSocket@CItemData@@QAEJEK@Z ENDP			; CItemData::SetSocket
_TEXT	ENDS
; Function compile flags: /Ogtp
; File C:\Users\ALEXANDER\Desktop\Cliente\COPY_FISH_WON_NEW\Binario\Client\GameLib\ItemData.cpp
;	COMDAT ?GetSocket@CItemData@@QBEJE@Z
_TEXT	SEGMENT
_byIndex$ = 8						; size = 1
?GetSocket@CItemData@@QBEJE@Z PROC			; CItemData::GetSocket, COMDAT
; _this$ = ecx

; 385  : {

  00000	55		 push	 ebp
  00001	8b ec		 mov	 ebp, esp

; 386  : 	if (byIndex >= ITEM_SOCKET_MAX_NUM)

  00003	8a 45 08	 mov	 al, BYTE PTR _byIndex$[ebp]
  00006	3c 03		 cmp	 al, 3
  00008	72 09		 jb	 SHORT $LN2@GetSocket

; 387  : 	{
; 388  : 		assert(byIndex < ITEM_SOCKET_MAX_NUM);
; 389  : 		return -1;

  0000a	b8 ff ff ff ff	 mov	 eax, -1

; 393  : }

  0000f	5d		 pop	 ebp
  00010	c2 04 00	 ret	 4
$LN2@GetSocket:

; 390  : 	}
; 391  : 
; 392  : 	return m_ItemTable.alSockets[byIndex];

  00013	0f b6 c0	 movzx	 eax, al
  00016	8b 84 81 53 01
	00 00		 mov	 eax, DWORD PTR [ecx+eax*4+339]

; 393  : }

  0001d	5d		 pop	 ebp
  0001e	c2 04 00	 ret	 4
?GetSocket@CItemData@@QBEJE@Z ENDP			; CItemData::GetSocket
_TEXT	ENDS
; Function compile flags: /Ogtp
; File C:\Users\ALEXANDER\Desktop\Cliente\COPY_FISH_WON_NEW\Binario\Client\GameLib\ItemData.cpp
;	COMDAT ?GetValue@CItemData@@QBEJE@Z
_TEXT	SEGMENT
_byIndex$ = 8						; size = 1
?GetValue@CItemData@@QBEJE@Z PROC			; CItemData::GetValue, COMDAT
; _this$ = ecx

; 363  : {

  00000	55		 push	 ebp
  00001	8b ec		 mov	 ebp, esp

; 364  : 	if (byIndex >= ITEM_VALUES_MAX_NUM)

  00003	8a 45 08	 mov	 al, BYTE PTR _byIndex$[ebp]
  00006	3c 06		 cmp	 al, 6
  00008	72 06		 jb	 SHORT $LN2@GetValue

; 365  : 	{
; 366  : 		assert(byIndex < ITEM_VALUES_MAX_NUM);
; 367  : 		return 0;

  0000a	33 c0		 xor	 eax, eax

; 371  : }

  0000c	5d		 pop	 ebp
  0000d	c2 04 00	 ret	 4
$LN2@GetValue:

; 368  : 	}
; 369  : 
; 370  : 	return m_ItemTable.alValues[byIndex];

  00010	0f b6 c0	 movzx	 eax, al
  00013	8b 84 81 3b 01
	00 00		 mov	 eax, DWORD PTR [ecx+eax*4+315]

; 371  : }

  0001a	5d		 pop	 ebp
  0001b	c2 04 00	 ret	 4
?GetValue@CItemData@@QBEJE@Z ENDP			; CItemData::GetValue
_TEXT	ENDS
; Function compile flags: /Ogtp
; File C:\Users\ALEXANDER\Desktop\Cliente\COPY_FISH_WON_NEW\Binario\Client\GameLib\ItemData.cpp
;	COMDAT ?GetApply@CItemData@@QBEHEPAUSItemApply@1@@Z
_TEXT	SEGMENT
_byIndex$ = 8						; size = 1
_pItemApply$ = 12					; size = 4
?GetApply@CItemData@@QBEHEPAUSItemApply@1@@Z PROC	; CItemData::GetApply, COMDAT
; _this$ = ecx

; 351  : {

  00000	55		 push	 ebp
  00001	8b ec		 mov	 ebp, esp

; 352  : 	if (byIndex >= ITEM_APPLY_MAX_NUM)

  00003	8a 45 08	 mov	 al, BYTE PTR _byIndex$[ebp]
  00006	3c 03		 cmp	 al, 3
  00008	72 06		 jb	 SHORT $LN2@GetApply

; 353  : 	{
; 354  : 		assert(byIndex < ITEM_APPLY_MAX_NUM);
; 355  : 		return FALSE;

  0000a	33 c0		 xor	 eax, eax

; 360  : }

  0000c	5d		 pop	 ebp
  0000d	c2 08 00	 ret	 8
$LN2@GetApply:

; 356  : 	}
; 357  : 
; 358  : 	*pItemApply = m_ItemTable.aApplies[byIndex];

  00010	0f b6 c0	 movzx	 eax, al
  00013	83 c0 3c	 add	 eax, 60			; 0000003cH
  00016	8d 14 81	 lea	 edx, DWORD PTR [ecx+eax*4]
  00019	8b 4d 0c	 mov	 ecx, DWORD PTR _pItemApply$[ebp]
  0001c	03 d0		 add	 edx, eax
  0001e	8b 02		 mov	 eax, DWORD PTR [edx]
  00020	89 01		 mov	 DWORD PTR [ecx], eax
  00022	8a 42 04	 mov	 al, BYTE PTR [edx+4]
  00025	88 41 04	 mov	 BYTE PTR [ecx+4], al

; 359  : 	return TRUE;

  00028	b8 01 00 00 00	 mov	 eax, 1

; 360  : }

  0002d	5d		 pop	 ebp
  0002e	c2 08 00	 ret	 8
?GetApply@CItemData@@QBEHEPAUSItemApply@1@@Z ENDP	; CItemData::GetApply
_TEXT	ENDS
; Function compile flags: /Ogtp
; File C:\Users\ALEXANDER\Desktop\Cliente\COPY_FISH_WON_NEW\Binario\Client\GameLib\ItemData.cpp
;	COMDAT ?GetLimit@CItemData@@QBEHEPAUSItemLimit@1@@Z
_TEXT	SEGMENT
_byIndex$ = 8						; size = 1
_pItemLimit$ = 12					; size = 4
?GetLimit@CItemData@@QBEHEPAUSItemLimit@1@@Z PROC	; CItemData::GetLimit, COMDAT
; _this$ = ecx

; 338  : {

  00000	55		 push	 ebp
  00001	8b ec		 mov	 ebp, esp

; 339  : 	if (byIndex >= ITEM_LIMIT_MAX_NUM)

  00003	8a 45 08	 mov	 al, BYTE PTR _byIndex$[ebp]
  00006	3c 02		 cmp	 al, 2
  00008	72 06		 jb	 SHORT $LN2@GetLimit

; 340  : 	{
; 341  : 		assert(byIndex < ITEM_LIMIT_MAX_NUM);
; 342  : 		return FALSE;

  0000a	33 c0		 xor	 eax, eax

; 348  : }

  0000c	5d		 pop	 ebp
  0000d	c2 08 00	 ret	 8
$LN2@GetLimit:

; 343  : 	}
; 344  : 
; 345  : 	*pItemLimit = m_ItemTable.aLimits[byIndex];

  00010	0f b6 c0	 movzx	 eax, al
  00013	83 c0 3a	 add	 eax, 58			; 0000003aH
  00016	8d 14 81	 lea	 edx, DWORD PTR [ecx+eax*4]
  00019	8b 4d 0c	 mov	 ecx, DWORD PTR _pItemLimit$[ebp]
  0001c	03 d0		 add	 edx, eax
  0001e	8b 02		 mov	 eax, DWORD PTR [edx]
  00020	89 01		 mov	 DWORD PTR [ecx], eax
  00022	8a 42 04	 mov	 al, BYTE PTR [edx+4]
  00025	88 41 04	 mov	 BYTE PTR [ecx+4], al

; 346  : 
; 347  : 	return TRUE;

  00028	b8 01 00 00 00	 mov	 eax, 1

; 348  : }

  0002d	5d		 pop	 ebp
  0002e	c2 08 00	 ret	 8
?GetLimit@CItemData@@QBEHEPAUSItemLimit@1@@Z ENDP	; CItemData::GetLimit
_TEXT	ENDS
; Function compile flags: /Ogtp
; File C:\Users\ALEXANDER\Desktop\Cliente\COPY_FISH_WON_NEW\Binario\Client\GameLib\ItemData.cpp
;	COMDAT ?GetISellItemPrice@CItemData@@QBEKXZ
_TEXT	SEGMENT
?GetISellItemPrice@CItemData@@QBEKXZ PROC		; CItemData::GetISellItemPrice, COMDAT
; _this$ = ecx

; 333  : 	return m_ItemTable.dwISellItemPrice;

  00000	8b 81 1e 01 00
	00		 mov	 eax, DWORD PTR [ecx+286]

; 334  : }

  00006	c3		 ret	 0
?GetISellItemPrice@CItemData@@QBEKXZ ENDP		; CItemData::GetISellItemPrice
_TEXT	ENDS
; Function compile flags: /Ogtp
; File C:\Users\ALEXANDER\Desktop\Cliente\COPY_FISH_WON_NEW\Binario\Client\GameLib\ItemData.cpp
;	COMDAT ?GetIBuyItemPrice@CItemData@@QBEKXZ
_TEXT	SEGMENT
?GetIBuyItemPrice@CItemData@@QBEKXZ PROC		; CItemData::GetIBuyItemPrice, COMDAT
; _this$ = ecx

; 328  : 	return m_ItemTable.dwIBuyItemPrice;

  00000	8b 81 1a 01 00
	00		 mov	 eax, DWORD PTR [ecx+282]

; 329  : }

  00006	c3		 ret	 0
?GetIBuyItemPrice@CItemData@@QBEKXZ ENDP		; CItemData::GetIBuyItemPrice
_TEXT	ENDS
; Function compile flags: /Ogtp
; File C:\Users\ALEXANDER\Desktop\Cliente\COPY_FISH_WON_NEW\Binario\Client\GameLib\ItemData.cpp
;	COMDAT ?GetWearFlags@CItemData@@QBEKXZ
_TEXT	SEGMENT
?GetWearFlags@CItemData@@QBEKXZ PROC			; CItemData::GetWearFlags, COMDAT
; _this$ = ecx

; 323  : 	return m_ItemTable.dwWearFlags;

  00000	8b 81 12 01 00
	00		 mov	 eax, DWORD PTR [ecx+274]

; 324  : }

  00006	c3		 ret	 0
?GetWearFlags@CItemData@@QBEKXZ ENDP			; CItemData::GetWearFlags
_TEXT	ENDS
; Function compile flags: /Ogtp
; File C:\Users\ALEXANDER\Desktop\Cliente\COPY_FISH_WON_NEW\Binario\Client\GameLib\ItemData.cpp
;	COMDAT ?HasNextGrade@CItemData@@QBEHXZ
_TEXT	SEGMENT
?HasNextGrade@CItemData@@QBEHXZ PROC			; CItemData::HasNextGrade, COMDAT
; _this$ = ecx

; 318  : 	return 0 != m_ItemTable.dwRefinedVnum;

  00000	33 c0		 xor	 eax, eax
  00002	39 81 5f 01 00
	00		 cmp	 DWORD PTR [ecx+351], eax
  00008	0f 95 c0	 setne	 al

; 319  : }

  0000b	c3		 ret	 0
?HasNextGrade@CItemData@@QBEHXZ ENDP			; CItemData::HasNextGrade
_TEXT	ENDS
; Function compile flags: /Ogtp
; File C:\Users\ALEXANDER\Desktop\Cliente\COPY_FISH_WON_NEW\Binario\Client\GameLib\ItemData.cpp
;	COMDAT ?IsWearableFlag@CItemData@@QBEHK@Z
_TEXT	SEGMENT
_dwFlag$ = 8						; size = 4
?IsWearableFlag@CItemData@@QBEHK@Z PROC			; CItemData::IsWearableFlag, COMDAT
; _this$ = ecx

; 312  : {

  00000	55		 push	 ebp
  00001	8b ec		 mov	 ebp, esp

; 313  : 	return (dwFlag & m_ItemTable.dwWearFlags) != 0;

  00003	8b 81 12 01 00
	00		 mov	 eax, DWORD PTR [ecx+274]
  00009	23 45 08	 and	 eax, DWORD PTR _dwFlag$[ebp]
  0000c	f7 d8		 neg	 eax
  0000e	1b c0		 sbb	 eax, eax
  00010	f7 d8		 neg	 eax

; 314  : }

  00012	5d		 pop	 ebp
  00013	c2 04 00	 ret	 4
?IsWearableFlag@CItemData@@QBEHK@Z ENDP			; CItemData::IsWearableFlag
_TEXT	ENDS
; Function compile flags: /Ogtp
; File C:\Users\ALEXANDER\Desktop\Cliente\COPY_FISH_WON_NEW\Binario\Client\GameLib\ItemData.cpp
;	COMDAT ?IsFlag@CItemData@@QBEHK@Z
_TEXT	SEGMENT
_dwFlag$ = 8						; size = 4
?IsFlag@CItemData@@QBEHK@Z PROC				; CItemData::IsFlag, COMDAT
; _this$ = ecx

; 307  : {

  00000	55		 push	 ebp
  00001	8b ec		 mov	 ebp, esp

; 308  : 	return (dwFlag & m_ItemTable.dwFlags) != 0;

  00003	8b 81 0e 01 00
	00		 mov	 eax, DWORD PTR [ecx+270]
  00009	23 45 08	 and	 eax, DWORD PTR _dwFlag$[ebp]
  0000c	f7 d8		 neg	 eax
  0000e	1b c0		 sbb	 eax, eax
  00010	f7 d8		 neg	 eax

; 309  : }

  00012	5d		 pop	 ebp
  00013	c2 04 00	 ret	 4
?IsFlag@CItemData@@QBEHK@Z ENDP				; CItemData::IsFlag
_TEXT	ENDS
; Function compile flags: /Ogtp
; File C:\Users\ALEXANDER\Desktop\Cliente\COPY_FISH_WON_NEW\Binario\Client\GameLib\ItemData.cpp
;	COMDAT ?IsAntiFlag@CItemData@@QBEHK@Z
_TEXT	SEGMENT
_dwFlag$ = 8						; size = 4
?IsAntiFlag@CItemData@@QBEHK@Z PROC			; CItemData::IsAntiFlag, COMDAT
; _this$ = ecx

; 302  : {

  00000	55		 push	 ebp
  00001	8b ec		 mov	 ebp, esp

; 303  : 	return (dwFlag & m_ItemTable.dwAntiFlags) != 0;

  00003	8b 81 0a 01 00
	00		 mov	 eax, DWORD PTR [ecx+266]
  00009	23 45 08	 and	 eax, DWORD PTR _dwFlag$[ebp]
  0000c	f7 d8		 neg	 eax
  0000e	1b c0		 sbb	 eax, eax
  00010	f7 d8		 neg	 eax

; 304  : }

  00012	5d		 pop	 ebp
  00013	c2 04 00	 ret	 4
?IsAntiFlag@CItemData@@QBEHK@Z ENDP			; CItemData::IsAntiFlag
_TEXT	ENDS
; Function compile flags: /Ogtp
; File C:\Users\ALEXANDER\Desktop\Cliente\COPY_FISH_WON_NEW\Binario\Client\GameLib\ItemData.cpp
;	COMDAT ?GetSize@CItemData@@QBEEXZ
_TEXT	SEGMENT
?GetSize@CItemData@@QBEEXZ PROC				; CItemData::GetSize, COMDAT
; _this$ = ecx

; 298  : 	return m_ItemTable.bSize;

  00000	8a 81 09 01 00
	00		 mov	 al, BYTE PTR [ecx+265]

; 299  : }

  00006	c3		 ret	 0
?GetSize@CItemData@@QBEEXZ ENDP				; CItemData::GetSize
_TEXT	ENDS
; Function compile flags: /Ogtp
; File C:\Users\ALEXANDER\Desktop\Cliente\COPY_FISH_WON_NEW\Binario\Client\GameLib\ItemData.cpp
;	COMDAT ?GetWeaponType@CItemData@@QBEKXZ
_TEXT	SEGMENT
?GetWeaponType@CItemData@@QBEKXZ PROC			; CItemData::GetWeaponType, COMDAT
; _this$ = ecx

; 288  : {

  00000	56		 push	 esi
  00001	8b f1		 mov	 esi, ecx

; 289  : #ifdef ENABLE_WEAPON_COSTUME_SYSTEM
; 290  : 	if (GetType()==CItemData::ITEM_TYPE_COSTUME && GetSubType()==CItemData::COSTUME_WEAPON)

  00003	e8 00 00 00 00	 call	 ?GetType@CItemData@@QBEEXZ ; CItemData::GetType
  00008	3c 1c		 cmp	 al, 28			; 0000001cH
  0000a	75 16		 jne	 SHORT $LN2@GetWeaponT
  0000c	8b ce		 mov	 ecx, esi
  0000e	e8 00 00 00 00	 call	 ?GetSubType@CItemData@@QBEEXZ ; CItemData::GetSubType
  00013	3c 04		 cmp	 al, 4
  00015	75 0b		 jne	 SHORT $LN2@GetWeaponT

; 291  : 		return GetValue(3);

  00017	6a 03		 push	 3
  00019	8b ce		 mov	 ecx, esi
  0001b	e8 00 00 00 00	 call	 ?GetValue@CItemData@@QBEJE@Z ; CItemData::GetValue
  00020	5e		 pop	 esi

; 294  : }

  00021	c3		 ret	 0
$LN2@GetWeaponT:

; 292  : #endif
; 293  : 	return m_ItemTable.bSubType;

  00022	0f b6 86 07 01
	00 00		 movzx	 eax, BYTE PTR [esi+263]
  00029	5e		 pop	 esi

; 294  : }

  0002a	c3		 ret	 0
?GetWeaponType@CItemData@@QBEKXZ ENDP			; CItemData::GetWeaponType
_TEXT	ENDS
; Function compile flags: /Ogtp
; File C:\Users\ALEXANDER\Desktop\Cliente\COPY_FISH_WON_NEW\Binario\Client\GameLib\ItemData.cpp
;	COMDAT ?GetUseTypeString@CItemData@@QBEPBDXZ
_TEXT	SEGMENT
?GetUseTypeString@CItemData@@QBEPBDXZ PROC		; CItemData::GetUseTypeString, COMDAT
; _this$ = ecx

; 234  : {

  00000	56		 push	 esi
  00001	8b f1		 mov	 esi, ecx

; 235  : 	if (GetType() != CItemData::ITEM_TYPE_USE)

  00003	e8 00 00 00 00	 call	 ?GetType@CItemData@@QBEEXZ ; CItemData::GetType
  00008	3c 03		 cmp	 al, 3
  0000a	74 07		 je	 SHORT $LN4@GetUseType

; 236  : 		return "NOT_USE_TYPE";

  0000c	b8 00 00 00 00	 mov	 eax, OFFSET ??_C@_0N@OHMMNDLH@NOT_USE_TYPE@
  00011	5e		 pop	 esi

; 284  : }

  00012	c3		 ret	 0
$LN4@GetUseType:

; 237  : 
; 238  : 	switch (GetSubType())

  00013	8b ce		 mov	 ecx, esi
  00015	e8 00 00 00 00	 call	 ?GetSubType@CItemData@@QBEEXZ ; CItemData::GetSubType
  0001a	0f b6 c0	 movzx	 eax, al
  0001d	83 c0 fe	 add	 eax, -2			; fffffffeH
  00020	83 f8 22	 cmp	 eax, 34			; 00000022H
  00023	0f 87 85 00 00
	00		 ja	 $LN2@GetUseType
  00029	0f b6 80 00 00
	00 00		 movzx	 eax, BYTE PTR $LN23@GetUseType[eax]
  00030	ff 24 85 00 00
	00 00		 jmp	 DWORD PTR $LN24@GetUseType[eax*4]
$LN5@GetUseType:

; 239  : 	{
; 240  : 		case USE_TUNING:
; 241  : 			return DEF_STR(USE_TUNING);

  00037	b8 00 00 00 00	 mov	 eax, OFFSET ??_C@_0L@JIILHJGL@USE_TUNING@
  0003c	5e		 pop	 esi

; 284  : }

  0003d	c3		 ret	 0
$LN6@GetUseType:

; 242  : 		case USE_DETACHMENT:
; 243  : 			return DEF_STR(USE_DETACHMENT);

  0003e	b8 00 00 00 00	 mov	 eax, OFFSET ??_C@_0P@MKAMDACK@USE_DETACHMENT@
  00043	5e		 pop	 esi

; 284  : }

  00044	c3		 ret	 0
$LN7@GetUseType:

; 244  : 		case USE_CLEAN_SOCKET:
; 245  : 			return DEF_STR(USE_CLEAN_SOCKET);

  00045	b8 00 00 00 00	 mov	 eax, OFFSET ??_C@_0BB@IPDHFONJ@USE_CLEAN_SOCKET@
  0004a	5e		 pop	 esi

; 284  : }

  0004b	c3		 ret	 0
$LN8@GetUseType:

; 246  : 		case USE_CHANGE_ATTRIBUTE:
; 247  : 			return DEF_STR(USE_CHANGE_ATTRIBUTE);

  0004c	b8 00 00 00 00	 mov	 eax, OFFSET ??_C@_0BF@OFJOINJA@USE_CHANGE_ATTRIBUTE@
  00051	5e		 pop	 esi

; 284  : }

  00052	c3		 ret	 0
$LN9@GetUseType:

; 248  : 		case USE_ADD_ATTRIBUTE:
; 249  : 			return DEF_STR(USE_ADD_ATTRIBUTE);

  00053	b8 00 00 00 00	 mov	 eax, OFFSET ??_C@_0BC@CNMGHFMD@USE_ADD_ATTRIBUTE@
  00058	5e		 pop	 esi

; 284  : }

  00059	c3		 ret	 0
$LN10@GetUseType:

; 250  : 		case USE_ADD_ATTRIBUTE2:
; 251  : 			return DEF_STR(USE_ADD_ATTRIBUTE2);

  0005a	b8 00 00 00 00	 mov	 eax, OFFSET ??_C@_0BD@OPDAABAO@USE_ADD_ATTRIBUTE2@
  0005f	5e		 pop	 esi

; 284  : }

  00060	c3		 ret	 0
$LN11@GetUseType:

; 252  : 		case USE_ADD_ACCESSORY_SOCKET:
; 253  : 			return DEF_STR(USE_ADD_ACCESSORY_SOCKET);

  00061	b8 00 00 00 00	 mov	 eax, OFFSET ??_C@_0BJ@NMHGAPML@USE_ADD_ACCESSORY_SOCKET@
  00066	5e		 pop	 esi

; 284  : }

  00067	c3		 ret	 0
$LN12@GetUseType:

; 254  : 		case USE_PUT_INTO_ACCESSORY_SOCKET:
; 255  : 			return DEF_STR(USE_PUT_INTO_ACCESSORY_SOCKET);

  00068	b8 00 00 00 00	 mov	 eax, OFFSET ??_C@_0BO@CNHACOAA@USE_PUT_INTO_ACCESSORY_SOCKET@
  0006d	5e		 pop	 esi

; 284  : }

  0006e	c3		 ret	 0
$LN13@GetUseType:

; 256  : 		case USE_PUT_INTO_BELT_SOCKET:
; 257  : 			return DEF_STR(USE_PUT_INTO_BELT_SOCKET);

  0006f	b8 00 00 00 00	 mov	 eax, OFFSET ??_C@_0BJ@FLCFGEDJ@USE_PUT_INTO_BELT_SOCKET@
  00074	5e		 pop	 esi

; 284  : }

  00075	c3		 ret	 0
$LN14@GetUseType:

; 258  : 		case USE_PUT_INTO_RING_SOCKET:
; 259  : 			return DEF_STR(USE_PUT_INTO_RING_SOCKET);

  00076	b8 00 00 00 00	 mov	 eax, OFFSET ??_C@_0BJ@MMJPLFIL@USE_PUT_INTO_RING_SOCKET@
  0007b	5e		 pop	 esi

; 284  : }

  0007c	c3		 ret	 0
$LN15@GetUseType:

; 260  : #ifdef ENABLE_USE_COSTUME_ATTR
; 261  : 		case USE_CHANGE_COSTUME_ATTR:
; 262  : 			return DEF_STR(USE_CHANGE_COSTUME_ATTR);

  0007d	b8 00 00 00 00	 mov	 eax, OFFSET ??_C@_0BI@JBGADBGG@USE_CHANGE_COSTUME_ATTR@
  00082	5e		 pop	 esi

; 284  : }

  00083	c3		 ret	 0
$LN16@GetUseType:

; 263  : 		case USE_RESET_COSTUME_ATTR:
; 264  : 			return DEF_STR(USE_RESET_COSTUME_ATTR);

  00084	b8 00 00 00 00	 mov	 eax, OFFSET ??_C@_0BH@GEFCODLD@USE_RESET_COSTUME_ATTR@
  00089	5e		 pop	 esi

; 284  : }

  0008a	c3		 ret	 0
$LN17@GetUseType:

; 265  : #endif
; 266  : #ifdef ENABLE_AURA_SYSTEM
; 267  : 		case USE_PUT_INTO_AURA_SOCKET:
; 268  : 			return DEF_STR(USE_PUT_INTO_AURA_SOCKET);

  0008b	b8 00 00 00 00	 mov	 eax, OFFSET ??_C@_0BJ@FNHNMEGH@USE_PUT_INTO_AURA_SOCKET@
  00090	5e		 pop	 esi

; 284  : }

  00091	c3		 ret	 0
$LN18@GetUseType:

; 269  : #endif
; 270  : // #ifdef ENABLE_REFINE_ELEMENT
; 271  : 		case USE_ELEMENT_UPGRADE:
; 272  : 			return DEF_STR(USE_ELEMENT_UPGRADE);

  00092	b8 00 00 00 00	 mov	 eax, OFFSET ??_C@_0BE@EDLAOIMA@USE_ELEMENT_UPGRADE@
  00097	5e		 pop	 esi

; 284  : }

  00098	c3		 ret	 0
$LN19@GetUseType:

; 273  : 		case USE_ELEMENT_DOWNGRADE:
; 274  : 			return DEF_STR(USE_ELEMENT_DOWNGRADE);

  00099	b8 00 00 00 00	 mov	 eax, OFFSET ??_C@_0BG@EOPNNGGH@USE_ELEMENT_DOWNGRADE@
  0009e	5e		 pop	 esi

; 284  : }

  0009f	c3		 ret	 0
$LN20@GetUseType:

; 275  : 		case USE_ELEMENT_CHANGE:
; 276  : 			return DEF_STR(USE_ELEMENT_CHANGE);

  000a0	b8 00 00 00 00	 mov	 eax, OFFSET ??_C@_0BD@LMCFGGAB@USE_ELEMENT_CHANGE@
  000a5	5e		 pop	 esi

; 284  : }

  000a6	c3		 ret	 0
$LN21@GetUseType:

; 277  : // #endif
; 278  : #ifdef ENABLE_6_7_BONUS_NEW_SYSTEM
; 279  : 		case USE_CHANGE_ATTRIBUTE2:
; 280  : 			return DEF_STR(USE_CHANGE_ATTRIBUTE2);

  000a7	b8 00 00 00 00	 mov	 eax, OFFSET ??_C@_0BG@BNJKFJLI@USE_CHANGE_ATTRIBUTE2@
  000ac	5e		 pop	 esi

; 284  : }

  000ad	c3		 ret	 0
$LN2@GetUseType:

; 281  : #endif
; 282  : 	}
; 283  : 	return "USE_UNKNOWN_TYPE";

  000ae	b8 00 00 00 00	 mov	 eax, OFFSET ??_C@_0BB@HEDGKPKE@USE_UNKNOWN_TYPE@
  000b3	5e		 pop	 esi

; 284  : }

  000b4	c3		 ret	 0
  000b5	0f 1f 00	 npad	 3
$LN24@GetUseType:
  000b8	00 00 00 00	 DD	 $LN5@GetUseType
  000bc	00 00 00 00	 DD	 $LN6@GetUseType
  000c0	00 00 00 00	 DD	 $LN7@GetUseType
  000c4	00 00 00 00	 DD	 $LN8@GetUseType
  000c8	00 00 00 00	 DD	 $LN9@GetUseType
  000cc	00 00 00 00	 DD	 $LN11@GetUseType
  000d0	00 00 00 00	 DD	 $LN12@GetUseType
  000d4	00 00 00 00	 DD	 $LN10@GetUseType
  000d8	00 00 00 00	 DD	 $LN21@GetUseType
  000dc	00 00 00 00	 DD	 $LN13@GetUseType
  000e0	00 00 00 00	 DD	 $LN14@GetUseType
  000e4	00 00 00 00	 DD	 $LN15@GetUseType
  000e8	00 00 00 00	 DD	 $LN16@GetUseType
  000ec	00 00 00 00	 DD	 $LN17@GetUseType
  000f0	00 00 00 00	 DD	 $LN18@GetUseType
  000f4	00 00 00 00	 DD	 $LN19@GetUseType
  000f8	00 00 00 00	 DD	 $LN20@GetUseType
  000fc	00 00 00 00	 DD	 $LN2@GetUseType
$LN23@GetUseType:
  00100	00		 DB	 0
  00101	11		 DB	 17			; 00000011H
  00102	11		 DB	 17			; 00000011H
  00103	11		 DB	 17			; 00000011H
  00104	11		 DB	 17			; 00000011H
  00105	11		 DB	 17			; 00000011H
  00106	11		 DB	 17			; 00000011H
  00107	11		 DB	 17			; 00000011H
  00108	11		 DB	 17			; 00000011H
  00109	11		 DB	 17			; 00000011H
  0010a	11		 DB	 17			; 00000011H
  0010b	11		 DB	 17			; 00000011H
  0010c	01		 DB	 1
  0010d	11		 DB	 17			; 00000011H
  0010e	11		 DB	 17			; 00000011H
  0010f	02		 DB	 2
  00110	03		 DB	 3
  00111	04		 DB	 4
  00112	05		 DB	 5
  00113	06		 DB	 6
  00114	07		 DB	 7
  00115	11		 DB	 17			; 00000011H
  00116	08		 DB	 8
  00117	11		 DB	 17			; 00000011H
  00118	11		 DB	 17			; 00000011H
  00119	11		 DB	 17			; 00000011H
  0011a	11		 DB	 17			; 00000011H
  0011b	09		 DB	 9
  0011c	0a		 DB	 10			; 0000000aH
  0011d	0b		 DB	 11			; 0000000bH
  0011e	0c		 DB	 12			; 0000000cH
  0011f	0d		 DB	 13			; 0000000dH
  00120	0e		 DB	 14			; 0000000eH
  00121	0f		 DB	 15			; 0000000fH
  00122	10		 DB	 16			; 00000010H
?GetUseTypeString@CItemData@@QBEPBDXZ ENDP		; CItemData::GetUseTypeString
_TEXT	ENDS
; Function compile flags: /Ogtp
; File C:\Users\ALEXANDER\Desktop\Cliente\COPY_FISH_WON_NEW\Binario\Client\GameLib\ItemData.cpp
;	COMDAT ?GetRefine@CItemData@@QBEIXZ
_TEXT	SEGMENT
?GetRefine@CItemData@@QBEIXZ PROC			; CItemData::GetRefine, COMDAT
; _this$ = ecx

; 421  : 	return GetIndex()%10;

  00000	e8 00 00 00 00	 call	 ?GetIndex@CItemData@@QBEKXZ ; CItemData::GetIndex
  00005	33 d2		 xor	 edx, edx
  00007	b9 0a 00 00 00	 mov	 ecx, 10			; 0000000aH
  0000c	f7 f1		 div	 ecx
  0000e	8b c2		 mov	 eax, edx

; 422  : }

  00010	c3		 ret	 0
?GetRefine@CItemData@@QBEIXZ ENDP			; CItemData::GetRefine
_TEXT	ENDS
; Function compile flags: /Ogtp
; File C:\Users\ALEXANDER\Desktop\Cliente\COPY_FISH_WON_NEW\Binario\Client\GameLib\ItemData.cpp
;	COMDAT ?GetSubType@CItemData@@QBEEXZ
_TEXT	SEGMENT
?GetSubType@CItemData@@QBEEXZ PROC			; CItemData::GetSubType, COMDAT
; _this$ = ecx

; 228  : 	return m_ItemTable.bSubType;

  00000	8a 81 07 01 00
	00		 mov	 al, BYTE PTR [ecx+263]

; 229  : }

  00006	c3		 ret	 0
?GetSubType@CItemData@@QBEEXZ ENDP			; CItemData::GetSubType
_TEXT	ENDS
; Function compile flags: /Ogtp
; File C:\Users\ALEXANDER\Desktop\Cliente\COPY_FISH_WON_NEW\Binario\Client\GameLib\ItemData.cpp
;	COMDAT ?GetType@CItemData@@QBEEXZ
_TEXT	SEGMENT
?GetType@CItemData@@QBEEXZ PROC				; CItemData::GetType, COMDAT
; _this$ = ecx

; 223  : 	return m_ItemTable.bType;

  00000	8a 81 06 01 00
	00		 mov	 al, BYTE PTR [ecx+262]

; 224  : }

  00006	c3		 ret	 0
?GetType@CItemData@@QBEEXZ ENDP				; CItemData::GetType
_TEXT	ENDS
; Function compile flags: /Ogtp
; File C:\Users\ALEXANDER\Desktop\Cliente\COPY_FISH_WON_NEW\Binario\Client\GameLib\ItemData.cpp
; File D:\visual studio 2019\visual studio 2019\VC\Tools\MSVC\14.29.30133\include\xstring
; File C:\Users\ALEXANDER\Desktop\Cliente\COPY_FISH_WON_NEW\Binario\Client\GameLib\ItemData.cpp
;	COMDAT ?GetSummary@CItemData@@QBEPBDXZ
_TEXT	SEGMENT
?GetSummary@CItemData@@QBEPBDXZ PROC			; CItemData::GetSummary, COMDAT
; _this$ = ecx
; File D:\visual studio 2019\visual studio 2019\VC\Tools\MSVC\14.29.30133\include\xstring

; 2286 :         return _BUF_SIZE <= _Myres;

  00000	83 b9 90 00 00
	00 10		 cmp	 DWORD PTR [ecx+144], 16	; 00000010H

; 3888 :         return _Mypair._Myval2._Myptr();

  00007	8d 41 7c	 lea	 eax, DWORD PTR [ecx+124]

; 2273 :         if (_Large_string_engaged()) {

  0000a	72 02		 jb	 SHORT $LN6@GetSummary
; File C:\Users\ALEXANDER\Desktop\Cliente\COPY_FISH_WON_NEW\Binario\Client\GameLib\ItemData.cpp

; 217  : 	return m_strSummary.c_str();

  0000c	8b 00		 mov	 eax, DWORD PTR [eax]
$LN6@GetSummary:

; 218  : }

  0000e	c3		 ret	 0
?GetSummary@CItemData@@QBEPBDXZ ENDP			; CItemData::GetSummary
_TEXT	ENDS
; Function compile flags: /Ogtp
; File C:\Users\ALEXANDER\Desktop\Cliente\COPY_FISH_WON_NEW\Binario\Client\GameLib\ItemData.cpp
; File D:\visual studio 2019\visual studio 2019\VC\Tools\MSVC\14.29.30133\include\xstring
; File C:\Users\ALEXANDER\Desktop\Cliente\COPY_FISH_WON_NEW\Binario\Client\GameLib\ItemData.cpp
;	COMDAT ?GetDescription@CItemData@@QBEPBDXZ
_TEXT	SEGMENT
?GetDescription@CItemData@@QBEPBDXZ PROC		; CItemData::GetDescription, COMDAT
; _this$ = ecx
; File D:\visual studio 2019\visual studio 2019\VC\Tools\MSVC\14.29.30133\include\xstring

; 2286 :         return _BUF_SIZE <= _Myres;

  00000	83 79 78 10	 cmp	 DWORD PTR [ecx+120], 16	; 00000010H

; 3888 :         return _Mypair._Myval2._Myptr();

  00004	8d 41 64	 lea	 eax, DWORD PTR [ecx+100]

; 2273 :         if (_Large_string_engaged()) {

  00007	72 02		 jb	 SHORT $LN6@GetDescrip
; File C:\Users\ALEXANDER\Desktop\Cliente\COPY_FISH_WON_NEW\Binario\Client\GameLib\ItemData.cpp

; 212  : 	return m_strDescription.c_str();

  00009	8b 00		 mov	 eax, DWORD PTR [eax]
$LN6@GetDescrip:

; 213  : }

  0000b	c3		 ret	 0
?GetDescription@CItemData@@QBEPBDXZ ENDP		; CItemData::GetDescription
_TEXT	ENDS
; Function compile flags: /Ogtp
; File C:\Users\ALEXANDER\Desktop\Cliente\COPY_FISH_WON_NEW\Binario\Client\GameLib\ItemData.cpp
;	COMDAT ?GetName@CItemData@@QBEPBDXZ
_TEXT	SEGMENT
?GetName@CItemData@@QBEPBDXZ PROC			; CItemData::GetName, COMDAT
; _this$ = ecx

; 207  : 	return m_ItemTable.szLocaleName;

  00000	8d 81 ed 00 00
	00		 lea	 eax, DWORD PTR [ecx+237]

; 208  : }

  00006	c3		 ret	 0
?GetName@CItemData@@QBEPBDXZ ENDP			; CItemData::GetName
_TEXT	ENDS
; Function compile flags: /Ogtp
; File C:\Users\ALEXANDER\Desktop\Cliente\COPY_FISH_WON_NEW\Binario\Client\GameLib\ItemData.cpp
;	COMDAT ?GetIndex@CItemData@@QBEKXZ
_TEXT	SEGMENT
?GetIndex@CItemData@@QBEKXZ PROC			; CItemData::GetIndex, COMDAT
; _this$ = ecx

; 202  : 	return m_ItemTable.dwVnum;

  00000	8b 81 cc 00 00
	00		 mov	 eax, DWORD PTR [ecx+204]

; 203  : }

  00006	c3		 ret	 0
?GetIndex@CItemData@@QBEKXZ ENDP			; CItemData::GetIndex
_TEXT	ENDS
; Function compile flags: /Ogtp
; File C:\Users\ALEXANDER\Desktop\Cliente\COPY_FISH_WON_NEW\Binario\Client\GameLib\ItemData.cpp
;	COMDAT ?GetTable@CItemData@@QBEPBUSItemTable_r156@1@XZ
_TEXT	SEGMENT
?GetTable@CItemData@@QBEPBUSItemTable_r156@1@XZ PROC	; CItemData::GetTable, COMDAT
; _this$ = ecx

; 197  : 	return &m_ItemTable;

  00000	8d 81 cc 00 00
	00		 lea	 eax, DWORD PTR [ecx+204]

; 198  : }

  00006	c3		 ret	 0
?GetTable@CItemData@@QBEPBUSItemTable_r156@1@XZ ENDP	; CItemData::GetTable
_TEXT	ENDS
; Function compile flags: /Ogtp
; File C:\Users\ALEXANDER\Desktop\Cliente\COPY_FISH_WON_NEW\Binario\Client\GameLib\ItemData.cpp
; File D:\visual studio 2019\visual studio 2019\VC\Tools\MSVC\14.29.30133\include\vector
; File C:\Users\ALEXANDER\Desktop\Cliente\COPY_FISH_WON_NEW\Binario\Client\GameLib\ItemData.cpp
;	COMDAT ?GetAttachingDataPointer@CItemData@@QAEHKPAPBUSAttachingData@NRaceData@@@Z
_TEXT	SEGMENT
_dwIndex$ = 8						; size = 4
_c_ppAttachingData$ = 12				; size = 4
?GetAttachingDataPointer@CItemData@@QAEHKPAPBUSAttachingData@NRaceData@@@Z PROC ; CItemData::GetAttachingDataPointer, COMDAT
; _this$ = ecx

; 87   : {

  00000	55		 push	 ebp
  00001	8b ec		 mov	 ebp, esp
  00003	56		 push	 esi
  00004	8b f1		 mov	 esi, ecx

; 88   : 	if (dwIndex >= GetAttachingDataCount())

  00006	e8 00 00 00 00	 call	 ?GetAttachingDataCount@CItemData@@QAEKXZ ; CItemData::GetAttachingDataCount
  0000b	8b 55 08	 mov	 edx, DWORD PTR _dwIndex$[ebp]
  0000e	3b d0		 cmp	 edx, eax
  00010	72 07		 jb	 SHORT $LN2@GetAttachi

; 89   : 		return FALSE;

  00012	33 c0		 xor	 eax, eax
  00014	5e		 pop	 esi

; 93   : }

  00015	5d		 pop	 ebp
  00016	c2 08 00	 ret	 8
$LN2@GetAttachi:

; 91   : 	*c_ppAttachingData = &m_AttachingDataVector[dwIndex];

  00019	8b 45 0c	 mov	 eax, DWORD PTR _c_ppAttachingData$[ebp]
; File D:\visual studio 2019\visual studio 2019\VC\Tools\MSVC\14.29.30133\include\vector

; 1556 :         return _My_data._Myfirst[_Pos];

  0001c	8d 0c 52	 lea	 ecx, DWORD PTR [edx+edx*2]
  0001f	c1 e1 04	 shl	 ecx, 4
  00022	03 8e bc 00 00
	00		 add	 ecx, DWORD PTR [esi+188]
  00028	5e		 pop	 esi
; File C:\Users\ALEXANDER\Desktop\Cliente\COPY_FISH_WON_NEW\Binario\Client\GameLib\ItemData.cpp

; 91   : 	*c_ppAttachingData = &m_AttachingDataVector[dwIndex];

  00029	89 08		 mov	 DWORD PTR [eax], ecx

; 92   : 	return TRUE;

  0002b	b8 01 00 00 00	 mov	 eax, 1

; 93   : }

  00030	5d		 pop	 ebp
  00031	c2 08 00	 ret	 8
?GetAttachingDataPointer@CItemData@@QAEHKPAPBUSAttachingData@NRaceData@@@Z ENDP ; CItemData::GetAttachingDataPointer
_TEXT	ENDS
; Function compile flags: /Ogtp
; File C:\Users\ALEXANDER\Desktop\Cliente\COPY_FISH_WON_NEW\Binario\Client\GameLib\ItemData.cpp
; File D:\visual studio 2019\visual studio 2019\VC\Tools\MSVC\14.29.30133\include\vector
; File C:\Users\ALEXANDER\Desktop\Cliente\COPY_FISH_WON_NEW\Binario\Client\GameLib\ItemData.cpp
;	COMDAT ?GetCollisionDataPointer@CItemData@@QAEHKPAPBUSAttachingData@NRaceData@@@Z
_TEXT	SEGMENT
_dwIndex$ = 8						; size = 4
_c_ppAttachingData$ = 12				; size = 4
?GetCollisionDataPointer@CItemData@@QAEHKPAPBUSAttachingData@NRaceData@@@Z PROC ; CItemData::GetCollisionDataPointer, COMDAT
; _this$ = ecx

; 75   : {

  00000	55		 push	 ebp
  00001	8b ec		 mov	 ebp, esp
  00003	56		 push	 esi
  00004	8b f1		 mov	 esi, ecx

; 76   : 	if (dwIndex >= GetAttachingDataCount())

  00006	e8 00 00 00 00	 call	 ?GetAttachingDataCount@CItemData@@QAEKXZ ; CItemData::GetAttachingDataCount
  0000b	8b 55 08	 mov	 edx, DWORD PTR _dwIndex$[ebp]
  0000e	3b d0		 cmp	 edx, eax
  00010	73 22		 jae	 SHORT $LN9@GetCollisi

; 79   : 	if (NRaceData::ATTACHING_DATA_TYPE_COLLISION_DATA != m_AttachingDataVector[dwIndex].dwType)

  00012	8b 8e bc 00 00
	00		 mov	 ecx, DWORD PTR [esi+188]
; File D:\visual studio 2019\visual studio 2019\VC\Tools\MSVC\14.29.30133\include\vector

; 1556 :         return _My_data._Myfirst[_Pos];

  00018	8d 14 52	 lea	 edx, DWORD PTR [edx+edx*2]
  0001b	c1 e2 04	 shl	 edx, 4
; File C:\Users\ALEXANDER\Desktop\Cliente\COPY_FISH_WON_NEW\Binario\Client\GameLib\ItemData.cpp

; 79   : 	if (NRaceData::ATTACHING_DATA_TYPE_COLLISION_DATA != m_AttachingDataVector[dwIndex].dwType)

  0001e	03 ca		 add	 ecx, edx
  00020	83 39 01	 cmp	 DWORD PTR [ecx], 1
  00023	75 0f		 jne	 SHORT $LN9@GetCollisi

; 81   : 
; 82   : 	*c_ppAttachingData = &m_AttachingDataVector[dwIndex];

  00025	8b 45 0c	 mov	 eax, DWORD PTR _c_ppAttachingData$[ebp]
  00028	5e		 pop	 esi
  00029	89 08		 mov	 DWORD PTR [eax], ecx

; 83   : 	return TRUE;

  0002b	b8 01 00 00 00	 mov	 eax, 1

; 84   : }

  00030	5d		 pop	 ebp
  00031	c2 08 00	 ret	 8
$LN9@GetCollisi:

; 80   : 		return FALSE;

  00034	33 c0		 xor	 eax, eax
  00036	5e		 pop	 esi

; 84   : }

  00037	5d		 pop	 ebp
  00038	c2 08 00	 ret	 8
?GetCollisionDataPointer@CItemData@@QAEHKPAPBUSAttachingData@NRaceData@@@Z ENDP ; CItemData::GetCollisionDataPointer
_TEXT	ENDS
; Function compile flags: /Ogtp
; File C:\Users\ALEXANDER\Desktop\Cliente\COPY_FISH_WON_NEW\Binario\Client\GameLib\ItemData.cpp
; File D:\visual studio 2019\visual studio 2019\VC\Tools\MSVC\14.29.30133\include\vector
; File C:\Users\ALEXANDER\Desktop\Cliente\COPY_FISH_WON_NEW\Binario\Client\GameLib\ItemData.cpp
;	COMDAT ?GetAttachingDataCount@CItemData@@QAEKXZ
_TEXT	SEGMENT
?GetAttachingDataCount@CItemData@@QAEKXZ PROC		; CItemData::GetAttachingDataCount, COMDAT
; _this$ = ecx
; File D:\visual studio 2019\visual studio 2019\VC\Tools\MSVC\14.29.30133\include\vector

; 1536 :         return static_cast<size_type>(_My_data._Mylast - _My_data._Myfirst);

  00000	8b 91 c0 00 00
	00		 mov	 edx, DWORD PTR [ecx+192]
  00006	b8 ab aa aa 2a	 mov	 eax, 715827883		; 2aaaaaabH
  0000b	2b 91 bc 00 00
	00		 sub	 edx, DWORD PTR [ecx+188]
  00011	f7 ea		 imul	 edx
  00013	c1 fa 03	 sar	 edx, 3
  00016	8b c2		 mov	 eax, edx
  00018	c1 e8 1f	 shr	 eax, 31			; 0000001fH
  0001b	03 c2		 add	 eax, edx
; File C:\Users\ALEXANDER\Desktop\Cliente\COPY_FISH_WON_NEW\Binario\Client\GameLib\ItemData.cpp

; 72   : }

  0001d	c3		 ret	 0
?GetAttachingDataCount@CItemData@@QAEKXZ ENDP		; CItemData::GetAttachingDataCount
_TEXT	ENDS
; Function compile flags: /Ogtp
; File C:\Users\ALEXANDER\Desktop\Cliente\COPY_FISH_WON_NEW\Binario\Client\GameLib\ItemData.cpp
; File D:\visual studio 2019\visual studio 2019\VC\Tools\MSVC\14.29.30133\include\vector
; File C:\Users\ALEXANDER\Desktop\Cliente\COPY_FISH_WON_NEW\Binario\Client\GameLib\ItemData.cpp
; File D:\visual studio 2019\visual studio 2019\VC\Tools\MSVC\14.29.30133\include\vector
; File C:\Users\ALEXANDER\Desktop\Cliente\COPY_FISH_WON_NEW\Binario\Client\GameLib\ItemData.cpp
;	COMDAT ?GetLODModelThingPointer@CItemData@@QAEHKPAPAVCGraphicThing@@@Z
_TEXT	SEGMENT
_dwIndex$ = 8						; size = 4
_ppModelThing$ = 12					; size = 4
?GetLODModelThingPointer@CItemData@@QAEHKPAPAVCGraphicThing@@@Z PROC ; CItemData::GetLODModelThingPointer, COMDAT
; _this$ = ecx

; 60   : {

  00000	55		 push	 ebp
  00001	8b ec		 mov	 ebp, esp
; File D:\visual studio 2019\visual studio 2019\VC\Tools\MSVC\14.29.30133\include\vector

; 1536 :         return static_cast<size_type>(_My_data._Mylast - _My_data._Myfirst);

  00003	8b 81 b4 00 00
	00		 mov	 eax, DWORD PTR [ecx+180]
  00009	8b 91 b0 00 00
	00		 mov	 edx, DWORD PTR [ecx+176]
  0000f	2b c2		 sub	 eax, edx
; File C:\Users\ALEXANDER\Desktop\Cliente\COPY_FISH_WON_NEW\Binario\Client\GameLib\ItemData.cpp

; 61   : 	if (dwIndex >= m_pLODModelThingVector.size())

  00011	8b 4d 08	 mov	 ecx, DWORD PTR _dwIndex$[ebp]
; File D:\visual studio 2019\visual studio 2019\VC\Tools\MSVC\14.29.30133\include\vector

; 1536 :         return static_cast<size_type>(_My_data._Mylast - _My_data._Myfirst);

  00014	c1 f8 02	 sar	 eax, 2
; File C:\Users\ALEXANDER\Desktop\Cliente\COPY_FISH_WON_NEW\Binario\Client\GameLib\ItemData.cpp

; 61   : 	if (dwIndex >= m_pLODModelThingVector.size())

  00017	3b c8		 cmp	 ecx, eax
  00019	72 06		 jb	 SHORT $LN2@GetLODMode

; 62   : 		return FALSE;

  0001b	33 c0		 xor	 eax, eax

; 67   : }

  0001d	5d		 pop	 ebp
  0001e	c2 08 00	 ret	 8
$LN2@GetLODMode:

; 63   : 
; 64   : 	*ppModelThing = m_pLODModelThingVector[dwIndex];

  00021	8b 45 0c	 mov	 eax, DWORD PTR _ppModelThing$[ebp]
  00024	8b 0c 8a	 mov	 ecx, DWORD PTR [edx+ecx*4]
  00027	89 08		 mov	 DWORD PTR [eax], ecx

; 65   : 
; 66   : 	return TRUE;

  00029	b8 01 00 00 00	 mov	 eax, 1

; 67   : }

  0002e	5d		 pop	 ebp
  0002f	c2 08 00	 ret	 8
?GetLODModelThingPointer@CItemData@@QAEHKPAPAVCGraphicThing@@@Z ENDP ; CItemData::GetLODModelThingPointer
_TEXT	ENDS
; Function compile flags: /Ogtp
; File C:\Users\ALEXANDER\Desktop\Cliente\COPY_FISH_WON_NEW\Binario\Client\GameLib\ItemData.cpp
; File D:\visual studio 2019\visual studio 2019\VC\Tools\MSVC\14.29.30133\include\vector
; File C:\Users\ALEXANDER\Desktop\Cliente\COPY_FISH_WON_NEW\Binario\Client\GameLib\ItemData.cpp
;	COMDAT ?GetLODModelThingCount@CItemData@@QAEKXZ
_TEXT	SEGMENT
?GetLODModelThingCount@CItemData@@QAEKXZ PROC		; CItemData::GetLODModelThingCount, COMDAT
; _this$ = ecx
; File D:\visual studio 2019\visual studio 2019\VC\Tools\MSVC\14.29.30133\include\vector

; 1536 :         return static_cast<size_type>(_My_data._Mylast - _My_data._Myfirst);

  00000	8b 81 b4 00 00
	00		 mov	 eax, DWORD PTR [ecx+180]
  00006	2b 81 b0 00 00
	00		 sub	 eax, DWORD PTR [ecx+176]
  0000c	c1 f8 02	 sar	 eax, 2
; File C:\Users\ALEXANDER\Desktop\Cliente\COPY_FISH_WON_NEW\Binario\Client\GameLib\ItemData.cpp

; 57   : }

  0000f	c3		 ret	 0
?GetLODModelThingCount@CItemData@@QAEKXZ ENDP		; CItemData::GetLODModelThingCount
_TEXT	ENDS
; Function compile flags: /Ogtp
; File C:\Users\ALEXANDER\Desktop\Cliente\COPY_FISH_WON_NEW\Binario\Client\GameLib\ItemData.cpp
; File D:\visual studio 2019\visual studio 2019\VC\Tools\MSVC\14.29.30133\include\xstring
; File C:\Users\ALEXANDER\Desktop\Cliente\COPY_FISH_WON_NEW\Binario\Client\GameLib\ItemData.cpp
; File D:\visual studio 2019\visual studio 2019\VC\Tools\MSVC\14.29.30133\include\xstring
; File C:\Users\ALEXANDER\Desktop\Cliente\COPY_FISH_WON_NEW\Binario\Client\GameLib\ItemData.cpp
;	COMDAT ?GetIconImage@CItemData@@QAEPAVCGraphicSubImage@@XZ
_TEXT	SEGMENT
?GetIconImage@CItemData@@QAEPAVCGraphicSubImage@@XZ PROC ; CItemData::GetIconImage, COMDAT
; _this$ = ecx

; 48   : {

  00000	56		 push	 esi
  00001	8b f1		 mov	 esi, ecx

; 49   : 	if(m_pIconImage == NULL && m_strIconFileName.empty() == false)

  00003	8b 86 ac 00 00
	00		 mov	 eax, DWORD PTR [esi+172]
  00009	85 c0		 test	 eax, eax
  0000b	75 20		 jne	 SHORT $LN2@GetIconIma
; File D:\visual studio 2019\visual studio 2019\VC\Tools\MSVC\14.29.30133\include\xstring

; 3985 :         return size() == 0;

  0000d	39 46 5c	 cmp	 DWORD PTR [esi+92], eax
; File C:\Users\ALEXANDER\Desktop\Cliente\COPY_FISH_WON_NEW\Binario\Client\GameLib\ItemData.cpp

; 49   : 	if(m_pIconImage == NULL && m_strIconFileName.empty() == false)

  00010	74 19		 je	 SHORT $LN14@GetIconIma
; File D:\visual studio 2019\visual studio 2019\VC\Tools\MSVC\14.29.30133\include\xstring

; 2286 :         return _BUF_SIZE <= _Myres;

  00012	83 7e 60 10	 cmp	 DWORD PTR [esi+96], 16	; 00000010H

; 3888 :         return _Mypair._Myval2._Myptr();

  00016	8d 46 4c	 lea	 eax, DWORD PTR [esi+76]

; 2273 :         if (_Large_string_engaged()) {

  00019	72 02		 jb	 SHORT $LN9@GetIconIma

; 2274 :             _Result = _Unfancy(_Bx._Ptr);

  0001b	8b 00		 mov	 eax, DWORD PTR [eax]
$LN9@GetIconIma:
; File C:\Users\ALEXANDER\Desktop\Cliente\COPY_FISH_WON_NEW\Binario\Client\GameLib\ItemData.cpp

; 50   : 		__SetIconImage(m_strIconFileName.c_str());

  0001d	50		 push	 eax
  0001e	e8 00 00 00 00	 call	 ?__SetIconImage@CItemData@@IAEXPBD@Z ; CItemData::__SetIconImage

; 51   : 	return m_pIconImage;

  00023	8b 86 ac 00 00
	00		 mov	 eax, DWORD PTR [esi+172]
  00029	5e		 pop	 esi

; 52   : }

  0002a	c3		 ret	 0
$LN14@GetIconIma:

; 51   : 	return m_pIconImage;

  0002b	33 c0		 xor	 eax, eax
$LN2@GetIconIma:
  0002d	5e		 pop	 esi

; 52   : }

  0002e	c3		 ret	 0
?GetIconImage@CItemData@@QAEPAVCGraphicSubImage@@XZ ENDP ; CItemData::GetIconImage
_TEXT	ENDS
; Function compile flags: /Ogtp
; File C:\Users\ALEXANDER\Desktop\Cliente\COPY_FISH_WON_NEW\Binario\Client\GameLib\ItemData.cpp
;	COMDAT ?GetDropModelThing@CItemData@@QAEPAVCGraphicThing@@XZ
_TEXT	SEGMENT
?GetDropModelThing@CItemData@@QAEPAVCGraphicThing@@XZ PROC ; CItemData::GetDropModelThing, COMDAT
; _this$ = ecx

; 44   : 	return m_pDropModelThing;

  00000	8b 81 a8 00 00
	00		 mov	 eax, DWORD PTR [ecx+168]

; 45   : }

  00006	c3		 ret	 0
?GetDropModelThing@CItemData@@QAEPAVCGraphicThing@@XZ ENDP ; CItemData::GetDropModelThing
_TEXT	ENDS
; Function compile flags: /Ogtp
; File C:\Users\ALEXANDER\Desktop\Cliente\COPY_FISH_WON_NEW\Binario\Client\GameLib\ItemData.cpp
;	COMDAT ?GetSubModelThing@CItemData@@QAEPAVCGraphicThing@@XZ
_TEXT	SEGMENT
?GetSubModelThing@CItemData@@QAEPAVCGraphicThing@@XZ PROC ; CItemData::GetSubModelThing, COMDAT
; _this$ = ecx

; 36   : 	if (m_pSubModelThing)

  00000	8b 81 a4 00 00
	00		 mov	 eax, DWORD PTR [ecx+164]
  00006	85 c0		 test	 eax, eax
  00008	75 06		 jne	 SHORT $LN3@GetSubMode

; 37   : 		return m_pSubModelThing;
; 38   : 	else
; 39   : 		return m_pModelThing;

  0000a	8b 81 a0 00 00
	00		 mov	 eax, DWORD PTR [ecx+160]
$LN3@GetSubMode:

; 40   : }

  00010	c3		 ret	 0
?GetSubModelThing@CItemData@@QAEPAVCGraphicThing@@XZ ENDP ; CItemData::GetSubModelThing
_TEXT	ENDS
; Function compile flags: /Ogtp
; File C:\Users\ALEXANDER\Desktop\Cliente\COPY_FISH_WON_NEW\Binario\Client\GameLib\ItemData.cpp
;	COMDAT ?GetModelThing@CItemData@@QAEPAVCGraphicThing@@XZ
_TEXT	SEGMENT
?GetModelThing@CItemData@@QAEPAVCGraphicThing@@XZ PROC	; CItemData::GetModelThing, COMDAT
; _this$ = ecx

; 31   : 	return m_pModelThing;

  00000	8b 81 a0 00 00
	00		 mov	 eax, DWORD PTR [ecx+160]

; 32   : }

  00006	c3		 ret	 0
?GetModelThing@CItemData@@QAEPAVCGraphicThing@@XZ ENDP	; CItemData::GetModelThing
_TEXT	ENDS
; Function compile flags: /Ogtp
; File C:\Users\ALEXANDER\Desktop\Cliente\COPY_FISH_WON_NEW\Binario\Client\GameLib\ItemData.cpp
; File D:\visual studio 2019\visual studio 2019\VC\Tools\MSVC\14.29.30133\include\xstring
; File C:\Users\ALEXANDER\Desktop\Cliente\COPY_FISH_WON_NEW\Binario\Client\GameLib\ItemData.cpp
; File D:\visual studio 2019\visual studio 2019\VC\Tools\MSVC\14.29.30133\include\xstring
; File C:\Users\ALEXANDER\Desktop\Cliente\COPY_FISH_WON_NEW\Binario\Client\GameLib\ItemData.cpp
;	COMDAT ?SetDescription@CItemData@@QAEXABV?$basic_string@DU?$char_traits@D@std@@V?$allocator@D@2@@std@@@Z
_TEXT	SEGMENT
_c_rstDesc$ = 8						; size = 4
?SetDescription@CItemData@@QAEXABV?$basic_string@DU?$char_traits@D@std@@V?$allocator@D@2@@std@@@Z PROC ; CItemData::SetDescription, COMDAT
; _this$ = ecx

; 101  : {

  00000	55		 push	 ebp
  00001	8b ec		 mov	 ebp, esp
; File D:\visual studio 2019\visual studio 2019\VC\Tools\MSVC\14.29.30133\include\xstring

; 3043 :         if (this != _STD addressof(_Right)) {

  00003	8b 45 08	 mov	 eax, DWORD PTR _c_rstDesc$[ebp]
; File C:\Users\ALEXANDER\Desktop\Cliente\COPY_FISH_WON_NEW\Binario\Client\GameLib\ItemData.cpp

; 102  : 	m_strDescription=c_rstDesc;

  00006	83 c1 64	 add	 ecx, 100		; 00000064H
; File D:\visual studio 2019\visual studio 2019\VC\Tools\MSVC\14.29.30133\include\xstring

; 3043 :         if (this != _STD addressof(_Right)) {

  00009	3b c8		 cmp	 ecx, eax
  0000b	74 13		 je	 SHORT $LN4@SetDescrip

; 2286 :         return _BUF_SIZE <= _Myres;

  0000d	83 78 14 10	 cmp	 DWORD PTR [eax+20], 16	; 00000010H

; 2272 :         const value_type* _Result = _Bx._Buf;

  00011	8b d0		 mov	 edx, eax

; 2273 :         if (_Large_string_engaged()) {

  00013	72 02		 jb	 SHORT $LN9@SetDescrip

; 2274 :             _Result = _Unfancy(_Bx._Ptr);

  00015	8b 10		 mov	 edx, DWORD PTR [eax]
$LN9@SetDescrip:

; 3001 :         assign(_Right._Mypair._Myval2._Myptr(), _Right._Mypair._Myval2._Mysize);

  00017	ff 70 10	 push	 DWORD PTR [eax+16]
  0001a	52		 push	 edx
  0001b	e8 00 00 00 00	 call	 ?assign@?$basic_string@DU?$char_traits@D@std@@V?$allocator@D@2@@std@@QAEAAV12@QBDI@Z ; std::basic_string<char,std::char_traits<char>,std::allocator<char> >::assign
$LN4@SetDescrip:
; File C:\Users\ALEXANDER\Desktop\Cliente\COPY_FISH_WON_NEW\Binario\Client\GameLib\ItemData.cpp

; 103  : }

  00020	5d		 pop	 ebp
  00021	c2 04 00	 ret	 4
?SetDescription@CItemData@@QAEXABV?$basic_string@DU?$char_traits@D@std@@V?$allocator@D@2@@std@@@Z ENDP ; CItemData::SetDescription
_TEXT	ENDS
; Function compile flags: /Ogtp
; File C:\Users\ALEXANDER\Desktop\Cliente\COPY_FISH_WON_NEW\Binario\Client\GameLib\ItemData.cpp
; File D:\visual studio 2019\visual studio 2019\VC\Tools\MSVC\14.29.30133\include\xstring
; File C:\Users\ALEXANDER\Desktop\Cliente\COPY_FISH_WON_NEW\Binario\Client\GameLib\ItemData.cpp
; File D:\visual studio 2019\visual studio 2019\VC\Tools\MSVC\14.29.30133\include\xstring
; File C:\Users\ALEXANDER\Desktop\Cliente\COPY_FISH_WON_NEW\Binario\Client\GameLib\ItemData.cpp
;	COMDAT ?SetSummary@CItemData@@QAEXABV?$basic_string@DU?$char_traits@D@std@@V?$allocator@D@2@@std@@@Z
_TEXT	SEGMENT
_c_rstSumm$ = 8						; size = 4
?SetSummary@CItemData@@QAEXABV?$basic_string@DU?$char_traits@D@std@@V?$allocator@D@2@@std@@@Z PROC ; CItemData::SetSummary, COMDAT
; _this$ = ecx

; 96   : {

  00000	55		 push	 ebp
  00001	8b ec		 mov	 ebp, esp
; File D:\visual studio 2019\visual studio 2019\VC\Tools\MSVC\14.29.30133\include\xstring

; 3043 :         if (this != _STD addressof(_Right)) {

  00003	8b 45 08	 mov	 eax, DWORD PTR _c_rstSumm$[ebp]
; File C:\Users\ALEXANDER\Desktop\Cliente\COPY_FISH_WON_NEW\Binario\Client\GameLib\ItemData.cpp

; 97   : 	m_strSummary=c_rstSumm;

  00006	83 c1 7c	 add	 ecx, 124		; 0000007cH
; File D:\visual studio 2019\visual studio 2019\VC\Tools\MSVC\14.29.30133\include\xstring

; 3043 :         if (this != _STD addressof(_Right)) {

  00009	3b c8		 cmp	 ecx, eax
  0000b	74 13		 je	 SHORT $LN4@SetSummary

; 2286 :         return _BUF_SIZE <= _Myres;

  0000d	83 78 14 10	 cmp	 DWORD PTR [eax+20], 16	; 00000010H

; 2272 :         const value_type* _Result = _Bx._Buf;

  00011	8b d0		 mov	 edx, eax

; 2273 :         if (_Large_string_engaged()) {

  00013	72 02		 jb	 SHORT $LN9@SetSummary

; 2274 :             _Result = _Unfancy(_Bx._Ptr);

  00015	8b 10		 mov	 edx, DWORD PTR [eax]
$LN9@SetSummary:

; 3001 :         assign(_Right._Mypair._Myval2._Myptr(), _Right._Mypair._Myval2._Mysize);

  00017	ff 70 10	 push	 DWORD PTR [eax+16]
  0001a	52		 push	 edx
  0001b	e8 00 00 00 00	 call	 ?assign@?$basic_string@DU?$char_traits@D@std@@V?$allocator@D@2@@std@@QAEAAV12@QBDI@Z ; std::basic_string<char,std::char_traits<char>,std::allocator<char> >::assign
$LN4@SetSummary:
; File C:\Users\ALEXANDER\Desktop\Cliente\COPY_FISH_WON_NEW\Binario\Client\GameLib\ItemData.cpp

; 98   : }

  00020	5d		 pop	 ebp
  00021	c2 04 00	 ret	 4
?SetSummary@CItemData@@QAEXABV?$basic_string@DU?$char_traits@D@std@@V?$allocator@D@2@@std@@@Z ENDP ; CItemData::SetSummary
_TEXT	ENDS
; Function compile flags: /Ogtp
; File C:\Users\ALEXANDER\Desktop\Cliente\COPY_FISH_WON_NEW\Binario\Client\GameLib\ItemData.cpp
; File D:\visual studio 2019\visual studio 2019\VC\Tools\MSVC\14.29.30133\include\xstring
; File C:\Users\ALEXANDER\Desktop\Cliente\COPY_FISH_WON_NEW\Binario\Client\GameLib\ItemData.cpp
; File D:\visual studio 2019\visual studio 2019\VC\Tools\MSVC\14.29.30133\include\xstring
; File C:\Users\ALEXANDER\Desktop\Cliente\COPY_FISH_WON_NEW\Binario\Client\GameLib\ItemData.cpp
; File D:\visual studio 2019\visual studio 2019\VC\Tools\MSVC\14.29.30133\include\xstring
; File C:\Users\ALEXANDER\Desktop\Cliente\COPY_FISH_WON_NEW\Binario\Client\GameLib\ItemData.cpp
; File D:\visual studio 2019\visual studio 2019\VC\Tools\MSVC\14.29.30133\include\xstring
; File C:\Users\ALEXANDER\Desktop\Cliente\COPY_FISH_WON_NEW\Binario\Client\GameLib\ItemData.cpp
; File D:\visual studio 2019\visual studio 2019\VC\Tools\MSVC\14.29.30133\include\xstring
; File C:\Users\ALEXANDER\Desktop\Cliente\COPY_FISH_WON_NEW\Binario\Client\GameLib\ItemData.cpp
; File D:\visual studio 2019\visual studio 2019\VC\Tools\MSVC\14.29.30133\include\xstring
; File D:\visual studio 2019\visual studio 2019\VC\Tools\MSVC\14.29.30133\include\vector
; File C:\Users\ALEXANDER\Desktop\Cliente\COPY_FISH_WON_NEW\Binario\Client\GameLib\ItemData.cpp
;	COMDAT ?Clear@CItemData@@QAEXXZ
_TEXT	SEGMENT
?Clear@CItemData@@QAEXXZ PROC				; CItemData::Clear, COMDAT
; _this$ = ecx

; 445  : {

  00000	56		 push	 esi
  00001	57		 push	 edi
  00002	8b f9		 mov	 edi, ecx
; File D:\visual studio 2019\visual studio 2019\VC\Tools\MSVC\14.29.30133\include\xstring

; 3230 :         return assign(_Ptr, _Convert_size<size_type>(_Traits::length(_Ptr)));

  00004	6a 00		 push	 0
  00006	68 00 00 00 00	 push	 OFFSET ??_C@_00CNPNBAHC@@
; File C:\Users\ALEXANDER\Desktop\Cliente\COPY_FISH_WON_NEW\Binario\Client\GameLib\ItemData.cpp

; 446  : 	m_strSummary = "";

  0000b	8d 4f 7c	 lea	 ecx, DWORD PTR [edi+124]
; File D:\visual studio 2019\visual studio 2019\VC\Tools\MSVC\14.29.30133\include\xstring

; 3230 :         return assign(_Ptr, _Convert_size<size_type>(_Traits::length(_Ptr)));

  0000e	e8 00 00 00 00	 call	 ?assign@?$basic_string@DU?$char_traits@D@std@@V?$allocator@D@2@@std@@QAEAAV12@QBDI@Z ; std::basic_string<char,std::char_traits<char>,std::allocator<char> >::assign
  00013	6a 00		 push	 0
  00015	68 00 00 00 00	 push	 OFFSET ??_C@_00CNPNBAHC@@
; File C:\Users\ALEXANDER\Desktop\Cliente\COPY_FISH_WON_NEW\Binario\Client\GameLib\ItemData.cpp

; 447  : 	m_strModelFileName = "";

  0001a	8d 4f 04	 lea	 ecx, DWORD PTR [edi+4]
; File D:\visual studio 2019\visual studio 2019\VC\Tools\MSVC\14.29.30133\include\xstring

; 3230 :         return assign(_Ptr, _Convert_size<size_type>(_Traits::length(_Ptr)));

  0001d	e8 00 00 00 00	 call	 ?assign@?$basic_string@DU?$char_traits@D@std@@V?$allocator@D@2@@std@@QAEAAV12@QBDI@Z ; std::basic_string<char,std::char_traits<char>,std::allocator<char> >::assign
  00022	6a 00		 push	 0
  00024	68 00 00 00 00	 push	 OFFSET ??_C@_00CNPNBAHC@@
; File C:\Users\ALEXANDER\Desktop\Cliente\COPY_FISH_WON_NEW\Binario\Client\GameLib\ItemData.cpp

; 448  : 	m_strSubModelFileName = "";

  00029	8d 4f 1c	 lea	 ecx, DWORD PTR [edi+28]
; File D:\visual studio 2019\visual studio 2019\VC\Tools\MSVC\14.29.30133\include\xstring

; 3230 :         return assign(_Ptr, _Convert_size<size_type>(_Traits::length(_Ptr)));

  0002c	e8 00 00 00 00	 call	 ?assign@?$basic_string@DU?$char_traits@D@std@@V?$allocator@D@2@@std@@QAEAAV12@QBDI@Z ; std::basic_string<char,std::char_traits<char>,std::allocator<char> >::assign
  00031	6a 00		 push	 0
  00033	68 00 00 00 00	 push	 OFFSET ??_C@_00CNPNBAHC@@
; File C:\Users\ALEXANDER\Desktop\Cliente\COPY_FISH_WON_NEW\Binario\Client\GameLib\ItemData.cpp

; 449  : 	m_strDropModelFileName = "";

  00038	8d 4f 34	 lea	 ecx, DWORD PTR [edi+52]
; File D:\visual studio 2019\visual studio 2019\VC\Tools\MSVC\14.29.30133\include\xstring

; 3230 :         return assign(_Ptr, _Convert_size<size_type>(_Traits::length(_Ptr)));

  0003b	e8 00 00 00 00	 call	 ?assign@?$basic_string@DU?$char_traits@D@std@@V?$allocator@D@2@@std@@QAEAAV12@QBDI@Z ; std::basic_string<char,std::char_traits<char>,std::allocator<char> >::assign
  00040	6a 00		 push	 0
  00042	68 00 00 00 00	 push	 OFFSET ??_C@_00CNPNBAHC@@
; File C:\Users\ALEXANDER\Desktop\Cliente\COPY_FISH_WON_NEW\Binario\Client\GameLib\ItemData.cpp

; 450  : 	m_strIconFileName = "";

  00047	8d 4f 4c	 lea	 ecx, DWORD PTR [edi+76]
; File D:\visual studio 2019\visual studio 2019\VC\Tools\MSVC\14.29.30133\include\xstring

; 3230 :         return assign(_Ptr, _Convert_size<size_type>(_Traits::length(_Ptr)));

  0004a	e8 00 00 00 00	 call	 ?assign@?$basic_string@DU?$char_traits@D@std@@V?$allocator@D@2@@std@@QAEAAV12@QBDI@Z ; std::basic_string<char,std::char_traits<char>,std::allocator<char> >::assign
; File D:\visual studio 2019\visual studio 2019\VC\Tools\MSVC\14.29.30133\include\vector

; 1442 :         _Destroy(_Myfirst, _Mylast);

  0004f	ff b7 98 00 00
	00		 push	 DWORD PTR [edi+152]
  00055	8d 8f 94 00 00
	00		 lea	 ecx, DWORD PTR [edi+148]
  0005b	ff b7 94 00 00
	00		 push	 DWORD PTR [edi+148]
  00061	e8 00 00 00 00	 call	 ?_Destroy@?$vector@V?$basic_string@DU?$char_traits@D@std@@V?$allocator@D@2@@std@@V?$allocator@V?$basic_string@DU?$char_traits@D@std@@V?$allocator@D@2@@std@@@2@@std@@AAEXPAV?$basic_string@DU?$char_traits@D@std@@V?$allocator@D@2@@2@0@Z ; std::vector<std::basic_string<char,std::char_traits<char>,std::allocator<char> >,std::allocator<std::basic_string<char,std::char_traits<char>,std::allocator<char> > > >::_Destroy

; 1443 :         _Mylast = _Myfirst;

  00066	8b 87 94 00 00
	00		 mov	 eax, DWORD PTR [edi+148]
  0006c	89 87 98 00 00
	00		 mov	 DWORD PTR [edi+152], eax
; File C:\Users\ALEXANDER\Desktop\Cliente\COPY_FISH_WON_NEW\Binario\Client\GameLib\ItemData.cpp

; 457  : 	m_pLODModelThingVector.clear();

  00072	8b 87 b0 00 00
	00		 mov	 eax, DWORD PTR [edi+176]

; 458  : 
; 459  : 	memset(&m_ItemTable, 0, sizeof(m_ItemTable));

  00078	68 9c 00 00 00	 push	 156			; 0000009cH
  0007d	89 87 b4 00 00
	00		 mov	 DWORD PTR [edi+180], eax
  00083	8d 87 cc 00 00
	00		 lea	 eax, DWORD PTR [edi+204]
  00089	6a 00		 push	 0
  0008b	50		 push	 eax
  0008c	c7 87 a0 00 00
	00 00 00 00 00	 mov	 DWORD PTR [edi+160], 0
  00096	c7 87 a4 00 00
	00 00 00 00 00	 mov	 DWORD PTR [edi+164], 0
  000a0	c7 87 a8 00 00
	00 00 00 00 00	 mov	 DWORD PTR [edi+168], 0
  000aa	c7 87 ac 00 00
	00 00 00 00 00	 mov	 DWORD PTR [edi+172], 0
  000b4	e8 00 00 00 00	 call	 _memset

; 460  : #ifdef ENABLE_ACCE_SYSTEM
; 461  : 	memset(&m_ItemScaleTable, 0, sizeof(m_ItemScaleTable));

  000b9	68 a0 00 00 00	 push	 160			; 000000a0H
  000be	8d 87 fc 07 00
	00		 lea	 eax, DWORD PTR [edi+2044]
  000c4	6a 00		 push	 0
  000c6	50		 push	 eax
  000c7	e8 00 00 00 00	 call	 _memset

; 462  : #endif
; 463  : #ifdef ENABLE_AURA_SYSTEM
; 464  : 	memset(&m_AuraScaleTable, 0, sizeof(m_AuraScaleTable));

  000cc	68 a0 00 00 00	 push	 160			; 000000a0H
  000d1	8d 87 58 07 00
	00		 lea	 eax, DWORD PTR [edi+1880]
  000d7	6a 00		 push	 0
  000d9	50		 push	 eax
  000da	e8 00 00 00 00	 call	 _memset

; 465  : 	m_dwAuraEffectID = 0;
; 466  : #endif
; 467  : #ifdef ENABLE_SHINING_SYSTEM
; 468  : 	memset(&m_ItemShiningTable, 0, sizeof(m_ItemShiningTable));

  000df	68 00 05 00 00	 push	 1280			; 00000500H
  000e4	8d 87 58 02 00
	00		 lea	 eax, DWORD PTR [edi+600]
  000ea	c7 87 f8 07 00
	00 00 00 00 00	 mov	 DWORD PTR [edi+2040], 0
  000f4	6a 00		 push	 0
  000f6	50		 push	 eax
  000f7	e8 00 00 00 00	 call	 _memset
  000fc	83 c4 30	 add	 esp, 48			; 00000030H
  000ff	5f		 pop	 edi
  00100	5e		 pop	 esi

; 469  : #endif
; 470  : }

  00101	c3		 ret	 0
?Clear@CItemData@@QAEXXZ ENDP				; CItemData::Clear
_TEXT	ENDS
; Function compile flags: /Ogtp
; File C:\Users\ALEXANDER\Desktop\Cliente\COPY_FISH_WON_NEW\Binario\Client\GameLib\ItemData.cpp
; File D:\visual studio 2019\visual studio 2019\VC\Tools\MSVC\14.29.30133\include\vector
; File D:\visual studio 2019\visual studio 2019\VC\Tools\MSVC\14.29.30133\include\xmemory
; File D:\visual studio 2019\visual studio 2019\VC\Tools\MSVC\14.29.30133\include\vector
; File D:\visual studio 2019\visual studio 2019\VC\Tools\MSVC\14.29.30133\include\xmemory
; File D:\visual studio 2019\visual studio 2019\VC\Tools\MSVC\14.29.30133\include\vector
; File C:\Users\ALEXANDER\Desktop\Cliente\COPY_FISH_WON_NEW\Binario\Client\GameLib\ItemData.cpp
; File D:\visual studio 2019\visual studio 2019\VC\Tools\MSVC\14.29.30133\include\xstring
; File D:\visual studio 2019\visual studio 2019\VC\Tools\MSVC\14.29.30133\include\xmemory
; File D:\visual studio 2019\visual studio 2019\VC\Tools\MSVC\14.29.30133\include\xstring
; File D:\visual studio 2019\visual studio 2019\VC\Tools\MSVC\14.29.30133\include\xmemory
; File D:\visual studio 2019\visual studio 2019\VC\Tools\MSVC\14.29.30133\include\xstring
; File D:\visual studio 2019\visual studio 2019\VC\Tools\MSVC\14.29.30133\include\xmemory
; File D:\visual studio 2019\visual studio 2019\VC\Tools\MSVC\14.29.30133\include\xstring
; File D:\visual studio 2019\visual studio 2019\VC\Tools\MSVC\14.29.30133\include\xmemory
; File D:\visual studio 2019\visual studio 2019\VC\Tools\MSVC\14.29.30133\include\xstring
; File D:\visual studio 2019\visual studio 2019\VC\Tools\MSVC\14.29.30133\include\xmemory
; File D:\visual studio 2019\visual studio 2019\VC\Tools\MSVC\14.29.30133\include\xstring
; File D:\visual studio 2019\visual studio 2019\VC\Tools\MSVC\14.29.30133\include\xmemory
; File D:\visual studio 2019\visual studio 2019\VC\Tools\MSVC\14.29.30133\include\xstring
; File D:\visual studio 2019\visual studio 2019\VC\Tools\MSVC\14.29.30133\include\xmemory
; File D:\visual studio 2019\visual studio 2019\VC\Tools\MSVC\14.29.30133\include\xstring
; File D:\visual studio 2019\visual studio 2019\VC\Tools\MSVC\14.29.30133\include\xmemory
; File D:\visual studio 2019\visual studio 2019\VC\Tools\MSVC\14.29.30133\include\xstring
; File D:\visual studio 2019\visual studio 2019\VC\Tools\MSVC\14.29.30133\include\xmemory
; File D:\visual studio 2019\visual studio 2019\VC\Tools\MSVC\14.29.30133\include\xstring
; File D:\visual studio 2019\visual studio 2019\VC\Tools\MSVC\14.29.30133\include\xmemory
; File D:\visual studio 2019\visual studio 2019\VC\Tools\MSVC\14.29.30133\include\xstring
; File D:\visual studio 2019\visual studio 2019\VC\Tools\MSVC\14.29.30133\include\xmemory
; File D:\visual studio 2019\visual studio 2019\VC\Tools\MSVC\14.29.30133\include\xstring
; File D:\visual studio 2019\visual studio 2019\VC\Tools\MSVC\14.29.30133\include\xmemory
; File D:\visual studio 2019\visual studio 2019\VC\Tools\MSVC\14.29.30133\include\xstring
; File C:\Users\ALEXANDER\Desktop\Cliente\COPY_FISH_WON_NEW\Binario\Client\GameLib\ItemData.cpp
; File D:\visual studio 2019\visual studio 2019\VC\Tools\MSVC\14.29.30133\include\xmemory
; File C:\Users\ALEXANDER\Desktop\Cliente\COPY_FISH_WON_NEW\Binario\Client\GameLib\ItemData.cpp
;	COMDAT ??1CItemData@@UAE@XZ
_TEXT	SEGMENT
??1CItemData@@UAE@XZ PROC				; CItemData::~CItemData, COMDAT
; _this$ = ecx

; 478  : {

  00000	56		 push	 esi
  00001	8b f1		 mov	 esi, ecx

; 479  : }

  00003	8d 8e bc 00 00
	00		 lea	 ecx, DWORD PTR [esi+188]
  00009	c7 06 00 00 00
	00		 mov	 DWORD PTR [esi], OFFSET ??_7CItemData@@6B@
  0000f	e8 00 00 00 00	 call	 ??1?$vector@USAttachingData@NRaceData@@V?$allocator@USAttachingData@NRaceData@@@std@@@std@@QAE@XZ ; std::vector<NRaceData::SAttachingData,std::allocator<NRaceData::SAttachingData> >::~vector<NRaceData::SAttachingData,std::allocator<NRaceData::SAttachingData> >
; File D:\visual studio 2019\visual studio 2019\VC\Tools\MSVC\14.29.30133\include\vector

; 1750 :         if (_Myfirst) { // destroy and deallocate old array

  00014	8b 86 b0 00 00
	00		 mov	 eax, DWORD PTR [esi+176]
  0001a	85 c0		 test	 eax, eax
  0001c	74 51		 je	 SHORT $LN6@CItemData

; 1751 :             _Destroy(_Myfirst, _Mylast);
; 1752 :             _Getal().deallocate(_Myfirst, static_cast<size_type>(_Myend - _Myfirst));

  0001e	8b 8e b8 00 00
	00		 mov	 ecx, DWORD PTR [esi+184]
  00024	2b c8		 sub	 ecx, eax
; File D:\visual studio 2019\visual studio 2019\VC\Tools\MSVC\14.29.30133\include\xmemory

; 797  :         _Deallocate<_New_alignof<_Ty>>(_Ptr, sizeof(_Ty) * _Count);

  00026	83 e1 fc	 and	 ecx, -4			; fffffffcH

; 251  :         if (_Bytes >= _Big_allocation_threshold) { // boost the alignment of big allocations to help autovectorization

  00029	81 f9 00 10 00
	00		 cmp	 ecx, 4096		; 00001000H
  0002f	72 16		 jb	 SHORT $LN22@CItemData

; 150  :     const uintptr_t _Ptr_container   = _Ptr_user[-1];

  00031	8b 50 fc	 mov	 edx, DWORD PTR [eax-4]
  00034	83 c1 23	 add	 ecx, 35			; 00000023H

; 151  : 
; 152  :     // If the following asserts, it likely means that we are performing
; 153  :     // an aligned delete on memory coming from an unaligned allocation.
; 154  :     _STL_ASSERT(_Ptr_user[-2] == _Big_allocation_sentinel, "invalid argument");
; 155  : 
; 156  :     // Extra paranoia on aligned allocation/deallocation; ensure _Ptr_container is
; 157  :     // in range [_Min_back_shift, _Non_user_size]
; 158  : #ifdef _DEBUG
; 159  :     constexpr uintptr_t _Min_back_shift = 2 * sizeof(void*);
; 160  : #else // ^^^ _DEBUG ^^^ // vvv !_DEBUG vvv
; 161  :     constexpr uintptr_t _Min_back_shift = sizeof(void*);
; 162  : #endif // _DEBUG
; 163  :     const uintptr_t _Back_shift = reinterpret_cast<uintptr_t>(_Ptr) - _Ptr_container;

  00037	2b c2		 sub	 eax, edx

; 164  :     _STL_VERIFY(_Back_shift >= _Min_back_shift && _Back_shift <= _Non_user_size, "invalid argument");

  00039	83 c0 fc	 add	 eax, -4			; fffffffcH
  0003c	83 f8 1f	 cmp	 eax, 31			; 0000001fH
  0003f	0f 87 dc 01 00
	00		 ja	 $LN182@CItemData

; 165  :     _Ptr = reinterpret_cast<void*>(_Ptr_container);

  00045	8b c2		 mov	 eax, edx
$LN22@CItemData:

; 255  :         ::operator delete(_Ptr, _Bytes);

  00047	51		 push	 ecx
  00048	50		 push	 eax
  00049	e8 00 00 00 00	 call	 ??3@YAXPAXI@Z		; operator delete
; File D:\visual studio 2019\visual studio 2019\VC\Tools\MSVC\14.29.30133\include\vector

; 1754 :             _Myfirst = nullptr;

  0004e	c7 86 b0 00 00
	00 00 00 00 00	 mov	 DWORD PTR [esi+176], 0
; File D:\visual studio 2019\visual studio 2019\VC\Tools\MSVC\14.29.30133\include\xmemory

; 255  :         ::operator delete(_Ptr, _Bytes);

  00058	83 c4 08	 add	 esp, 8
; File D:\visual studio 2019\visual studio 2019\VC\Tools\MSVC\14.29.30133\include\vector

; 1755 :             _Mylast  = nullptr;

  0005b	c7 86 b4 00 00
	00 00 00 00 00	 mov	 DWORD PTR [esi+180], 0

; 1756 :             _Myend   = nullptr;

  00065	c7 86 b8 00 00
	00 00 00 00 00	 mov	 DWORD PTR [esi+184], 0
$LN6@CItemData:
; File C:\Users\ALEXANDER\Desktop\Cliente\COPY_FISH_WON_NEW\Binario\Client\GameLib\ItemData.cpp

; 479  : }

  0006f	8d 8e 94 00 00
	00		 lea	 ecx, DWORD PTR [esi+148]
  00075	e8 00 00 00 00	 call	 ??1?$vector@V?$basic_string@DU?$char_traits@D@std@@V?$allocator@D@2@@std@@V?$allocator@V?$basic_string@DU?$char_traits@D@std@@V?$allocator@D@2@@std@@@2@@std@@QAE@XZ ; std::vector<std::basic_string<char,std::char_traits<char>,std::allocator<char> >,std::allocator<std::basic_string<char,std::char_traits<char>,std::allocator<char> > > >::~vector<std::basic_string<char,std::char_traits<char>,std::allocator<char> >,std::allocator<std::basic_string<char,std::char_traits<char>,std::allocator<char> > > >
; File D:\visual studio 2019\visual studio 2019\VC\Tools\MSVC\14.29.30133\include\xstring

; 2286 :         return _BUF_SIZE <= _Myres;

  0007a	8b 8e 90 00 00
	00		 mov	 ecx, DWORD PTR [esi+144]
  00080	83 f9 10	 cmp	 ecx, 16			; 00000010H

; 4584 :         if (_Mypair._Myval2._Large_string_engaged()) {

  00083	72 2c		 jb	 SHORT $LN40@CItemData
; File D:\visual studio 2019\visual studio 2019\VC\Tools\MSVC\14.29.30133\include\xmemory

; 797  :         _Deallocate<_New_alignof<_Ty>>(_Ptr, sizeof(_Ty) * _Count);

  00085	8b 46 7c	 mov	 eax, DWORD PTR [esi+124]
; File D:\visual studio 2019\visual studio 2019\VC\Tools\MSVC\14.29.30133\include\xstring

; 4588 :             _Al.deallocate(_Ptr, _Mypair._Myval2._Myres + 1);

  00088	41		 inc	 ecx
; File D:\visual studio 2019\visual studio 2019\VC\Tools\MSVC\14.29.30133\include\xmemory

; 251  :         if (_Bytes >= _Big_allocation_threshold) { // boost the alignment of big allocations to help autovectorization

  00089	81 f9 00 10 00
	00		 cmp	 ecx, 4096		; 00001000H
  0008f	72 16		 jb	 SHORT $LN50@CItemData

; 150  :     const uintptr_t _Ptr_container   = _Ptr_user[-1];

  00091	8b 50 fc	 mov	 edx, DWORD PTR [eax-4]
  00094	83 c1 23	 add	 ecx, 35			; 00000023H

; 151  : 
; 152  :     // If the following asserts, it likely means that we are performing
; 153  :     // an aligned delete on memory coming from an unaligned allocation.
; 154  :     _STL_ASSERT(_Ptr_user[-2] == _Big_allocation_sentinel, "invalid argument");
; 155  : 
; 156  :     // Extra paranoia on aligned allocation/deallocation; ensure _Ptr_container is
; 157  :     // in range [_Min_back_shift, _Non_user_size]
; 158  : #ifdef _DEBUG
; 159  :     constexpr uintptr_t _Min_back_shift = 2 * sizeof(void*);
; 160  : #else // ^^^ _DEBUG ^^^ // vvv !_DEBUG vvv
; 161  :     constexpr uintptr_t _Min_back_shift = sizeof(void*);
; 162  : #endif // _DEBUG
; 163  :     const uintptr_t _Back_shift = reinterpret_cast<uintptr_t>(_Ptr) - _Ptr_container;

  00097	2b c2		 sub	 eax, edx

; 164  :     _STL_VERIFY(_Back_shift >= _Min_back_shift && _Back_shift <= _Non_user_size, "invalid argument");

  00099	83 c0 fc	 add	 eax, -4			; fffffffcH
  0009c	83 f8 1f	 cmp	 eax, 31			; 0000001fH
  0009f	0f 87 7c 01 00
	00		 ja	 $LN182@CItemData

; 165  :     _Ptr = reinterpret_cast<void*>(_Ptr_container);

  000a5	8b c2		 mov	 eax, edx
$LN50@CItemData:

; 255  :         ::operator delete(_Ptr, _Bytes);

  000a7	51		 push	 ecx
  000a8	50		 push	 eax
  000a9	e8 00 00 00 00	 call	 ??3@YAXPAXI@Z		; operator delete
  000ae	83 c4 08	 add	 esp, 8
$LN40@CItemData:
; File D:\visual studio 2019\visual studio 2019\VC\Tools\MSVC\14.29.30133\include\xstring

; 4599 :             _Mypair._Myval2._Mysize = 0;

  000b1	c7 86 8c 00 00
	00 00 00 00 00	 mov	 DWORD PTR [esi+140], 0

; 4600 :             _Mypair._Myval2._Myres  = _BUF_SIZE - 1;

  000bb	c7 86 90 00 00
	00 0f 00 00 00	 mov	 DWORD PTR [esi+144], 15	; 0000000fH

; 4601 :             // the _Traits::assign is last so the codegen doesn't think the char write can alias this
; 4602 :             _Traits::assign(_Mypair._Myval2._Bx._Buf[0], _Elem());

  000c5	c6 46 7c 00	 mov	 BYTE PTR [esi+124], 0

; 2286 :         return _BUF_SIZE <= _Myres;

  000c9	8b 4e 78	 mov	 ecx, DWORD PTR [esi+120]
  000cc	83 f9 10	 cmp	 ecx, 16			; 00000010H

; 4584 :         if (_Mypair._Myval2._Large_string_engaged()) {

  000cf	72 2c		 jb	 SHORT $LN67@CItemData
; File D:\visual studio 2019\visual studio 2019\VC\Tools\MSVC\14.29.30133\include\xmemory

; 797  :         _Deallocate<_New_alignof<_Ty>>(_Ptr, sizeof(_Ty) * _Count);

  000d1	8b 46 64	 mov	 eax, DWORD PTR [esi+100]
; File D:\visual studio 2019\visual studio 2019\VC\Tools\MSVC\14.29.30133\include\xstring

; 4588 :             _Al.deallocate(_Ptr, _Mypair._Myval2._Myres + 1);

  000d4	41		 inc	 ecx
; File D:\visual studio 2019\visual studio 2019\VC\Tools\MSVC\14.29.30133\include\xmemory

; 251  :         if (_Bytes >= _Big_allocation_threshold) { // boost the alignment of big allocations to help autovectorization

  000d5	81 f9 00 10 00
	00		 cmp	 ecx, 4096		; 00001000H
  000db	72 16		 jb	 SHORT $LN77@CItemData

; 150  :     const uintptr_t _Ptr_container   = _Ptr_user[-1];

  000dd	8b 50 fc	 mov	 edx, DWORD PTR [eax-4]
  000e0	83 c1 23	 add	 ecx, 35			; 00000023H

; 151  : 
; 152  :     // If the following asserts, it likely means that we are performing
; 153  :     // an aligned delete on memory coming from an unaligned allocation.
; 154  :     _STL_ASSERT(_Ptr_user[-2] == _Big_allocation_sentinel, "invalid argument");
; 155  : 
; 156  :     // Extra paranoia on aligned allocation/deallocation; ensure _Ptr_container is
; 157  :     // in range [_Min_back_shift, _Non_user_size]
; 158  : #ifdef _DEBUG
; 159  :     constexpr uintptr_t _Min_back_shift = 2 * sizeof(void*);
; 160  : #else // ^^^ _DEBUG ^^^ // vvv !_DEBUG vvv
; 161  :     constexpr uintptr_t _Min_back_shift = sizeof(void*);
; 162  : #endif // _DEBUG
; 163  :     const uintptr_t _Back_shift = reinterpret_cast<uintptr_t>(_Ptr) - _Ptr_container;

  000e3	2b c2		 sub	 eax, edx

; 164  :     _STL_VERIFY(_Back_shift >= _Min_back_shift && _Back_shift <= _Non_user_size, "invalid argument");

  000e5	83 c0 fc	 add	 eax, -4			; fffffffcH
  000e8	83 f8 1f	 cmp	 eax, 31			; 0000001fH
  000eb	0f 87 30 01 00
	00		 ja	 $LN182@CItemData

; 165  :     _Ptr = reinterpret_cast<void*>(_Ptr_container);

  000f1	8b c2		 mov	 eax, edx
$LN77@CItemData:

; 255  :         ::operator delete(_Ptr, _Bytes);

  000f3	51		 push	 ecx
  000f4	50		 push	 eax
  000f5	e8 00 00 00 00	 call	 ??3@YAXPAXI@Z		; operator delete
  000fa	83 c4 08	 add	 esp, 8
$LN67@CItemData:
; File D:\visual studio 2019\visual studio 2019\VC\Tools\MSVC\14.29.30133\include\xstring

; 4599 :             _Mypair._Myval2._Mysize = 0;

  000fd	c7 46 74 00 00
	00 00		 mov	 DWORD PTR [esi+116], 0

; 4600 :             _Mypair._Myval2._Myres  = _BUF_SIZE - 1;

  00104	c7 46 78 0f 00
	00 00		 mov	 DWORD PTR [esi+120], 15	; 0000000fH

; 4601 :             // the _Traits::assign is last so the codegen doesn't think the char write can alias this
; 4602 :             _Traits::assign(_Mypair._Myval2._Bx._Buf[0], _Elem());

  0010b	c6 46 64 00	 mov	 BYTE PTR [esi+100], 0

; 2286 :         return _BUF_SIZE <= _Myres;

  0010f	8b 4e 60	 mov	 ecx, DWORD PTR [esi+96]
  00112	83 f9 10	 cmp	 ecx, 16			; 00000010H

; 4584 :         if (_Mypair._Myval2._Large_string_engaged()) {

  00115	72 2c		 jb	 SHORT $LN94@CItemData
; File D:\visual studio 2019\visual studio 2019\VC\Tools\MSVC\14.29.30133\include\xmemory

; 797  :         _Deallocate<_New_alignof<_Ty>>(_Ptr, sizeof(_Ty) * _Count);

  00117	8b 46 4c	 mov	 eax, DWORD PTR [esi+76]
; File D:\visual studio 2019\visual studio 2019\VC\Tools\MSVC\14.29.30133\include\xstring

; 4588 :             _Al.deallocate(_Ptr, _Mypair._Myval2._Myres + 1);

  0011a	41		 inc	 ecx
; File D:\visual studio 2019\visual studio 2019\VC\Tools\MSVC\14.29.30133\include\xmemory

; 251  :         if (_Bytes >= _Big_allocation_threshold) { // boost the alignment of big allocations to help autovectorization

  0011b	81 f9 00 10 00
	00		 cmp	 ecx, 4096		; 00001000H
  00121	72 16		 jb	 SHORT $LN104@CItemData

; 150  :     const uintptr_t _Ptr_container   = _Ptr_user[-1];

  00123	8b 50 fc	 mov	 edx, DWORD PTR [eax-4]
  00126	83 c1 23	 add	 ecx, 35			; 00000023H

; 151  : 
; 152  :     // If the following asserts, it likely means that we are performing
; 153  :     // an aligned delete on memory coming from an unaligned allocation.
; 154  :     _STL_ASSERT(_Ptr_user[-2] == _Big_allocation_sentinel, "invalid argument");
; 155  : 
; 156  :     // Extra paranoia on aligned allocation/deallocation; ensure _Ptr_container is
; 157  :     // in range [_Min_back_shift, _Non_user_size]
; 158  : #ifdef _DEBUG
; 159  :     constexpr uintptr_t _Min_back_shift = 2 * sizeof(void*);
; 160  : #else // ^^^ _DEBUG ^^^ // vvv !_DEBUG vvv
; 161  :     constexpr uintptr_t _Min_back_shift = sizeof(void*);
; 162  : #endif // _DEBUG
; 163  :     const uintptr_t _Back_shift = reinterpret_cast<uintptr_t>(_Ptr) - _Ptr_container;

  00129	2b c2		 sub	 eax, edx

; 164  :     _STL_VERIFY(_Back_shift >= _Min_back_shift && _Back_shift <= _Non_user_size, "invalid argument");

  0012b	83 c0 fc	 add	 eax, -4			; fffffffcH
  0012e	83 f8 1f	 cmp	 eax, 31			; 0000001fH
  00131	0f 87 ea 00 00
	00		 ja	 $LN182@CItemData

; 165  :     _Ptr = reinterpret_cast<void*>(_Ptr_container);

  00137	8b c2		 mov	 eax, edx
$LN104@CItemData:

; 255  :         ::operator delete(_Ptr, _Bytes);

  00139	51		 push	 ecx
  0013a	50		 push	 eax
  0013b	e8 00 00 00 00	 call	 ??3@YAXPAXI@Z		; operator delete
  00140	83 c4 08	 add	 esp, 8
$LN94@CItemData:
; File D:\visual studio 2019\visual studio 2019\VC\Tools\MSVC\14.29.30133\include\xstring

; 4599 :             _Mypair._Myval2._Mysize = 0;

  00143	c7 46 5c 00 00
	00 00		 mov	 DWORD PTR [esi+92], 0

; 4600 :             _Mypair._Myval2._Myres  = _BUF_SIZE - 1;

  0014a	c7 46 60 0f 00
	00 00		 mov	 DWORD PTR [esi+96], 15	; 0000000fH

; 4601 :             // the _Traits::assign is last so the codegen doesn't think the char write can alias this
; 4602 :             _Traits::assign(_Mypair._Myval2._Bx._Buf[0], _Elem());

  00151	c6 46 4c 00	 mov	 BYTE PTR [esi+76], 0

; 2286 :         return _BUF_SIZE <= _Myres;

  00155	8b 4e 48	 mov	 ecx, DWORD PTR [esi+72]
  00158	83 f9 10	 cmp	 ecx, 16			; 00000010H

; 4584 :         if (_Mypair._Myval2._Large_string_engaged()) {

  0015b	72 2c		 jb	 SHORT $LN121@CItemData
; File D:\visual studio 2019\visual studio 2019\VC\Tools\MSVC\14.29.30133\include\xmemory

; 797  :         _Deallocate<_New_alignof<_Ty>>(_Ptr, sizeof(_Ty) * _Count);

  0015d	8b 46 34	 mov	 eax, DWORD PTR [esi+52]
; File D:\visual studio 2019\visual studio 2019\VC\Tools\MSVC\14.29.30133\include\xstring

; 4588 :             _Al.deallocate(_Ptr, _Mypair._Myval2._Myres + 1);

  00160	41		 inc	 ecx
; File D:\visual studio 2019\visual studio 2019\VC\Tools\MSVC\14.29.30133\include\xmemory

; 251  :         if (_Bytes >= _Big_allocation_threshold) { // boost the alignment of big allocations to help autovectorization

  00161	81 f9 00 10 00
	00		 cmp	 ecx, 4096		; 00001000H
  00167	72 16		 jb	 SHORT $LN131@CItemData

; 150  :     const uintptr_t _Ptr_container   = _Ptr_user[-1];

  00169	8b 50 fc	 mov	 edx, DWORD PTR [eax-4]
  0016c	83 c1 23	 add	 ecx, 35			; 00000023H

; 151  : 
; 152  :     // If the following asserts, it likely means that we are performing
; 153  :     // an aligned delete on memory coming from an unaligned allocation.
; 154  :     _STL_ASSERT(_Ptr_user[-2] == _Big_allocation_sentinel, "invalid argument");
; 155  : 
; 156  :     // Extra paranoia on aligned allocation/deallocation; ensure _Ptr_container is
; 157  :     // in range [_Min_back_shift, _Non_user_size]
; 158  : #ifdef _DEBUG
; 159  :     constexpr uintptr_t _Min_back_shift = 2 * sizeof(void*);
; 160  : #else // ^^^ _DEBUG ^^^ // vvv !_DEBUG vvv
; 161  :     constexpr uintptr_t _Min_back_shift = sizeof(void*);
; 162  : #endif // _DEBUG
; 163  :     const uintptr_t _Back_shift = reinterpret_cast<uintptr_t>(_Ptr) - _Ptr_container;

  0016f	2b c2		 sub	 eax, edx

; 164  :     _STL_VERIFY(_Back_shift >= _Min_back_shift && _Back_shift <= _Non_user_size, "invalid argument");

  00171	83 c0 fc	 add	 eax, -4			; fffffffcH
  00174	83 f8 1f	 cmp	 eax, 31			; 0000001fH
  00177	0f 87 a4 00 00
	00		 ja	 $LN182@CItemData

; 165  :     _Ptr = reinterpret_cast<void*>(_Ptr_container);

  0017d	8b c2		 mov	 eax, edx
$LN131@CItemData:

; 255  :         ::operator delete(_Ptr, _Bytes);

  0017f	51		 push	 ecx
  00180	50		 push	 eax
  00181	e8 00 00 00 00	 call	 ??3@YAXPAXI@Z		; operator delete
  00186	83 c4 08	 add	 esp, 8
$LN121@CItemData:
; File D:\visual studio 2019\visual studio 2019\VC\Tools\MSVC\14.29.30133\include\xstring

; 4599 :             _Mypair._Myval2._Mysize = 0;

  00189	c7 46 44 00 00
	00 00		 mov	 DWORD PTR [esi+68], 0

; 4600 :             _Mypair._Myval2._Myres  = _BUF_SIZE - 1;

  00190	c7 46 48 0f 00
	00 00		 mov	 DWORD PTR [esi+72], 15	; 0000000fH

; 4601 :             // the _Traits::assign is last so the codegen doesn't think the char write can alias this
; 4602 :             _Traits::assign(_Mypair._Myval2._Bx._Buf[0], _Elem());

  00197	c6 46 34 00	 mov	 BYTE PTR [esi+52], 0

; 2286 :         return _BUF_SIZE <= _Myres;

  0019b	8b 4e 30	 mov	 ecx, DWORD PTR [esi+48]
  0019e	83 f9 10	 cmp	 ecx, 16			; 00000010H

; 4584 :         if (_Mypair._Myval2._Large_string_engaged()) {

  001a1	72 28		 jb	 SHORT $LN148@CItemData
; File D:\visual studio 2019\visual studio 2019\VC\Tools\MSVC\14.29.30133\include\xmemory

; 797  :         _Deallocate<_New_alignof<_Ty>>(_Ptr, sizeof(_Ty) * _Count);

  001a3	8b 46 1c	 mov	 eax, DWORD PTR [esi+28]
; File D:\visual studio 2019\visual studio 2019\VC\Tools\MSVC\14.29.30133\include\xstring

; 4588 :             _Al.deallocate(_Ptr, _Mypair._Myval2._Myres + 1);

  001a6	41		 inc	 ecx
; File D:\visual studio 2019\visual studio 2019\VC\Tools\MSVC\14.29.30133\include\xmemory

; 251  :         if (_Bytes >= _Big_allocation_threshold) { // boost the alignment of big allocations to help autovectorization

  001a7	81 f9 00 10 00
	00		 cmp	 ecx, 4096		; 00001000H
  001ad	72 12		 jb	 SHORT $LN158@CItemData

; 150  :     const uintptr_t _Ptr_container   = _Ptr_user[-1];

  001af	8b 50 fc	 mov	 edx, DWORD PTR [eax-4]
  001b2	83 c1 23	 add	 ecx, 35			; 00000023H

; 151  : 
; 152  :     // If the following asserts, it likely means that we are performing
; 153  :     // an aligned delete on memory coming from an unaligned allocation.
; 154  :     _STL_ASSERT(_Ptr_user[-2] == _Big_allocation_sentinel, "invalid argument");
; 155  : 
; 156  :     // Extra paranoia on aligned allocation/deallocation; ensure _Ptr_container is
; 157  :     // in range [_Min_back_shift, _Non_user_size]
; 158  : #ifdef _DEBUG
; 159  :     constexpr uintptr_t _Min_back_shift = 2 * sizeof(void*);
; 160  : #else // ^^^ _DEBUG ^^^ // vvv !_DEBUG vvv
; 161  :     constexpr uintptr_t _Min_back_shift = sizeof(void*);
; 162  : #endif // _DEBUG
; 163  :     const uintptr_t _Back_shift = reinterpret_cast<uintptr_t>(_Ptr) - _Ptr_container;

  001b5	2b c2		 sub	 eax, edx

; 164  :     _STL_VERIFY(_Back_shift >= _Min_back_shift && _Back_shift <= _Non_user_size, "invalid argument");

  001b7	83 c0 fc	 add	 eax, -4			; fffffffcH
  001ba	83 f8 1f	 cmp	 eax, 31			; 0000001fH
  001bd	77 62		 ja	 SHORT $LN182@CItemData

; 165  :     _Ptr = reinterpret_cast<void*>(_Ptr_container);

  001bf	8b c2		 mov	 eax, edx
$LN158@CItemData:

; 255  :         ::operator delete(_Ptr, _Bytes);

  001c1	51		 push	 ecx
  001c2	50		 push	 eax
  001c3	e8 00 00 00 00	 call	 ??3@YAXPAXI@Z		; operator delete
  001c8	83 c4 08	 add	 esp, 8
$LN148@CItemData:
; File D:\visual studio 2019\visual studio 2019\VC\Tools\MSVC\14.29.30133\include\xstring

; 4599 :             _Mypair._Myval2._Mysize = 0;

  001cb	c7 46 2c 00 00
	00 00		 mov	 DWORD PTR [esi+44], 0

; 4600 :             _Mypair._Myval2._Myres  = _BUF_SIZE - 1;

  001d2	c7 46 30 0f 00
	00 00		 mov	 DWORD PTR [esi+48], 15	; 0000000fH

; 4601 :             // the _Traits::assign is last so the codegen doesn't think the char write can alias this
; 4602 :             _Traits::assign(_Mypair._Myval2._Bx._Buf[0], _Elem());

  001d9	c6 46 1c 00	 mov	 BYTE PTR [esi+28], 0

; 2286 :         return _BUF_SIZE <= _Myres;

  001dd	8b 4e 18	 mov	 ecx, DWORD PTR [esi+24]
  001e0	83 f9 10	 cmp	 ecx, 16			; 00000010H

; 4584 :         if (_Mypair._Myval2._Large_string_engaged()) {

  001e3	72 28		 jb	 SHORT $LN175@CItemData
; File D:\visual studio 2019\visual studio 2019\VC\Tools\MSVC\14.29.30133\include\xmemory

; 797  :         _Deallocate<_New_alignof<_Ty>>(_Ptr, sizeof(_Ty) * _Count);

  001e5	8b 46 04	 mov	 eax, DWORD PTR [esi+4]
; File D:\visual studio 2019\visual studio 2019\VC\Tools\MSVC\14.29.30133\include\xstring

; 4588 :             _Al.deallocate(_Ptr, _Mypair._Myval2._Myres + 1);

  001e8	41		 inc	 ecx
; File D:\visual studio 2019\visual studio 2019\VC\Tools\MSVC\14.29.30133\include\xmemory

; 251  :         if (_Bytes >= _Big_allocation_threshold) { // boost the alignment of big allocations to help autovectorization

  001e9	81 f9 00 10 00
	00		 cmp	 ecx, 4096		; 00001000H
  001ef	72 12		 jb	 SHORT $LN185@CItemData

; 150  :     const uintptr_t _Ptr_container   = _Ptr_user[-1];

  001f1	8b 50 fc	 mov	 edx, DWORD PTR [eax-4]
  001f4	83 c1 23	 add	 ecx, 35			; 00000023H

; 151  : 
; 152  :     // If the following asserts, it likely means that we are performing
; 153  :     // an aligned delete on memory coming from an unaligned allocation.
; 154  :     _STL_ASSERT(_Ptr_user[-2] == _Big_allocation_sentinel, "invalid argument");
; 155  : 
; 156  :     // Extra paranoia on aligned allocation/deallocation; ensure _Ptr_container is
; 157  :     // in range [_Min_back_shift, _Non_user_size]
; 158  : #ifdef _DEBUG
; 159  :     constexpr uintptr_t _Min_back_shift = 2 * sizeof(void*);
; 160  : #else // ^^^ _DEBUG ^^^ // vvv !_DEBUG vvv
; 161  :     constexpr uintptr_t _Min_back_shift = sizeof(void*);
; 162  : #endif // _DEBUG
; 163  :     const uintptr_t _Back_shift = reinterpret_cast<uintptr_t>(_Ptr) - _Ptr_container;

  001f7	2b c2		 sub	 eax, edx

; 164  :     _STL_VERIFY(_Back_shift >= _Min_back_shift && _Back_shift <= _Non_user_size, "invalid argument");

  001f9	83 c0 fc	 add	 eax, -4			; fffffffcH
  001fc	83 f8 1f	 cmp	 eax, 31			; 0000001fH
  001ff	77 20		 ja	 SHORT $LN182@CItemData

; 165  :     _Ptr = reinterpret_cast<void*>(_Ptr_container);

  00201	8b c2		 mov	 eax, edx
$LN185@CItemData:

; 255  :         ::operator delete(_Ptr, _Bytes);

  00203	51		 push	 ecx
  00204	50		 push	 eax
  00205	e8 00 00 00 00	 call	 ??3@YAXPAXI@Z		; operator delete
  0020a	83 c4 08	 add	 esp, 8
$LN175@CItemData:
; File D:\visual studio 2019\visual studio 2019\VC\Tools\MSVC\14.29.30133\include\xstring

; 4599 :             _Mypair._Myval2._Mysize = 0;

  0020d	c7 46 14 00 00
	00 00		 mov	 DWORD PTR [esi+20], 0

; 4600 :             _Mypair._Myval2._Myres  = _BUF_SIZE - 1;

  00214	c7 46 18 0f 00
	00 00		 mov	 DWORD PTR [esi+24], 15	; 0000000fH

; 4601 :             // the _Traits::assign is last so the codegen doesn't think the char write can alias this
; 4602 :             _Traits::assign(_Mypair._Myval2._Bx._Buf[0], _Elem());

  0021b	c6 46 04 00	 mov	 BYTE PTR [esi+4], 0
  0021f	5e		 pop	 esi
; File C:\Users\ALEXANDER\Desktop\Cliente\COPY_FISH_WON_NEW\Binario\Client\GameLib\ItemData.cpp

; 479  : }

  00220	c3		 ret	 0
$LN182@CItemData:
; File D:\visual studio 2019\visual studio 2019\VC\Tools\MSVC\14.29.30133\include\xmemory

; 164  :     _STL_VERIFY(_Back_shift >= _Min_back_shift && _Back_shift <= _Non_user_size, "invalid argument");

  00221	e8 00 00 00 00	 call	 __invalid_parameter_noinfo_noreturn
$LN190@CItemData:
  00226	cc		 int	 3
??1CItemData@@UAE@XZ ENDP				; CItemData::~CItemData
_TEXT	ENDS
; Function compile flags: /Ogtp
; File C:\Users\ALEXANDER\Desktop\Cliente\COPY_FISH_WON_NEW\Binario\Client\GameLib\ItemData.cpp
; File D:\visual studio 2019\visual studio 2019\VC\Tools\MSVC\14.29.30133\include\xstring
; File C:\Users\ALEXANDER\Desktop\Cliente\COPY_FISH_WON_NEW\Binario\Client\GameLib\ItemData.cpp
; File D:\visual studio 2019\visual studio 2019\VC\Tools\MSVC\14.29.30133\include\xstring
; File D:\visual studio 2019\visual studio 2019\VC\Tools\MSVC\14.29.30133\include\vector
; File C:\Users\ALEXANDER\Desktop\Cliente\COPY_FISH_WON_NEW\Binario\Client\GameLib\ItemData.cpp
;	COMDAT ??0CItemData@@QAE@XZ
_TEXT	SEGMENT
_this$ = -16						; size = 4
__$EHRec$ = -12						; size = 12
??0CItemData@@QAE@XZ PROC				; CItemData::CItemData, COMDAT
; _this$ = ecx

; 473  : {

  00000	55		 push	 ebp
  00001	8b ec		 mov	 ebp, esp
  00003	6a ff		 push	 -1
  00005	68 00 00 00 00	 push	 __ehhandler$??0CItemData@@QAE@XZ
  0000a	64 a1 00 00 00
	00		 mov	 eax, DWORD PTR fs:0
  00010	50		 push	 eax
  00011	51		 push	 ecx
  00012	56		 push	 esi
  00013	a1 00 00 00 00	 mov	 eax, DWORD PTR ___security_cookie
  00018	33 c5		 xor	 eax, ebp
  0001a	50		 push	 eax
  0001b	8d 45 f4	 lea	 eax, DWORD PTR __$EHRec$[ebp]
  0001e	64 a3 00 00 00
	00		 mov	 DWORD PTR fs:0, eax
  00024	8b f1		 mov	 esi, ecx
  00026	89 75 f0	 mov	 DWORD PTR _this$[ebp], esi
  00029	c7 06 00 00 00
	00		 mov	 DWORD PTR [esi], OFFSET ??_7CItemData@@6B@
; File D:\visual studio 2019\visual studio 2019\VC\Tools\MSVC\14.29.30133\include\xstring

; 2313 :         _CONSTEXPR20_CONTAINER _Bxty() noexcept : _Ptr() {} // user-provided, for fancy pointers

  0002f	c7 46 04 00 00
	00 00		 mov	 DWORD PTR [esi+4], 0

; 4562 :         _My_data._Mysize = 0;

  00036	c7 46 14 00 00
	00 00		 mov	 DWORD PTR [esi+20], 0

; 4563 : 
; 4564 : #ifdef __cpp_lib_constexpr_string
; 4565 :         if (_STD is_constant_evaluated()) {
; 4566 :             _My_data._Myres        = _BUF_SIZE; // SSO disabled in constexpr context
; 4567 :             auto& _Al              = _Getal();
; 4568 :             const pointer _New_ptr = _Al.allocate(_BUF_SIZE + 1); // throws
; 4569 :             _My_data._Bx._Ptr      = _New_ptr;
; 4570 : 
; 4571 :             _Elem* const _Raw_new = _Unfancy(_New_ptr);
; 4572 :             _Traits::assign(_Raw_new, _BUF_SIZE + 1, _Elem());
; 4573 :         } else
; 4574 : #endif // __cpp_lib_constexpr_string
; 4575 :         {
; 4576 :             _My_data._Myres = _BUF_SIZE - 1;

  0003d	c7 46 18 0f 00
	00 00		 mov	 DWORD PTR [esi+24], 15	; 0000000fH

; 4577 :             // the _Traits::assign is last so the codegen doesn't think the char write can alias this
; 4578 :             _Traits::assign(_My_data._Bx._Buf[0], _Elem());

  00044	c6 46 04 00	 mov	 BYTE PTR [esi+4], 0

; 2313 :         _CONSTEXPR20_CONTAINER _Bxty() noexcept : _Ptr() {} // user-provided, for fancy pointers

  00048	c7 46 1c 00 00
	00 00		 mov	 DWORD PTR [esi+28], 0
; File C:\Users\ALEXANDER\Desktop\Cliente\COPY_FISH_WON_NEW\Binario\Client\GameLib\ItemData.cpp

; 473  : {

  0004f	c7 45 fc 00 00
	00 00		 mov	 DWORD PTR __$EHRec$[ebp+8], 0
; File D:\visual studio 2019\visual studio 2019\VC\Tools\MSVC\14.29.30133\include\xstring

; 4562 :         _My_data._Mysize = 0;

  00056	c7 46 2c 00 00
	00 00		 mov	 DWORD PTR [esi+44], 0

; 4563 : 
; 4564 : #ifdef __cpp_lib_constexpr_string
; 4565 :         if (_STD is_constant_evaluated()) {
; 4566 :             _My_data._Myres        = _BUF_SIZE; // SSO disabled in constexpr context
; 4567 :             auto& _Al              = _Getal();
; 4568 :             const pointer _New_ptr = _Al.allocate(_BUF_SIZE + 1); // throws
; 4569 :             _My_data._Bx._Ptr      = _New_ptr;
; 4570 : 
; 4571 :             _Elem* const _Raw_new = _Unfancy(_New_ptr);
; 4572 :             _Traits::assign(_Raw_new, _BUF_SIZE + 1, _Elem());
; 4573 :         } else
; 4574 : #endif // __cpp_lib_constexpr_string
; 4575 :         {
; 4576 :             _My_data._Myres = _BUF_SIZE - 1;

  0005d	c7 46 30 0f 00
	00 00		 mov	 DWORD PTR [esi+48], 15	; 0000000fH

; 4577 :             // the _Traits::assign is last so the codegen doesn't think the char write can alias this
; 4578 :             _Traits::assign(_My_data._Bx._Buf[0], _Elem());

  00064	c6 46 1c 00	 mov	 BYTE PTR [esi+28], 0

; 2313 :         _CONSTEXPR20_CONTAINER _Bxty() noexcept : _Ptr() {} // user-provided, for fancy pointers

  00068	c7 46 34 00 00
	00 00		 mov	 DWORD PTR [esi+52], 0

; 4562 :         _My_data._Mysize = 0;

  0006f	c7 46 44 00 00
	00 00		 mov	 DWORD PTR [esi+68], 0

; 4563 : 
; 4564 : #ifdef __cpp_lib_constexpr_string
; 4565 :         if (_STD is_constant_evaluated()) {
; 4566 :             _My_data._Myres        = _BUF_SIZE; // SSO disabled in constexpr context
; 4567 :             auto& _Al              = _Getal();
; 4568 :             const pointer _New_ptr = _Al.allocate(_BUF_SIZE + 1); // throws
; 4569 :             _My_data._Bx._Ptr      = _New_ptr;
; 4570 : 
; 4571 :             _Elem* const _Raw_new = _Unfancy(_New_ptr);
; 4572 :             _Traits::assign(_Raw_new, _BUF_SIZE + 1, _Elem());
; 4573 :         } else
; 4574 : #endif // __cpp_lib_constexpr_string
; 4575 :         {
; 4576 :             _My_data._Myres = _BUF_SIZE - 1;

  00076	c7 46 48 0f 00
	00 00		 mov	 DWORD PTR [esi+72], 15	; 0000000fH

; 4577 :             // the _Traits::assign is last so the codegen doesn't think the char write can alias this
; 4578 :             _Traits::assign(_My_data._Bx._Buf[0], _Elem());

  0007d	c6 46 34 00	 mov	 BYTE PTR [esi+52], 0

; 2313 :         _CONSTEXPR20_CONTAINER _Bxty() noexcept : _Ptr() {} // user-provided, for fancy pointers

  00081	c7 46 4c 00 00
	00 00		 mov	 DWORD PTR [esi+76], 0

; 4562 :         _My_data._Mysize = 0;

  00088	c7 46 5c 00 00
	00 00		 mov	 DWORD PTR [esi+92], 0

; 4563 : 
; 4564 : #ifdef __cpp_lib_constexpr_string
; 4565 :         if (_STD is_constant_evaluated()) {
; 4566 :             _My_data._Myres        = _BUF_SIZE; // SSO disabled in constexpr context
; 4567 :             auto& _Al              = _Getal();
; 4568 :             const pointer _New_ptr = _Al.allocate(_BUF_SIZE + 1); // throws
; 4569 :             _My_data._Bx._Ptr      = _New_ptr;
; 4570 : 
; 4571 :             _Elem* const _Raw_new = _Unfancy(_New_ptr);
; 4572 :             _Traits::assign(_Raw_new, _BUF_SIZE + 1, _Elem());
; 4573 :         } else
; 4574 : #endif // __cpp_lib_constexpr_string
; 4575 :         {
; 4576 :             _My_data._Myres = _BUF_SIZE - 1;

  0008f	c7 46 60 0f 00
	00 00		 mov	 DWORD PTR [esi+96], 15	; 0000000fH

; 4577 :             // the _Traits::assign is last so the codegen doesn't think the char write can alias this
; 4578 :             _Traits::assign(_My_data._Bx._Buf[0], _Elem());

  00096	c6 46 4c 00	 mov	 BYTE PTR [esi+76], 0

; 2313 :         _CONSTEXPR20_CONTAINER _Bxty() noexcept : _Ptr() {} // user-provided, for fancy pointers

  0009a	c7 46 64 00 00
	00 00		 mov	 DWORD PTR [esi+100], 0

; 4562 :         _My_data._Mysize = 0;

  000a1	c7 46 74 00 00
	00 00		 mov	 DWORD PTR [esi+116], 0

; 4563 : 
; 4564 : #ifdef __cpp_lib_constexpr_string
; 4565 :         if (_STD is_constant_evaluated()) {
; 4566 :             _My_data._Myres        = _BUF_SIZE; // SSO disabled in constexpr context
; 4567 :             auto& _Al              = _Getal();
; 4568 :             const pointer _New_ptr = _Al.allocate(_BUF_SIZE + 1); // throws
; 4569 :             _My_data._Bx._Ptr      = _New_ptr;
; 4570 : 
; 4571 :             _Elem* const _Raw_new = _Unfancy(_New_ptr);
; 4572 :             _Traits::assign(_Raw_new, _BUF_SIZE + 1, _Elem());
; 4573 :         } else
; 4574 : #endif // __cpp_lib_constexpr_string
; 4575 :         {
; 4576 :             _My_data._Myres = _BUF_SIZE - 1;

  000a8	c7 46 78 0f 00
	00 00		 mov	 DWORD PTR [esi+120], 15	; 0000000fH

; 4577 :             // the _Traits::assign is last so the codegen doesn't think the char write can alias this
; 4578 :             _Traits::assign(_My_data._Bx._Buf[0], _Elem());

  000af	c6 46 64 00	 mov	 BYTE PTR [esi+100], 0

; 2313 :         _CONSTEXPR20_CONTAINER _Bxty() noexcept : _Ptr() {} // user-provided, for fancy pointers

  000b3	c7 46 7c 00 00
	00 00		 mov	 DWORD PTR [esi+124], 0

; 4562 :         _My_data._Mysize = 0;

  000ba	c7 86 8c 00 00
	00 00 00 00 00	 mov	 DWORD PTR [esi+140], 0

; 4563 : 
; 4564 : #ifdef __cpp_lib_constexpr_string
; 4565 :         if (_STD is_constant_evaluated()) {
; 4566 :             _My_data._Myres        = _BUF_SIZE; // SSO disabled in constexpr context
; 4567 :             auto& _Al              = _Getal();
; 4568 :             const pointer _New_ptr = _Al.allocate(_BUF_SIZE + 1); // throws
; 4569 :             _My_data._Bx._Ptr      = _New_ptr;
; 4570 : 
; 4571 :             _Elem* const _Raw_new = _Unfancy(_New_ptr);
; 4572 :             _Traits::assign(_Raw_new, _BUF_SIZE + 1, _Elem());
; 4573 :         } else
; 4574 : #endif // __cpp_lib_constexpr_string
; 4575 :         {
; 4576 :             _My_data._Myres = _BUF_SIZE - 1;

  000c4	c7 86 90 00 00
	00 0f 00 00 00	 mov	 DWORD PTR [esi+144], 15	; 0000000fH

; 4577 :             // the _Traits::assign is last so the codegen doesn't think the char write can alias this
; 4578 :             _Traits::assign(_My_data._Bx._Buf[0], _Elem());

  000ce	c6 46 7c 00	 mov	 BYTE PTR [esi+124], 0
; File D:\visual studio 2019\visual studio 2019\VC\Tools\MSVC\14.29.30133\include\vector

; 390  :     _CONSTEXPR20_CONTAINER _Vector_val() noexcept : _Myfirst(), _Mylast(), _Myend() {}

  000d2	c7 86 94 00 00
	00 00 00 00 00	 mov	 DWORD PTR [esi+148], 0
  000dc	c7 86 98 00 00
	00 00 00 00 00	 mov	 DWORD PTR [esi+152], 0
  000e6	c7 86 9c 00 00
	00 00 00 00 00	 mov	 DWORD PTR [esi+156], 0
  000f0	c7 86 b0 00 00
	00 00 00 00 00	 mov	 DWORD PTR [esi+176], 0
  000fa	c7 86 b4 00 00
	00 00 00 00 00	 mov	 DWORD PTR [esi+180], 0
  00104	c7 86 b8 00 00
	00 00 00 00 00	 mov	 DWORD PTR [esi+184], 0
  0010e	c7 86 bc 00 00
	00 00 00 00 00	 mov	 DWORD PTR [esi+188], 0
  00118	c7 86 c0 00 00
	00 00 00 00 00	 mov	 DWORD PTR [esi+192], 0
  00122	c7 86 c4 00 00
	00 00 00 00 00	 mov	 DWORD PTR [esi+196], 0
; File C:\Users\ALEXANDER\Desktop\Cliente\COPY_FISH_WON_NEW\Binario\Client\GameLib\ItemData.cpp

; 473  : {

  0012c	c6 45 fc 08	 mov	 BYTE PTR __$EHRec$[ebp+8], 8

; 474  : 	Clear();

  00130	e8 00 00 00 00	 call	 ?Clear@CItemData@@QAEXXZ ; CItemData::Clear

; 475  : }

  00135	8b c6		 mov	 eax, esi
  00137	8b 4d f4	 mov	 ecx, DWORD PTR __$EHRec$[ebp]
  0013a	64 89 0d 00 00
	00 00		 mov	 DWORD PTR fs:0, ecx
  00141	59		 pop	 ecx
  00142	5e		 pop	 esi
  00143	8b e5		 mov	 esp, ebp
  00145	5d		 pop	 ebp
  00146	c3		 ret	 0
_TEXT	ENDS
;	COMDAT text$x
text$x	SEGMENT
__unwindfunclet$??0CItemData@@QAE@XZ$0:
  00000	8b 4d f0	 mov	 ecx, DWORD PTR _this$[ebp]
  00003	83 c1 04	 add	 ecx, 4
  00006	e9 00 00 00 00	 jmp	 ??1?$basic_string@DU?$char_traits@D@std@@V?$allocator@D@2@@std@@QAE@XZ ; std::basic_string<char,std::char_traits<char>,std::allocator<char> >::~basic_string<char,std::char_traits<char>,std::allocator<char> >
__unwindfunclet$??0CItemData@@QAE@XZ$1:
  0000b	8b 4d f0	 mov	 ecx, DWORD PTR _this$[ebp]
  0000e	83 c1 1c	 add	 ecx, 28			; 0000001cH
  00011	e9 00 00 00 00	 jmp	 ??1?$basic_string@DU?$char_traits@D@std@@V?$allocator@D@2@@std@@QAE@XZ ; std::basic_string<char,std::char_traits<char>,std::allocator<char> >::~basic_string<char,std::char_traits<char>,std::allocator<char> >
__unwindfunclet$??0CItemData@@QAE@XZ$2:
  00016	8b 4d f0	 mov	 ecx, DWORD PTR _this$[ebp]
  00019	83 c1 34	 add	 ecx, 52			; 00000034H
  0001c	e9 00 00 00 00	 jmp	 ??1?$basic_string@DU?$char_traits@D@std@@V?$allocator@D@2@@std@@QAE@XZ ; std::basic_string<char,std::char_traits<char>,std::allocator<char> >::~basic_string<char,std::char_traits<char>,std::allocator<char> >
__unwindfunclet$??0CItemData@@QAE@XZ$3:
  00021	8b 4d f0	 mov	 ecx, DWORD PTR _this$[ebp]
  00024	83 c1 4c	 add	 ecx, 76			; 0000004cH
  00027	e9 00 00 00 00	 jmp	 ??1?$basic_string@DU?$char_traits@D@std@@V?$allocator@D@2@@std@@QAE@XZ ; std::basic_string<char,std::char_traits<char>,std::allocator<char> >::~basic_string<char,std::char_traits<char>,std::allocator<char> >
__unwindfunclet$??0CItemData@@QAE@XZ$4:
  0002c	8b 4d f0	 mov	 ecx, DWORD PTR _this$[ebp]
  0002f	83 c1 64	 add	 ecx, 100		; 00000064H
  00032	e9 00 00 00 00	 jmp	 ??1?$basic_string@DU?$char_traits@D@std@@V?$allocator@D@2@@std@@QAE@XZ ; std::basic_string<char,std::char_traits<char>,std::allocator<char> >::~basic_string<char,std::char_traits<char>,std::allocator<char> >
__unwindfunclet$??0CItemData@@QAE@XZ$5:
  00037	8b 4d f0	 mov	 ecx, DWORD PTR _this$[ebp]
  0003a	83 c1 7c	 add	 ecx, 124		; 0000007cH
  0003d	e9 00 00 00 00	 jmp	 ??1?$basic_string@DU?$char_traits@D@std@@V?$allocator@D@2@@std@@QAE@XZ ; std::basic_string<char,std::char_traits<char>,std::allocator<char> >::~basic_string<char,std::char_traits<char>,std::allocator<char> >
__unwindfunclet$??0CItemData@@QAE@XZ$6:
  00042	8b 4d f0	 mov	 ecx, DWORD PTR _this$[ebp]
  00045	81 c1 94 00 00
	00		 add	 ecx, 148		; 00000094H
  0004b	e9 00 00 00 00	 jmp	 ??1?$vector@V?$basic_string@DU?$char_traits@D@std@@V?$allocator@D@2@@std@@V?$allocator@V?$basic_string@DU?$char_traits@D@std@@V?$allocator@D@2@@std@@@2@@std@@QAE@XZ ; std::vector<std::basic_string<char,std::char_traits<char>,std::allocator<char> >,std::allocator<std::basic_string<char,std::char_traits<char>,std::allocator<char> > > >::~vector<std::basic_string<char,std::char_traits<char>,std::allocator<char> >,std::allocator<std::basic_string<char,std::char_traits<char>,std::allocator<char> > > >
__unwindfunclet$??0CItemData@@QAE@XZ$7:
  00050	8b 4d f0	 mov	 ecx, DWORD PTR _this$[ebp]
  00053	81 c1 b0 00 00
	00		 add	 ecx, 176		; 000000b0H
  00059	e9 00 00 00 00	 jmp	 ??1?$vector@PAVCGraphicThing@@V?$allocator@PAVCGraphicThing@@@std@@@std@@QAE@XZ ; std::vector<CGraphicThing *,std::allocator<CGraphicThing *> >::~vector<CGraphicThing *,std::allocator<CGraphicThing *> >
__unwindfunclet$??0CItemData@@QAE@XZ$8:
  0005e	8b 4d f0	 mov	 ecx, DWORD PTR _this$[ebp]
  00061	81 c1 bc 00 00
	00		 add	 ecx, 188		; 000000bcH
  00067	e9 00 00 00 00	 jmp	 ??1?$vector@USAttachingData@NRaceData@@V?$allocator@USAttachingData@NRaceData@@@std@@@std@@QAE@XZ ; std::vector<NRaceData::SAttachingData,std::allocator<NRaceData::SAttachingData> >::~vector<NRaceData::SAttachingData,std::allocator<NRaceData::SAttachingData> >
  0006c	cc		 int	 3
  0006d	cc		 int	 3
  0006e	cc		 int	 3
  0006f	cc		 int	 3
  00070	cc		 int	 3
__ehhandler$??0CItemData@@QAE@XZ:
  00071	90		 npad	 1
  00072	90		 npad	 1
  00073	8b 54 24 08	 mov	 edx, DWORD PTR [esp+8]
  00077	8d 42 0c	 lea	 eax, DWORD PTR [edx+12]
  0007a	8b 4a f4	 mov	 ecx, DWORD PTR [edx-12]
  0007d	33 c8		 xor	 ecx, eax
  0007f	e8 00 00 00 00	 call	 @__security_check_cookie@4
  00084	b8 00 00 00 00	 mov	 eax, OFFSET __ehfuncinfo$??0CItemData@@QAE@XZ
  00089	e9 00 00 00 00	 jmp	 ___CxxFrameHandler3
text$x	ENDS
??0CItemData@@QAE@XZ ENDP				; CItemData::CItemData
; Function compile flags: /Ogtp
; File D:\visual studio 2019\visual studio 2019\VC\Tools\MSVC\14.29.30133\include\xmemory
;	COMDAT ??$_Allocate_manually_vector_aligned@U_Default_allocate_traits@std@@@std@@YAPAXI@Z
_TEXT	SEGMENT
__Bytes$ = 8						; size = 4
??$_Allocate_manually_vector_aligned@U_Default_allocate_traits@std@@@std@@YAPAXI@Z PROC ; std::_Allocate_manually_vector_aligned<std::_Default_allocate_traits>, COMDAT

; 127  : __declspec(allocator) void* _Allocate_manually_vector_aligned(const size_t _Bytes) {

  00000	55		 push	 ebp
  00001	8b ec		 mov	 ebp, esp

; 128  :     // allocate _Bytes manually aligned to at least _Big_allocation_alignment
; 129  :     const size_t _Block_size = _Non_user_size + _Bytes;

  00003	8b 45 08	 mov	 eax, DWORD PTR __Bytes$[ebp]
  00006	8d 48 23	 lea	 ecx, DWORD PTR [eax+35]

; 130  :     if (_Block_size <= _Bytes) {

  00009	3b c8		 cmp	 ecx, eax
  0000b	0f 86 00 00 00
	00		 jbe	 ?_Throw_bad_array_new_length@std@@YAXXZ ; std::_Throw_bad_array_new_length

; 79   :         return ::operator new(_Bytes);

  00011	51		 push	 ecx
  00012	e8 00 00 00 00	 call	 ??2@YAPAXI@Z		; operator new

; 131  :         _Throw_bad_array_new_length(); // add overflow
; 132  :     }
; 133  : 
; 134  :     const uintptr_t _Ptr_container = reinterpret_cast<uintptr_t>(_Traits::_Allocate(_Block_size));

  00017	8b c8		 mov	 ecx, eax

; 79   :         return ::operator new(_Bytes);

  00019	83 c4 04	 add	 esp, 4

; 135  :     _STL_VERIFY(_Ptr_container != 0, "invalid argument"); // validate even in release since we're doing p[-1]

  0001c	85 c9		 test	 ecx, ecx
  0001e	74 0b		 je	 SHORT $LN7@Allocate_m

; 136  :     void* const _Ptr = reinterpret_cast<void*>((_Ptr_container + _Non_user_size) & ~(_Big_allocation_alignment - 1));

  00020	8d 41 23	 lea	 eax, DWORD PTR [ecx+35]
  00023	83 e0 e0	 and	 eax, -32		; ffffffe0H

; 137  :     static_cast<uintptr_t*>(_Ptr)[-1] = _Ptr_container;

  00026	89 48 fc	 mov	 DWORD PTR [eax-4], ecx

; 138  : 
; 139  : #ifdef _DEBUG
; 140  :     static_cast<uintptr_t*>(_Ptr)[-2] = _Big_allocation_sentinel;
; 141  : #endif // _DEBUG
; 142  :     return _Ptr;
; 143  : }

  00029	5d		 pop	 ebp
  0002a	c3		 ret	 0
$LN7@Allocate_m:

; 135  :     _STL_VERIFY(_Ptr_container != 0, "invalid argument"); // validate even in release since we're doing p[-1]

  0002b	e9 00 00 00 00	 jmp	 __invalid_parameter_noinfo_noreturn
??$_Allocate_manually_vector_aligned@U_Default_allocate_traits@std@@@std@@YAPAXI@Z ENDP ; std::_Allocate_manually_vector_aligned<std::_Default_allocate_traits>
_TEXT	ENDS
; Function compile flags: /Ogtp
; File D:\visual studio 2019\visual studio 2019\VC\Tools\MSVC\14.29.30133\include\vector
; File D:\visual studio 2019\visual studio 2019\VC\Tools\MSVC\14.29.30133\include\xmemory
; File D:\visual studio 2019\visual studio 2019\VC\Tools\MSVC\14.29.30133\include\xstring
; File D:\visual studio 2019\visual studio 2019\VC\Tools\MSVC\14.29.30133\include\xmemory
; File D:\visual studio 2019\visual studio 2019\VC\Tools\MSVC\14.29.30133\include\xstring
; File D:\visual studio 2019\visual studio 2019\VC\Tools\MSVC\14.29.30133\include\xmemory
; File D:\visual studio 2019\visual studio 2019\VC\Tools\MSVC\14.29.30133\include\xstring
; File D:\visual studio 2019\visual studio 2019\VC\Tools\MSVC\14.29.30133\include\xmemory
; File D:\visual studio 2019\visual studio 2019\VC\Tools\MSVC\14.29.30133\include\vector
; File D:\visual studio 2019\visual studio 2019\VC\Tools\MSVC\14.29.30133\include\xmemory
; File D:\visual studio 2019\visual studio 2019\VC\Tools\MSVC\14.29.30133\include\vector
;	COMDAT ?_Destroy@?$vector@V?$basic_string@DU?$char_traits@D@std@@V?$allocator@D@2@@std@@V?$allocator@V?$basic_string@DU?$char_traits@D@std@@V?$allocator@D@2@@std@@@2@@std@@AAEXPAV?$basic_string@DU?$char_traits@D@std@@V?$allocator@D@2@@2@0@Z
_TEXT	SEGMENT
__First$ = 8						; size = 4
__Last$ = 12						; size = 4
?_Destroy@?$vector@V?$basic_string@DU?$char_traits@D@std@@V?$allocator@D@2@@std@@V?$allocator@V?$basic_string@DU?$char_traits@D@std@@V?$allocator@D@2@@std@@@2@@std@@AAEXPAV?$basic_string@DU?$char_traits@D@std@@V?$allocator@D@2@@2@0@Z PROC ; std::vector<std::basic_string<char,std::char_traits<char>,std::allocator<char> >,std::allocator<std::basic_string<char,std::char_traits<char>,std::allocator<char> > > >::_Destroy, COMDAT
; _this$ = ecx

; 1665 :     _CONSTEXPR20_CONTAINER void _Destroy(pointer _First, pointer _Last) {

  00000	55		 push	 ebp
  00001	8b ec		 mov	 ebp, esp
  00003	56		 push	 esi

; 1666 :         // destroy [_First, _Last) using allocator
; 1667 :         _Destroy_range(_First, _Last, _Getal());

  00004	8b 75 08	 mov	 esi, DWORD PTR __First$[ebp]
  00007	57		 push	 edi
; File D:\visual studio 2019\visual studio 2019\VC\Tools\MSVC\14.29.30133\include\xmemory

; 904  :         for (; _First != _Last; ++_First) {

  00008	8b 7d 0c	 mov	 edi, DWORD PTR __Last$[ebp]
  0000b	3b f7		 cmp	 esi, edi
  0000d	74 48		 je	 SHORT $LN48@Destroy
  0000f	90		 npad	 1
$LL6@Destroy:
; File D:\visual studio 2019\visual studio 2019\VC\Tools\MSVC\14.29.30133\include\xstring

; 2286 :         return _BUF_SIZE <= _Myres;

  00010	8b 4e 14	 mov	 ecx, DWORD PTR [esi+20]
  00013	83 f9 10	 cmp	 ecx, 16			; 00000010H

; 4584 :         if (_Mypair._Myval2._Large_string_engaged()) {

  00016	72 27		 jb	 SHORT $LN25@Destroy
; File D:\visual studio 2019\visual studio 2019\VC\Tools\MSVC\14.29.30133\include\xmemory

; 797  :         _Deallocate<_New_alignof<_Ty>>(_Ptr, sizeof(_Ty) * _Count);

  00018	8b 06		 mov	 eax, DWORD PTR [esi]
; File D:\visual studio 2019\visual studio 2019\VC\Tools\MSVC\14.29.30133\include\xstring

; 4588 :             _Al.deallocate(_Ptr, _Mypair._Myval2._Myres + 1);

  0001a	41		 inc	 ecx
; File D:\visual studio 2019\visual studio 2019\VC\Tools\MSVC\14.29.30133\include\xmemory

; 251  :         if (_Bytes >= _Big_allocation_threshold) { // boost the alignment of big allocations to help autovectorization

  0001b	81 f9 00 10 00
	00		 cmp	 ecx, 4096		; 00001000H
  00021	72 12		 jb	 SHORT $LN35@Destroy

; 150  :     const uintptr_t _Ptr_container   = _Ptr_user[-1];

  00023	8b 50 fc	 mov	 edx, DWORD PTR [eax-4]
  00026	83 c1 23	 add	 ecx, 35			; 00000023H

; 151  : 
; 152  :     // If the following asserts, it likely means that we are performing
; 153  :     // an aligned delete on memory coming from an unaligned allocation.
; 154  :     _STL_ASSERT(_Ptr_user[-2] == _Big_allocation_sentinel, "invalid argument");
; 155  : 
; 156  :     // Extra paranoia on aligned allocation/deallocation; ensure _Ptr_container is
; 157  :     // in range [_Min_back_shift, _Non_user_size]
; 158  : #ifdef _DEBUG
; 159  :     constexpr uintptr_t _Min_back_shift = 2 * sizeof(void*);
; 160  : #else // ^^^ _DEBUG ^^^ // vvv !_DEBUG vvv
; 161  :     constexpr uintptr_t _Min_back_shift = sizeof(void*);
; 162  : #endif // _DEBUG
; 163  :     const uintptr_t _Back_shift = reinterpret_cast<uintptr_t>(_Ptr) - _Ptr_container;

  00029	2b c2		 sub	 eax, edx

; 164  :     _STL_VERIFY(_Back_shift >= _Min_back_shift && _Back_shift <= _Non_user_size, "invalid argument");

  0002b	83 c0 fc	 add	 eax, -4			; fffffffcH
  0002e	83 f8 1f	 cmp	 eax, 31			; 0000001fH
  00031	77 2a		 ja	 SHORT $LN32@Destroy

; 165  :     _Ptr = reinterpret_cast<void*>(_Ptr_container);

  00033	8b c2		 mov	 eax, edx
$LN35@Destroy:

; 255  :         ::operator delete(_Ptr, _Bytes);

  00035	51		 push	 ecx
  00036	50		 push	 eax
  00037	e8 00 00 00 00	 call	 ??3@YAXPAXI@Z		; operator delete
  0003c	83 c4 08	 add	 esp, 8
$LN25@Destroy:
; File D:\visual studio 2019\visual studio 2019\VC\Tools\MSVC\14.29.30133\include\xstring

; 4599 :             _Mypair._Myval2._Mysize = 0;

  0003f	c7 46 10 00 00
	00 00		 mov	 DWORD PTR [esi+16], 0

; 4600 :             _Mypair._Myval2._Myres  = _BUF_SIZE - 1;

  00046	c7 46 14 0f 00
	00 00		 mov	 DWORD PTR [esi+20], 15	; 0000000fH

; 4601 :             // the _Traits::assign is last so the codegen doesn't think the char write can alias this
; 4602 :             _Traits::assign(_Mypair._Myval2._Bx._Buf[0], _Elem());

  0004d	c6 06 00	 mov	 BYTE PTR [esi], 0
; File D:\visual studio 2019\visual studio 2019\VC\Tools\MSVC\14.29.30133\include\xmemory

; 904  :         for (; _First != _Last; ++_First) {

  00050	83 c6 18	 add	 esi, 24			; 00000018H
  00053	3b f7		 cmp	 esi, edi
  00055	75 b9		 jne	 SHORT $LL6@Destroy
$LN48@Destroy:
  00057	5f		 pop	 edi
; File D:\visual studio 2019\visual studio 2019\VC\Tools\MSVC\14.29.30133\include\vector

; 1668 :     }

  00058	5e		 pop	 esi
  00059	5d		 pop	 ebp
  0005a	c2 08 00	 ret	 8
$LN32@Destroy:
; File D:\visual studio 2019\visual studio 2019\VC\Tools\MSVC\14.29.30133\include\xmemory

; 164  :     _STL_VERIFY(_Back_shift >= _Min_back_shift && _Back_shift <= _Non_user_size, "invalid argument");

  0005d	e8 00 00 00 00	 call	 __invalid_parameter_noinfo_noreturn
$LN49@Destroy:
  00062	cc		 int	 3
?_Destroy@?$vector@V?$basic_string@DU?$char_traits@D@std@@V?$allocator@D@2@@std@@V?$allocator@V?$basic_string@DU?$char_traits@D@std@@V?$allocator@D@2@@std@@@2@@std@@AAEXPAV?$basic_string@DU?$char_traits@D@std@@V?$allocator@D@2@@2@0@Z ENDP ; std::vector<std::basic_string<char,std::char_traits<char>,std::allocator<char> >,std::allocator<std::basic_string<char,std::char_traits<char>,std::allocator<char> > > >::_Destroy
_TEXT	ENDS
; Function compile flags: /Ogtp
; File D:\visual studio 2019\visual studio 2019\VC\Tools\MSVC\14.29.30133\include\vector
; File D:\visual studio 2019\visual studio 2019\VC\Tools\MSVC\14.29.30133\include\xmemory
; File D:\visual studio 2019\visual studio 2019\VC\Tools\MSVC\14.29.30133\include\vector
; File D:\visual studio 2019\visual studio 2019\VC\Tools\MSVC\14.29.30133\include\xmemory
; File D:\visual studio 2019\visual studio 2019\VC\Tools\MSVC\14.29.30133\include\vector
;	COMDAT ??1?$vector@V?$basic_string@DU?$char_traits@D@std@@V?$allocator@D@2@@std@@V?$allocator@V?$basic_string@DU?$char_traits@D@std@@V?$allocator@D@2@@std@@@2@@std@@QAE@XZ
_TEXT	SEGMENT
??1?$vector@V?$basic_string@DU?$char_traits@D@std@@V?$allocator@D@2@@std@@V?$allocator@V?$basic_string@DU?$char_traits@D@std@@V?$allocator@D@2@@std@@@2@@std@@QAE@XZ PROC ; std::vector<std::basic_string<char,std::char_traits<char>,std::allocator<char> >,std::allocator<std::basic_string<char,std::char_traits<char>,std::allocator<char> > > >::~vector<std::basic_string<char,std::char_traits<char>,std::allocator<char> >,std::allocator<std::basic_string<char,std::char_traits<char>,std::allocator<char> > > >, COMDAT
; _this$ = ecx

; 698  :     _CONSTEXPR20_CONTAINER ~vector() noexcept {

  00000	56		 push	 esi
  00001	8b f1		 mov	 esi, ecx

; 1750 :         if (_Myfirst) { // destroy and deallocate old array

  00003	8b 06		 mov	 eax, DWORD PTR [esi]
  00005	85 c0		 test	 eax, eax
  00007	74 61		 je	 SHORT $LN4@vector

; 1751 :             _Destroy(_Myfirst, _Mylast);

  00009	57		 push	 edi
  0000a	ff 76 04	 push	 DWORD PTR [esi+4]
  0000d	50		 push	 eax
  0000e	e8 00 00 00 00	 call	 ?_Destroy@?$vector@V?$basic_string@DU?$char_traits@D@std@@V?$allocator@D@2@@std@@V?$allocator@V?$basic_string@DU?$char_traits@D@std@@V?$allocator@D@2@@std@@@2@@std@@AAEXPAV?$basic_string@DU?$char_traits@D@std@@V?$allocator@D@2@@2@0@Z ; std::vector<std::basic_string<char,std::char_traits<char>,std::allocator<char> >,std::allocator<std::basic_string<char,std::char_traits<char>,std::allocator<char> > > >::_Destroy

; 1752 :             _Getal().deallocate(_Myfirst, static_cast<size_type>(_Myend - _Myfirst));

  00013	8b 4e 08	 mov	 ecx, DWORD PTR [esi+8]
  00016	b8 ab aa aa 2a	 mov	 eax, 715827883		; 2aaaaaabH
  0001b	8b 3e		 mov	 edi, DWORD PTR [esi]
  0001d	2b cf		 sub	 ecx, edi
  0001f	f7 e9		 imul	 ecx
  00021	c1 fa 02	 sar	 edx, 2
  00024	8b c2		 mov	 eax, edx
  00026	c1 e8 1f	 shr	 eax, 31			; 0000001fH
  00029	03 c2		 add	 eax, edx
; File D:\visual studio 2019\visual studio 2019\VC\Tools\MSVC\14.29.30133\include\xmemory

; 797  :         _Deallocate<_New_alignof<_Ty>>(_Ptr, sizeof(_Ty) * _Count);

  0002b	8d 0c 40	 lea	 ecx, DWORD PTR [eax+eax*2]
  0002e	c1 e1 03	 shl	 ecx, 3

; 251  :         if (_Bytes >= _Big_allocation_threshold) { // boost the alignment of big allocations to help autovectorization

  00031	81 f9 00 10 00
	00		 cmp	 ecx, 4096		; 00001000H
  00037	72 12		 jb	 SHORT $LN20@vector

; 150  :     const uintptr_t _Ptr_container   = _Ptr_user[-1];

  00039	8b 57 fc	 mov	 edx, DWORD PTR [edi-4]
  0003c	83 c1 23	 add	 ecx, 35			; 00000023H

; 151  : 
; 152  :     // If the following asserts, it likely means that we are performing
; 153  :     // an aligned delete on memory coming from an unaligned allocation.
; 154  :     _STL_ASSERT(_Ptr_user[-2] == _Big_allocation_sentinel, "invalid argument");
; 155  : 
; 156  :     // Extra paranoia on aligned allocation/deallocation; ensure _Ptr_container is
; 157  :     // in range [_Min_back_shift, _Non_user_size]
; 158  : #ifdef _DEBUG
; 159  :     constexpr uintptr_t _Min_back_shift = 2 * sizeof(void*);
; 160  : #else // ^^^ _DEBUG ^^^ // vvv !_DEBUG vvv
; 161  :     constexpr uintptr_t _Min_back_shift = sizeof(void*);
; 162  : #endif // _DEBUG
; 163  :     const uintptr_t _Back_shift = reinterpret_cast<uintptr_t>(_Ptr) - _Ptr_container;

  0003f	2b fa		 sub	 edi, edx

; 164  :     _STL_VERIFY(_Back_shift >= _Min_back_shift && _Back_shift <= _Non_user_size, "invalid argument");

  00041	8d 47 fc	 lea	 eax, DWORD PTR [edi-4]
  00044	83 f8 1f	 cmp	 eax, 31			; 0000001fH
  00047	77 23		 ja	 SHORT $LN17@vector

; 165  :     _Ptr = reinterpret_cast<void*>(_Ptr_container);

  00049	8b fa		 mov	 edi, edx
$LN20@vector:

; 255  :         ::operator delete(_Ptr, _Bytes);

  0004b	51		 push	 ecx
  0004c	57		 push	 edi
  0004d	e8 00 00 00 00	 call	 ??3@YAXPAXI@Z		; operator delete
  00052	83 c4 08	 add	 esp, 8
; File D:\visual studio 2019\visual studio 2019\VC\Tools\MSVC\14.29.30133\include\vector

; 1754 :             _Myfirst = nullptr;

  00055	c7 06 00 00 00
	00		 mov	 DWORD PTR [esi], 0

; 1755 :             _Mylast  = nullptr;

  0005b	c7 46 04 00 00
	00 00		 mov	 DWORD PTR [esi+4], 0

; 1756 :             _Myend   = nullptr;

  00062	c7 46 08 00 00
	00 00		 mov	 DWORD PTR [esi+8], 0
  00069	5f		 pop	 edi
$LN4@vector:
  0006a	5e		 pop	 esi

; 704  :     }

  0006b	c3		 ret	 0
$LN17@vector:
; File D:\visual studio 2019\visual studio 2019\VC\Tools\MSVC\14.29.30133\include\xmemory

; 164  :     _STL_VERIFY(_Back_shift >= _Min_back_shift && _Back_shift <= _Non_user_size, "invalid argument");

  0006c	e8 00 00 00 00	 call	 __invalid_parameter_noinfo_noreturn
$LN25@vector:
  00071	cc		 int	 3
??1?$vector@V?$basic_string@DU?$char_traits@D@std@@V?$allocator@D@2@@std@@V?$allocator@V?$basic_string@DU?$char_traits@D@std@@V?$allocator@D@2@@std@@@2@@std@@QAE@XZ ENDP ; std::vector<std::basic_string<char,std::char_traits<char>,std::allocator<char> >,std::allocator<std::basic_string<char,std::char_traits<char>,std::allocator<char> > > >::~vector<std::basic_string<char,std::char_traits<char>,std::allocator<char> >,std::allocator<std::basic_string<char,std::char_traits<char>,std::allocator<char> > > >
_TEXT	ENDS
; Function compile flags: /Ogtp
; File C:\Users\ALEXANDER\Desktop\Cliente\COPY_FISH_WON_NEW\Binario\extern\include\d3dx8math.h
;	COMDAT ??0D3DXVECTOR3@@QAE@XZ
_TEXT	SEGMENT
??0D3DXVECTOR3@@QAE@XZ PROC				; D3DXVECTOR3::D3DXVECTOR3, COMDAT
; _this$ = ecx

; 89   :     D3DXVECTOR3() {};

  00000	8b c1		 mov	 eax, ecx
  00002	c3		 ret	 0
??0D3DXVECTOR3@@QAE@XZ ENDP				; D3DXVECTOR3::D3DXVECTOR3
_TEXT	ENDS
; Function compile flags: /Ogtp
; File D:\visual studio 2019\visual studio 2019\VC\Tools\MSVC\14.29.30133\include\xstring
; File D:\visual studio 2019\visual studio 2019\VC\Tools\MSVC\14.29.30133\include\xmemory
; File D:\visual studio 2019\visual studio 2019\VC\Tools\MSVC\14.29.30133\include\xstring
; File D:\visual studio 2019\visual studio 2019\VC\Tools\MSVC\14.29.30133\include\xmemory
; File D:\visual studio 2019\visual studio 2019\VC\Tools\MSVC\14.29.30133\include\xstring
; File D:\visual studio 2019\visual studio 2019\VC\Tools\MSVC\14.29.30133\include\utility
; File D:\visual studio 2019\visual studio 2019\VC\Tools\MSVC\14.29.30133\include\xstring
; File D:\visual studio 2019\visual studio 2019\VC\Tools\MSVC\14.29.30133\include\xmemory
; File D:\visual studio 2019\visual studio 2019\VC\Tools\MSVC\14.29.30133\include\xstring
; File D:\visual studio 2019\visual studio 2019\VC\Tools\MSVC\14.29.30133\include\xmemory
; File D:\visual studio 2019\visual studio 2019\VC\Tools\MSVC\14.29.30133\include\xstring
; File D:\visual studio 2019\visual studio 2019\VC\Tools\MSVC\14.29.30133\include\xmemory
; File D:\visual studio 2019\visual studio 2019\VC\Tools\MSVC\14.29.30133\include\xstring
;	COMDAT ?assign@?$basic_string@DU?$char_traits@D@std@@V?$allocator@D@2@@std@@QAEAAV12@QBDI@Z
_TEXT	SEGMENT
__Old$1$ = -4						; size = 4
__Ptr$ = 8						; size = 4
$T1 = 12						; size = 4
__Count$ = 12						; size = 4
?assign@?$basic_string@DU?$char_traits@D@std@@V?$allocator@D@2@@std@@QAEAAV12@QBDI@Z PROC ; std::basic_string<char,std::char_traits<char>,std::allocator<char> >::assign, COMDAT
; _this$ = ecx

; 3210 :         _In_reads_(_Count) const _Elem* const _Ptr, _CRT_GUARDOVERFLOW const size_type _Count) {

  00000	55		 push	 ebp
  00001	8b ec		 mov	 ebp, esp
  00003	51		 push	 ecx
  00004	53		 push	 ebx

; 3211 :         // assign [_Ptr, _Ptr + _Count)
; 3212 :         if (_Count <= _Mypair._Myval2._Myres) {

  00005	8b 5d 0c	 mov	 ebx, DWORD PTR __Count$[ebp]
  00008	56		 push	 esi
  00009	8b f1		 mov	 esi, ecx
  0000b	57		 push	 edi
  0000c	8b 4e 14	 mov	 ecx, DWORD PTR [esi+20]
  0000f	89 4d fc	 mov	 DWORD PTR __Old$1$[ebp], ecx
  00012	3b d9		 cmp	 ebx, ecx
  00014	77 28		 ja	 SHORT $LN2@assign

; 2263 :         value_type* _Result = _Bx._Buf;

  00016	8b fe		 mov	 edi, esi

; 2286 :         return _BUF_SIZE <= _Myres;

  00018	83 f9 10	 cmp	 ecx, 16			; 00000010H

; 2264 :         if (_Large_string_engaged()) {

  0001b	72 02		 jb	 SHORT $LN5@assign

; 2265 :             _Result = _Unfancy(_Bx._Ptr);

  0001d	8b 3e		 mov	 edi, DWORD PTR [esi]
$LN5@assign:

; 121  :         _CSTD memmove(_First1, _First2, _Count * sizeof(_Elem));

  0001f	53		 push	 ebx
  00020	ff 75 08	 push	 DWORD PTR __Ptr$[ebp]

; 3213 :             _Elem* const _Old_ptr   = _Mypair._Myval2._Myptr();
; 3214 :             _Mypair._Myval2._Mysize = _Count;

  00023	89 5e 10	 mov	 DWORD PTR [esi+16], ebx

; 121  :         _CSTD memmove(_First1, _First2, _Count * sizeof(_Elem));

  00026	57		 push	 edi
  00027	e8 00 00 00 00	 call	 _memmove
  0002c	83 c4 0c	 add	 esp, 12			; 0000000cH

; 3215 :             _Traits::move(_Old_ptr, _Ptr, _Count);
; 3216 :             _Traits::assign(_Old_ptr[_Count], _Elem());

  0002f	c6 04 1f 00	 mov	 BYTE PTR [edi+ebx], 0

; 3225 :             },
; 3226 :             _Ptr);
; 3227 :     }

  00033	8b c6		 mov	 eax, esi
  00035	5f		 pop	 edi
  00036	5e		 pop	 esi
  00037	5b		 pop	 ebx
  00038	8b e5		 mov	 esp, ebp
  0003a	5d		 pop	 ebp
  0003b	c2 08 00	 ret	 8
$LN2@assign:

; 4474 :         if (_New_size > max_size()) {

  0003e	81 fb ff ff ff
	7f		 cmp	 ebx, 2147483647		; 7fffffffH
  00044	0f 87 d4 00 00
	00		 ja	 $LN60@assign

; 4454 :         const size_type _Masked = _Requested | _ALLOC_MASK;

  0004a	8b fb		 mov	 edi, ebx
  0004c	83 cf 0f	 or	 edi, 15			; 0000000fH
  0004f	81 ff ff ff ff
	7f		 cmp	 edi, 2147483647		; 7fffffffH

; 4455 :         if (_Masked > _Max) { // the mask overflows, settle for max_size()

  00055	76 15		 jbe	 SHORT $LN19@assign

; 4456 :             return _Max;

  00057	b8 00 00 00 80	 mov	 eax, -2147483648	; 80000000H
  0005c	bf ff ff ff 7f	 mov	 edi, 2147483647		; 7fffffffH
; File D:\visual studio 2019\visual studio 2019\VC\Tools\MSVC\14.29.30133\include\xmemory

; 229  :             return _Allocate_manually_vector_aligned<_Traits>(_Bytes);

  00061	50		 push	 eax
  00062	e8 00 00 00 00	 call	 ??$_Allocate_manually_vector_aligned@U_Default_allocate_traits@std@@@std@@YAPAXI@Z ; std::_Allocate_manually_vector_aligned<std::_Default_allocate_traits>
  00067	83 c4 04	 add	 esp, 4
  0006a	eb 52		 jmp	 SHORT $LN58@assign
$LN19@assign:
; File D:\visual studio 2019\visual studio 2019\VC\Tools\MSVC\14.29.30133\include\xstring

; 4459 :         if (_Old > _Max - _Old / 2) { // similarly, geometric overflows

  0006c	8b d1		 mov	 edx, ecx
  0006e	b8 ff ff ff 7f	 mov	 eax, 2147483647		; 7fffffffH
  00073	d1 ea		 shr	 edx, 1
  00075	2b c2		 sub	 eax, edx
  00077	3b c8		 cmp	 ecx, eax
  00079	76 15		 jbe	 SHORT $LN20@assign

; 4460 :             return _Max;

  0007b	b8 00 00 00 80	 mov	 eax, -2147483648	; 80000000H
  00080	bf ff ff ff 7f	 mov	 edi, 2147483647		; 7fffffffH
; File D:\visual studio 2019\visual studio 2019\VC\Tools\MSVC\14.29.30133\include\xmemory

; 229  :             return _Allocate_manually_vector_aligned<_Traits>(_Bytes);

  00085	50		 push	 eax
  00086	e8 00 00 00 00	 call	 ??$_Allocate_manually_vector_aligned@U_Default_allocate_traits@std@@@std@@YAPAXI@Z ; std::_Allocate_manually_vector_aligned<std::_Default_allocate_traits>
  0008b	83 c4 04	 add	 esp, 4
  0008e	eb 2e		 jmp	 SHORT $LN58@assign
$LN20@assign:
; File D:\visual studio 2019\visual studio 2019\VC\Tools\MSVC\14.29.30133\include\xstring

; 4463 :         return (_STD max)(_Masked, _Old + _Old / 2);

  00090	8d 04 0a	 lea	 eax, DWORD PTR [edx+ecx]
; File D:\visual studio 2019\visual studio 2019\VC\Tools\MSVC\14.29.30133\include\utility

; 43   :     return _Left < _Right ? _Right : _Left;

  00093	3b f8		 cmp	 edi, eax
  00095	0f 42 f8	 cmovb	 edi, eax
; File D:\visual studio 2019\visual studio 2019\VC\Tools\MSVC\14.29.30133\include\xstring

; 4481 :         const pointer _New_ptr        = _Al.allocate(_New_capacity + 1); // throws

  00098	8d 47 01	 lea	 eax, DWORD PTR [edi+1]
; File D:\visual studio 2019\visual studio 2019\VC\Tools\MSVC\14.29.30133\include\xmemory

; 228  :         if (_Bytes >= _Big_allocation_threshold) { // boost the alignment of big allocations to help autovectorization

  0009b	3d 00 10 00 00	 cmp	 eax, 4096		; 00001000H
  000a0	72 0b		 jb	 SHORT $LN27@assign

; 229  :             return _Allocate_manually_vector_aligned<_Traits>(_Bytes);

  000a2	50		 push	 eax
  000a3	e8 00 00 00 00	 call	 ??$_Allocate_manually_vector_aligned@U_Default_allocate_traits@std@@@std@@YAPAXI@Z ; std::_Allocate_manually_vector_aligned<std::_Default_allocate_traits>
  000a8	83 c4 04	 add	 esp, 4
  000ab	eb 11		 jmp	 SHORT $LN58@assign
$LN27@assign:

; 230  :         }
; 231  :     }
; 232  : #endif // defined(_M_IX86) || defined(_M_X64)
; 233  : 
; 234  :     if (_Bytes != 0) {

  000ad	85 c0		 test	 eax, eax
  000af	74 0b		 je	 SHORT $LN28@assign

; 79   :         return ::operator new(_Bytes);

  000b1	50		 push	 eax
  000b2	e8 00 00 00 00	 call	 ??2@YAPAXI@Z		; operator new
  000b7	83 c4 04	 add	 esp, 4

; 235  :         return _Traits::_Allocate(_Bytes);

  000ba	eb 02		 jmp	 SHORT $LN58@assign
$LN28@assign:

; 236  :     }
; 237  : 
; 238  :     return nullptr;

  000bc	33 c0		 xor	 eax, eax
$LN58@assign:
; File D:\visual studio 2019\visual studio 2019\VC\Tools\MSVC\14.29.30133\include\xstring

; 64   :         _CSTD memcpy(_First1, _First2, _Count * sizeof(_Elem));

  000be	53		 push	 ebx
  000bf	ff 75 08	 push	 DWORD PTR __Ptr$[ebp]

; 4489 :         _Mypair._Myval2._Mysize = _New_size;

  000c2	89 45 0c	 mov	 DWORD PTR $T1[ebp], eax

; 64   :         _CSTD memcpy(_First1, _First2, _Count * sizeof(_Elem));

  000c5	50		 push	 eax

; 4489 :         _Mypair._Myval2._Mysize = _New_size;

  000c6	89 5e 10	 mov	 DWORD PTR [esi+16], ebx

; 4490 :         _Mypair._Myval2._Myres  = _New_capacity;

  000c9	89 7e 14	 mov	 DWORD PTR [esi+20], edi

; 64   :         _CSTD memcpy(_First1, _First2, _Count * sizeof(_Elem));

  000cc	e8 00 00 00 00	 call	 _memcpy

; 3224 :                 _Traits::assign(_New_ptr[_Count], _Elem());

  000d1	8b 7d 0c	 mov	 edi, DWORD PTR $T1[ebp]

; 64   :         _CSTD memcpy(_First1, _First2, _Count * sizeof(_Elem));

  000d4	83 c4 0c	 add	 esp, 12			; 0000000cH

; 4492 :         if (_BUF_SIZE <= _Old_capacity) {

  000d7	8b 45 fc	 mov	 eax, DWORD PTR __Old$1$[ebp]

; 3224 :                 _Traits::assign(_New_ptr[_Count], _Elem());

  000da	c6 04 1f 00	 mov	 BYTE PTR [edi+ebx], 0

; 4492 :         if (_BUF_SIZE <= _Old_capacity) {

  000de	83 f8 10	 cmp	 eax, 16			; 00000010H
  000e1	72 29		 jb	 SHORT $LN13@assign

; 4493 :             _Al.deallocate(_Mypair._Myval2._Bx._Ptr, _Old_capacity + 1);

  000e3	8d 48 01	 lea	 ecx, DWORD PTR [eax+1]
; File D:\visual studio 2019\visual studio 2019\VC\Tools\MSVC\14.29.30133\include\xmemory

; 797  :         _Deallocate<_New_alignof<_Ty>>(_Ptr, sizeof(_Ty) * _Count);

  000e6	8b 06		 mov	 eax, DWORD PTR [esi]

; 251  :         if (_Bytes >= _Big_allocation_threshold) { // boost the alignment of big allocations to help autovectorization

  000e8	81 f9 00 10 00
	00		 cmp	 ecx, 4096		; 00001000H
  000ee	72 12		 jb	 SHORT $LN50@assign

; 150  :     const uintptr_t _Ptr_container   = _Ptr_user[-1];

  000f0	8b 50 fc	 mov	 edx, DWORD PTR [eax-4]
  000f3	83 c1 23	 add	 ecx, 35			; 00000023H

; 151  : 
; 152  :     // If the following asserts, it likely means that we are performing
; 153  :     // an aligned delete on memory coming from an unaligned allocation.
; 154  :     _STL_ASSERT(_Ptr_user[-2] == _Big_allocation_sentinel, "invalid argument");
; 155  : 
; 156  :     // Extra paranoia on aligned allocation/deallocation; ensure _Ptr_container is
; 157  :     // in range [_Min_back_shift, _Non_user_size]
; 158  : #ifdef _DEBUG
; 159  :     constexpr uintptr_t _Min_back_shift = 2 * sizeof(void*);
; 160  : #else // ^^^ _DEBUG ^^^ // vvv !_DEBUG vvv
; 161  :     constexpr uintptr_t _Min_back_shift = sizeof(void*);
; 162  : #endif // _DEBUG
; 163  :     const uintptr_t _Back_shift = reinterpret_cast<uintptr_t>(_Ptr) - _Ptr_container;

  000f6	2b c2		 sub	 eax, edx

; 164  :     _STL_VERIFY(_Back_shift >= _Min_back_shift && _Back_shift <= _Non_user_size, "invalid argument");

  000f8	83 c0 fc	 add	 eax, -4			; fffffffcH
  000fb	83 f8 1f	 cmp	 eax, 31			; 0000001fH
  000fe	77 19		 ja	 SHORT $LN47@assign

; 165  :     _Ptr = reinterpret_cast<void*>(_Ptr_container);

  00100	8b c2		 mov	 eax, edx
$LN50@assign:

; 255  :         ::operator delete(_Ptr, _Bytes);

  00102	51		 push	 ecx
  00103	50		 push	 eax
  00104	e8 00 00 00 00	 call	 ??3@YAXPAXI@Z		; operator delete
  00109	83 c4 08	 add	 esp, 8
$LN13@assign:
; File D:\visual studio 2019\visual studio 2019\VC\Tools\MSVC\14.29.30133\include\xstring

; 3220 :         return _Reallocate_for(

  0010c	89 3e		 mov	 DWORD PTR [esi], edi

; 3225 :             },
; 3226 :             _Ptr);
; 3227 :     }

  0010e	8b c6		 mov	 eax, esi
  00110	5f		 pop	 edi
  00111	5e		 pop	 esi
  00112	5b		 pop	 ebx
  00113	8b e5		 mov	 esp, ebp
  00115	5d		 pop	 ebp
  00116	c2 08 00	 ret	 8
$LN47@assign:
; File D:\visual studio 2019\visual studio 2019\VC\Tools\MSVC\14.29.30133\include\xmemory

; 164  :     _STL_VERIFY(_Back_shift >= _Min_back_shift && _Back_shift <= _Non_user_size, "invalid argument");

  00119	e8 00 00 00 00	 call	 __invalid_parameter_noinfo_noreturn
$LN60@assign:
; File D:\visual studio 2019\visual studio 2019\VC\Tools\MSVC\14.29.30133\include\xstring

; 4475 :             _Xlen_string(); // result too long

  0011e	e8 00 00 00 00	 call	 ?_Xlen_string@std@@YAXXZ ; std::_Xlen_string
$LN56@assign:
  00123	cc		 int	 3
?assign@?$basic_string@DU?$char_traits@D@std@@V?$allocator@D@2@@std@@QAEAAV12@QBDI@Z ENDP ; std::basic_string<char,std::char_traits<char>,std::allocator<char> >::assign
_TEXT	ENDS
; Function compile flags: /Ogtp
; File D:\visual studio 2019\visual studio 2019\VC\Tools\MSVC\14.29.30133\include\xstring
; File D:\visual studio 2019\visual studio 2019\VC\Tools\MSVC\14.29.30133\include\xmemory
; File D:\visual studio 2019\visual studio 2019\VC\Tools\MSVC\14.29.30133\include\xstring
; File D:\visual studio 2019\visual studio 2019\VC\Tools\MSVC\14.29.30133\include\xmemory
; File D:\visual studio 2019\visual studio 2019\VC\Tools\MSVC\14.29.30133\include\xstring
; File D:\visual studio 2019\visual studio 2019\VC\Tools\MSVC\14.29.30133\include\xmemory
; File D:\visual studio 2019\visual studio 2019\VC\Tools\MSVC\14.29.30133\include\xstring
;	COMDAT ??1?$basic_string@DU?$char_traits@D@std@@V?$allocator@D@2@@std@@QAE@XZ
_TEXT	SEGMENT
??1?$basic_string@DU?$char_traits@D@std@@V?$allocator@D@2@@std@@QAE@XZ PROC ; std::basic_string<char,std::char_traits<char>,std::allocator<char> >::~basic_string<char,std::char_traits<char>,std::allocator<char> >, COMDAT
; _this$ = ecx

; 2968 :     _CONSTEXPR20_CONTAINER ~basic_string() noexcept {

  00000	56		 push	 esi
  00001	8b f1		 mov	 esi, ecx

; 2286 :         return _BUF_SIZE <= _Myres;

  00003	8b 4e 14	 mov	 ecx, DWORD PTR [esi+20]
  00006	83 f9 10	 cmp	 ecx, 16			; 00000010H

; 4584 :         if (_Mypair._Myval2._Large_string_engaged()) {

  00009	72 27		 jb	 SHORT $LN12@basic_stri
; File D:\visual studio 2019\visual studio 2019\VC\Tools\MSVC\14.29.30133\include\xmemory

; 797  :         _Deallocate<_New_alignof<_Ty>>(_Ptr, sizeof(_Ty) * _Count);

  0000b	8b 06		 mov	 eax, DWORD PTR [esi]
; File D:\visual studio 2019\visual studio 2019\VC\Tools\MSVC\14.29.30133\include\xstring

; 4588 :             _Al.deallocate(_Ptr, _Mypair._Myval2._Myres + 1);

  0000d	41		 inc	 ecx
; File D:\visual studio 2019\visual studio 2019\VC\Tools\MSVC\14.29.30133\include\xmemory

; 251  :         if (_Bytes >= _Big_allocation_threshold) { // boost the alignment of big allocations to help autovectorization

  0000e	81 f9 00 10 00
	00		 cmp	 ecx, 4096		; 00001000H
  00014	72 12		 jb	 SHORT $LN22@basic_stri

; 150  :     const uintptr_t _Ptr_container   = _Ptr_user[-1];

  00016	8b 50 fc	 mov	 edx, DWORD PTR [eax-4]
  00019	83 c1 23	 add	 ecx, 35			; 00000023H

; 151  : 
; 152  :     // If the following asserts, it likely means that we are performing
; 153  :     // an aligned delete on memory coming from an unaligned allocation.
; 154  :     _STL_ASSERT(_Ptr_user[-2] == _Big_allocation_sentinel, "invalid argument");
; 155  : 
; 156  :     // Extra paranoia on aligned allocation/deallocation; ensure _Ptr_container is
; 157  :     // in range [_Min_back_shift, _Non_user_size]
; 158  : #ifdef _DEBUG
; 159  :     constexpr uintptr_t _Min_back_shift = 2 * sizeof(void*);
; 160  : #else // ^^^ _DEBUG ^^^ // vvv !_DEBUG vvv
; 161  :     constexpr uintptr_t _Min_back_shift = sizeof(void*);
; 162  : #endif // _DEBUG
; 163  :     const uintptr_t _Back_shift = reinterpret_cast<uintptr_t>(_Ptr) - _Ptr_container;

  0001c	2b c2		 sub	 eax, edx

; 164  :     _STL_VERIFY(_Back_shift >= _Min_back_shift && _Back_shift <= _Non_user_size, "invalid argument");

  0001e	83 c0 fc	 add	 eax, -4			; fffffffcH
  00021	83 f8 1f	 cmp	 eax, 31			; 0000001fH
  00024	77 1f		 ja	 SHORT $LN19@basic_stri

; 165  :     _Ptr = reinterpret_cast<void*>(_Ptr_container);

  00026	8b c2		 mov	 eax, edx
$LN22@basic_stri:

; 255  :         ::operator delete(_Ptr, _Bytes);

  00028	51		 push	 ecx
  00029	50		 push	 eax
  0002a	e8 00 00 00 00	 call	 ??3@YAXPAXI@Z		; operator delete
  0002f	83 c4 08	 add	 esp, 8
$LN12@basic_stri:
; File D:\visual studio 2019\visual studio 2019\VC\Tools\MSVC\14.29.30133\include\xstring

; 4599 :             _Mypair._Myval2._Mysize = 0;

  00032	c7 46 10 00 00
	00 00		 mov	 DWORD PTR [esi+16], 0

; 4600 :             _Mypair._Myval2._Myres  = _BUF_SIZE - 1;

  00039	c7 46 14 0f 00
	00 00		 mov	 DWORD PTR [esi+20], 15	; 0000000fH

; 4601 :             // the _Traits::assign is last so the codegen doesn't think the char write can alias this
; 4602 :             _Traits::assign(_Mypair._Myval2._Bx._Buf[0], _Elem());

  00040	c6 06 00	 mov	 BYTE PTR [esi], 0
  00043	5e		 pop	 esi

; 2976 :     }

  00044	c3		 ret	 0
$LN19@basic_stri:
; File D:\visual studio 2019\visual studio 2019\VC\Tools\MSVC\14.29.30133\include\xmemory

; 164  :     _STL_VERIFY(_Back_shift >= _Min_back_shift && _Back_shift <= _Non_user_size, "invalid argument");

  00045	e8 00 00 00 00	 call	 __invalid_parameter_noinfo_noreturn
$LN27@basic_stri:
  0004a	cc		 int	 3
??1?$basic_string@DU?$char_traits@D@std@@V?$allocator@D@2@@std@@QAE@XZ ENDP ; std::basic_string<char,std::char_traits<char>,std::allocator<char> >::~basic_string<char,std::char_traits<char>,std::allocator<char> >
_TEXT	ENDS
; Function compile flags: /Ogtp
; File D:\visual studio 2019\visual studio 2019\VC\Tools\MSVC\14.29.30133\include\xstring
;	COMDAT ?_Xlen_string@std@@YAXXZ
_TEXT	SEGMENT
?_Xlen_string@std@@YAXXZ PROC				; std::_Xlen_string, COMDAT

; 2340 :     _Xlength_error("string too long");

  00000	68 00 00 00 00	 push	 OFFSET ??_C@_0BA@JFNIOLAK@string?5too?5long@
  00005	e8 00 00 00 00	 call	 ?_Xlength_error@std@@YAXPBD@Z ; std::_Xlength_error
$LN3@Xlen_strin:
  0000a	cc		 int	 3
?_Xlen_string@std@@YAXXZ ENDP				; std::_Xlen_string
_TEXT	ENDS
; Function compile flags: /Ogtp
; File D:\visual studio 2019\visual studio 2019\VC\Tools\MSVC\14.29.30133\include\exception
;	COMDAT ?_Throw_bad_array_new_length@std@@YAXXZ
_TEXT	SEGMENT
$T1 = -12						; size = 12
?_Throw_bad_array_new_length@std@@YAXXZ PROC		; std::_Throw_bad_array_new_length, COMDAT

; 315  : [[noreturn]] inline void _Throw_bad_array_new_length() {

  00000	55		 push	 ebp
  00001	8b ec		 mov	 ebp, esp
  00003	83 ec 0c	 sub	 esp, 12			; 0000000cH

; 316  :     _THROW(bad_array_new_length{});

  00006	8d 4d f4	 lea	 ecx, DWORD PTR $T1[ebp]
  00009	e8 00 00 00 00	 call	 ??0bad_array_new_length@std@@QAE@XZ ; std::bad_array_new_length::bad_array_new_length
  0000e	68 00 00 00 00	 push	 OFFSET __TI3?AVbad_array_new_length@std@@
  00013	8d 45 f4	 lea	 eax, DWORD PTR $T1[ebp]
  00016	50		 push	 eax
  00017	e8 00 00 00 00	 call	 __CxxThrowException@8
$LN3@Throw_bad_:
  0001c	cc		 int	 3
?_Throw_bad_array_new_length@std@@YAXXZ ENDP		; std::_Throw_bad_array_new_length
_TEXT	ENDS
; Function compile flags: /Ogtp
; File D:\visual studio 2019\visual studio 2019\VC\Tools\MSVC\14.29.30133\include\vcruntime_exception.h
;	COMDAT ??_Gbad_array_new_length@std@@UAEPAXI@Z
_TEXT	SEGMENT
___flags$ = 8						; size = 4
??_Gbad_array_new_length@std@@UAEPAXI@Z PROC		; std::bad_array_new_length::`scalar deleting destructor', COMDAT
; _this$ = ecx
  00000	55		 push	 ebp
  00001	8b ec		 mov	 ebp, esp

; 89   :     {

  00003	56		 push	 esi
  00004	8b f1		 mov	 esi, ecx

; 90   :         __std_exception_destroy(&_Data);

  00006	8d 46 04	 lea	 eax, DWORD PTR [esi+4]
  00009	c7 06 00 00 00
	00		 mov	 DWORD PTR [esi], OFFSET ??_7exception@std@@6B@
  0000f	50		 push	 eax
  00010	e8 00 00 00 00	 call	 ___std_exception_destroy
  00015	83 c4 04	 add	 esp, 4
  00018	f6 45 08 01	 test	 BYTE PTR ___flags$[ebp], 1
  0001c	74 0b		 je	 SHORT $LN12@scalar
  0001e	6a 0c		 push	 12			; 0000000cH
  00020	56		 push	 esi
  00021	e8 00 00 00 00	 call	 ??3@YAXPAXI@Z		; operator delete
  00026	83 c4 08	 add	 esp, 8
$LN12@scalar:
  00029	8b c6		 mov	 eax, esi
  0002b	5e		 pop	 esi
  0002c	5d		 pop	 ebp
  0002d	c2 04 00	 ret	 4
??_Gbad_array_new_length@std@@UAEPAXI@Z ENDP		; std::bad_array_new_length::`scalar deleting destructor'
_TEXT	ENDS
; Function compile flags: /Ogtp
; File D:\visual studio 2019\visual studio 2019\VC\Tools\MSVC\14.29.30133\include\vcruntime_exception.h
;	COMDAT ??0bad_array_new_length@std@@QAE@ABV01@@Z
_TEXT	SEGMENT
___that$ = 8						; size = 4
??0bad_array_new_length@std@@QAE@ABV01@@Z PROC		; std::bad_array_new_length::bad_array_new_length, COMDAT
; _this$ = ecx
  00000	55		 push	 ebp
  00001	8b ec		 mov	 ebp, esp

; 72   :     {

  00003	56		 push	 esi
  00004	8b f1		 mov	 esi, ecx
  00006	0f 57 c0	 xorps	 xmm0, xmm0

; 71   :         : _Data()

  00009	8d 46 04	 lea	 eax, DWORD PTR [esi+4]

; 73   :         __std_exception_copy(&_Other._Data, &_Data);

  0000c	50		 push	 eax
  0000d	c7 06 00 00 00
	00		 mov	 DWORD PTR [esi], OFFSET ??_7exception@std@@6B@
  00013	66 0f d6 00	 movq	 QWORD PTR [eax], xmm0
  00017	8b 45 08	 mov	 eax, DWORD PTR ___that$[ebp]
  0001a	83 c0 04	 add	 eax, 4
  0001d	50		 push	 eax
  0001e	e8 00 00 00 00	 call	 ___std_exception_copy
  00023	83 c4 08	 add	 esp, 8
  00026	c7 06 00 00 00
	00		 mov	 DWORD PTR [esi], OFFSET ??_7bad_array_new_length@std@@6B@
  0002c	8b c6		 mov	 eax, esi
  0002e	5e		 pop	 esi
  0002f	5d		 pop	 ebp
  00030	c2 04 00	 ret	 4
??0bad_array_new_length@std@@QAE@ABV01@@Z ENDP		; std::bad_array_new_length::bad_array_new_length
_TEXT	ENDS
; Function compile flags: /Ogtp
; File D:\visual studio 2019\visual studio 2019\VC\Tools\MSVC\14.29.30133\include\vcruntime_exception.h
;	COMDAT ??1bad_array_new_length@std@@UAE@XZ
_TEXT	SEGMENT
??1bad_array_new_length@std@@UAE@XZ PROC		; std::bad_array_new_length::~bad_array_new_length, COMDAT
; _this$ = ecx

; 90   :         __std_exception_destroy(&_Data);

  00000	8d 41 04	 lea	 eax, DWORD PTR [ecx+4]
  00003	c7 01 00 00 00
	00		 mov	 DWORD PTR [ecx], OFFSET ??_7exception@std@@6B@
  00009	50		 push	 eax
  0000a	e8 00 00 00 00	 call	 ___std_exception_destroy
  0000f	59		 pop	 ecx
  00010	c3		 ret	 0
??1bad_array_new_length@std@@UAE@XZ ENDP		; std::bad_array_new_length::~bad_array_new_length
_TEXT	ENDS
; Function compile flags: /Ogtp
; File D:\visual studio 2019\visual studio 2019\VC\Tools\MSVC\14.29.30133\include\vcruntime_exception.h
;	COMDAT ??0bad_array_new_length@std@@QAE@XZ
_TEXT	SEGMENT
??0bad_array_new_length@std@@QAE@XZ PROC		; std::bad_array_new_length::bad_array_new_length, COMDAT
; _this$ = ecx

; 141  :     {

  00000	0f 57 c0	 xorps	 xmm0, xmm0

; 142  :     }

  00003	8b c1		 mov	 eax, ecx

; 65   :         : _Data()

  00005	66 0f d6 41 04	 movq	 QWORD PTR [ecx+4], xmm0

; 66   :     {
; 67   :         _Data._What = _Message;

  0000a	c7 41 04 00 00
	00 00		 mov	 DWORD PTR [ecx+4], OFFSET ??_C@_0BF@KINCDENJ@bad?5array?5new?5length@

; 141  :     {

  00011	c7 01 00 00 00
	00		 mov	 DWORD PTR [ecx], OFFSET ??_7bad_array_new_length@std@@6B@

; 142  :     }

  00017	c3		 ret	 0
??0bad_array_new_length@std@@QAE@XZ ENDP		; std::bad_array_new_length::bad_array_new_length
_TEXT	ENDS
; Function compile flags: /Ogtp
; File D:\visual studio 2019\visual studio 2019\VC\Tools\MSVC\14.29.30133\include\vcruntime_exception.h
;	COMDAT ??_Gbad_alloc@std@@UAEPAXI@Z
_TEXT	SEGMENT
___flags$ = 8						; size = 4
??_Gbad_alloc@std@@UAEPAXI@Z PROC			; std::bad_alloc::`scalar deleting destructor', COMDAT
; _this$ = ecx
  00000	55		 push	 ebp
  00001	8b ec		 mov	 ebp, esp

; 89   :     {

  00003	56		 push	 esi
  00004	8b f1		 mov	 esi, ecx

; 90   :         __std_exception_destroy(&_Data);

  00006	8d 46 04	 lea	 eax, DWORD PTR [esi+4]
  00009	c7 06 00 00 00
	00		 mov	 DWORD PTR [esi], OFFSET ??_7exception@std@@6B@
  0000f	50		 push	 eax
  00010	e8 00 00 00 00	 call	 ___std_exception_destroy
  00015	83 c4 04	 add	 esp, 4
  00018	f6 45 08 01	 test	 BYTE PTR ___flags$[ebp], 1
  0001c	74 0b		 je	 SHORT $LN9@scalar
  0001e	6a 0c		 push	 12			; 0000000cH
  00020	56		 push	 esi
  00021	e8 00 00 00 00	 call	 ??3@YAXPAXI@Z		; operator delete
  00026	83 c4 08	 add	 esp, 8
$LN9@scalar:
  00029	8b c6		 mov	 eax, esi
  0002b	5e		 pop	 esi
  0002c	5d		 pop	 ebp
  0002d	c2 04 00	 ret	 4
??_Gbad_alloc@std@@UAEPAXI@Z ENDP			; std::bad_alloc::`scalar deleting destructor'
_TEXT	ENDS
; Function compile flags: /Ogtp
; File D:\visual studio 2019\visual studio 2019\VC\Tools\MSVC\14.29.30133\include\vcruntime_exception.h
;	COMDAT ??0bad_alloc@std@@QAE@ABV01@@Z
_TEXT	SEGMENT
___that$ = 8						; size = 4
??0bad_alloc@std@@QAE@ABV01@@Z PROC			; std::bad_alloc::bad_alloc, COMDAT
; _this$ = ecx
  00000	55		 push	 ebp
  00001	8b ec		 mov	 ebp, esp

; 72   :     {

  00003	56		 push	 esi
  00004	8b f1		 mov	 esi, ecx
  00006	0f 57 c0	 xorps	 xmm0, xmm0

; 71   :         : _Data()

  00009	8d 46 04	 lea	 eax, DWORD PTR [esi+4]

; 73   :         __std_exception_copy(&_Other._Data, &_Data);

  0000c	50		 push	 eax
  0000d	c7 06 00 00 00
	00		 mov	 DWORD PTR [esi], OFFSET ??_7exception@std@@6B@
  00013	66 0f d6 00	 movq	 QWORD PTR [eax], xmm0
  00017	8b 45 08	 mov	 eax, DWORD PTR ___that$[ebp]
  0001a	83 c0 04	 add	 eax, 4
  0001d	50		 push	 eax
  0001e	e8 00 00 00 00	 call	 ___std_exception_copy
  00023	83 c4 08	 add	 esp, 8
  00026	c7 06 00 00 00
	00		 mov	 DWORD PTR [esi], OFFSET ??_7bad_alloc@std@@6B@
  0002c	8b c6		 mov	 eax, esi
  0002e	5e		 pop	 esi
  0002f	5d		 pop	 ebp
  00030	c2 04 00	 ret	 4
??0bad_alloc@std@@QAE@ABV01@@Z ENDP			; std::bad_alloc::bad_alloc
_TEXT	ENDS
; Function compile flags: /Ogtp
; File D:\visual studio 2019\visual studio 2019\VC\Tools\MSVC\14.29.30133\include\vcruntime_exception.h
;	COMDAT ??_Gexception@std@@UAEPAXI@Z
_TEXT	SEGMENT
___flags$ = 8						; size = 4
??_Gexception@std@@UAEPAXI@Z PROC			; std::exception::`scalar deleting destructor', COMDAT
; _this$ = ecx
  00000	55		 push	 ebp
  00001	8b ec		 mov	 ebp, esp

; 89   :     {

  00003	56		 push	 esi
  00004	8b f1		 mov	 esi, ecx

; 90   :         __std_exception_destroy(&_Data);

  00006	8d 46 04	 lea	 eax, DWORD PTR [esi+4]
  00009	c7 06 00 00 00
	00		 mov	 DWORD PTR [esi], OFFSET ??_7exception@std@@6B@
  0000f	50		 push	 eax
  00010	e8 00 00 00 00	 call	 ___std_exception_destroy
  00015	83 c4 04	 add	 esp, 4
  00018	f6 45 08 01	 test	 BYTE PTR ___flags$[ebp], 1
  0001c	74 0b		 je	 SHORT $LN6@scalar
  0001e	6a 0c		 push	 12			; 0000000cH
  00020	56		 push	 esi
  00021	e8 00 00 00 00	 call	 ??3@YAXPAXI@Z		; operator delete
  00026	83 c4 08	 add	 esp, 8
$LN6@scalar:
  00029	8b c6		 mov	 eax, esi
  0002b	5e		 pop	 esi
  0002c	5d		 pop	 ebp
  0002d	c2 04 00	 ret	 4
??_Gexception@std@@UAEPAXI@Z ENDP			; std::exception::`scalar deleting destructor'
_TEXT	ENDS
; Function compile flags: /Ogtp
; File D:\visual studio 2019\visual studio 2019\VC\Tools\MSVC\14.29.30133\include\vcruntime_exception.h
;	COMDAT ?what@exception@std@@UBEPBDXZ
_TEXT	SEGMENT
?what@exception@std@@UBEPBDXZ PROC			; std::exception::what, COMDAT
; _this$ = ecx

; 95   :         return _Data._What ? _Data._What : "Unknown exception";

  00000	8b 49 04	 mov	 ecx, DWORD PTR [ecx+4]
  00003	b8 00 00 00 00	 mov	 eax, OFFSET ??_C@_0BC@EOODALEL@Unknown?5exception@
  00008	85 c9		 test	 ecx, ecx
  0000a	0f 45 c1	 cmovne	 eax, ecx

; 96   :     }

  0000d	c3		 ret	 0
?what@exception@std@@UBEPBDXZ ENDP			; std::exception::what
_TEXT	ENDS
; Function compile flags: /Ogtp
; File D:\visual studio 2019\visual studio 2019\VC\Tools\MSVC\14.29.30133\include\vcruntime_exception.h
;	COMDAT ??1exception@std@@UAE@XZ
_TEXT	SEGMENT
??1exception@std@@UAE@XZ PROC				; std::exception::~exception, COMDAT
; _this$ = ecx

; 90   :         __std_exception_destroy(&_Data);

  00000	8d 41 04	 lea	 eax, DWORD PTR [ecx+4]
  00003	c7 01 00 00 00
	00		 mov	 DWORD PTR [ecx], OFFSET ??_7exception@std@@6B@
  00009	50		 push	 eax
  0000a	e8 00 00 00 00	 call	 ___std_exception_destroy
  0000f	59		 pop	 ecx

; 91   :     }

  00010	c3		 ret	 0
??1exception@std@@UAE@XZ ENDP				; std::exception::~exception
_TEXT	ENDS
; Function compile flags: /Ogtp
; File D:\visual studio 2019\visual studio 2019\VC\Tools\MSVC\14.29.30133\include\vcruntime_exception.h
;	COMDAT ??0exception@std@@QAE@ABV01@@Z
_TEXT	SEGMENT
__Other$ = 8						; size = 4
??0exception@std@@QAE@ABV01@@Z PROC			; std::exception::exception, COMDAT
; _this$ = ecx

; 72   :     {

  00000	55		 push	 ebp
  00001	8b ec		 mov	 ebp, esp
  00003	56		 push	 esi
  00004	8b f1		 mov	 esi, ecx
  00006	0f 57 c0	 xorps	 xmm0, xmm0
  00009	8d 46 04	 lea	 eax, DWORD PTR [esi+4]

; 73   :         __std_exception_copy(&_Other._Data, &_Data);

  0000c	50		 push	 eax
  0000d	c7 06 00 00 00
	00		 mov	 DWORD PTR [esi], OFFSET ??_7exception@std@@6B@
  00013	66 0f d6 00	 movq	 QWORD PTR [eax], xmm0
  00017	8b 45 08	 mov	 eax, DWORD PTR __Other$[ebp]
  0001a	83 c0 04	 add	 eax, 4
  0001d	50		 push	 eax
  0001e	e8 00 00 00 00	 call	 ___std_exception_copy
  00023	83 c4 08	 add	 esp, 8

; 74   :     }

  00026	8b c6		 mov	 eax, esi
  00028	5e		 pop	 esi
  00029	5d		 pop	 ebp
  0002a	c2 04 00	 ret	 4
??0exception@std@@QAE@ABV01@@Z ENDP			; std::exception::exception
_TEXT	ENDS
; Function compile flags: /Ogtp
; File D:\Windows Kits\10\Include\10.0.19041.0\ucrt\stdio.h
;	COMDAT _sprintf
_TEXT	SEGMENT
__Buffer$ = 8						; size = 4
__Format$ = 12						; size = 4
_sprintf PROC						; COMDAT

; 1771 :     {

  00000	55		 push	 ebp
  00001	8b ec		 mov	 ebp, esp

; 1392 :         int const _Result = __stdio_common_vsprintf(

  00003	8d 45 10	 lea	 eax, DWORD PTR __Format$[ebp+4]
  00006	50		 push	 eax
  00007	6a 00		 push	 0
  00009	ff 75 0c	 push	 DWORD PTR __Format$[ebp]
  0000c	6a ff		 push	 -1
  0000e	ff 75 08	 push	 DWORD PTR __Buffer$[ebp]
  00011	e8 00 00 00 00	 call	 ___local_stdio_printf_options
  00016	8b 08		 mov	 ecx, DWORD PTR [eax]
  00018	ff 70 04	 push	 DWORD PTR [eax+4]
  0001b	83 c9 01	 or	 ecx, 1
  0001e	51		 push	 ecx
  0001f	e8 00 00 00 00	 call	 ___stdio_common_vsprintf

; 1393 :             _CRT_INTERNAL_LOCAL_PRINTF_OPTIONS | _CRT_INTERNAL_PRINTF_LEGACY_VSPRINTF_NULL_TERMINATION,
; 1394 :             _Buffer, _BufferCount, _Format, _Locale, _ArgList);
; 1395 : 
; 1396 :         return _Result < 0 ? -1 : _Result;

  00024	83 c9 ff	 or	 ecx, -1
  00027	83 c4 1c	 add	 esp, 28			; 0000001cH
  0002a	85 c0		 test	 eax, eax
  0002c	0f 48 c1	 cmovs	 eax, ecx

; 1772 :         int _Result;
; 1773 :         va_list _ArgList;
; 1774 :         __crt_va_start(_ArgList, _Format);
; 1775 : 
; 1776 :         _Result = _vsprintf_l(_Buffer, _Format, NULL, _ArgList);
; 1777 : 
; 1778 :         __crt_va_end(_ArgList);
; 1779 :         return _Result;
; 1780 :     }

  0002f	5d		 pop	 ebp
  00030	c3		 ret	 0
_sprintf ENDP
_TEXT	ENDS
; Function compile flags: /Ogtp
; File D:\Windows Kits\10\Include\10.0.19041.0\ucrt\corecrt_stdio_config.h
;	COMDAT ___local_stdio_printf_options
_TEXT	SEGMENT
___local_stdio_printf_options PROC			; COMDAT

; 91   :         static unsigned __int64 _OptionsStorage;
; 92   :         return &_OptionsStorage;

  00000	b8 00 00 00 00	 mov	 eax, OFFSET ?_OptionsStorage@?1??__local_stdio_printf_options@@9@4_KA ; `__local_stdio_printf_options'::`2'::_OptionsStorage

; 93   :     }

  00005	c3		 ret	 0
___local_stdio_printf_options ENDP
_TEXT	ENDS
; Function compile flags: /Ogtp
; File C:\Users\ALEXANDER\Desktop\Cliente\COPY_FISH_WON_NEW\Binario\Client\GameLib\ItemData.cpp
;	COMDAT ?__empty_global_delete@@YAXPAXI@Z
_TEXT	SEGMENT
___formal$ = 8						; size = 4
___formal$ = 12						; size = 4
?__empty_global_delete@@YAXPAXI@Z PROC			; __empty_global_delete, COMDAT

  00000	c2 00 00	 ret	 0
?__empty_global_delete@@YAXPAXI@Z ENDP			; __empty_global_delete
_TEXT	ENDS
; Function compile flags: /Ogtp
; File C:\Users\ALEXANDER\Desktop\Cliente\COPY_FISH_WON_NEW\Binario\Client\GameLib\ItemData.cpp
;	COMDAT ?__empty_global_delete@@YAXPAX@Z
_TEXT	SEGMENT
___formal$ = 8						; size = 4
?__empty_global_delete@@YAXPAX@Z PROC			; __empty_global_delete, COMDAT

  00000	c2 00 00	 ret	 0
?__empty_global_delete@@YAXPAX@Z ENDP			; __empty_global_delete
_TEXT	ENDS
; Function compile flags: /Ogtp
;	COMDAT ??_H@YGXPAXIIP6EPAX0@Z@Z
_TEXT	SEGMENT
___t$ = 8						; size = 4
___s$ = 12						; size = 4
___n$ = 16						; size = 4
___f$ = 20						; size = 4
??_H@YGXPAXIIP6EPAX0@Z@Z PROC				; `vector constructor iterator', COMDAT
  00000	55		 push	 ebp
  00001	8b ec		 mov	 ebp, esp
  00003	56		 push	 esi
  00004	8b 75 10	 mov	 esi, DWORD PTR ___n$[ebp]
  00007	85 f6		 test	 esi, esi
  00009	74 16		 je	 SHORT $LN6@vector
  0000b	53		 push	 ebx
  0000c	8b 5d 14	 mov	 ebx, DWORD PTR ___f$[ebp]
  0000f	57		 push	 edi
  00010	8b 7d 08	 mov	 edi, DWORD PTR ___t$[ebp]
$LL2@vector:
  00013	8b cf		 mov	 ecx, edi
  00015	ff d3		 call	 ebx
  00017	03 7d 0c	 add	 edi, DWORD PTR ___s$[ebp]
  0001a	83 ee 01	 sub	 esi, 1
  0001d	75 f4		 jne	 SHORT $LL2@vector
  0001f	5f		 pop	 edi
  00020	5b		 pop	 ebx
$LN6@vector:
  00021	5e		 pop	 esi
  00022	5d		 pop	 ebp
  00023	c2 10 00	 ret	 16			; 00000010H
??_H@YGXPAXIIP6EPAX0@Z@Z ENDP				; `vector constructor iterator'
_TEXT	ENDS
END
